ARM GAS  C:\Users\TECHCO~1\AppData\Local\Temp\ccimnBS9.s 			page 1


   1              		.cpu cortex-m0
   2              		.fpu softvfp
   3              		.eabi_attribute 20, 1
   4              		.eabi_attribute 21, 1
   5              		.eabi_attribute 23, 3
   6              		.eabi_attribute 24, 1
   7              		.eabi_attribute 25, 1
   8              		.eabi_attribute 26, 1
   9              		.eabi_attribute 30, 4
  10              		.eabi_attribute 34, 0
  11              		.eabi_attribute 18, 4
  12              		.code	16
  13              		.file	"Comm.c"
  14              		.text
  15              	.Ltext0:
  16              		.cfi_sections	.debug_frame
  17              		.section	.text.Comm_Init,"ax",%progbits
  18              		.align	1
  19              		.global	Comm_Init
  20              		.code	16
  21              		.thumb_func
  22              		.type	Comm_Init, %function
  23              	Comm_Init:
  24              	.LFB0:
  25              		.file 1 "Generated_Source\\PSoC4\\Comm.c"
   1:Generated_Source\PSoC4/Comm.c **** /***************************************************************************//**
   2:Generated_Source\PSoC4/Comm.c **** * \file Comm.c
   3:Generated_Source\PSoC4/Comm.c **** * \version 3.20
   4:Generated_Source\PSoC4/Comm.c **** *
   5:Generated_Source\PSoC4/Comm.c **** * \brief
   6:Generated_Source\PSoC4/Comm.c **** *  This file provides the source code to the API for the SCB Component.
   7:Generated_Source\PSoC4/Comm.c **** *
   8:Generated_Source\PSoC4/Comm.c **** * Note:
   9:Generated_Source\PSoC4/Comm.c **** *
  10:Generated_Source\PSoC4/Comm.c **** *******************************************************************************
  11:Generated_Source\PSoC4/Comm.c **** * \copyright
  12:Generated_Source\PSoC4/Comm.c **** * Copyright 2013-2016, Cypress Semiconductor Corporation.  All rights reserved.
  13:Generated_Source\PSoC4/Comm.c **** * You may use this file only in accordance with the license, terms, conditions,
  14:Generated_Source\PSoC4/Comm.c **** * disclaimers, and limitations in the end user license agreement accompanying
  15:Generated_Source\PSoC4/Comm.c **** * the software package with which this file was provided.
  16:Generated_Source\PSoC4/Comm.c **** *******************************************************************************/
  17:Generated_Source\PSoC4/Comm.c **** 
  18:Generated_Source\PSoC4/Comm.c **** #include "Comm_PVT.h"
  19:Generated_Source\PSoC4/Comm.c **** 
  20:Generated_Source\PSoC4/Comm.c **** #if (Comm_SCB_MODE_I2C_INC)
  21:Generated_Source\PSoC4/Comm.c ****     #include "Comm_I2C_PVT.h"
  22:Generated_Source\PSoC4/Comm.c **** #endif /* (Comm_SCB_MODE_I2C_INC) */
  23:Generated_Source\PSoC4/Comm.c **** 
  24:Generated_Source\PSoC4/Comm.c **** #if (Comm_SCB_MODE_EZI2C_INC)
  25:Generated_Source\PSoC4/Comm.c ****     #include "Comm_EZI2C_PVT.h"
  26:Generated_Source\PSoC4/Comm.c **** #endif /* (Comm_SCB_MODE_EZI2C_INC) */
  27:Generated_Source\PSoC4/Comm.c **** 
  28:Generated_Source\PSoC4/Comm.c **** #if (Comm_SCB_MODE_SPI_INC || Comm_SCB_MODE_UART_INC)
  29:Generated_Source\PSoC4/Comm.c ****     #include "Comm_SPI_UART_PVT.h"
  30:Generated_Source\PSoC4/Comm.c **** #endif /* (Comm_SCB_MODE_SPI_INC || Comm_SCB_MODE_UART_INC) */
  31:Generated_Source\PSoC4/Comm.c **** 
  32:Generated_Source\PSoC4/Comm.c **** 
ARM GAS  C:\Users\TECHCO~1\AppData\Local\Temp\ccimnBS9.s 			page 2


  33:Generated_Source\PSoC4/Comm.c **** /***************************************
  34:Generated_Source\PSoC4/Comm.c **** *    Run Time Configuration Vars
  35:Generated_Source\PSoC4/Comm.c **** ***************************************/
  36:Generated_Source\PSoC4/Comm.c **** 
  37:Generated_Source\PSoC4/Comm.c **** /* Stores internal component configuration for Unconfigured mode */
  38:Generated_Source\PSoC4/Comm.c **** #if (Comm_SCB_MODE_UNCONFIG_CONST_CFG)
  39:Generated_Source\PSoC4/Comm.c ****     /* Common configuration variables */
  40:Generated_Source\PSoC4/Comm.c ****     uint8 Comm_scbMode = Comm_SCB_MODE_UNCONFIG;
  41:Generated_Source\PSoC4/Comm.c ****     uint8 Comm_scbEnableWake;
  42:Generated_Source\PSoC4/Comm.c ****     uint8 Comm_scbEnableIntr;
  43:Generated_Source\PSoC4/Comm.c **** 
  44:Generated_Source\PSoC4/Comm.c ****     /* I2C configuration variables */
  45:Generated_Source\PSoC4/Comm.c ****     uint8 Comm_mode;
  46:Generated_Source\PSoC4/Comm.c ****     uint8 Comm_acceptAddr;
  47:Generated_Source\PSoC4/Comm.c **** 
  48:Generated_Source\PSoC4/Comm.c ****     /* SPI/UART configuration variables */
  49:Generated_Source\PSoC4/Comm.c ****     volatile uint8 * Comm_rxBuffer;
  50:Generated_Source\PSoC4/Comm.c ****     uint8  Comm_rxDataBits;
  51:Generated_Source\PSoC4/Comm.c ****     uint32 Comm_rxBufferSize;
  52:Generated_Source\PSoC4/Comm.c **** 
  53:Generated_Source\PSoC4/Comm.c ****     volatile uint8 * Comm_txBuffer;
  54:Generated_Source\PSoC4/Comm.c ****     uint8  Comm_txDataBits;
  55:Generated_Source\PSoC4/Comm.c ****     uint32 Comm_txBufferSize;
  56:Generated_Source\PSoC4/Comm.c **** 
  57:Generated_Source\PSoC4/Comm.c ****     /* EZI2C configuration variables */
  58:Generated_Source\PSoC4/Comm.c ****     uint8 Comm_numberOfAddr;
  59:Generated_Source\PSoC4/Comm.c ****     uint8 Comm_subAddrSize;
  60:Generated_Source\PSoC4/Comm.c **** #endif /* (Comm_SCB_MODE_UNCONFIG_CONST_CFG) */
  61:Generated_Source\PSoC4/Comm.c **** 
  62:Generated_Source\PSoC4/Comm.c **** 
  63:Generated_Source\PSoC4/Comm.c **** /***************************************
  64:Generated_Source\PSoC4/Comm.c **** *     Common SCB Vars
  65:Generated_Source\PSoC4/Comm.c **** ***************************************/
  66:Generated_Source\PSoC4/Comm.c **** /**
  67:Generated_Source\PSoC4/Comm.c **** * \addtogroup group_general
  68:Generated_Source\PSoC4/Comm.c **** * \{
  69:Generated_Source\PSoC4/Comm.c **** */
  70:Generated_Source\PSoC4/Comm.c **** 
  71:Generated_Source\PSoC4/Comm.c **** /** Comm_initVar indicates whether the Comm 
  72:Generated_Source\PSoC4/Comm.c **** *  component has been initialized. The variable is initialized to 0 
  73:Generated_Source\PSoC4/Comm.c **** *  and set to 1 the first time SCB_Start() is called. This allows 
  74:Generated_Source\PSoC4/Comm.c **** *  the component to restart without reinitialization after the first 
  75:Generated_Source\PSoC4/Comm.c **** *  call to the Comm_Start() routine.
  76:Generated_Source\PSoC4/Comm.c **** *
  77:Generated_Source\PSoC4/Comm.c **** *  If re-initialization of the component is required, then the 
  78:Generated_Source\PSoC4/Comm.c **** *  Comm_Init() function can be called before the 
  79:Generated_Source\PSoC4/Comm.c **** *  Comm_Start() or Comm_Enable() function.
  80:Generated_Source\PSoC4/Comm.c **** */
  81:Generated_Source\PSoC4/Comm.c **** uint8 Comm_initVar = 0u;
  82:Generated_Source\PSoC4/Comm.c **** 
  83:Generated_Source\PSoC4/Comm.c **** 
  84:Generated_Source\PSoC4/Comm.c **** #if (! (Comm_SCB_MODE_I2C_CONST_CFG || \
  85:Generated_Source\PSoC4/Comm.c ****         Comm_SCB_MODE_EZI2C_CONST_CFG))
  86:Generated_Source\PSoC4/Comm.c ****     /** This global variable stores TX interrupt sources after 
  87:Generated_Source\PSoC4/Comm.c ****     * Comm_Stop() is called. Only these TX interrupt sources 
  88:Generated_Source\PSoC4/Comm.c ****     * will be restored on a subsequent Comm_Enable() call.
  89:Generated_Source\PSoC4/Comm.c ****     */
ARM GAS  C:\Users\TECHCO~1\AppData\Local\Temp\ccimnBS9.s 			page 3


  90:Generated_Source\PSoC4/Comm.c ****     uint16 Comm_IntrTxMask = 0u;
  91:Generated_Source\PSoC4/Comm.c **** #endif /* (! (Comm_SCB_MODE_I2C_CONST_CFG || \
  92:Generated_Source\PSoC4/Comm.c ****               Comm_SCB_MODE_EZI2C_CONST_CFG)) */
  93:Generated_Source\PSoC4/Comm.c **** /** \} globals */
  94:Generated_Source\PSoC4/Comm.c **** 
  95:Generated_Source\PSoC4/Comm.c **** #if (Comm_SCB_IRQ_INTERNAL)
  96:Generated_Source\PSoC4/Comm.c **** #if !defined (CY_REMOVE_Comm_CUSTOM_INTR_HANDLER)
  97:Generated_Source\PSoC4/Comm.c ****     void (*Comm_customIntrHandler)(void) = NULL;
  98:Generated_Source\PSoC4/Comm.c **** #endif /* !defined (CY_REMOVE_Comm_CUSTOM_INTR_HANDLER) */
  99:Generated_Source\PSoC4/Comm.c **** #endif /* (Comm_SCB_IRQ_INTERNAL) */
 100:Generated_Source\PSoC4/Comm.c **** 
 101:Generated_Source\PSoC4/Comm.c **** 
 102:Generated_Source\PSoC4/Comm.c **** /***************************************
 103:Generated_Source\PSoC4/Comm.c **** *    Private Function Prototypes
 104:Generated_Source\PSoC4/Comm.c **** ***************************************/
 105:Generated_Source\PSoC4/Comm.c **** 
 106:Generated_Source\PSoC4/Comm.c **** static void Comm_ScbEnableIntr(void);
 107:Generated_Source\PSoC4/Comm.c **** static void Comm_ScbModeStop(void);
 108:Generated_Source\PSoC4/Comm.c **** static void Comm_ScbModePostEnable(void);
 109:Generated_Source\PSoC4/Comm.c **** 
 110:Generated_Source\PSoC4/Comm.c **** 
 111:Generated_Source\PSoC4/Comm.c **** /*******************************************************************************
 112:Generated_Source\PSoC4/Comm.c **** * Function Name: Comm_Init
 113:Generated_Source\PSoC4/Comm.c **** ****************************************************************************//**
 114:Generated_Source\PSoC4/Comm.c **** *
 115:Generated_Source\PSoC4/Comm.c **** *  Initializes the Comm component to operate in one of the selected
 116:Generated_Source\PSoC4/Comm.c **** *  configurations: I2C, SPI, UART or EZI2C.
 117:Generated_Source\PSoC4/Comm.c **** *  When the configuration is set to "Unconfigured SCB", this function does
 118:Generated_Source\PSoC4/Comm.c **** *  not do any initialization. Use mode-specific initialization APIs instead:
 119:Generated_Source\PSoC4/Comm.c **** *  Comm_I2CInit, Comm_SpiInit, 
 120:Generated_Source\PSoC4/Comm.c **** *  Comm_UartInit or Comm_EzI2CInit.
 121:Generated_Source\PSoC4/Comm.c **** *
 122:Generated_Source\PSoC4/Comm.c **** *******************************************************************************/
 123:Generated_Source\PSoC4/Comm.c **** void Comm_Init(void)
 124:Generated_Source\PSoC4/Comm.c **** {
  26              		.loc 1 124 0
  27              		.cfi_startproc
 125:Generated_Source\PSoC4/Comm.c **** #if (Comm_SCB_MODE_UNCONFIG_CONST_CFG)
 126:Generated_Source\PSoC4/Comm.c ****     if (Comm_SCB_MODE_UNCONFIG_RUNTM_CFG)
  28              		.loc 1 126 0
  29 0000 034B     		ldr	r3, .L4
  30 0002 1B78     		ldrb	r3, [r3]
  31 0004 FF2B     		cmp	r3, #255
  32 0006 02D1     		bne	.L1
 127:Generated_Source\PSoC4/Comm.c ****     {
 128:Generated_Source\PSoC4/Comm.c ****         Comm_initVar = 0u;
  33              		.loc 1 128 0
  34 0008 0022     		mov	r2, #0
  35 000a 024B     		ldr	r3, .L4+4
  36 000c 1A70     		strb	r2, [r3]
  37              	.L1:
 129:Generated_Source\PSoC4/Comm.c ****     }
 130:Generated_Source\PSoC4/Comm.c ****     else
 131:Generated_Source\PSoC4/Comm.c ****     {
 132:Generated_Source\PSoC4/Comm.c ****         /* Initialization was done before this function call */
 133:Generated_Source\PSoC4/Comm.c ****     }
 134:Generated_Source\PSoC4/Comm.c **** 
ARM GAS  C:\Users\TECHCO~1\AppData\Local\Temp\ccimnBS9.s 			page 4


 135:Generated_Source\PSoC4/Comm.c **** #elif (Comm_SCB_MODE_I2C_CONST_CFG)
 136:Generated_Source\PSoC4/Comm.c ****     Comm_I2CInit();
 137:Generated_Source\PSoC4/Comm.c **** 
 138:Generated_Source\PSoC4/Comm.c **** #elif (Comm_SCB_MODE_SPI_CONST_CFG)
 139:Generated_Source\PSoC4/Comm.c ****     Comm_SpiInit();
 140:Generated_Source\PSoC4/Comm.c **** 
 141:Generated_Source\PSoC4/Comm.c **** #elif (Comm_SCB_MODE_UART_CONST_CFG)
 142:Generated_Source\PSoC4/Comm.c ****     Comm_UartInit();
 143:Generated_Source\PSoC4/Comm.c **** 
 144:Generated_Source\PSoC4/Comm.c **** #elif (Comm_SCB_MODE_EZI2C_CONST_CFG)
 145:Generated_Source\PSoC4/Comm.c ****     Comm_EzI2CInit();
 146:Generated_Source\PSoC4/Comm.c **** 
 147:Generated_Source\PSoC4/Comm.c **** #endif /* (Comm_SCB_MODE_UNCONFIG_CONST_CFG) */
 148:Generated_Source\PSoC4/Comm.c **** }
  38              		.loc 1 148 0
  39              		@ sp needed
  40 000e 7047     		bx	lr
  41              	.L5:
  42              		.align	2
  43              	.L4:
  44 0010 00000000 		.word	.LANCHOR0
  45 0014 00000000 		.word	.LANCHOR1
  46              		.cfi_endproc
  47              	.LFE0:
  48              		.size	Comm_Init, .-Comm_Init
  49              		.section	.text.Comm_Enable,"ax",%progbits
  50              		.align	1
  51              		.global	Comm_Enable
  52              		.code	16
  53              		.thumb_func
  54              		.type	Comm_Enable, %function
  55              	Comm_Enable:
  56              	.LFB1:
 149:Generated_Source\PSoC4/Comm.c **** 
 150:Generated_Source\PSoC4/Comm.c **** 
 151:Generated_Source\PSoC4/Comm.c **** /*******************************************************************************
 152:Generated_Source\PSoC4/Comm.c **** * Function Name: Comm_Enable
 153:Generated_Source\PSoC4/Comm.c **** ****************************************************************************//**
 154:Generated_Source\PSoC4/Comm.c **** *
 155:Generated_Source\PSoC4/Comm.c **** *  Enables Comm component operation: activates the hardware and 
 156:Generated_Source\PSoC4/Comm.c **** *  internal interrupt. It also restores TX interrupt sources disabled after the 
 157:Generated_Source\PSoC4/Comm.c **** *  Comm_Stop() function was called (note that level-triggered TX 
 158:Generated_Source\PSoC4/Comm.c **** *  interrupt sources remain disabled to not cause code lock-up).
 159:Generated_Source\PSoC4/Comm.c **** *  For I2C and EZI2C modes the interrupt is internal and mandatory for 
 160:Generated_Source\PSoC4/Comm.c **** *  operation. For SPI and UART modes the interrupt can be configured as none, 
 161:Generated_Source\PSoC4/Comm.c **** *  internal or external.
 162:Generated_Source\PSoC4/Comm.c **** *  The Comm configuration should be not changed when the component
 163:Generated_Source\PSoC4/Comm.c **** *  is enabled. Any configuration changes should be made after disabling the 
 164:Generated_Source\PSoC4/Comm.c **** *  component.
 165:Generated_Source\PSoC4/Comm.c **** *  When configuration is set to “Unconfigured Comm”, the component 
 166:Generated_Source\PSoC4/Comm.c **** *  must first be initialized to operate in one of the following configurations: 
 167:Generated_Source\PSoC4/Comm.c **** *  I2C, SPI, UART or EZ I2C, using the mode-specific initialization API. 
 168:Generated_Source\PSoC4/Comm.c **** *  Otherwise this function does not enable the component.
 169:Generated_Source\PSoC4/Comm.c **** *
 170:Generated_Source\PSoC4/Comm.c **** *******************************************************************************/
 171:Generated_Source\PSoC4/Comm.c **** void Comm_Enable(void)
 172:Generated_Source\PSoC4/Comm.c **** {
ARM GAS  C:\Users\TECHCO~1\AppData\Local\Temp\ccimnBS9.s 			page 5


  57              		.loc 1 172 0
  58              		.cfi_startproc
  59 0000 10B5     		push	{r4, lr}
  60              		.cfi_def_cfa_offset 8
  61              		.cfi_offset 4, -8
  62              		.cfi_offset 14, -4
 173:Generated_Source\PSoC4/Comm.c **** #if (Comm_SCB_MODE_UNCONFIG_CONST_CFG)
 174:Generated_Source\PSoC4/Comm.c ****     /* Enable SCB block, only if it is already configured */
 175:Generated_Source\PSoC4/Comm.c ****     if (!Comm_SCB_MODE_UNCONFIG_RUNTM_CFG)
  63              		.loc 1 175 0
  64 0002 0E4B     		ldr	r3, .L15
  65 0004 1A78     		ldrb	r2, [r3]
  66 0006 1C1C     		mov	r4, r3
  67 0008 FF2A     		cmp	r2, #255
  68 000a 16D0     		beq	.L6
  69              	.LBB8:
 176:Generated_Source\PSoC4/Comm.c ****     {
 177:Generated_Source\PSoC4/Comm.c ****         Comm_CTRL_REG |= Comm_CTRL_ENABLED;
  70              		.loc 1 177 0
  71 000c 8021     		mov	r1, #128
  72 000e 0C4A     		ldr	r2, .L15+4
  73 0010 0906     		lsl	r1, r1, #24
  74 0012 1368     		ldr	r3, [r2]
  75 0014 0B43     		orr	r3, r1
  76 0016 1360     		str	r3, [r2]
  77              	.LBB9:
  78              	.LBB10:
 178:Generated_Source\PSoC4/Comm.c **** 
 179:Generated_Source\PSoC4/Comm.c ****         Comm_ScbEnableIntr();
 180:Generated_Source\PSoC4/Comm.c **** 
 181:Generated_Source\PSoC4/Comm.c ****         /* Call PostEnable function specific to current operation mode */
 182:Generated_Source\PSoC4/Comm.c ****         Comm_ScbModePostEnable();
 183:Generated_Source\PSoC4/Comm.c ****     }
 184:Generated_Source\PSoC4/Comm.c **** #else
 185:Generated_Source\PSoC4/Comm.c ****     Comm_CTRL_REG |= Comm_CTRL_ENABLED;
 186:Generated_Source\PSoC4/Comm.c **** 
 187:Generated_Source\PSoC4/Comm.c ****     Comm_ScbEnableIntr();
 188:Generated_Source\PSoC4/Comm.c **** 
 189:Generated_Source\PSoC4/Comm.c ****     /* Call PostEnable function specific to current operation mode */
 190:Generated_Source\PSoC4/Comm.c ****     Comm_ScbModePostEnable();
 191:Generated_Source\PSoC4/Comm.c **** #endif /* (Comm_SCB_MODE_UNCONFIG_CONST_CFG) */
 192:Generated_Source\PSoC4/Comm.c **** }
 193:Generated_Source\PSoC4/Comm.c **** 
 194:Generated_Source\PSoC4/Comm.c **** 
 195:Generated_Source\PSoC4/Comm.c **** /*******************************************************************************
 196:Generated_Source\PSoC4/Comm.c **** * Function Name: Comm_Start
 197:Generated_Source\PSoC4/Comm.c **** ****************************************************************************//**
 198:Generated_Source\PSoC4/Comm.c **** *
 199:Generated_Source\PSoC4/Comm.c **** *  Invokes Comm_Init() and Comm_Enable().
 200:Generated_Source\PSoC4/Comm.c **** *  After this function call, the component is enabled and ready for operation.
 201:Generated_Source\PSoC4/Comm.c **** *  When configuration is set to "Unconfigured SCB", the component must first be
 202:Generated_Source\PSoC4/Comm.c **** *  initialized to operate in one of the following configurations: I2C, SPI, UART
 203:Generated_Source\PSoC4/Comm.c **** *  or EZI2C. Otherwise this function does not enable the component.
 204:Generated_Source\PSoC4/Comm.c **** *
 205:Generated_Source\PSoC4/Comm.c **** * \globalvars
 206:Generated_Source\PSoC4/Comm.c **** *  Comm_initVar - used to check initial configuration, modified
 207:Generated_Source\PSoC4/Comm.c **** *  on first function call.
ARM GAS  C:\Users\TECHCO~1\AppData\Local\Temp\ccimnBS9.s 			page 6


 208:Generated_Source\PSoC4/Comm.c **** *
 209:Generated_Source\PSoC4/Comm.c **** *******************************************************************************/
 210:Generated_Source\PSoC4/Comm.c **** void Comm_Start(void)
 211:Generated_Source\PSoC4/Comm.c **** {
 212:Generated_Source\PSoC4/Comm.c ****     if (0u == Comm_initVar)
 213:Generated_Source\PSoC4/Comm.c ****     {
 214:Generated_Source\PSoC4/Comm.c ****         Comm_Init();
 215:Generated_Source\PSoC4/Comm.c ****         Comm_initVar = 1u; /* Component was initialized */
 216:Generated_Source\PSoC4/Comm.c ****     }
 217:Generated_Source\PSoC4/Comm.c **** 
 218:Generated_Source\PSoC4/Comm.c ****     Comm_Enable();
 219:Generated_Source\PSoC4/Comm.c **** }
 220:Generated_Source\PSoC4/Comm.c **** 
 221:Generated_Source\PSoC4/Comm.c **** 
 222:Generated_Source\PSoC4/Comm.c **** /*******************************************************************************
 223:Generated_Source\PSoC4/Comm.c **** * Function Name: Comm_Stop
 224:Generated_Source\PSoC4/Comm.c **** ****************************************************************************//**
 225:Generated_Source\PSoC4/Comm.c **** *
 226:Generated_Source\PSoC4/Comm.c **** *  Disables the Comm component: disable the hardware and internal 
 227:Generated_Source\PSoC4/Comm.c **** *  interrupt. It also disables all TX interrupt sources so as not to cause an 
 228:Generated_Source\PSoC4/Comm.c **** *  unexpected interrupt trigger because after the component is enabled, the 
 229:Generated_Source\PSoC4/Comm.c **** *  TX FIFO is empty.
 230:Generated_Source\PSoC4/Comm.c **** *  Refer to the function Comm_Enable() for the interrupt 
 231:Generated_Source\PSoC4/Comm.c **** *  configuration details.
 232:Generated_Source\PSoC4/Comm.c **** *  This function disables the SCB component without checking to see if 
 233:Generated_Source\PSoC4/Comm.c **** *  communication is in progress. Before calling this function it may be 
 234:Generated_Source\PSoC4/Comm.c **** *  necessary to check the status of communication to make sure communication 
 235:Generated_Source\PSoC4/Comm.c **** *  is complete. If this is not done then communication could be stopped mid 
 236:Generated_Source\PSoC4/Comm.c **** *  byte and corrupted data could result.
 237:Generated_Source\PSoC4/Comm.c **** *
 238:Generated_Source\PSoC4/Comm.c **** *******************************************************************************/
 239:Generated_Source\PSoC4/Comm.c **** void Comm_Stop(void)
 240:Generated_Source\PSoC4/Comm.c **** {
 241:Generated_Source\PSoC4/Comm.c **** #if (Comm_SCB_IRQ_INTERNAL)
 242:Generated_Source\PSoC4/Comm.c ****     Comm_DisableInt();
 243:Generated_Source\PSoC4/Comm.c **** #endif /* (Comm_SCB_IRQ_INTERNAL) */
 244:Generated_Source\PSoC4/Comm.c **** 
 245:Generated_Source\PSoC4/Comm.c ****     /* Call Stop function specific to current operation mode */
 246:Generated_Source\PSoC4/Comm.c ****     Comm_ScbModeStop();
 247:Generated_Source\PSoC4/Comm.c **** 
 248:Generated_Source\PSoC4/Comm.c ****     /* Disable SCB IP */
 249:Generated_Source\PSoC4/Comm.c ****     Comm_CTRL_REG &= (uint32) ~Comm_CTRL_ENABLED;
 250:Generated_Source\PSoC4/Comm.c **** 
 251:Generated_Source\PSoC4/Comm.c ****     /* Disable all TX interrupt sources so as not to cause an unexpected
 252:Generated_Source\PSoC4/Comm.c ****     * interrupt trigger after the component will be enabled because the 
 253:Generated_Source\PSoC4/Comm.c ****     * TX FIFO is empty.
 254:Generated_Source\PSoC4/Comm.c ****     * For SCB IP v0, it is critical as it does not mask-out interrupt
 255:Generated_Source\PSoC4/Comm.c ****     * sources when it is disabled. This can cause a code lock-up in the
 256:Generated_Source\PSoC4/Comm.c ****     * interrupt handler because TX FIFO cannot be loaded after the block
 257:Generated_Source\PSoC4/Comm.c ****     * is disabled.
 258:Generated_Source\PSoC4/Comm.c ****     */
 259:Generated_Source\PSoC4/Comm.c ****     Comm_SetTxInterruptMode(Comm_NO_INTR_SOURCES);
 260:Generated_Source\PSoC4/Comm.c **** 
 261:Generated_Source\PSoC4/Comm.c **** #if (Comm_SCB_IRQ_INTERNAL)
 262:Generated_Source\PSoC4/Comm.c ****     Comm_ClearPendingInt();
 263:Generated_Source\PSoC4/Comm.c **** #endif /* (Comm_SCB_IRQ_INTERNAL) */
 264:Generated_Source\PSoC4/Comm.c **** }
ARM GAS  C:\Users\TECHCO~1\AppData\Local\Temp\ccimnBS9.s 			page 7


 265:Generated_Source\PSoC4/Comm.c **** 
 266:Generated_Source\PSoC4/Comm.c **** 
 267:Generated_Source\PSoC4/Comm.c **** /*******************************************************************************
 268:Generated_Source\PSoC4/Comm.c **** * Function Name: Comm_SetRxFifoLevel
 269:Generated_Source\PSoC4/Comm.c **** ****************************************************************************//**
 270:Generated_Source\PSoC4/Comm.c **** *
 271:Generated_Source\PSoC4/Comm.c **** *  Sets level in the RX FIFO to generate a RX level interrupt.
 272:Generated_Source\PSoC4/Comm.c **** *  When the RX FIFO has more entries than the RX FIFO level an RX level
 273:Generated_Source\PSoC4/Comm.c **** *  interrupt request is generated.
 274:Generated_Source\PSoC4/Comm.c **** *
 275:Generated_Source\PSoC4/Comm.c **** *  \param level: Level in the RX FIFO to generate RX level interrupt.
 276:Generated_Source\PSoC4/Comm.c **** *   The range of valid level values is between 0 and RX FIFO depth - 1.
 277:Generated_Source\PSoC4/Comm.c **** *
 278:Generated_Source\PSoC4/Comm.c **** *******************************************************************************/
 279:Generated_Source\PSoC4/Comm.c **** void Comm_SetRxFifoLevel(uint32 level)
 280:Generated_Source\PSoC4/Comm.c **** {
 281:Generated_Source\PSoC4/Comm.c ****     uint32 rxFifoCtrl;
 282:Generated_Source\PSoC4/Comm.c **** 
 283:Generated_Source\PSoC4/Comm.c ****     rxFifoCtrl = Comm_RX_FIFO_CTRL_REG;
 284:Generated_Source\PSoC4/Comm.c **** 
 285:Generated_Source\PSoC4/Comm.c ****     rxFifoCtrl &= ((uint32) ~Comm_RX_FIFO_CTRL_TRIGGER_LEVEL_MASK); /* Clear level mask bits */
 286:Generated_Source\PSoC4/Comm.c ****     rxFifoCtrl |= ((uint32) (Comm_RX_FIFO_CTRL_TRIGGER_LEVEL_MASK & level));
 287:Generated_Source\PSoC4/Comm.c **** 
 288:Generated_Source\PSoC4/Comm.c ****     Comm_RX_FIFO_CTRL_REG = rxFifoCtrl;
 289:Generated_Source\PSoC4/Comm.c **** }
 290:Generated_Source\PSoC4/Comm.c **** 
 291:Generated_Source\PSoC4/Comm.c **** 
 292:Generated_Source\PSoC4/Comm.c **** /*******************************************************************************
 293:Generated_Source\PSoC4/Comm.c **** * Function Name: Comm_SetTxFifoLevel
 294:Generated_Source\PSoC4/Comm.c **** ****************************************************************************//**
 295:Generated_Source\PSoC4/Comm.c **** *
 296:Generated_Source\PSoC4/Comm.c **** *  Sets level in the TX FIFO to generate a TX level interrupt.
 297:Generated_Source\PSoC4/Comm.c **** *  When the TX FIFO has less entries than the TX FIFO level an TX level
 298:Generated_Source\PSoC4/Comm.c **** *  interrupt request is generated.
 299:Generated_Source\PSoC4/Comm.c **** *
 300:Generated_Source\PSoC4/Comm.c **** *  \param level: Level in the TX FIFO to generate TX level interrupt.
 301:Generated_Source\PSoC4/Comm.c **** *   The range of valid level values is between 0 and TX FIFO depth - 1.
 302:Generated_Source\PSoC4/Comm.c **** *
 303:Generated_Source\PSoC4/Comm.c **** *******************************************************************************/
 304:Generated_Source\PSoC4/Comm.c **** void Comm_SetTxFifoLevel(uint32 level)
 305:Generated_Source\PSoC4/Comm.c **** {
 306:Generated_Source\PSoC4/Comm.c ****     uint32 txFifoCtrl;
 307:Generated_Source\PSoC4/Comm.c **** 
 308:Generated_Source\PSoC4/Comm.c ****     txFifoCtrl = Comm_TX_FIFO_CTRL_REG;
 309:Generated_Source\PSoC4/Comm.c **** 
 310:Generated_Source\PSoC4/Comm.c ****     txFifoCtrl &= ((uint32) ~Comm_TX_FIFO_CTRL_TRIGGER_LEVEL_MASK); /* Clear level mask bits */
 311:Generated_Source\PSoC4/Comm.c ****     txFifoCtrl |= ((uint32) (Comm_TX_FIFO_CTRL_TRIGGER_LEVEL_MASK & level));
 312:Generated_Source\PSoC4/Comm.c **** 
 313:Generated_Source\PSoC4/Comm.c ****     Comm_TX_FIFO_CTRL_REG = txFifoCtrl;
 314:Generated_Source\PSoC4/Comm.c **** }
 315:Generated_Source\PSoC4/Comm.c **** 
 316:Generated_Source\PSoC4/Comm.c **** 
 317:Generated_Source\PSoC4/Comm.c **** #if (Comm_SCB_IRQ_INTERNAL)
 318:Generated_Source\PSoC4/Comm.c ****     /*******************************************************************************
 319:Generated_Source\PSoC4/Comm.c ****     * Function Name: Comm_SetCustomInterruptHandler
 320:Generated_Source\PSoC4/Comm.c ****     ****************************************************************************//**
 321:Generated_Source\PSoC4/Comm.c ****     *
ARM GAS  C:\Users\TECHCO~1\AppData\Local\Temp\ccimnBS9.s 			page 8


 322:Generated_Source\PSoC4/Comm.c ****     *  Registers a function to be called by the internal interrupt handler.
 323:Generated_Source\PSoC4/Comm.c ****     *  First the function that is registered is called, then the internal interrupt
 324:Generated_Source\PSoC4/Comm.c ****     *  handler performs any operation such as software buffer management functions
 325:Generated_Source\PSoC4/Comm.c ****     *  before the interrupt returns.  It is the user's responsibility not to break
 326:Generated_Source\PSoC4/Comm.c ****     *  the software buffer operations. Only one custom handler is supported, which
 327:Generated_Source\PSoC4/Comm.c ****     *  is the function provided by the most recent call.
 328:Generated_Source\PSoC4/Comm.c ****     *  At the initialization time no custom handler is registered.
 329:Generated_Source\PSoC4/Comm.c ****     *
 330:Generated_Source\PSoC4/Comm.c ****     *  \param func: Pointer to the function to register.
 331:Generated_Source\PSoC4/Comm.c ****     *        The value NULL indicates to remove the current custom interrupt
 332:Generated_Source\PSoC4/Comm.c ****     *        handler.
 333:Generated_Source\PSoC4/Comm.c ****     *
 334:Generated_Source\PSoC4/Comm.c ****     *******************************************************************************/
 335:Generated_Source\PSoC4/Comm.c ****     void Comm_SetCustomInterruptHandler(void (*func)(void))
 336:Generated_Source\PSoC4/Comm.c ****     {
 337:Generated_Source\PSoC4/Comm.c ****     #if !defined (CY_REMOVE_Comm_CUSTOM_INTR_HANDLER)
 338:Generated_Source\PSoC4/Comm.c ****         Comm_customIntrHandler = func; /* Register interrupt handler */
 339:Generated_Source\PSoC4/Comm.c ****     #else
 340:Generated_Source\PSoC4/Comm.c ****         if (NULL != func)
 341:Generated_Source\PSoC4/Comm.c ****         {
 342:Generated_Source\PSoC4/Comm.c ****             /* Suppress compiler warning */
 343:Generated_Source\PSoC4/Comm.c ****         }
 344:Generated_Source\PSoC4/Comm.c ****     #endif /* !defined (CY_REMOVE_Comm_CUSTOM_INTR_HANDLER) */
 345:Generated_Source\PSoC4/Comm.c ****     }
 346:Generated_Source\PSoC4/Comm.c **** #endif /* (Comm_SCB_IRQ_INTERNAL) */
 347:Generated_Source\PSoC4/Comm.c **** 
 348:Generated_Source\PSoC4/Comm.c **** 
 349:Generated_Source\PSoC4/Comm.c **** /*******************************************************************************
 350:Generated_Source\PSoC4/Comm.c **** * Function Name: Comm_ScbModeEnableIntr
 351:Generated_Source\PSoC4/Comm.c **** ****************************************************************************//**
 352:Generated_Source\PSoC4/Comm.c **** *
 353:Generated_Source\PSoC4/Comm.c **** *  Enables an interrupt for a specific mode.
 354:Generated_Source\PSoC4/Comm.c **** *
 355:Generated_Source\PSoC4/Comm.c **** *******************************************************************************/
 356:Generated_Source\PSoC4/Comm.c **** static void Comm_ScbEnableIntr(void)
 357:Generated_Source\PSoC4/Comm.c **** {
 358:Generated_Source\PSoC4/Comm.c **** #if (Comm_SCB_IRQ_INTERNAL)
 359:Generated_Source\PSoC4/Comm.c ****     /* Enable interrupt in NVIC */
 360:Generated_Source\PSoC4/Comm.c ****     #if (Comm_SCB_MODE_UNCONFIG_CONST_CFG)
 361:Generated_Source\PSoC4/Comm.c ****         if (0u != Comm_scbEnableIntr)
  79              		.loc 1 361 0
  80 0018 0A4B     		ldr	r3, .L15+8
  81 001a 1B78     		ldrb	r3, [r3]
  82 001c 002B     		cmp	r3, #0
  83 001e 02D0     		beq	.L9
 362:Generated_Source\PSoC4/Comm.c ****         {
 363:Generated_Source\PSoC4/Comm.c ****             Comm_EnableInt();
  84              		.loc 1 363 0
  85 0020 0A20     		mov	r0, #10
  86 0022 FFF7FEFF 		bl	CyIntEnable
  87              	.LVL0:
  88              	.L9:
  89              	.LBE10:
  90              	.LBE9:
  91              	.LBB11:
  92              	.LBB12:
 364:Generated_Source\PSoC4/Comm.c ****         }
ARM GAS  C:\Users\TECHCO~1\AppData\Local\Temp\ccimnBS9.s 			page 9


 365:Generated_Source\PSoC4/Comm.c **** 
 366:Generated_Source\PSoC4/Comm.c ****     #else
 367:Generated_Source\PSoC4/Comm.c ****         Comm_EnableInt();
 368:Generated_Source\PSoC4/Comm.c **** 
 369:Generated_Source\PSoC4/Comm.c ****     #endif /* (Comm_SCB_MODE_UNCONFIG_CONST_CFG) */
 370:Generated_Source\PSoC4/Comm.c **** #endif /* (Comm_SCB_IRQ_INTERNAL) */
 371:Generated_Source\PSoC4/Comm.c **** }
 372:Generated_Source\PSoC4/Comm.c **** 
 373:Generated_Source\PSoC4/Comm.c **** 
 374:Generated_Source\PSoC4/Comm.c **** /*******************************************************************************
 375:Generated_Source\PSoC4/Comm.c **** * Function Name: Comm_ScbModePostEnable
 376:Generated_Source\PSoC4/Comm.c **** ****************************************************************************//**
 377:Generated_Source\PSoC4/Comm.c **** *
 378:Generated_Source\PSoC4/Comm.c **** *  Calls the PostEnable function for a specific operation mode.
 379:Generated_Source\PSoC4/Comm.c **** *
 380:Generated_Source\PSoC4/Comm.c **** *******************************************************************************/
 381:Generated_Source\PSoC4/Comm.c **** static void Comm_ScbModePostEnable(void)
 382:Generated_Source\PSoC4/Comm.c **** {
 383:Generated_Source\PSoC4/Comm.c **** #if (Comm_SCB_MODE_UNCONFIG_CONST_CFG)
 384:Generated_Source\PSoC4/Comm.c **** #if (!Comm_CY_SCBIP_V1)
 385:Generated_Source\PSoC4/Comm.c ****     if (Comm_SCB_MODE_SPI_RUNTM_CFG)
  93              		.loc 1 385 0
  94 0026 2378     		ldrb	r3, [r4]
  95 0028 022B     		cmp	r3, #2
  96 002a 02D1     		bne	.L10
 386:Generated_Source\PSoC4/Comm.c ****     {
 387:Generated_Source\PSoC4/Comm.c ****         Comm_SpiPostEnable();
  97              		.loc 1 387 0
  98 002c FFF7FEFF 		bl	Comm_SpiPostEnable
  99              	.LVL1:
 100 0030 03E0     		b	.L6
 101              	.L10:
 388:Generated_Source\PSoC4/Comm.c ****     }
 389:Generated_Source\PSoC4/Comm.c ****     else if (Comm_SCB_MODE_UART_RUNTM_CFG)
 102              		.loc 1 389 0
 103 0032 042B     		cmp	r3, #4
 104 0034 01D1     		bne	.L6
 390:Generated_Source\PSoC4/Comm.c ****     {
 391:Generated_Source\PSoC4/Comm.c ****         Comm_UartPostEnable();
 105              		.loc 1 391 0
 106 0036 FFF7FEFF 		bl	Comm_UartPostEnable
 107              	.LVL2:
 108              	.L6:
 109              	.LBE12:
 110              	.LBE11:
 111              	.LBE8:
 192:Generated_Source\PSoC4/Comm.c **** 
 112              		.loc 1 192 0
 113              		@ sp needed
 114 003a 10BD     		pop	{r4, pc}
 115              	.L16:
 116              		.align	2
 117              	.L15:
 118 003c 00000000 		.word	.LANCHOR0
 119 0040 00000640 		.word	1074135040
 120 0044 00000000 		.word	Comm_scbEnableIntr
 121              		.cfi_endproc
ARM GAS  C:\Users\TECHCO~1\AppData\Local\Temp\ccimnBS9.s 			page 10


 122              	.LFE1:
 123              		.size	Comm_Enable, .-Comm_Enable
 124              		.section	.text.Comm_Start,"ax",%progbits
 125              		.align	1
 126              		.global	Comm_Start
 127              		.code	16
 128              		.thumb_func
 129              		.type	Comm_Start, %function
 130              	Comm_Start:
 131              	.LFB2:
 211:Generated_Source\PSoC4/Comm.c ****     if (0u == Comm_initVar)
 132              		.loc 1 211 0
 133              		.cfi_startproc
 134 0000 10B5     		push	{r4, lr}
 135              		.cfi_def_cfa_offset 8
 136              		.cfi_offset 4, -8
 137              		.cfi_offset 14, -4
 212:Generated_Source\PSoC4/Comm.c ****     {
 138              		.loc 1 212 0
 139 0002 054C     		ldr	r4, .L19
 140 0004 2378     		ldrb	r3, [r4]
 141 0006 002B     		cmp	r3, #0
 142 0008 03D1     		bne	.L18
 214:Generated_Source\PSoC4/Comm.c ****         Comm_initVar = 1u; /* Component was initialized */
 143              		.loc 1 214 0
 144 000a FFF7FEFF 		bl	Comm_Init
 145              	.LVL3:
 215:Generated_Source\PSoC4/Comm.c ****     }
 146              		.loc 1 215 0
 147 000e 0123     		mov	r3, #1
 148 0010 2370     		strb	r3, [r4]
 149              	.L18:
 218:Generated_Source\PSoC4/Comm.c **** }
 150              		.loc 1 218 0
 151 0012 FFF7FEFF 		bl	Comm_Enable
 152              	.LVL4:
 219:Generated_Source\PSoC4/Comm.c **** 
 153              		.loc 1 219 0
 154              		@ sp needed
 155 0016 10BD     		pop	{r4, pc}
 156              	.L20:
 157              		.align	2
 158              	.L19:
 159 0018 00000000 		.word	.LANCHOR1
 160              		.cfi_endproc
 161              	.LFE2:
 162              		.size	Comm_Start, .-Comm_Start
 163              		.section	.text.Comm_Stop,"ax",%progbits
 164              		.align	1
 165              		.global	Comm_Stop
 166              		.code	16
 167              		.thumb_func
 168              		.type	Comm_Stop, %function
 169              	Comm_Stop:
 170              	.LFB3:
 240:Generated_Source\PSoC4/Comm.c **** #if (Comm_SCB_IRQ_INTERNAL)
 171              		.loc 1 240 0
ARM GAS  C:\Users\TECHCO~1\AppData\Local\Temp\ccimnBS9.s 			page 11


 172              		.cfi_startproc
 173 0000 08B5     		push	{r3, lr}
 174              		.cfi_def_cfa_offset 8
 175              		.cfi_offset 3, -8
 176              		.cfi_offset 14, -4
 242:Generated_Source\PSoC4/Comm.c **** #endif /* (Comm_SCB_IRQ_INTERNAL) */
 177              		.loc 1 242 0
 178 0002 0A20     		mov	r0, #10
 179 0004 FFF7FEFF 		bl	CyIntDisable
 180              	.LVL5:
 181              	.LBB15:
 182              	.LBB16:
 392:Generated_Source\PSoC4/Comm.c ****     }
 393:Generated_Source\PSoC4/Comm.c ****     else
 394:Generated_Source\PSoC4/Comm.c ****     {
 395:Generated_Source\PSoC4/Comm.c ****         /* Unknown mode: do nothing */
 396:Generated_Source\PSoC4/Comm.c ****     }
 397:Generated_Source\PSoC4/Comm.c **** #endif /* (!Comm_CY_SCBIP_V1) */
 398:Generated_Source\PSoC4/Comm.c **** 
 399:Generated_Source\PSoC4/Comm.c **** #elif (Comm_SCB_MODE_SPI_CONST_CFG)
 400:Generated_Source\PSoC4/Comm.c ****     Comm_SpiPostEnable();
 401:Generated_Source\PSoC4/Comm.c **** 
 402:Generated_Source\PSoC4/Comm.c **** #elif (Comm_SCB_MODE_UART_CONST_CFG)
 403:Generated_Source\PSoC4/Comm.c ****     Comm_UartPostEnable();
 404:Generated_Source\PSoC4/Comm.c **** 
 405:Generated_Source\PSoC4/Comm.c **** #else
 406:Generated_Source\PSoC4/Comm.c ****     /* Unknown mode: do nothing */
 407:Generated_Source\PSoC4/Comm.c **** #endif /* (Comm_SCB_MODE_UNCONFIG_CONST_CFG) */
 408:Generated_Source\PSoC4/Comm.c **** }
 409:Generated_Source\PSoC4/Comm.c **** 
 410:Generated_Source\PSoC4/Comm.c **** 
 411:Generated_Source\PSoC4/Comm.c **** /*******************************************************************************
 412:Generated_Source\PSoC4/Comm.c **** * Function Name: Comm_ScbModeStop
 413:Generated_Source\PSoC4/Comm.c **** ****************************************************************************//**
 414:Generated_Source\PSoC4/Comm.c **** *
 415:Generated_Source\PSoC4/Comm.c **** *  Calls the Stop function for a specific operation mode.
 416:Generated_Source\PSoC4/Comm.c **** *
 417:Generated_Source\PSoC4/Comm.c **** *******************************************************************************/
 418:Generated_Source\PSoC4/Comm.c **** static void Comm_ScbModeStop(void)
 419:Generated_Source\PSoC4/Comm.c **** {
 420:Generated_Source\PSoC4/Comm.c **** #if (Comm_SCB_MODE_UNCONFIG_CONST_CFG)
 421:Generated_Source\PSoC4/Comm.c ****     if (Comm_SCB_MODE_I2C_RUNTM_CFG)
 183              		.loc 1 421 0
 184 0008 104B     		ldr	r3, .L26
 185 000a 1B78     		ldrb	r3, [r3]
 186 000c 012B     		cmp	r3, #1
 187 000e 02D1     		bne	.L22
 422:Generated_Source\PSoC4/Comm.c ****     {
 423:Generated_Source\PSoC4/Comm.c ****         Comm_I2CStop();
 188              		.loc 1 423 0
 189 0010 FFF7FEFF 		bl	Comm_I2CStop
 190              	.LVL6:
 191 0014 0DE0     		b	.L23
 192              	.L22:
 424:Generated_Source\PSoC4/Comm.c ****     }
 425:Generated_Source\PSoC4/Comm.c ****     else if (Comm_SCB_MODE_EZI2C_RUNTM_CFG)
 193              		.loc 1 425 0
ARM GAS  C:\Users\TECHCO~1\AppData\Local\Temp\ccimnBS9.s 			page 12


 194 0016 082B     		cmp	r3, #8
 195 0018 02D1     		bne	.L24
 426:Generated_Source\PSoC4/Comm.c ****     {
 427:Generated_Source\PSoC4/Comm.c ****         Comm_EzI2CStop();
 196              		.loc 1 427 0
 197 001a FFF7FEFF 		bl	Comm_EzI2CStop
 198              	.LVL7:
 199 001e 08E0     		b	.L23
 200              	.L24:
 428:Generated_Source\PSoC4/Comm.c ****     }
 429:Generated_Source\PSoC4/Comm.c **** #if (!Comm_CY_SCBIP_V1)
 430:Generated_Source\PSoC4/Comm.c ****     else if (Comm_SCB_MODE_SPI_RUNTM_CFG)
 201              		.loc 1 430 0
 202 0020 022B     		cmp	r3, #2
 203 0022 02D1     		bne	.L25
 431:Generated_Source\PSoC4/Comm.c ****     {
 432:Generated_Source\PSoC4/Comm.c ****         Comm_SpiStop();
 204              		.loc 1 432 0
 205 0024 FFF7FEFF 		bl	Comm_SpiStop
 206              	.LVL8:
 207 0028 03E0     		b	.L23
 208              	.L25:
 433:Generated_Source\PSoC4/Comm.c ****     }
 434:Generated_Source\PSoC4/Comm.c ****     else if (Comm_SCB_MODE_UART_RUNTM_CFG)
 209              		.loc 1 434 0
 210 002a 042B     		cmp	r3, #4
 211 002c 01D1     		bne	.L23
 435:Generated_Source\PSoC4/Comm.c ****     {
 436:Generated_Source\PSoC4/Comm.c ****         Comm_UartStop();
 212              		.loc 1 436 0
 213 002e FFF7FEFF 		bl	Comm_UartStop
 214              	.LVL9:
 215              	.L23:
 216              	.LBE16:
 217              	.LBE15:
 249:Generated_Source\PSoC4/Comm.c **** 
 218              		.loc 1 249 0
 219 0032 074A     		ldr	r2, .L26+4
 262:Generated_Source\PSoC4/Comm.c **** #endif /* (Comm_SCB_IRQ_INTERNAL) */
 220              		.loc 1 262 0
 221 0034 0A20     		mov	r0, #10
 249:Generated_Source\PSoC4/Comm.c **** 
 222              		.loc 1 249 0
 223 0036 1368     		ldr	r3, [r2]
 264:Generated_Source\PSoC4/Comm.c **** 
 224              		.loc 1 264 0
 225              		@ sp needed
 249:Generated_Source\PSoC4/Comm.c **** 
 226              		.loc 1 249 0
 227 0038 5B00     		lsl	r3, r3, #1
 228 003a 5B08     		lsr	r3, r3, #1
 229 003c 1360     		str	r3, [r2]
 259:Generated_Source\PSoC4/Comm.c **** 
 230              		.loc 1 259 0
 231 003e 0022     		mov	r2, #0
 232 0040 044B     		ldr	r3, .L26+8
 233 0042 1A60     		str	r2, [r3]
ARM GAS  C:\Users\TECHCO~1\AppData\Local\Temp\ccimnBS9.s 			page 13


 262:Generated_Source\PSoC4/Comm.c **** #endif /* (Comm_SCB_IRQ_INTERNAL) */
 234              		.loc 1 262 0
 235 0044 FFF7FEFF 		bl	CyIntClearPending
 236              	.LVL10:
 264:Generated_Source\PSoC4/Comm.c **** 
 237              		.loc 1 264 0
 238 0048 08BD     		pop	{r3, pc}
 239              	.L27:
 240 004a C046     		.align	2
 241              	.L26:
 242 004c 00000000 		.word	.LANCHOR0
 243 0050 00000640 		.word	1074135040
 244 0054 880F0640 		.word	1074139016
 245              		.cfi_endproc
 246              	.LFE3:
 247              		.size	Comm_Stop, .-Comm_Stop
 248              		.section	.text.Comm_SetRxFifoLevel,"ax",%progbits
 249              		.align	1
 250              		.global	Comm_SetRxFifoLevel
 251              		.code	16
 252              		.thumb_func
 253              		.type	Comm_SetRxFifoLevel, %function
 254              	Comm_SetRxFifoLevel:
 255              	.LFB4:
 280:Generated_Source\PSoC4/Comm.c ****     uint32 rxFifoCtrl;
 256              		.loc 1 280 0
 257              		.cfi_startproc
 258              	.LVL11:
 285:Generated_Source\PSoC4/Comm.c ****     rxFifoCtrl |= ((uint32) (Comm_RX_FIFO_CTRL_TRIGGER_LEVEL_MASK & level));
 259              		.loc 1 285 0
 260 0000 0722     		mov	r2, #7
 283:Generated_Source\PSoC4/Comm.c **** 
 261              		.loc 1 283 0
 262 0002 0349     		ldr	r1, .L29
 286:Generated_Source\PSoC4/Comm.c **** 
 263              		.loc 1 286 0
 264 0004 1040     		and	r0, r2
 265              	.LVL12:
 283:Generated_Source\PSoC4/Comm.c **** 
 266              		.loc 1 283 0
 267 0006 0B68     		ldr	r3, [r1]
 268              	.LVL13:
 289:Generated_Source\PSoC4/Comm.c **** 
 269              		.loc 1 289 0
 270              		@ sp needed
 285:Generated_Source\PSoC4/Comm.c ****     rxFifoCtrl |= ((uint32) (Comm_RX_FIFO_CTRL_TRIGGER_LEVEL_MASK & level));
 271              		.loc 1 285 0
 272 0008 9343     		bic	r3, r2
 273              	.LVL14:
 286:Generated_Source\PSoC4/Comm.c **** 
 274              		.loc 1 286 0
 275 000a 1843     		orr	r0, r3
 276              	.LVL15:
 288:Generated_Source\PSoC4/Comm.c **** }
 277              		.loc 1 288 0
 278 000c 0860     		str	r0, [r1]
 289:Generated_Source\PSoC4/Comm.c **** 
ARM GAS  C:\Users\TECHCO~1\AppData\Local\Temp\ccimnBS9.s 			page 14


 279              		.loc 1 289 0
 280 000e 7047     		bx	lr
 281              	.L30:
 282              		.align	2
 283              	.L29:
 284 0010 04030640 		.word	1074135812
 285              		.cfi_endproc
 286              	.LFE4:
 287              		.size	Comm_SetRxFifoLevel, .-Comm_SetRxFifoLevel
 288              		.section	.text.Comm_SetTxFifoLevel,"ax",%progbits
 289              		.align	1
 290              		.global	Comm_SetTxFifoLevel
 291              		.code	16
 292              		.thumb_func
 293              		.type	Comm_SetTxFifoLevel, %function
 294              	Comm_SetTxFifoLevel:
 295              	.LFB5:
 305:Generated_Source\PSoC4/Comm.c ****     uint32 txFifoCtrl;
 296              		.loc 1 305 0
 297              		.cfi_startproc
 298              	.LVL16:
 310:Generated_Source\PSoC4/Comm.c ****     txFifoCtrl |= ((uint32) (Comm_TX_FIFO_CTRL_TRIGGER_LEVEL_MASK & level));
 299              		.loc 1 310 0
 300 0000 0722     		mov	r2, #7
 308:Generated_Source\PSoC4/Comm.c **** 
 301              		.loc 1 308 0
 302 0002 0349     		ldr	r1, .L32
 311:Generated_Source\PSoC4/Comm.c **** 
 303              		.loc 1 311 0
 304 0004 1040     		and	r0, r2
 305              	.LVL17:
 308:Generated_Source\PSoC4/Comm.c **** 
 306              		.loc 1 308 0
 307 0006 0B68     		ldr	r3, [r1]
 308              	.LVL18:
 314:Generated_Source\PSoC4/Comm.c **** 
 309              		.loc 1 314 0
 310              		@ sp needed
 310:Generated_Source\PSoC4/Comm.c ****     txFifoCtrl |= ((uint32) (Comm_TX_FIFO_CTRL_TRIGGER_LEVEL_MASK & level));
 311              		.loc 1 310 0
 312 0008 9343     		bic	r3, r2
 313              	.LVL19:
 311:Generated_Source\PSoC4/Comm.c **** 
 314              		.loc 1 311 0
 315 000a 1843     		orr	r0, r3
 316              	.LVL20:
 313:Generated_Source\PSoC4/Comm.c **** }
 317              		.loc 1 313 0
 318 000c 0860     		str	r0, [r1]
 314:Generated_Source\PSoC4/Comm.c **** 
 319              		.loc 1 314 0
 320 000e 7047     		bx	lr
 321              	.L33:
 322              		.align	2
 323              	.L32:
 324 0010 04020640 		.word	1074135556
 325              		.cfi_endproc
ARM GAS  C:\Users\TECHCO~1\AppData\Local\Temp\ccimnBS9.s 			page 15


 326              	.LFE5:
 327              		.size	Comm_SetTxFifoLevel, .-Comm_SetTxFifoLevel
 328              		.section	.text.Comm_SetCustomInterruptHandler,"ax",%progbits
 329              		.align	1
 330              		.global	Comm_SetCustomInterruptHandler
 331              		.code	16
 332              		.thumb_func
 333              		.type	Comm_SetCustomInterruptHandler, %function
 334              	Comm_SetCustomInterruptHandler:
 335              	.LFB6:
 336:Generated_Source\PSoC4/Comm.c ****     #if !defined (CY_REMOVE_Comm_CUSTOM_INTR_HANDLER)
 336              		.loc 1 336 0
 337              		.cfi_startproc
 338              	.LVL21:
 338:Generated_Source\PSoC4/Comm.c ****     #else
 339              		.loc 1 338 0
 340 0000 014B     		ldr	r3, .L35
 345:Generated_Source\PSoC4/Comm.c **** #endif /* (Comm_SCB_IRQ_INTERNAL) */
 341              		.loc 1 345 0
 342              		@ sp needed
 338:Generated_Source\PSoC4/Comm.c ****     #else
 343              		.loc 1 338 0
 344 0002 5860     		str	r0, [r3, #4]
 345:Generated_Source\PSoC4/Comm.c **** #endif /* (Comm_SCB_IRQ_INTERNAL) */
 345              		.loc 1 345 0
 346 0004 7047     		bx	lr
 347              	.L36:
 348 0006 C046     		.align	2
 349              	.L35:
 350 0008 00000000 		.word	.LANCHOR1
 351              		.cfi_endproc
 352              	.LFE6:
 353              		.size	Comm_SetCustomInterruptHandler, .-Comm_SetCustomInterruptHandler
 354              		.section	.text.Comm_SetPins,"ax",%progbits
 355              		.align	1
 356              		.global	Comm_SetPins
 357              		.code	16
 358              		.thumb_func
 359              		.type	Comm_SetPins, %function
 360              	Comm_SetPins:
 361              	.LFB10:
 437:Generated_Source\PSoC4/Comm.c ****     }
 438:Generated_Source\PSoC4/Comm.c **** #endif /* (!Comm_CY_SCBIP_V1) */
 439:Generated_Source\PSoC4/Comm.c ****     else
 440:Generated_Source\PSoC4/Comm.c ****     {
 441:Generated_Source\PSoC4/Comm.c ****         /* Unknown mode: do nothing */
 442:Generated_Source\PSoC4/Comm.c ****     }
 443:Generated_Source\PSoC4/Comm.c **** #elif (Comm_SCB_MODE_I2C_CONST_CFG)
 444:Generated_Source\PSoC4/Comm.c ****     Comm_I2CStop();
 445:Generated_Source\PSoC4/Comm.c **** 
 446:Generated_Source\PSoC4/Comm.c **** #elif (Comm_SCB_MODE_EZI2C_CONST_CFG)
 447:Generated_Source\PSoC4/Comm.c ****     Comm_EzI2CStop();
 448:Generated_Source\PSoC4/Comm.c **** 
 449:Generated_Source\PSoC4/Comm.c **** #elif (Comm_SCB_MODE_SPI_CONST_CFG)
 450:Generated_Source\PSoC4/Comm.c ****     Comm_SpiStop();
 451:Generated_Source\PSoC4/Comm.c **** 
 452:Generated_Source\PSoC4/Comm.c **** #elif (Comm_SCB_MODE_UART_CONST_CFG)
ARM GAS  C:\Users\TECHCO~1\AppData\Local\Temp\ccimnBS9.s 			page 16


 453:Generated_Source\PSoC4/Comm.c ****     Comm_UartStop();
 454:Generated_Source\PSoC4/Comm.c **** 
 455:Generated_Source\PSoC4/Comm.c **** #else
 456:Generated_Source\PSoC4/Comm.c ****     /* Unknown mode: do nothing */
 457:Generated_Source\PSoC4/Comm.c **** #endif /* (Comm_SCB_MODE_UNCONFIG_CONST_CFG) */
 458:Generated_Source\PSoC4/Comm.c **** }
 459:Generated_Source\PSoC4/Comm.c **** 
 460:Generated_Source\PSoC4/Comm.c **** 
 461:Generated_Source\PSoC4/Comm.c **** #if (Comm_SCB_MODE_UNCONFIG_CONST_CFG)
 462:Generated_Source\PSoC4/Comm.c ****     /*******************************************************************************
 463:Generated_Source\PSoC4/Comm.c ****     * Function Name: Comm_SetPins
 464:Generated_Source\PSoC4/Comm.c ****     ****************************************************************************//**
 465:Generated_Source\PSoC4/Comm.c ****     *
 466:Generated_Source\PSoC4/Comm.c ****     *  Sets the pins settings accordingly to the selected operation mode.
 467:Generated_Source\PSoC4/Comm.c ****     *  Only available in the Unconfigured operation mode. The mode specific
 468:Generated_Source\PSoC4/Comm.c ****     *  initialization function calls it.
 469:Generated_Source\PSoC4/Comm.c ****     *  Pins configuration is set by PSoC Creator when a specific mode of operation
 470:Generated_Source\PSoC4/Comm.c ****     *  is selected in design time.
 471:Generated_Source\PSoC4/Comm.c ****     *
 472:Generated_Source\PSoC4/Comm.c ****     *  \param mode:      Mode of SCB operation.
 473:Generated_Source\PSoC4/Comm.c ****     *  \param subMode:   Sub-mode of SCB operation. It is only required for SPI and UART
 474:Generated_Source\PSoC4/Comm.c ****     *             modes.
 475:Generated_Source\PSoC4/Comm.c ****     *  \param uartEnableMask: enables TX or RX direction and RTS and CTS signals.
 476:Generated_Source\PSoC4/Comm.c ****     *
 477:Generated_Source\PSoC4/Comm.c ****     *******************************************************************************/
 478:Generated_Source\PSoC4/Comm.c ****     void Comm_SetPins(uint32 mode, uint32 subMode, uint32 uartEnableMask)
 479:Generated_Source\PSoC4/Comm.c ****     {
 362              		.loc 1 479 0
 363              		.cfi_startproc
 364              	.LVL22:
 365 0000 F0B5     		push	{r4, r5, r6, r7, lr}
 366              		.cfi_def_cfa_offset 20
 367              		.cfi_offset 4, -20
 368              		.cfi_offset 5, -16
 369              		.cfi_offset 6, -12
 370              		.cfi_offset 7, -8
 371              		.cfi_offset 14, -4
 372 0002 0024     		mov	r4, #0
 373 0004 89B0     		sub	sp, sp, #36
 374              		.cfi_def_cfa_offset 56
 375              	.LVL23:
 376              	.L38:
 480:Generated_Source\PSoC4/Comm.c ****         uint32 pinsDm[Comm_SCB_PINS_NUMBER];
 481:Generated_Source\PSoC4/Comm.c ****         uint32 i;
 482:Generated_Source\PSoC4/Comm.c ****         
 483:Generated_Source\PSoC4/Comm.c ****     #if (!Comm_CY_SCBIP_V1)
 484:Generated_Source\PSoC4/Comm.c ****         uint32 pinsInBuf = 0u;
 485:Generated_Source\PSoC4/Comm.c ****     #endif /* (!Comm_CY_SCBIP_V1) */
 486:Generated_Source\PSoC4/Comm.c ****         
 487:Generated_Source\PSoC4/Comm.c ****         uint32 hsiomSel[Comm_SCB_PINS_NUMBER] = 
 488:Generated_Source\PSoC4/Comm.c ****         {
 489:Generated_Source\PSoC4/Comm.c ****             Comm_RX_SCL_MOSI_HSIOM_SEL_GPIO,
 490:Generated_Source\PSoC4/Comm.c ****             Comm_TX_SDA_MISO_HSIOM_SEL_GPIO,
 491:Generated_Source\PSoC4/Comm.c ****             0u,
 492:Generated_Source\PSoC4/Comm.c ****             0u,
 493:Generated_Source\PSoC4/Comm.c ****             0u,
 494:Generated_Source\PSoC4/Comm.c ****             0u,
ARM GAS  C:\Users\TECHCO~1\AppData\Local\Temp\ccimnBS9.s 			page 17


 495:Generated_Source\PSoC4/Comm.c ****             0u,
 496:Generated_Source\PSoC4/Comm.c ****         };
 497:Generated_Source\PSoC4/Comm.c **** 
 498:Generated_Source\PSoC4/Comm.c ****     #if (Comm_CY_SCBIP_V1)
 499:Generated_Source\PSoC4/Comm.c ****         /* Supress compiler warning. */
 500:Generated_Source\PSoC4/Comm.c ****         if ((0u == subMode) || (0u == uartEnableMask))
 501:Generated_Source\PSoC4/Comm.c ****         {
 502:Generated_Source\PSoC4/Comm.c ****         }
 503:Generated_Source\PSoC4/Comm.c ****     #endif /* (Comm_CY_SCBIP_V1) */
 504:Generated_Source\PSoC4/Comm.c **** 
 505:Generated_Source\PSoC4/Comm.c ****         /* Set default HSIOM to GPIO and Drive Mode to Analog Hi-Z */
 506:Generated_Source\PSoC4/Comm.c ****         for (i = 0u; i < Comm_SCB_PINS_NUMBER; i++)
 507:Generated_Source\PSoC4/Comm.c ****         {
 508:Generated_Source\PSoC4/Comm.c ****             pinsDm[i] = Comm_PIN_DM_ALG_HIZ;
 377              		.loc 1 508 0 discriminator 3
 378 0006 0023     		mov	r3, #0
 379 0008 01AE     		add	r6, sp, #4
 380 000a A351     		str	r3, [r4, r6]
 381 000c 0434     		add	r4, r4, #4
 506:Generated_Source\PSoC4/Comm.c ****         {
 382              		.loc 1 506 0 discriminator 3
 383 000e 1C2C     		cmp	r4, #28
 384 0010 F9D1     		bne	.L38
 509:Generated_Source\PSoC4/Comm.c ****         }
 510:Generated_Source\PSoC4/Comm.c **** 
 511:Generated_Source\PSoC4/Comm.c ****         if ((Comm_SCB_MODE_I2C   == mode) ||
 385              		.loc 1 511 0
 386 0012 0128     		cmp	r0, #1
 387 0014 01D0     		beq	.L39
 388              		.loc 1 511 0 is_stmt 0 discriminator 1
 389 0016 0828     		cmp	r0, #8
 390 0018 06D1     		bne	.L40
 391              	.L39:
 392              	.LVL24:
 512:Generated_Source\PSoC4/Comm.c ****             (Comm_SCB_MODE_EZI2C == mode))
 513:Generated_Source\PSoC4/Comm.c ****         {
 514:Generated_Source\PSoC4/Comm.c ****         #if (Comm_RX_SCL_MOSI_PIN)
 515:Generated_Source\PSoC4/Comm.c ****             hsiomSel[Comm_RX_SCL_MOSI_PIN_INDEX] = Comm_RX_SCL_MOSI_HSIOM_SEL_I2C;
 516:Generated_Source\PSoC4/Comm.c ****             pinsDm  [Comm_RX_SCL_MOSI_PIN_INDEX] = Comm_PIN_DM_OD_LO;
 393              		.loc 1 516 0 is_stmt 1
 394 001a 0423     		mov	r3, #4
 517:Generated_Source\PSoC4/Comm.c ****         #elif (Comm_RX_WAKE_SCL_MOSI_PIN)
 518:Generated_Source\PSoC4/Comm.c ****             hsiomSel[Comm_RX_WAKE_SCL_MOSI_PIN_INDEX] = Comm_RX_WAKE_SCL_MOSI_HSIOM_SEL_I2C;
 519:Generated_Source\PSoC4/Comm.c ****             pinsDm  [Comm_RX_WAKE_SCL_MOSI_PIN_INDEX] = Comm_PIN_DM_OD_LO;
 520:Generated_Source\PSoC4/Comm.c ****         #else
 521:Generated_Source\PSoC4/Comm.c ****         #endif /* (Comm_RX_SCL_MOSI_PIN) */
 522:Generated_Source\PSoC4/Comm.c ****         
 523:Generated_Source\PSoC4/Comm.c ****         #if (Comm_TX_SDA_MISO_PIN)
 524:Generated_Source\PSoC4/Comm.c ****             hsiomSel[Comm_TX_SDA_MISO_PIN_INDEX] = Comm_TX_SDA_MISO_HSIOM_SEL_I2C;
 395              		.loc 1 524 0
 396 001c 0E24     		mov	r4, #14
 516:Generated_Source\PSoC4/Comm.c ****         #elif (Comm_RX_WAKE_SCL_MOSI_PIN)
 397              		.loc 1 516 0
 398 001e 0193     		str	r3, [sp, #4]
 399              	.LVL25:
 525:Generated_Source\PSoC4/Comm.c ****             pinsDm  [Comm_TX_SDA_MISO_PIN_INDEX] = Comm_PIN_DM_OD_LO;
 400              		.loc 1 525 0
ARM GAS  C:\Users\TECHCO~1\AppData\Local\Temp\ccimnBS9.s 			page 18


 401 0020 7360     		str	r3, [r6, #4]
 515:Generated_Source\PSoC4/Comm.c ****             pinsDm  [Comm_RX_SCL_MOSI_PIN_INDEX] = Comm_PIN_DM_OD_LO;
 402              		.loc 1 515 0
 403 0022 231C     		mov	r3, r4
 404              	.LVL26:
 405              	.L56:
 484:Generated_Source\PSoC4/Comm.c ****     #endif /* (!Comm_CY_SCBIP_V1) */
 406              		.loc 1 484 0
 407 0024 0025     		mov	r5, #0
 408              		.loc 1 525 0
 409 0026 23E0     		b	.L41
 410              	.LVL27:
 411              	.L40:
 412 0028 0125     		mov	r5, #1
 526:Generated_Source\PSoC4/Comm.c ****         #endif /* (Comm_TX_SDA_MISO_PIN) */
 527:Generated_Source\PSoC4/Comm.c ****         }
 528:Generated_Source\PSoC4/Comm.c ****     #if (!Comm_CY_SCBIP_V1)
 529:Generated_Source\PSoC4/Comm.c ****         else if (Comm_SCB_MODE_SPI == mode)
 413              		.loc 1 529 0
 414 002a 0228     		cmp	r0, #2
 415 002c 0DD1     		bne	.L42
 416              	.LVL28:
 417 002e 0623     		mov	r3, #6
 530:Generated_Source\PSoC4/Comm.c ****         {
 531:Generated_Source\PSoC4/Comm.c ****         #if (Comm_RX_SCL_MOSI_PIN)
 532:Generated_Source\PSoC4/Comm.c ****             hsiomSel[Comm_RX_SCL_MOSI_PIN_INDEX] = Comm_RX_SCL_MOSI_HSIOM_SEL_SPI;
 533:Generated_Source\PSoC4/Comm.c ****         #elif (Comm_RX_WAKE_SCL_MOSI_PIN)
 534:Generated_Source\PSoC4/Comm.c ****             hsiomSel[Comm_RX_WAKE_SCL_MOSI_PIN_INDEX] = Comm_RX_WAKE_SCL_MOSI_HSIOM_SEL_SPI;
 535:Generated_Source\PSoC4/Comm.c ****         #else
 536:Generated_Source\PSoC4/Comm.c ****         #endif /* (Comm_RX_SCL_MOSI_PIN) */
 537:Generated_Source\PSoC4/Comm.c ****         
 538:Generated_Source\PSoC4/Comm.c ****         #if (Comm_TX_SDA_MISO_PIN)
 539:Generated_Source\PSoC4/Comm.c ****             hsiomSel[Comm_TX_SDA_MISO_PIN_INDEX] = Comm_TX_SDA_MISO_HSIOM_SEL_SPI;
 540:Generated_Source\PSoC4/Comm.c ****         #endif /* (Comm_TX_SDA_MISO_PIN) */
 541:Generated_Source\PSoC4/Comm.c ****         
 542:Generated_Source\PSoC4/Comm.c ****         #if (Comm_SCLK_PIN)
 543:Generated_Source\PSoC4/Comm.c ****             hsiomSel[Comm_SCLK_PIN_INDEX] = Comm_SCLK_HSIOM_SEL_SPI;
 544:Generated_Source\PSoC4/Comm.c ****         #endif /* (Comm_SCLK_PIN) */
 545:Generated_Source\PSoC4/Comm.c **** 
 546:Generated_Source\PSoC4/Comm.c ****             if (Comm_SPI_SLAVE == subMode)
 418              		.loc 1 546 0
 419 0030 0029     		cmp	r1, #0
 420 0032 05D1     		bne	.L43
 539:Generated_Source\PSoC4/Comm.c ****         #endif /* (Comm_TX_SDA_MISO_PIN) */
 421              		.loc 1 539 0
 422 0034 0F24     		mov	r4, #15
 547:Generated_Source\PSoC4/Comm.c ****             {
 548:Generated_Source\PSoC4/Comm.c ****                 /* Slave */
 549:Generated_Source\PSoC4/Comm.c ****                 pinsDm[Comm_RX_SCL_MOSI_PIN_INDEX] = Comm_PIN_DM_DIG_HIZ;
 423              		.loc 1 549 0
 424 0036 3560     		str	r5, [r6]
 550:Generated_Source\PSoC4/Comm.c ****                 pinsDm[Comm_TX_SDA_MISO_PIN_INDEX] = Comm_PIN_DM_STRONG;
 425              		.loc 1 550 0
 426 0038 7360     		str	r3, [r6, #4]
 427              	.LVL29:
 551:Generated_Source\PSoC4/Comm.c ****                 pinsDm[Comm_SCLK_PIN_INDEX] = Comm_PIN_DM_DIG_HIZ;
 552:Generated_Source\PSoC4/Comm.c **** 
ARM GAS  C:\Users\TECHCO~1\AppData\Local\Temp\ccimnBS9.s 			page 19


 553:Generated_Source\PSoC4/Comm.c ****             #if (Comm_SS0_PIN)
 554:Generated_Source\PSoC4/Comm.c ****                 /* Only SS0 is valid choice for Slave */
 555:Generated_Source\PSoC4/Comm.c ****                 hsiomSel[Comm_SS0_PIN_INDEX] = Comm_SS0_HSIOM_SEL_SPI;
 556:Generated_Source\PSoC4/Comm.c ****                 pinsDm  [Comm_SS0_PIN_INDEX] = Comm_PIN_DM_DIG_HIZ;
 557:Generated_Source\PSoC4/Comm.c ****             #endif /* (Comm_SS0_PIN) */
 558:Generated_Source\PSoC4/Comm.c **** 
 559:Generated_Source\PSoC4/Comm.c ****             #if (Comm_TX_SDA_MISO_PIN)
 560:Generated_Source\PSoC4/Comm.c ****                 /* Disable input buffer */
 561:Generated_Source\PSoC4/Comm.c ****                  pinsInBuf |= Comm_TX_SDA_MISO_PIN_MASK;
 428              		.loc 1 561 0
 429 003a 051C     		mov	r5, r0
 532:Generated_Source\PSoC4/Comm.c ****         #elif (Comm_RX_WAKE_SCL_MOSI_PIN)
 430              		.loc 1 532 0
 431 003c 231C     		mov	r3, r4
 432 003e 17E0     		b	.L41
 433              	.LVL30:
 434              	.L43:
 539:Generated_Source\PSoC4/Comm.c ****         #endif /* (Comm_TX_SDA_MISO_PIN) */
 435              		.loc 1 539 0
 436 0040 0F24     		mov	r4, #15
 562:Generated_Source\PSoC4/Comm.c ****             #endif /* (Comm_TX_SDA_MISO_PIN) */
 563:Generated_Source\PSoC4/Comm.c ****             }
 564:Generated_Source\PSoC4/Comm.c ****             else 
 565:Generated_Source\PSoC4/Comm.c ****             {
 566:Generated_Source\PSoC4/Comm.c ****                 /* (Master) */
 567:Generated_Source\PSoC4/Comm.c ****                 pinsDm[Comm_RX_SCL_MOSI_PIN_INDEX] = Comm_PIN_DM_STRONG;
 437              		.loc 1 567 0
 438 0042 3360     		str	r3, [r6]
 568:Generated_Source\PSoC4/Comm.c ****                 pinsDm[Comm_TX_SDA_MISO_PIN_INDEX] = Comm_PIN_DM_DIG_HIZ;
 439              		.loc 1 568 0
 440 0044 7560     		str	r5, [r6, #4]
 441              	.LVL31:
 532:Generated_Source\PSoC4/Comm.c ****         #elif (Comm_RX_WAKE_SCL_MOSI_PIN)
 442              		.loc 1 532 0
 443 0046 231C     		mov	r3, r4
 444 0048 12E0     		b	.L41
 445              	.LVL32:
 446              	.L42:
 569:Generated_Source\PSoC4/Comm.c ****                 pinsDm[Comm_SCLK_PIN_INDEX] = Comm_PIN_DM_STRONG;
 570:Generated_Source\PSoC4/Comm.c **** 
 571:Generated_Source\PSoC4/Comm.c ****             #if (Comm_SS0_PIN)
 572:Generated_Source\PSoC4/Comm.c ****                 hsiomSel [Comm_SS0_PIN_INDEX] = Comm_SS0_HSIOM_SEL_SPI;
 573:Generated_Source\PSoC4/Comm.c ****                 pinsDm   [Comm_SS0_PIN_INDEX] = Comm_PIN_DM_STRONG;
 574:Generated_Source\PSoC4/Comm.c ****                 pinsInBuf |= Comm_SS0_PIN_MASK;
 575:Generated_Source\PSoC4/Comm.c ****             #endif /* (Comm_SS0_PIN) */
 576:Generated_Source\PSoC4/Comm.c **** 
 577:Generated_Source\PSoC4/Comm.c ****             #if (Comm_SS1_PIN)
 578:Generated_Source\PSoC4/Comm.c ****                 hsiomSel [Comm_SS1_PIN_INDEX] = Comm_SS1_HSIOM_SEL_SPI;
 579:Generated_Source\PSoC4/Comm.c ****                 pinsDm   [Comm_SS1_PIN_INDEX] = Comm_PIN_DM_STRONG;
 580:Generated_Source\PSoC4/Comm.c ****                 pinsInBuf |= Comm_SS1_PIN_MASK;
 581:Generated_Source\PSoC4/Comm.c ****             #endif /* (Comm_SS1_PIN) */
 582:Generated_Source\PSoC4/Comm.c **** 
 583:Generated_Source\PSoC4/Comm.c ****             #if (Comm_SS2_PIN)
 584:Generated_Source\PSoC4/Comm.c ****                 hsiomSel [Comm_SS2_PIN_INDEX] = Comm_SS2_HSIOM_SEL_SPI;
 585:Generated_Source\PSoC4/Comm.c ****                 pinsDm   [Comm_SS2_PIN_INDEX] = Comm_PIN_DM_STRONG;
 586:Generated_Source\PSoC4/Comm.c ****                 pinsInBuf |= Comm_SS2_PIN_MASK;
 587:Generated_Source\PSoC4/Comm.c ****             #endif /* (Comm_SS2_PIN) */
ARM GAS  C:\Users\TECHCO~1\AppData\Local\Temp\ccimnBS9.s 			page 20


 588:Generated_Source\PSoC4/Comm.c **** 
 589:Generated_Source\PSoC4/Comm.c ****             #if (Comm_SS3_PIN)
 590:Generated_Source\PSoC4/Comm.c ****                 hsiomSel [Comm_SS3_PIN_INDEX] = Comm_SS3_HSIOM_SEL_SPI;
 591:Generated_Source\PSoC4/Comm.c ****                 pinsDm   [Comm_SS3_PIN_INDEX] = Comm_PIN_DM_STRONG;
 592:Generated_Source\PSoC4/Comm.c ****                 pinsInBuf |= Comm_SS3_PIN_MASK;
 593:Generated_Source\PSoC4/Comm.c ****             #endif /* (Comm_SS3_PIN) */
 594:Generated_Source\PSoC4/Comm.c **** 
 595:Generated_Source\PSoC4/Comm.c ****                 /* Disable input buffers */
 596:Generated_Source\PSoC4/Comm.c ****             #if (Comm_RX_SCL_MOSI_PIN)
 597:Generated_Source\PSoC4/Comm.c ****                 pinsInBuf |= Comm_RX_SCL_MOSI_PIN_MASK;
 598:Generated_Source\PSoC4/Comm.c ****             #elif (Comm_RX_WAKE_SCL_MOSI_PIN)
 599:Generated_Source\PSoC4/Comm.c ****                 pinsInBuf |= Comm_RX_WAKE_SCL_MOSI_PIN_MASK;
 600:Generated_Source\PSoC4/Comm.c ****             #else
 601:Generated_Source\PSoC4/Comm.c ****             #endif /* (Comm_RX_SCL_MOSI_PIN) */
 602:Generated_Source\PSoC4/Comm.c **** 
 603:Generated_Source\PSoC4/Comm.c ****             #if (Comm_SCLK_PIN)
 604:Generated_Source\PSoC4/Comm.c ****                 pinsInBuf |= Comm_SCLK_PIN_MASK;
 605:Generated_Source\PSoC4/Comm.c ****             #endif /* (Comm_SCLK_PIN) */
 606:Generated_Source\PSoC4/Comm.c ****             }
 607:Generated_Source\PSoC4/Comm.c ****         }
 608:Generated_Source\PSoC4/Comm.c ****         else /* UART */
 609:Generated_Source\PSoC4/Comm.c ****         {
 610:Generated_Source\PSoC4/Comm.c ****             if (Comm_UART_MODE_SMARTCARD == subMode)
 447              		.loc 1 610 0
 448 004a 0129     		cmp	r1, #1
 449 004c 03D1     		bne	.L44
 450              	.LVL33:
 611:Generated_Source\PSoC4/Comm.c ****             {
 612:Generated_Source\PSoC4/Comm.c ****                 /* SmartCard */
 613:Generated_Source\PSoC4/Comm.c ****             #if (Comm_TX_SDA_MISO_PIN)
 614:Generated_Source\PSoC4/Comm.c ****                 hsiomSel[Comm_TX_SDA_MISO_PIN_INDEX] = Comm_TX_SDA_MISO_HSIOM_SEL_UART;
 615:Generated_Source\PSoC4/Comm.c ****                 pinsDm  [Comm_TX_SDA_MISO_PIN_INDEX] = Comm_PIN_DM_OD_LO;
 451              		.loc 1 615 0
 452 004e 0422     		mov	r2, #4
 453              	.LVL34:
 614:Generated_Source\PSoC4/Comm.c ****                 pinsDm  [Comm_TX_SDA_MISO_PIN_INDEX] = Comm_PIN_DM_OD_LO;
 454              		.loc 1 614 0
 455 0050 0924     		mov	r4, #9
 456              		.loc 1 615 0
 457 0052 7260     		str	r2, [r6, #4]
 458 0054 E6E7     		b	.L56
 459              	.LVL35:
 460              	.L44:
 616:Generated_Source\PSoC4/Comm.c ****             #endif /* (Comm_TX_SDA_MISO_PIN) */
 617:Generated_Source\PSoC4/Comm.c ****             }
 618:Generated_Source\PSoC4/Comm.c ****             else /* Standard or IrDA */
 619:Generated_Source\PSoC4/Comm.c ****             {
 620:Generated_Source\PSoC4/Comm.c ****                 if (0u != (Comm_UART_RX_PIN_ENABLE & uartEnableMask))
 461              		.loc 1 620 0
 462 0056 2A42     		tst	r2, r5
 463 0058 01D0     		beq	.L45
 464              	.LVL36:
 621:Generated_Source\PSoC4/Comm.c ****                 {
 622:Generated_Source\PSoC4/Comm.c ****                 #if (Comm_RX_SCL_MOSI_PIN)
 623:Generated_Source\PSoC4/Comm.c ****                     hsiomSel[Comm_RX_SCL_MOSI_PIN_INDEX] = Comm_RX_SCL_MOSI_HSIOM_SEL_UART;
 465              		.loc 1 623 0
 466 005a 0923     		mov	r3, #9
ARM GAS  C:\Users\TECHCO~1\AppData\Local\Temp\ccimnBS9.s 			page 21


 624:Generated_Source\PSoC4/Comm.c ****                     pinsDm  [Comm_RX_SCL_MOSI_PIN_INDEX] = Comm_PIN_DM_DIG_HIZ;
 467              		.loc 1 624 0
 468 005c 3560     		str	r5, [r6]
 469              	.LVL37:
 470              	.L45:
 625:Generated_Source\PSoC4/Comm.c ****                 #elif (Comm_RX_WAKE_SCL_MOSI_PIN)
 626:Generated_Source\PSoC4/Comm.c ****                     hsiomSel[Comm_RX_WAKE_SCL_MOSI_PIN_INDEX] = Comm_RX_WAKE_SCL_MOSI_HSIOM_SEL_UAR
 627:Generated_Source\PSoC4/Comm.c ****                     pinsDm  [Comm_RX_WAKE_SCL_MOSI_PIN_INDEX] = Comm_PIN_DM_DIG_HIZ;
 628:Generated_Source\PSoC4/Comm.c ****                 #else
 629:Generated_Source\PSoC4/Comm.c ****                 #endif /* (Comm_RX_SCL_MOSI_PIN) */
 630:Generated_Source\PSoC4/Comm.c ****                 }
 631:Generated_Source\PSoC4/Comm.c **** 
 632:Generated_Source\PSoC4/Comm.c ****                 if (0u != (Comm_UART_TX_PIN_ENABLE & uartEnableMask))
 471              		.loc 1 632 0
 472 005e 0225     		mov	r5, #2
 473 0060 2A40     		and	r2, r5
 474              	.LVL38:
 475 0062 141E     		sub	r4, r2, #0
 476 0064 03D0     		beq	.L51
 477              	.LVL39:
 633:Generated_Source\PSoC4/Comm.c ****                 {
 634:Generated_Source\PSoC4/Comm.c ****                 #if (Comm_TX_SDA_MISO_PIN)
 635:Generated_Source\PSoC4/Comm.c ****                     hsiomSel[Comm_TX_SDA_MISO_PIN_INDEX] = Comm_TX_SDA_MISO_HSIOM_SEL_UART;
 636:Generated_Source\PSoC4/Comm.c ****                     pinsDm  [Comm_TX_SDA_MISO_PIN_INDEX] = Comm_PIN_DM_STRONG;
 478              		.loc 1 636 0
 479 0066 0622     		mov	r2, #6
 635:Generated_Source\PSoC4/Comm.c ****                     pinsDm  [Comm_TX_SDA_MISO_PIN_INDEX] = Comm_PIN_DM_STRONG;
 480              		.loc 1 635 0
 481 0068 0924     		mov	r4, #9
 482              		.loc 1 636 0
 483 006a 7260     		str	r2, [r6, #4]
 484              	.LVL40:
 485 006c 00E0     		b	.L41
 486              	.LVL41:
 487              	.L51:
 484:Generated_Source\PSoC4/Comm.c ****     #endif /* (!Comm_CY_SCBIP_V1) */
 488              		.loc 1 484 0
 489 006e 151C     		mov	r5, r2
 490              	.LVL42:
 491              	.L41:
 637:Generated_Source\PSoC4/Comm.c ****                     
 638:Generated_Source\PSoC4/Comm.c ****                     /* Disable input buffer */
 639:Generated_Source\PSoC4/Comm.c ****                     pinsInBuf |= Comm_TX_SDA_MISO_PIN_MASK;
 640:Generated_Source\PSoC4/Comm.c ****                 #endif /* (Comm_TX_SDA_MISO_PIN) */
 641:Generated_Source\PSoC4/Comm.c ****                 }
 642:Generated_Source\PSoC4/Comm.c **** 
 643:Generated_Source\PSoC4/Comm.c ****             #if !(Comm_CY_SCBIP_V0 || Comm_CY_SCBIP_V1)
 644:Generated_Source\PSoC4/Comm.c ****                 if (Comm_UART_MODE_STD == subMode)
 645:Generated_Source\PSoC4/Comm.c ****                 {
 646:Generated_Source\PSoC4/Comm.c ****                     if (0u != (Comm_UART_CTS_PIN_ENABLE & uartEnableMask))
 647:Generated_Source\PSoC4/Comm.c ****                     {
 648:Generated_Source\PSoC4/Comm.c ****                         /* CTS input is multiplexed with SCLK */
 649:Generated_Source\PSoC4/Comm.c ****                     #if (Comm_SCLK_PIN)
 650:Generated_Source\PSoC4/Comm.c ****                         hsiomSel[Comm_SCLK_PIN_INDEX] = Comm_SCLK_HSIOM_SEL_UART;
 651:Generated_Source\PSoC4/Comm.c ****                         pinsDm  [Comm_SCLK_PIN_INDEX] = Comm_PIN_DM_DIG_HIZ;
 652:Generated_Source\PSoC4/Comm.c ****                     #endif /* (Comm_SCLK_PIN) */
 653:Generated_Source\PSoC4/Comm.c ****                     }
ARM GAS  C:\Users\TECHCO~1\AppData\Local\Temp\ccimnBS9.s 			page 22


 654:Generated_Source\PSoC4/Comm.c **** 
 655:Generated_Source\PSoC4/Comm.c ****                     if (0u != (Comm_UART_RTS_PIN_ENABLE & uartEnableMask))
 656:Generated_Source\PSoC4/Comm.c ****                     {
 657:Generated_Source\PSoC4/Comm.c ****                         /* RTS output is multiplexed with SS0 */
 658:Generated_Source\PSoC4/Comm.c ****                     #if (Comm_SS0_PIN)
 659:Generated_Source\PSoC4/Comm.c ****                         hsiomSel[Comm_SS0_PIN_INDEX] = Comm_SS0_HSIOM_SEL_UART;
 660:Generated_Source\PSoC4/Comm.c ****                         pinsDm  [Comm_SS0_PIN_INDEX] = Comm_PIN_DM_STRONG;
 661:Generated_Source\PSoC4/Comm.c ****                         
 662:Generated_Source\PSoC4/Comm.c ****                         /* Disable input buffer */
 663:Generated_Source\PSoC4/Comm.c ****                         pinsInBuf |= Comm_SS0_PIN_MASK;
 664:Generated_Source\PSoC4/Comm.c ****                     #endif /* (Comm_SS0_PIN) */
 665:Generated_Source\PSoC4/Comm.c ****                     }
 666:Generated_Source\PSoC4/Comm.c ****                 }
 667:Generated_Source\PSoC4/Comm.c ****             #endif /* !(Comm_CY_SCBIP_V0 || Comm_CY_SCBIP_V1) */
 668:Generated_Source\PSoC4/Comm.c ****             }
 669:Generated_Source\PSoC4/Comm.c ****         }
 670:Generated_Source\PSoC4/Comm.c ****     #endif /* (!Comm_CY_SCBIP_V1) */
 671:Generated_Source\PSoC4/Comm.c **** 
 672:Generated_Source\PSoC4/Comm.c ****     /* Configure pins: set HSIOM, DM and InputBufEnable */
 673:Generated_Source\PSoC4/Comm.c ****     /* Note: the DR register settings do not effect the pin output if HSIOM is other than GPIO */
 674:Generated_Source\PSoC4/Comm.c **** 
 675:Generated_Source\PSoC4/Comm.c ****     #if (Comm_RX_SCL_MOSI_PIN)
 676:Generated_Source\PSoC4/Comm.c ****         Comm_SET_HSIOM_SEL(Comm_RX_SCL_MOSI_HSIOM_REG,
 492              		.loc 1 676 0
 493 0070 0F21     		mov	r1, #15
 494              	.LVL43:
 495 0072 144F     		ldr	r7, .L57
 496 0074 3A68     		ldr	r2, [r7]
 497 0076 8A43     		bic	r2, r1
 498 0078 1343     		orr	r3, r2
 499 007a 3B60     		str	r3, [r7]
 677:Generated_Source\PSoC4/Comm.c ****                                        Comm_RX_SCL_MOSI_HSIOM_MASK,
 678:Generated_Source\PSoC4/Comm.c ****                                        Comm_RX_SCL_MOSI_HSIOM_POS,
 679:Generated_Source\PSoC4/Comm.c ****                                         hsiomSel[Comm_RX_SCL_MOSI_PIN_INDEX]);
 680:Generated_Source\PSoC4/Comm.c **** 
 681:Generated_Source\PSoC4/Comm.c ****         Comm_uart_rx_i2c_scl_spi_mosi_SetDriveMode((uint8) pinsDm[Comm_RX_SCL_MOSI_PIN_INDEX]);
 500              		.loc 1 681 0
 501 007c 019B     		ldr	r3, [sp, #4]
 502 007e D8B2     		uxtb	r0, r3
 503              	.LVL44:
 504 0080 FFF7FEFF 		bl	Comm_uart_rx_i2c_scl_spi_mosi_SetDriveMode
 505              	.LVL45:
 682:Generated_Source\PSoC4/Comm.c **** 
 683:Generated_Source\PSoC4/Comm.c ****         #if (!Comm_CY_SCBIP_V1)
 684:Generated_Source\PSoC4/Comm.c ****             Comm_SET_INP_DIS(Comm_uart_rx_i2c_scl_spi_mosi_INP_DIS,
 506              		.loc 1 684 0
 507 0084 0121     		mov	r1, #1
 508 0086 3B1C     		mov	r3, r7
 509 0088 0F4F     		ldr	r7, .L57+4
 510 008a 3A68     		ldr	r2, [r7]
 511 008c 0D42     		tst	r5, r1
 512 008e 02D0     		beq	.L46
 513              		.loc 1 684 0 is_stmt 0 discriminator 1
 514 0090 1143     		orr	r1, r2
 515 0092 3960     		str	r1, [r7]
 516 0094 01E0     		b	.L47
 517              	.L46:
ARM GAS  C:\Users\TECHCO~1\AppData\Local\Temp\ccimnBS9.s 			page 23


 518              		.loc 1 684 0 discriminator 2
 519 0096 8A43     		bic	r2, r1
 520 0098 3A60     		str	r2, [r7]
 521              	.L47:
 685:Generated_Source\PSoC4/Comm.c ****                                          Comm_uart_rx_i2c_scl_spi_mosi_MASK,
 686:Generated_Source\PSoC4/Comm.c ****                                          (0u != (pinsInBuf & Comm_RX_SCL_MOSI_PIN_MASK)));
 687:Generated_Source\PSoC4/Comm.c ****         #endif /* (!Comm_CY_SCBIP_V1) */
 688:Generated_Source\PSoC4/Comm.c ****     
 689:Generated_Source\PSoC4/Comm.c ****     #elif (Comm_RX_WAKE_SCL_MOSI_PIN)
 690:Generated_Source\PSoC4/Comm.c ****         Comm_SET_HSIOM_SEL(Comm_RX_WAKE_SCL_MOSI_HSIOM_REG,
 691:Generated_Source\PSoC4/Comm.c ****                                        Comm_RX_WAKE_SCL_MOSI_HSIOM_MASK,
 692:Generated_Source\PSoC4/Comm.c ****                                        Comm_RX_WAKE_SCL_MOSI_HSIOM_POS,
 693:Generated_Source\PSoC4/Comm.c ****                                        hsiomSel[Comm_RX_WAKE_SCL_MOSI_PIN_INDEX]);
 694:Generated_Source\PSoC4/Comm.c **** 
 695:Generated_Source\PSoC4/Comm.c ****         Comm_uart_rx_wake_i2c_scl_spi_mosi_SetDriveMode((uint8)
 696:Generated_Source\PSoC4/Comm.c ****                                                                pinsDm[Comm_RX_WAKE_SCL_MOSI_PIN_IND
 697:Generated_Source\PSoC4/Comm.c **** 
 698:Generated_Source\PSoC4/Comm.c ****         Comm_SET_INP_DIS(Comm_uart_rx_wake_i2c_scl_spi_mosi_INP_DIS,
 699:Generated_Source\PSoC4/Comm.c ****                                      Comm_uart_rx_wake_i2c_scl_spi_mosi_MASK,
 700:Generated_Source\PSoC4/Comm.c ****                                      (0u != (pinsInBuf & Comm_RX_WAKE_SCL_MOSI_PIN_MASK)));
 701:Generated_Source\PSoC4/Comm.c **** 
 702:Generated_Source\PSoC4/Comm.c ****          /* Set interrupt on falling edge */
 703:Generated_Source\PSoC4/Comm.c ****         Comm_SET_INCFG_TYPE(Comm_RX_WAKE_SCL_MOSI_INTCFG_REG,
 704:Generated_Source\PSoC4/Comm.c ****                                         Comm_RX_WAKE_SCL_MOSI_INTCFG_TYPE_MASK,
 705:Generated_Source\PSoC4/Comm.c ****                                         Comm_RX_WAKE_SCL_MOSI_INTCFG_TYPE_POS,
 706:Generated_Source\PSoC4/Comm.c ****                                         Comm_INTCFG_TYPE_FALLING_EDGE);
 707:Generated_Source\PSoC4/Comm.c ****     #else
 708:Generated_Source\PSoC4/Comm.c ****     #endif /* (Comm_RX_WAKE_SCL_MOSI_PIN) */
 709:Generated_Source\PSoC4/Comm.c **** 
 710:Generated_Source\PSoC4/Comm.c ****     #if (Comm_TX_SDA_MISO_PIN)
 711:Generated_Source\PSoC4/Comm.c ****         Comm_SET_HSIOM_SEL(Comm_TX_SDA_MISO_HSIOM_REG,
 522              		.loc 1 711 0 is_stmt 1
 523 009a F021     		mov	r1, #240
 524 009c 1A68     		ldr	r2, [r3]
 525 009e 2401     		lsl	r4, r4, #4
 526              	.LVL46:
 527 00a0 8A43     		bic	r2, r1
 528 00a2 1443     		orr	r4, r2
 529 00a4 1C60     		str	r4, [r3]
 712:Generated_Source\PSoC4/Comm.c ****                                        Comm_TX_SDA_MISO_HSIOM_MASK,
 713:Generated_Source\PSoC4/Comm.c ****                                        Comm_TX_SDA_MISO_HSIOM_POS,
 714:Generated_Source\PSoC4/Comm.c ****                                         hsiomSel[Comm_TX_SDA_MISO_PIN_INDEX]);
 715:Generated_Source\PSoC4/Comm.c **** 
 716:Generated_Source\PSoC4/Comm.c ****         Comm_uart_tx_i2c_sda_spi_miso_SetDriveMode((uint8) pinsDm[Comm_TX_SDA_MISO_PIN_INDEX]);
 530              		.loc 1 716 0
 531 00a6 7068     		ldr	r0, [r6, #4]
 532 00a8 C0B2     		uxtb	r0, r0
 533 00aa FFF7FEFF 		bl	Comm_uart_tx_i2c_sda_spi_miso_SetDriveMode
 534              	.LVL47:
 717:Generated_Source\PSoC4/Comm.c **** 
 718:Generated_Source\PSoC4/Comm.c ****     #if (!Comm_CY_SCBIP_V1)
 719:Generated_Source\PSoC4/Comm.c ****         Comm_SET_INP_DIS(Comm_uart_tx_i2c_sda_spi_miso_INP_DIS,
 535              		.loc 1 719 0
 536 00ae 0222     		mov	r2, #2
 537 00b0 3B68     		ldr	r3, [r7]
 538 00b2 1542     		tst	r5, r2
 539 00b4 02D0     		beq	.L48
ARM GAS  C:\Users\TECHCO~1\AppData\Local\Temp\ccimnBS9.s 			page 24


 540              		.loc 1 719 0 is_stmt 0 discriminator 1
 541 00b6 1A43     		orr	r2, r3
 542 00b8 3A60     		str	r2, [r7]
 543 00ba 01E0     		b	.L37
 544              	.L48:
 545              		.loc 1 719 0 discriminator 2
 546 00bc 9343     		bic	r3, r2
 547 00be 3B60     		str	r3, [r7]
 548              	.L37:
 720:Generated_Source\PSoC4/Comm.c ****                                      Comm_uart_tx_i2c_sda_spi_miso_MASK,
 721:Generated_Source\PSoC4/Comm.c ****                                     (0u != (pinsInBuf & Comm_TX_SDA_MISO_PIN_MASK)));
 722:Generated_Source\PSoC4/Comm.c ****     #endif /* (!Comm_CY_SCBIP_V1) */
 723:Generated_Source\PSoC4/Comm.c ****     #endif /* (Comm_RX_SCL_MOSI_PIN) */
 724:Generated_Source\PSoC4/Comm.c **** 
 725:Generated_Source\PSoC4/Comm.c ****     #if (Comm_SCLK_PIN)
 726:Generated_Source\PSoC4/Comm.c ****         Comm_SET_HSIOM_SEL(Comm_SCLK_HSIOM_REG,
 727:Generated_Source\PSoC4/Comm.c ****                                        Comm_SCLK_HSIOM_MASK,
 728:Generated_Source\PSoC4/Comm.c ****                                        Comm_SCLK_HSIOM_POS,
 729:Generated_Source\PSoC4/Comm.c ****                                        hsiomSel[Comm_SCLK_PIN_INDEX]);
 730:Generated_Source\PSoC4/Comm.c **** 
 731:Generated_Source\PSoC4/Comm.c ****         Comm_spi_sclk_SetDriveMode((uint8) pinsDm[Comm_SCLK_PIN_INDEX]);
 732:Generated_Source\PSoC4/Comm.c **** 
 733:Generated_Source\PSoC4/Comm.c ****         Comm_SET_INP_DIS(Comm_spi_sclk_INP_DIS,
 734:Generated_Source\PSoC4/Comm.c ****                                      Comm_spi_sclk_MASK,
 735:Generated_Source\PSoC4/Comm.c ****                                      (0u != (pinsInBuf & Comm_SCLK_PIN_MASK)));
 736:Generated_Source\PSoC4/Comm.c ****     #endif /* (Comm_SCLK_PIN) */
 737:Generated_Source\PSoC4/Comm.c **** 
 738:Generated_Source\PSoC4/Comm.c ****     #if (Comm_SS0_PIN)
 739:Generated_Source\PSoC4/Comm.c ****         Comm_SET_HSIOM_SEL(Comm_SS0_HSIOM_REG,
 740:Generated_Source\PSoC4/Comm.c ****                                        Comm_SS0_HSIOM_MASK,
 741:Generated_Source\PSoC4/Comm.c ****                                        Comm_SS0_HSIOM_POS,
 742:Generated_Source\PSoC4/Comm.c ****                                        hsiomSel[Comm_SS0_PIN_INDEX]);
 743:Generated_Source\PSoC4/Comm.c **** 
 744:Generated_Source\PSoC4/Comm.c ****         Comm_spi_ss0_SetDriveMode((uint8) pinsDm[Comm_SS0_PIN_INDEX]);
 745:Generated_Source\PSoC4/Comm.c **** 
 746:Generated_Source\PSoC4/Comm.c ****         Comm_SET_INP_DIS(Comm_spi_ss0_INP_DIS,
 747:Generated_Source\PSoC4/Comm.c ****                                      Comm_spi_ss0_MASK,
 748:Generated_Source\PSoC4/Comm.c ****                                      (0u != (pinsInBuf & Comm_SS0_PIN_MASK)));
 749:Generated_Source\PSoC4/Comm.c ****     #endif /* (Comm_SS0_PIN) */
 750:Generated_Source\PSoC4/Comm.c **** 
 751:Generated_Source\PSoC4/Comm.c ****     #if (Comm_SS1_PIN)
 752:Generated_Source\PSoC4/Comm.c ****         Comm_SET_HSIOM_SEL(Comm_SS1_HSIOM_REG,
 753:Generated_Source\PSoC4/Comm.c ****                                        Comm_SS1_HSIOM_MASK,
 754:Generated_Source\PSoC4/Comm.c ****                                        Comm_SS1_HSIOM_POS,
 755:Generated_Source\PSoC4/Comm.c ****                                        hsiomSel[Comm_SS1_PIN_INDEX]);
 756:Generated_Source\PSoC4/Comm.c **** 
 757:Generated_Source\PSoC4/Comm.c ****         Comm_spi_ss1_SetDriveMode((uint8) pinsDm[Comm_SS1_PIN_INDEX]);
 758:Generated_Source\PSoC4/Comm.c **** 
 759:Generated_Source\PSoC4/Comm.c ****         Comm_SET_INP_DIS(Comm_spi_ss1_INP_DIS,
 760:Generated_Source\PSoC4/Comm.c ****                                      Comm_spi_ss1_MASK,
 761:Generated_Source\PSoC4/Comm.c ****                                      (0u != (pinsInBuf & Comm_SS1_PIN_MASK)));
 762:Generated_Source\PSoC4/Comm.c ****     #endif /* (Comm_SS1_PIN) */
 763:Generated_Source\PSoC4/Comm.c **** 
 764:Generated_Source\PSoC4/Comm.c ****     #if (Comm_SS2_PIN)
 765:Generated_Source\PSoC4/Comm.c ****         Comm_SET_HSIOM_SEL(Comm_SS2_HSIOM_REG,
 766:Generated_Source\PSoC4/Comm.c ****                                        Comm_SS2_HSIOM_MASK,
 767:Generated_Source\PSoC4/Comm.c ****                                        Comm_SS2_HSIOM_POS,
ARM GAS  C:\Users\TECHCO~1\AppData\Local\Temp\ccimnBS9.s 			page 25


 768:Generated_Source\PSoC4/Comm.c ****                                        hsiomSel[Comm_SS2_PIN_INDEX]);
 769:Generated_Source\PSoC4/Comm.c **** 
 770:Generated_Source\PSoC4/Comm.c ****         Comm_spi_ss2_SetDriveMode((uint8) pinsDm[Comm_SS2_PIN_INDEX]);
 771:Generated_Source\PSoC4/Comm.c **** 
 772:Generated_Source\PSoC4/Comm.c ****         Comm_SET_INP_DIS(Comm_spi_ss2_INP_DIS,
 773:Generated_Source\PSoC4/Comm.c ****                                      Comm_spi_ss2_MASK,
 774:Generated_Source\PSoC4/Comm.c ****                                      (0u != (pinsInBuf & Comm_SS2_PIN_MASK)));
 775:Generated_Source\PSoC4/Comm.c ****     #endif /* (Comm_SS2_PIN) */
 776:Generated_Source\PSoC4/Comm.c **** 
 777:Generated_Source\PSoC4/Comm.c ****     #if (Comm_SS3_PIN)
 778:Generated_Source\PSoC4/Comm.c ****         Comm_SET_HSIOM_SEL(Comm_SS3_HSIOM_REG,
 779:Generated_Source\PSoC4/Comm.c ****                                        Comm_SS3_HSIOM_MASK,
 780:Generated_Source\PSoC4/Comm.c ****                                        Comm_SS3_HSIOM_POS,
 781:Generated_Source\PSoC4/Comm.c ****                                        hsiomSel[Comm_SS3_PIN_INDEX]);
 782:Generated_Source\PSoC4/Comm.c **** 
 783:Generated_Source\PSoC4/Comm.c ****         Comm_spi_ss3_SetDriveMode((uint8) pinsDm[Comm_SS3_PIN_INDEX]);
 784:Generated_Source\PSoC4/Comm.c **** 
 785:Generated_Source\PSoC4/Comm.c ****         Comm_SET_INP_DIS(Comm_spi_ss3_INP_DIS,
 786:Generated_Source\PSoC4/Comm.c ****                                      Comm_spi_ss3_MASK,
 787:Generated_Source\PSoC4/Comm.c ****                                      (0u != (pinsInBuf & Comm_SS3_PIN_MASK)));
 788:Generated_Source\PSoC4/Comm.c ****     #endif /* (Comm_SS3_PIN) */
 789:Generated_Source\PSoC4/Comm.c ****     }
 549              		.loc 1 789 0 is_stmt 1
 550 00c0 09B0     		add	sp, sp, #36
 551              		@ sp needed
 552              	.LVL48:
 553 00c2 F0BD     		pop	{r4, r5, r6, r7, pc}
 554              	.L58:
 555              		.align	2
 556              	.L57:
 557 00c4 10000140 		.word	1073807376
 558 00c8 18040440 		.word	1074005016
 559              		.cfi_endproc
 560              	.LFE10:
 561              		.size	Comm_SetPins, .-Comm_SetPins
 562              		.section	.text.Comm_I2CSlaveNackGeneration,"ax",%progbits
 563              		.align	1
 564              		.global	Comm_I2CSlaveNackGeneration
 565              		.code	16
 566              		.thumb_func
 567              		.type	Comm_I2CSlaveNackGeneration, %function
 568              	Comm_I2CSlaveNackGeneration:
 569              	.LFB11:
 790:Generated_Source\PSoC4/Comm.c **** 
 791:Generated_Source\PSoC4/Comm.c **** #endif /* (Comm_SCB_MODE_UNCONFIG_CONST_CFG) */
 792:Generated_Source\PSoC4/Comm.c **** 
 793:Generated_Source\PSoC4/Comm.c **** 
 794:Generated_Source\PSoC4/Comm.c **** #if (Comm_CY_SCBIP_V0 || Comm_CY_SCBIP_V1)
 795:Generated_Source\PSoC4/Comm.c ****     /*******************************************************************************
 796:Generated_Source\PSoC4/Comm.c ****     * Function Name: Comm_I2CSlaveNackGeneration
 797:Generated_Source\PSoC4/Comm.c ****     ****************************************************************************//**
 798:Generated_Source\PSoC4/Comm.c ****     *
 799:Generated_Source\PSoC4/Comm.c ****     *  Sets command to generate NACK to the address or data.
 800:Generated_Source\PSoC4/Comm.c ****     *
 801:Generated_Source\PSoC4/Comm.c ****     *******************************************************************************/
 802:Generated_Source\PSoC4/Comm.c ****     void Comm_I2CSlaveNackGeneration(void)
 803:Generated_Source\PSoC4/Comm.c ****     {
ARM GAS  C:\Users\TECHCO~1\AppData\Local\Temp\ccimnBS9.s 			page 26


 570              		.loc 1 803 0
 571              		.cfi_startproc
 804:Generated_Source\PSoC4/Comm.c ****         /* Check for EC_AM toggle condition: EC_AM and clock stretching for address are enabled */
 805:Generated_Source\PSoC4/Comm.c ****         if ((0u != (Comm_CTRL_REG & Comm_CTRL_EC_AM_MODE)) &&
 572              		.loc 1 805 0
 573 0000 8020     		mov	r0, #128
 574 0002 0A4B     		ldr	r3, .L64
 575 0004 4000     		lsl	r0, r0, #1
 576 0006 1A68     		ldr	r2, [r3]
 577 0008 0242     		tst	r2, r0
 578 000a 0AD0     		beq	.L60
 806:Generated_Source\PSoC4/Comm.c ****             (0u == (Comm_I2C_CTRL_REG & Comm_I2C_CTRL_S_NOT_READY_ADDR_NACK)))
 579              		.loc 1 806 0 discriminator 1
 580 000c 084A     		ldr	r2, .L64+4
 581 000e 1268     		ldr	r2, [r2]
 805:Generated_Source\PSoC4/Comm.c ****             (0u == (Comm_I2C_CTRL_REG & Comm_I2C_CTRL_S_NOT_READY_ADDR_NACK)))
 582              		.loc 1 805 0 discriminator 1
 583 0010 5204     		lsl	r2, r2, #17
 584 0012 06D4     		bmi	.L60
 807:Generated_Source\PSoC4/Comm.c ****         {
 808:Generated_Source\PSoC4/Comm.c ****             /* Toggle EC_AM before NACK generation */
 809:Generated_Source\PSoC4/Comm.c ****             Comm_CTRL_REG &= ~Comm_CTRL_EC_AM_MODE;
 585              		.loc 1 809 0
 586 0014 1A68     		ldr	r2, [r3]
 587 0016 0749     		ldr	r1, .L64+8
 588 0018 1140     		and	r1, r2
 589 001a 1960     		str	r1, [r3]
 810:Generated_Source\PSoC4/Comm.c ****             Comm_CTRL_REG |=  Comm_CTRL_EC_AM_MODE;
 590              		.loc 1 810 0
 591 001c 1A68     		ldr	r2, [r3]
 592 001e 0243     		orr	r2, r0
 593 0020 1A60     		str	r2, [r3]
 594              	.L60:
 811:Generated_Source\PSoC4/Comm.c ****         }
 812:Generated_Source\PSoC4/Comm.c **** 
 813:Generated_Source\PSoC4/Comm.c ****         Comm_I2C_SLAVE_CMD_REG = Comm_I2C_SLAVE_CMD_S_NACK;
 595              		.loc 1 813 0
 596 0022 0222     		mov	r2, #2
 597 0024 044B     		ldr	r3, .L64+12
 814:Generated_Source\PSoC4/Comm.c ****     }
 598              		.loc 1 814 0
 599              		@ sp needed
 813:Generated_Source\PSoC4/Comm.c ****     }
 600              		.loc 1 813 0
 601 0026 1A60     		str	r2, [r3]
 602              		.loc 1 814 0
 603 0028 7047     		bx	lr
 604              	.L65:
 605 002a C046     		.align	2
 606              	.L64:
 607 002c 00000640 		.word	1074135040
 608 0030 60000640 		.word	1074135136
 609 0034 FFFEFFFF 		.word	-257
 610 0038 6C000640 		.word	1074135148
 611              		.cfi_endproc
 612              	.LFE11:
 613              		.size	Comm_I2CSlaveNackGeneration, .-Comm_I2CSlaveNackGeneration
ARM GAS  C:\Users\TECHCO~1\AppData\Local\Temp\ccimnBS9.s 			page 27


 614              		.global	Comm_customIntrHandler
 615              		.global	Comm_IntrTxMask
 616              		.global	Comm_initVar
 617              		.comm	Comm_subAddrSize,1,1
 618              		.comm	Comm_numberOfAddr,1,1
 619              		.comm	Comm_txBufferSize,4,4
 620              		.comm	Comm_txDataBits,1,1
 621              		.comm	Comm_txBuffer,4,4
 622              		.comm	Comm_rxBufferSize,4,4
 623              		.comm	Comm_rxDataBits,1,1
 624              		.comm	Comm_rxBuffer,4,4
 625              		.comm	Comm_acceptAddr,1,1
 626              		.comm	Comm_mode,1,1
 627              		.comm	Comm_scbEnableIntr,1,1
 628              		.comm	Comm_scbEnableWake,1,1
 629              		.global	Comm_scbMode
 630              		.data
 631              		.set	.LANCHOR0,. + 0
 632              		.type	Comm_scbMode, %object
 633              		.size	Comm_scbMode, 1
 634              	Comm_scbMode:
 635 0000 FF       		.byte	-1
 636              		.bss
 637              		.align	2
 638              		.set	.LANCHOR1,. + 0
 639              		.type	Comm_initVar, %object
 640              		.size	Comm_initVar, 1
 641              	Comm_initVar:
 642 0000 00       		.space	1
 643 0001 000000   		.space	3
 644              		.type	Comm_customIntrHandler, %object
 645              		.size	Comm_customIntrHandler, 4
 646              	Comm_customIntrHandler:
 647 0004 00000000 		.space	4
 648              		.type	Comm_IntrTxMask, %object
 649              		.size	Comm_IntrTxMask, 2
 650              	Comm_IntrTxMask:
 651 0008 0000     		.space	2
 652 000a 0000     		.text
 653              	.Letext0:
 654              		.file 2 "Generated_Source\\PSoC4/cytypes.h"
 655              		.file 3 "Generated_Source\\PSoC4\\Comm_SPI_UART_PVT.h"
 656              		.file 4 "Generated_Source\\PSoC4\\Comm_I2C_PVT.h"
 657              		.file 5 "Generated_Source\\PSoC4\\Comm_EZI2C_PVT.h"
 658              		.file 6 "Generated_Source\\PSoC4/CyLib.h"
 659              		.file 7 "Generated_Source\\PSoC4\\Comm_uart_rx_i2c_scl_spi_mosi.h"
 660              		.file 8 "Generated_Source\\PSoC4\\Comm_uart_tx_i2c_sda_spi_miso.h"