ARM GAS  C:\Users\TECHCO~1\AppData\Local\Temp\cceWCpvs.s 			page 1


   1              		.cpu cortex-m0
   2              		.fpu softvfp
   3              		.eabi_attribute 20, 1
   4              		.eabi_attribute 21, 1
   5              		.eabi_attribute 23, 3
   6              		.eabi_attribute 24, 1
   7              		.eabi_attribute 25, 1
   8              		.eabi_attribute 26, 1
   9              		.eabi_attribute 30, 4
  10              		.eabi_attribute 34, 0
  11              		.eabi_attribute 18, 4
  12              		.code	16
  13              		.file	"Comm_SPI_UART.c"
  14              		.text
  15              	.Ltext0:
  16              		.cfi_sections	.debug_frame
  17              		.section	.text.Comm_SpiUartGetRxBufferSize,"ax",%progbits
  18              		.align	1
  19              		.global	Comm_SpiUartGetRxBufferSize
  20              		.code	16
  21              		.thumb_func
  22              		.type	Comm_SpiUartGetRxBufferSize, %function
  23              	Comm_SpiUartGetRxBufferSize:
  24              	.LFB1:
  25              		.file 1 "Generated_Source\\PSoC4\\Comm_SPI_UART.c"
   1:Generated_Source\PSoC4/Comm_SPI_UART.c **** /***************************************************************************//**
   2:Generated_Source\PSoC4/Comm_SPI_UART.c **** * \file Comm_SPI_UART.c
   3:Generated_Source\PSoC4/Comm_SPI_UART.c **** * \version 3.20
   4:Generated_Source\PSoC4/Comm_SPI_UART.c **** *
   5:Generated_Source\PSoC4/Comm_SPI_UART.c **** * \brief
   6:Generated_Source\PSoC4/Comm_SPI_UART.c **** *  This file provides the source code to the API for the SCB Component in
   7:Generated_Source\PSoC4/Comm_SPI_UART.c **** *  SPI and UART modes.
   8:Generated_Source\PSoC4/Comm_SPI_UART.c **** *
   9:Generated_Source\PSoC4/Comm_SPI_UART.c **** * Note:
  10:Generated_Source\PSoC4/Comm_SPI_UART.c **** *
  11:Generated_Source\PSoC4/Comm_SPI_UART.c **** *******************************************************************************
  12:Generated_Source\PSoC4/Comm_SPI_UART.c **** * \copyright
  13:Generated_Source\PSoC4/Comm_SPI_UART.c **** * Copyright 2013-2016, Cypress Semiconductor Corporation.  All rights reserved.
  14:Generated_Source\PSoC4/Comm_SPI_UART.c **** * You may use this file only in accordance with the license, terms, conditions,
  15:Generated_Source\PSoC4/Comm_SPI_UART.c **** * disclaimers, and limitations in the end user license agreement accompanying
  16:Generated_Source\PSoC4/Comm_SPI_UART.c **** * the software package with which this file was provided.
  17:Generated_Source\PSoC4/Comm_SPI_UART.c **** *******************************************************************************/
  18:Generated_Source\PSoC4/Comm_SPI_UART.c **** 
  19:Generated_Source\PSoC4/Comm_SPI_UART.c **** #include "Comm_PVT.h"
  20:Generated_Source\PSoC4/Comm_SPI_UART.c **** #include "Comm_SPI_UART_PVT.h"
  21:Generated_Source\PSoC4/Comm_SPI_UART.c **** 
  22:Generated_Source\PSoC4/Comm_SPI_UART.c **** /***************************************
  23:Generated_Source\PSoC4/Comm_SPI_UART.c **** *        SPI/UART Private Vars
  24:Generated_Source\PSoC4/Comm_SPI_UART.c **** ***************************************/
  25:Generated_Source\PSoC4/Comm_SPI_UART.c **** 
  26:Generated_Source\PSoC4/Comm_SPI_UART.c **** #if(Comm_INTERNAL_RX_SW_BUFFER_CONST)
  27:Generated_Source\PSoC4/Comm_SPI_UART.c ****     /* Start index to put data into the software receive buffer.*/
  28:Generated_Source\PSoC4/Comm_SPI_UART.c ****     volatile uint32 Comm_rxBufferHead;
  29:Generated_Source\PSoC4/Comm_SPI_UART.c ****     /* Start index to get data from the software receive buffer.*/
  30:Generated_Source\PSoC4/Comm_SPI_UART.c ****     volatile uint32 Comm_rxBufferTail;
  31:Generated_Source\PSoC4/Comm_SPI_UART.c ****     /**
  32:Generated_Source\PSoC4/Comm_SPI_UART.c ****     * \addtogroup group_globals
ARM GAS  C:\Users\TECHCO~1\AppData\Local\Temp\cceWCpvs.s 			page 2


  33:Generated_Source\PSoC4/Comm_SPI_UART.c ****     * \{
  34:Generated_Source\PSoC4/Comm_SPI_UART.c ****     */
  35:Generated_Source\PSoC4/Comm_SPI_UART.c ****     /** Sets when internal software receive buffer overflow
  36:Generated_Source\PSoC4/Comm_SPI_UART.c ****     *  was occurred.
  37:Generated_Source\PSoC4/Comm_SPI_UART.c ****     */
  38:Generated_Source\PSoC4/Comm_SPI_UART.c ****     volatile uint8  Comm_rxBufferOverflow;
  39:Generated_Source\PSoC4/Comm_SPI_UART.c ****     /** \} globals */
  40:Generated_Source\PSoC4/Comm_SPI_UART.c **** #endif /* (Comm_INTERNAL_RX_SW_BUFFER_CONST) */
  41:Generated_Source\PSoC4/Comm_SPI_UART.c **** 
  42:Generated_Source\PSoC4/Comm_SPI_UART.c **** #if(Comm_INTERNAL_TX_SW_BUFFER_CONST)
  43:Generated_Source\PSoC4/Comm_SPI_UART.c ****     /* Start index to put data into the software transmit buffer.*/
  44:Generated_Source\PSoC4/Comm_SPI_UART.c ****     volatile uint32 Comm_txBufferHead;
  45:Generated_Source\PSoC4/Comm_SPI_UART.c ****     /* Start index to get data from the software transmit buffer.*/
  46:Generated_Source\PSoC4/Comm_SPI_UART.c ****     volatile uint32 Comm_txBufferTail;
  47:Generated_Source\PSoC4/Comm_SPI_UART.c **** #endif /* (Comm_INTERNAL_TX_SW_BUFFER_CONST) */
  48:Generated_Source\PSoC4/Comm_SPI_UART.c **** 
  49:Generated_Source\PSoC4/Comm_SPI_UART.c **** #if(Comm_INTERNAL_RX_SW_BUFFER)
  50:Generated_Source\PSoC4/Comm_SPI_UART.c ****     /* Add one element to the buffer to receive full packet. One byte in receive buffer is always e
  51:Generated_Source\PSoC4/Comm_SPI_UART.c ****     volatile uint8 Comm_rxBufferInternal[Comm_INTERNAL_RX_BUFFER_SIZE];
  52:Generated_Source\PSoC4/Comm_SPI_UART.c **** #endif /* (Comm_INTERNAL_RX_SW_BUFFER) */
  53:Generated_Source\PSoC4/Comm_SPI_UART.c **** 
  54:Generated_Source\PSoC4/Comm_SPI_UART.c **** #if(Comm_INTERNAL_TX_SW_BUFFER)
  55:Generated_Source\PSoC4/Comm_SPI_UART.c ****     volatile uint8 Comm_txBufferInternal[Comm_TX_BUFFER_SIZE];
  56:Generated_Source\PSoC4/Comm_SPI_UART.c **** #endif /* (Comm_INTERNAL_TX_SW_BUFFER) */
  57:Generated_Source\PSoC4/Comm_SPI_UART.c **** 
  58:Generated_Source\PSoC4/Comm_SPI_UART.c **** 
  59:Generated_Source\PSoC4/Comm_SPI_UART.c **** #if(Comm_RX_DIRECTION)
  60:Generated_Source\PSoC4/Comm_SPI_UART.c ****     /*******************************************************************************
  61:Generated_Source\PSoC4/Comm_SPI_UART.c ****     * Function Name: Comm_SpiUartReadRxData
  62:Generated_Source\PSoC4/Comm_SPI_UART.c ****     ****************************************************************************//**
  63:Generated_Source\PSoC4/Comm_SPI_UART.c ****     *
  64:Generated_Source\PSoC4/Comm_SPI_UART.c ****     *  Retrieves the next data element from the receive buffer.
  65:Generated_Source\PSoC4/Comm_SPI_UART.c ****     *   - RX software buffer is disabled: Returns data element retrieved from
  66:Generated_Source\PSoC4/Comm_SPI_UART.c ****     *     RX FIFO. Undefined data will be returned if the RX FIFO is empty.
  67:Generated_Source\PSoC4/Comm_SPI_UART.c ****     *   - RX software buffer is enabled: Returns data element from the software
  68:Generated_Source\PSoC4/Comm_SPI_UART.c ****     *     receive buffer. Zero value is returned if the software receive buffer
  69:Generated_Source\PSoC4/Comm_SPI_UART.c ****     *     is empty.
  70:Generated_Source\PSoC4/Comm_SPI_UART.c ****     *
  71:Generated_Source\PSoC4/Comm_SPI_UART.c ****     * \return
  72:Generated_Source\PSoC4/Comm_SPI_UART.c ****     *  Next data element from the receive buffer. 
  73:Generated_Source\PSoC4/Comm_SPI_UART.c ****     *  The amount of data bits to be received depends on RX data bits selection 
  74:Generated_Source\PSoC4/Comm_SPI_UART.c ****     *  (the data bit counting starts from LSB of return value).
  75:Generated_Source\PSoC4/Comm_SPI_UART.c ****     *
  76:Generated_Source\PSoC4/Comm_SPI_UART.c ****     * \globalvars
  77:Generated_Source\PSoC4/Comm_SPI_UART.c ****     *  Comm_rxBufferHead - the start index to put data into the 
  78:Generated_Source\PSoC4/Comm_SPI_UART.c ****     *  software receive buffer.
  79:Generated_Source\PSoC4/Comm_SPI_UART.c ****     *  Comm_rxBufferTail - the start index to get data from the 
  80:Generated_Source\PSoC4/Comm_SPI_UART.c ****     *  software receive buffer.
  81:Generated_Source\PSoC4/Comm_SPI_UART.c ****     *
  82:Generated_Source\PSoC4/Comm_SPI_UART.c ****     *******************************************************************************/
  83:Generated_Source\PSoC4/Comm_SPI_UART.c ****     uint32 Comm_SpiUartReadRxData(void)
  84:Generated_Source\PSoC4/Comm_SPI_UART.c ****     {
  85:Generated_Source\PSoC4/Comm_SPI_UART.c ****         uint32 rxData = 0u;
  86:Generated_Source\PSoC4/Comm_SPI_UART.c **** 
  87:Generated_Source\PSoC4/Comm_SPI_UART.c ****     #if (Comm_INTERNAL_RX_SW_BUFFER_CONST)
  88:Generated_Source\PSoC4/Comm_SPI_UART.c ****         uint32 locTail;
  89:Generated_Source\PSoC4/Comm_SPI_UART.c ****     #endif /* (Comm_INTERNAL_RX_SW_BUFFER_CONST) */
ARM GAS  C:\Users\TECHCO~1\AppData\Local\Temp\cceWCpvs.s 			page 3


  90:Generated_Source\PSoC4/Comm_SPI_UART.c **** 
  91:Generated_Source\PSoC4/Comm_SPI_UART.c ****         if (Comm_CHECK_RX_SW_BUFFER)
  92:Generated_Source\PSoC4/Comm_SPI_UART.c ****         {
  93:Generated_Source\PSoC4/Comm_SPI_UART.c ****             if (Comm_rxBufferHead != Comm_rxBufferTail)
  94:Generated_Source\PSoC4/Comm_SPI_UART.c ****             {
  95:Generated_Source\PSoC4/Comm_SPI_UART.c ****                 /* There is data in RX software buffer */
  96:Generated_Source\PSoC4/Comm_SPI_UART.c **** 
  97:Generated_Source\PSoC4/Comm_SPI_UART.c ****                 /* Calculate index to read from */
  98:Generated_Source\PSoC4/Comm_SPI_UART.c ****                 locTail = (Comm_rxBufferTail + 1u);
  99:Generated_Source\PSoC4/Comm_SPI_UART.c **** 
 100:Generated_Source\PSoC4/Comm_SPI_UART.c ****                 if (Comm_INTERNAL_RX_BUFFER_SIZE == locTail)
 101:Generated_Source\PSoC4/Comm_SPI_UART.c ****                 {
 102:Generated_Source\PSoC4/Comm_SPI_UART.c ****                     locTail = 0u;
 103:Generated_Source\PSoC4/Comm_SPI_UART.c ****                 }
 104:Generated_Source\PSoC4/Comm_SPI_UART.c **** 
 105:Generated_Source\PSoC4/Comm_SPI_UART.c ****                 /* Get data from RX software buffer */
 106:Generated_Source\PSoC4/Comm_SPI_UART.c ****                 rxData = Comm_GetWordFromRxBuffer(locTail);
 107:Generated_Source\PSoC4/Comm_SPI_UART.c **** 
 108:Generated_Source\PSoC4/Comm_SPI_UART.c ****                 /* Change index in the buffer */
 109:Generated_Source\PSoC4/Comm_SPI_UART.c ****                 Comm_rxBufferTail = locTail;
 110:Generated_Source\PSoC4/Comm_SPI_UART.c **** 
 111:Generated_Source\PSoC4/Comm_SPI_UART.c ****                 if (Comm_CHECK_UART_RTS_CONTROL_FLOW)
 112:Generated_Source\PSoC4/Comm_SPI_UART.c ****                 {
 113:Generated_Source\PSoC4/Comm_SPI_UART.c ****                     /* Check if RX Not Empty is disabled in the interrupt */
 114:Generated_Source\PSoC4/Comm_SPI_UART.c ****                     if (0u == (Comm_INTR_RX_MASK_REG & Comm_INTR_RX_NOT_EMPTY))
 115:Generated_Source\PSoC4/Comm_SPI_UART.c ****                     {
 116:Generated_Source\PSoC4/Comm_SPI_UART.c ****                         /* Enable RX Not Empty interrupt source to continue
 117:Generated_Source\PSoC4/Comm_SPI_UART.c ****                         * receiving data into software buffer.
 118:Generated_Source\PSoC4/Comm_SPI_UART.c ****                         */
 119:Generated_Source\PSoC4/Comm_SPI_UART.c ****                         Comm_INTR_RX_MASK_REG |= Comm_INTR_RX_NOT_EMPTY;
 120:Generated_Source\PSoC4/Comm_SPI_UART.c ****                     }
 121:Generated_Source\PSoC4/Comm_SPI_UART.c ****                 }
 122:Generated_Source\PSoC4/Comm_SPI_UART.c ****                 
 123:Generated_Source\PSoC4/Comm_SPI_UART.c **** 
 124:Generated_Source\PSoC4/Comm_SPI_UART.c ****             }
 125:Generated_Source\PSoC4/Comm_SPI_UART.c ****         }
 126:Generated_Source\PSoC4/Comm_SPI_UART.c ****         else
 127:Generated_Source\PSoC4/Comm_SPI_UART.c ****         {
 128:Generated_Source\PSoC4/Comm_SPI_UART.c ****             /* Read data from RX FIFO */
 129:Generated_Source\PSoC4/Comm_SPI_UART.c ****             rxData = Comm_RX_FIFO_RD_REG;
 130:Generated_Source\PSoC4/Comm_SPI_UART.c ****         }
 131:Generated_Source\PSoC4/Comm_SPI_UART.c ****         
 132:Generated_Source\PSoC4/Comm_SPI_UART.c **** 
 133:Generated_Source\PSoC4/Comm_SPI_UART.c ****         return (rxData);
 134:Generated_Source\PSoC4/Comm_SPI_UART.c ****     }
 135:Generated_Source\PSoC4/Comm_SPI_UART.c **** 
 136:Generated_Source\PSoC4/Comm_SPI_UART.c **** 
 137:Generated_Source\PSoC4/Comm_SPI_UART.c ****     /*******************************************************************************
 138:Generated_Source\PSoC4/Comm_SPI_UART.c ****     * Function Name: Comm_SpiUartGetRxBufferSize
 139:Generated_Source\PSoC4/Comm_SPI_UART.c ****     ****************************************************************************//**
 140:Generated_Source\PSoC4/Comm_SPI_UART.c ****     *
 141:Generated_Source\PSoC4/Comm_SPI_UART.c ****     *  Returns the number of received data elements in the receive buffer.
 142:Generated_Source\PSoC4/Comm_SPI_UART.c ****     *   - RX software buffer disabled: returns the number of used entries in
 143:Generated_Source\PSoC4/Comm_SPI_UART.c ****     *     RX FIFO.
 144:Generated_Source\PSoC4/Comm_SPI_UART.c ****     *   - RX software buffer enabled: returns the number of elements which were
 145:Generated_Source\PSoC4/Comm_SPI_UART.c ****     *     placed in the receive buffer. This does not include the hardware RX FIFO.
 146:Generated_Source\PSoC4/Comm_SPI_UART.c ****     *
ARM GAS  C:\Users\TECHCO~1\AppData\Local\Temp\cceWCpvs.s 			page 4


 147:Generated_Source\PSoC4/Comm_SPI_UART.c ****     * \return
 148:Generated_Source\PSoC4/Comm_SPI_UART.c ****     *  Number of received data elements.
 149:Generated_Source\PSoC4/Comm_SPI_UART.c ****     *
 150:Generated_Source\PSoC4/Comm_SPI_UART.c ****     * \globalvars
 151:Generated_Source\PSoC4/Comm_SPI_UART.c ****     *  Comm_rxBufferHead - the start index to put data into the 
 152:Generated_Source\PSoC4/Comm_SPI_UART.c ****     *  software receive buffer.
 153:Generated_Source\PSoC4/Comm_SPI_UART.c ****     *  Comm_rxBufferTail - the start index to get data from the 
 154:Generated_Source\PSoC4/Comm_SPI_UART.c ****     *  software receive buffer.
 155:Generated_Source\PSoC4/Comm_SPI_UART.c ****     *
 156:Generated_Source\PSoC4/Comm_SPI_UART.c ****     *******************************************************************************/
 157:Generated_Source\PSoC4/Comm_SPI_UART.c ****     uint32 Comm_SpiUartGetRxBufferSize(void)
 158:Generated_Source\PSoC4/Comm_SPI_UART.c ****     {
  26              		.loc 1 158 0
  27              		.cfi_startproc
 159:Generated_Source\PSoC4/Comm_SPI_UART.c ****         uint32 size;
 160:Generated_Source\PSoC4/Comm_SPI_UART.c ****     #if (Comm_INTERNAL_RX_SW_BUFFER_CONST)
 161:Generated_Source\PSoC4/Comm_SPI_UART.c ****         uint32 locHead;
 162:Generated_Source\PSoC4/Comm_SPI_UART.c ****     #endif /* (Comm_INTERNAL_RX_SW_BUFFER_CONST) */
 163:Generated_Source\PSoC4/Comm_SPI_UART.c **** 
 164:Generated_Source\PSoC4/Comm_SPI_UART.c ****         if (Comm_CHECK_RX_SW_BUFFER)
  28              		.loc 1 164 0
  29 0000 0C4B     		ldr	r3, .L6
  30 0002 1B68     		ldr	r3, [r3]
  31 0004 002B     		cmp	r3, #0
  32 0006 0FD0     		beq	.L2
 165:Generated_Source\PSoC4/Comm_SPI_UART.c ****         {
 166:Generated_Source\PSoC4/Comm_SPI_UART.c ****             locHead = Comm_rxBufferHead;
  33              		.loc 1 166 0
  34 0008 0B4B     		ldr	r3, .L6+4
  35 000a 1868     		ldr	r0, [r3]
  36              	.LVL0:
 167:Generated_Source\PSoC4/Comm_SPI_UART.c **** 
 168:Generated_Source\PSoC4/Comm_SPI_UART.c ****             if(locHead >= Comm_rxBufferTail)
  37              		.loc 1 168 0
  38 000c 0B4B     		ldr	r3, .L6+8
  39 000e 1A68     		ldr	r2, [r3]
  40 0010 9042     		cmp	r0, r2
  41 0012 02D3     		bcc	.L3
 169:Generated_Source\PSoC4/Comm_SPI_UART.c ****             {
 170:Generated_Source\PSoC4/Comm_SPI_UART.c ****                 size = (locHead - Comm_rxBufferTail);
  42              		.loc 1 170 0
  43 0014 1B68     		ldr	r3, [r3]
  44 0016 C01A     		sub	r0, r0, r3
  45              	.LVL1:
  46 0018 0AE0     		b	.L4
  47              	.LVL2:
  48              	.L3:
 171:Generated_Source\PSoC4/Comm_SPI_UART.c ****             }
 172:Generated_Source\PSoC4/Comm_SPI_UART.c ****             else
 173:Generated_Source\PSoC4/Comm_SPI_UART.c ****             {
 174:Generated_Source\PSoC4/Comm_SPI_UART.c ****                 size = (locHead + (Comm_INTERNAL_RX_BUFFER_SIZE - Comm_rxBufferTail));
  49              		.loc 1 174 0
  50 001a 1A68     		ldr	r2, [r3]
  51 001c 084B     		ldr	r3, .L6+12
  52 001e 1B68     		ldr	r3, [r3]
  53 0020 C018     		add	r0, r0, r3
  54              	.LVL3:
ARM GAS  C:\Users\TECHCO~1\AppData\Local\Temp\cceWCpvs.s 			page 5


  55 0022 0130     		add	r0, r0, #1
  56 0024 801A     		sub	r0, r0, r2
  57              	.LVL4:
  58 0026 03E0     		b	.L4
  59              	.LVL5:
  60              	.L2:
 175:Generated_Source\PSoC4/Comm_SPI_UART.c ****             }
 176:Generated_Source\PSoC4/Comm_SPI_UART.c ****         }
 177:Generated_Source\PSoC4/Comm_SPI_UART.c ****         else
 178:Generated_Source\PSoC4/Comm_SPI_UART.c ****         {
 179:Generated_Source\PSoC4/Comm_SPI_UART.c ****             size = Comm_GET_RX_FIFO_ENTRIES;
  61              		.loc 1 179 0
  62 0028 064B     		ldr	r3, .L6+16
  63 002a 1868     		ldr	r0, [r3]
  64 002c 0F23     		mov	r3, #15
  65 002e 1840     		and	r0, r3
  66              	.LVL6:
  67              	.L4:
 180:Generated_Source\PSoC4/Comm_SPI_UART.c ****         }
 181:Generated_Source\PSoC4/Comm_SPI_UART.c ****         
 182:Generated_Source\PSoC4/Comm_SPI_UART.c **** 
 183:Generated_Source\PSoC4/Comm_SPI_UART.c ****         return (size);
 184:Generated_Source\PSoC4/Comm_SPI_UART.c ****     }
  68              		.loc 1 184 0
  69              		@ sp needed
  70 0030 7047     		bx	lr
  71              	.L7:
  72 0032 C046     		.align	2
  73              	.L6:
  74 0034 00000000 		.word	Comm_rxBuffer
  75 0038 00000000 		.word	Comm_rxBufferHead
  76 003c 00000000 		.word	Comm_rxBufferTail
  77 0040 00000000 		.word	Comm_rxBufferSize
  78 0044 08030640 		.word	1074135816
  79              		.cfi_endproc
  80              	.LFE1:
  81              		.size	Comm_SpiUartGetRxBufferSize, .-Comm_SpiUartGetRxBufferSize
  82              		.section	.text.Comm_SpiUartClearRxBuffer,"ax",%progbits
  83              		.align	1
  84              		.global	Comm_SpiUartClearRxBuffer
  85              		.code	16
  86              		.thumb_func
  87              		.type	Comm_SpiUartClearRxBuffer, %function
  88              	Comm_SpiUartClearRxBuffer:
  89              	.LFB2:
 185:Generated_Source\PSoC4/Comm_SPI_UART.c **** 
 186:Generated_Source\PSoC4/Comm_SPI_UART.c **** 
 187:Generated_Source\PSoC4/Comm_SPI_UART.c ****     /*******************************************************************************
 188:Generated_Source\PSoC4/Comm_SPI_UART.c ****     * Function Name: Comm_SpiUartClearRxBuffer
 189:Generated_Source\PSoC4/Comm_SPI_UART.c ****     ****************************************************************************//**
 190:Generated_Source\PSoC4/Comm_SPI_UART.c ****     *
 191:Generated_Source\PSoC4/Comm_SPI_UART.c ****     *  Clears the receive buffer and RX FIFO.
 192:Generated_Source\PSoC4/Comm_SPI_UART.c ****     *
 193:Generated_Source\PSoC4/Comm_SPI_UART.c ****     * \globalvars
 194:Generated_Source\PSoC4/Comm_SPI_UART.c ****     *  Comm_rxBufferHead - the start index to put data into the 
 195:Generated_Source\PSoC4/Comm_SPI_UART.c ****     *  software receive buffer.
 196:Generated_Source\PSoC4/Comm_SPI_UART.c ****     *  Comm_rxBufferTail - the start index to get data from the 
ARM GAS  C:\Users\TECHCO~1\AppData\Local\Temp\cceWCpvs.s 			page 6


 197:Generated_Source\PSoC4/Comm_SPI_UART.c ****     *  software receive buffer.
 198:Generated_Source\PSoC4/Comm_SPI_UART.c ****     *
 199:Generated_Source\PSoC4/Comm_SPI_UART.c ****     *******************************************************************************/
 200:Generated_Source\PSoC4/Comm_SPI_UART.c ****     void Comm_SpiUartClearRxBuffer(void)
 201:Generated_Source\PSoC4/Comm_SPI_UART.c ****     {
  90              		.loc 1 201 0
  91              		.cfi_startproc
  92 0000 38B5     		push	{r3, r4, r5, lr}
  93              		.cfi_def_cfa_offset 16
  94              		.cfi_offset 3, -16
  95              		.cfi_offset 4, -12
  96              		.cfi_offset 5, -8
  97              		.cfi_offset 14, -4
 202:Generated_Source\PSoC4/Comm_SPI_UART.c ****         if (Comm_CHECK_RX_SW_BUFFER)
  98              		.loc 1 202 0
  99 0002 144B     		ldr	r3, .L11
 100 0004 144C     		ldr	r4, .L11+4
 101 0006 1B68     		ldr	r3, [r3]
 102 0008 144D     		ldr	r5, .L11+8
 103 000a 002B     		cmp	r3, #0
 104 000c 18D0     		beq	.L9
 203:Generated_Source\PSoC4/Comm_SPI_UART.c ****         {
 204:Generated_Source\PSoC4/Comm_SPI_UART.c ****             /* Lock from component interruption */
 205:Generated_Source\PSoC4/Comm_SPI_UART.c ****             Comm_DisableInt();
 105              		.loc 1 205 0
 106 000e 0A20     		mov	r0, #10
 107 0010 FFF7FEFF 		bl	CyIntDisable
 108              	.LVL7:
 206:Generated_Source\PSoC4/Comm_SPI_UART.c **** 
 207:Generated_Source\PSoC4/Comm_SPI_UART.c ****             /* Flush RX software buffer */
 208:Generated_Source\PSoC4/Comm_SPI_UART.c ****             Comm_rxBufferHead = Comm_rxBufferTail;
 109              		.loc 1 208 0
 110 0014 124B     		ldr	r3, .L11+12
 209:Generated_Source\PSoC4/Comm_SPI_UART.c ****             Comm_rxBufferOverflow = 0u;
 210:Generated_Source\PSoC4/Comm_SPI_UART.c **** 
 211:Generated_Source\PSoC4/Comm_SPI_UART.c ****             Comm_CLEAR_RX_FIFO;
 212:Generated_Source\PSoC4/Comm_SPI_UART.c ****             Comm_ClearRxInterruptSource(Comm_INTR_RX_ALL);
 213:Generated_Source\PSoC4/Comm_SPI_UART.c **** 
 214:Generated_Source\PSoC4/Comm_SPI_UART.c ****             if (Comm_CHECK_UART_RTS_CONTROL_FLOW)
 215:Generated_Source\PSoC4/Comm_SPI_UART.c ****             {
 216:Generated_Source\PSoC4/Comm_SPI_UART.c ****                 /* Enable RX Not Empty interrupt source to continue receiving
 217:Generated_Source\PSoC4/Comm_SPI_UART.c ****                 * data into software buffer.
 218:Generated_Source\PSoC4/Comm_SPI_UART.c ****                 */
 219:Generated_Source\PSoC4/Comm_SPI_UART.c ****                 Comm_INTR_RX_MASK_REG |= Comm_INTR_RX_NOT_EMPTY;
 220:Generated_Source\PSoC4/Comm_SPI_UART.c ****             }
 221:Generated_Source\PSoC4/Comm_SPI_UART.c ****             
 222:Generated_Source\PSoC4/Comm_SPI_UART.c ****             
 223:Generated_Source\PSoC4/Comm_SPI_UART.c ****             /* Release lock */
 224:Generated_Source\PSoC4/Comm_SPI_UART.c ****             Comm_EnableInt();
 111              		.loc 1 224 0
 112 0016 0A20     		mov	r0, #10
 208:Generated_Source\PSoC4/Comm_SPI_UART.c ****             Comm_rxBufferOverflow = 0u;
 113              		.loc 1 208 0
 114 0018 1A68     		ldr	r2, [r3]
 115 001a 124B     		ldr	r3, .L11+16
 116 001c 1A60     		str	r2, [r3]
 209:Generated_Source\PSoC4/Comm_SPI_UART.c ****             Comm_rxBufferOverflow = 0u;
ARM GAS  C:\Users\TECHCO~1\AppData\Local\Temp\cceWCpvs.s 			page 7


 117              		.loc 1 209 0
 118 001e 0022     		mov	r2, #0
 119 0020 114B     		ldr	r3, .L11+20
 120 0022 1A70     		strb	r2, [r3]
 211:Generated_Source\PSoC4/Comm_SPI_UART.c ****             Comm_ClearRxInterruptSource(Comm_INTR_RX_ALL);
 121              		.loc 1 211 0
 122 0024 8022     		mov	r2, #128
 123 0026 2368     		ldr	r3, [r4]
 124 0028 5202     		lsl	r2, r2, #9
 125 002a 1343     		orr	r3, r2
 126 002c 2360     		str	r3, [r4]
 127 002e 2368     		ldr	r3, [r4]
 212:Generated_Source\PSoC4/Comm_SPI_UART.c **** 
 128              		.loc 1 212 0
 129 0030 0E4A     		ldr	r2, .L11+24
 211:Generated_Source\PSoC4/Comm_SPI_UART.c ****             Comm_ClearRxInterruptSource(Comm_INTR_RX_ALL);
 130              		.loc 1 211 0
 131 0032 1D40     		and	r5, r3
 212:Generated_Source\PSoC4/Comm_SPI_UART.c **** 
 132              		.loc 1 212 0
 133 0034 0E4B     		ldr	r3, .L11+28
 211:Generated_Source\PSoC4/Comm_SPI_UART.c ****             Comm_ClearRxInterruptSource(Comm_INTR_RX_ALL);
 134              		.loc 1 211 0
 135 0036 2560     		str	r5, [r4]
 212:Generated_Source\PSoC4/Comm_SPI_UART.c **** 
 136              		.loc 1 212 0
 137 0038 1A60     		str	r2, [r3]
 138              		.loc 1 224 0
 139 003a FFF7FEFF 		bl	CyIntEnable
 140              	.LVL8:
 141 003e 07E0     		b	.L8
 142              	.L9:
 225:Generated_Source\PSoC4/Comm_SPI_UART.c ****         }
 226:Generated_Source\PSoC4/Comm_SPI_UART.c ****         else
 227:Generated_Source\PSoC4/Comm_SPI_UART.c ****         {
 228:Generated_Source\PSoC4/Comm_SPI_UART.c ****             Comm_CLEAR_RX_FIFO;
 143              		.loc 1 228 0
 144 0040 8022     		mov	r2, #128
 145 0042 2368     		ldr	r3, [r4]
 146 0044 5202     		lsl	r2, r2, #9
 147 0046 1343     		orr	r3, r2
 148 0048 2360     		str	r3, [r4]
 149 004a 2368     		ldr	r3, [r4]
 150 004c 1D40     		and	r5, r3
 151 004e 2560     		str	r5, [r4]
 152              	.L8:
 229:Generated_Source\PSoC4/Comm_SPI_UART.c ****         }
 230:Generated_Source\PSoC4/Comm_SPI_UART.c ****         
 231:Generated_Source\PSoC4/Comm_SPI_UART.c ****     }
 153              		.loc 1 231 0
 154              		@ sp needed
 155 0050 38BD     		pop	{r3, r4, r5, pc}
 156              	.L12:
 157 0052 C046     		.align	2
 158              	.L11:
 159 0054 00000000 		.word	Comm_rxBuffer
 160 0058 04030640 		.word	1074135812
ARM GAS  C:\Users\TECHCO~1\AppData\Local\Temp\cceWCpvs.s 			page 8


 161 005c FFFFFEFF 		.word	-65537
 162 0060 00000000 		.word	Comm_rxBufferTail
 163 0064 00000000 		.word	Comm_rxBufferHead
 164 0068 00000000 		.word	Comm_rxBufferOverflow
 165 006c ED0F0000 		.word	4077
 166 0070 C00F0640 		.word	1074139072
 167              		.cfi_endproc
 168              	.LFE2:
 169              		.size	Comm_SpiUartClearRxBuffer, .-Comm_SpiUartClearRxBuffer
 170              		.section	.text.Comm_SpiUartGetTxBufferSize,"ax",%progbits
 171              		.align	1
 172              		.global	Comm_SpiUartGetTxBufferSize
 173              		.code	16
 174              		.thumb_func
 175              		.type	Comm_SpiUartGetTxBufferSize, %function
 176              	Comm_SpiUartGetTxBufferSize:
 177              	.LFB5:
 232:Generated_Source\PSoC4/Comm_SPI_UART.c **** 
 233:Generated_Source\PSoC4/Comm_SPI_UART.c **** #endif /* (Comm_RX_DIRECTION) */
 234:Generated_Source\PSoC4/Comm_SPI_UART.c **** 
 235:Generated_Source\PSoC4/Comm_SPI_UART.c **** 
 236:Generated_Source\PSoC4/Comm_SPI_UART.c **** #if(Comm_TX_DIRECTION)
 237:Generated_Source\PSoC4/Comm_SPI_UART.c ****     /*******************************************************************************
 238:Generated_Source\PSoC4/Comm_SPI_UART.c ****     * Function Name: Comm_SpiUartWriteTxData
 239:Generated_Source\PSoC4/Comm_SPI_UART.c ****     ****************************************************************************//**
 240:Generated_Source\PSoC4/Comm_SPI_UART.c ****     *
 241:Generated_Source\PSoC4/Comm_SPI_UART.c ****     *  Places a data entry into the transmit buffer to be sent at the next available
 242:Generated_Source\PSoC4/Comm_SPI_UART.c ****     *  bus time.
 243:Generated_Source\PSoC4/Comm_SPI_UART.c ****     *  This function is blocking and waits until there is space available to put the
 244:Generated_Source\PSoC4/Comm_SPI_UART.c ****     *  requested data in the transmit buffer.
 245:Generated_Source\PSoC4/Comm_SPI_UART.c ****     *
 246:Generated_Source\PSoC4/Comm_SPI_UART.c ****     *  \param txDataByte: the data to be transmitted.
 247:Generated_Source\PSoC4/Comm_SPI_UART.c ****     *   The amount of data bits to be transmitted depends on TX data bits selection 
 248:Generated_Source\PSoC4/Comm_SPI_UART.c ****     *   (the data bit counting starts from LSB of txDataByte).
 249:Generated_Source\PSoC4/Comm_SPI_UART.c ****     *
 250:Generated_Source\PSoC4/Comm_SPI_UART.c ****     * \globalvars
 251:Generated_Source\PSoC4/Comm_SPI_UART.c ****     *  Comm_txBufferHead - the start index to put data into the 
 252:Generated_Source\PSoC4/Comm_SPI_UART.c ****     *  software transmit buffer.
 253:Generated_Source\PSoC4/Comm_SPI_UART.c ****     *  Comm_txBufferTail - start index to get data from the software
 254:Generated_Source\PSoC4/Comm_SPI_UART.c ****     *  transmit buffer.
 255:Generated_Source\PSoC4/Comm_SPI_UART.c ****     *
 256:Generated_Source\PSoC4/Comm_SPI_UART.c ****     *******************************************************************************/
 257:Generated_Source\PSoC4/Comm_SPI_UART.c ****     void Comm_SpiUartWriteTxData(uint32 txData)
 258:Generated_Source\PSoC4/Comm_SPI_UART.c ****     {
 259:Generated_Source\PSoC4/Comm_SPI_UART.c ****     #if (Comm_INTERNAL_TX_SW_BUFFER_CONST)
 260:Generated_Source\PSoC4/Comm_SPI_UART.c ****         uint32 locHead;
 261:Generated_Source\PSoC4/Comm_SPI_UART.c ****     #endif /* (Comm_INTERNAL_TX_SW_BUFFER_CONST) */
 262:Generated_Source\PSoC4/Comm_SPI_UART.c **** 
 263:Generated_Source\PSoC4/Comm_SPI_UART.c ****         if (Comm_CHECK_TX_SW_BUFFER)
 264:Generated_Source\PSoC4/Comm_SPI_UART.c ****         {
 265:Generated_Source\PSoC4/Comm_SPI_UART.c ****             /* Put data directly into the TX FIFO */
 266:Generated_Source\PSoC4/Comm_SPI_UART.c ****             if ((Comm_txBufferHead == Comm_txBufferTail) &&
 267:Generated_Source\PSoC4/Comm_SPI_UART.c ****                 (Comm_SPI_UART_FIFO_SIZE != Comm_GET_TX_FIFO_ENTRIES))
 268:Generated_Source\PSoC4/Comm_SPI_UART.c ****             {
 269:Generated_Source\PSoC4/Comm_SPI_UART.c ****                 /* TX software buffer is empty: put data directly in TX FIFO */
 270:Generated_Source\PSoC4/Comm_SPI_UART.c ****                 Comm_TX_FIFO_WR_REG = txData;
 271:Generated_Source\PSoC4/Comm_SPI_UART.c ****             }
ARM GAS  C:\Users\TECHCO~1\AppData\Local\Temp\cceWCpvs.s 			page 9


 272:Generated_Source\PSoC4/Comm_SPI_UART.c ****             /* Put data into TX software buffer */
 273:Generated_Source\PSoC4/Comm_SPI_UART.c ****             else
 274:Generated_Source\PSoC4/Comm_SPI_UART.c ****             {
 275:Generated_Source\PSoC4/Comm_SPI_UART.c ****                 /* Head index to put data */
 276:Generated_Source\PSoC4/Comm_SPI_UART.c ****                 locHead = (Comm_txBufferHead + 1u);
 277:Generated_Source\PSoC4/Comm_SPI_UART.c **** 
 278:Generated_Source\PSoC4/Comm_SPI_UART.c ****                 /* Adjust TX software buffer index */
 279:Generated_Source\PSoC4/Comm_SPI_UART.c ****                 if (Comm_TX_BUFFER_SIZE == locHead)
 280:Generated_Source\PSoC4/Comm_SPI_UART.c ****                 {
 281:Generated_Source\PSoC4/Comm_SPI_UART.c ****                     locHead = 0u;
 282:Generated_Source\PSoC4/Comm_SPI_UART.c ****                 }
 283:Generated_Source\PSoC4/Comm_SPI_UART.c **** 
 284:Generated_Source\PSoC4/Comm_SPI_UART.c ****                 /* Wait for space in TX software buffer */
 285:Generated_Source\PSoC4/Comm_SPI_UART.c ****                 while (locHead == Comm_txBufferTail)
 286:Generated_Source\PSoC4/Comm_SPI_UART.c ****                 {
 287:Generated_Source\PSoC4/Comm_SPI_UART.c ****                 }
 288:Generated_Source\PSoC4/Comm_SPI_UART.c **** 
 289:Generated_Source\PSoC4/Comm_SPI_UART.c ****                 /* TX software buffer has at least one room */
 290:Generated_Source\PSoC4/Comm_SPI_UART.c **** 
 291:Generated_Source\PSoC4/Comm_SPI_UART.c ****                 /* Clear old status of INTR_TX_NOT_FULL. It sets at the end of transfer when TX FIF
 292:Generated_Source\PSoC4/Comm_SPI_UART.c ****                 Comm_ClearTxInterruptSource(Comm_INTR_TX_NOT_FULL);
 293:Generated_Source\PSoC4/Comm_SPI_UART.c **** 
 294:Generated_Source\PSoC4/Comm_SPI_UART.c ****                 Comm_PutWordInTxBuffer(locHead, txData);
 295:Generated_Source\PSoC4/Comm_SPI_UART.c **** 
 296:Generated_Source\PSoC4/Comm_SPI_UART.c ****                 Comm_txBufferHead = locHead;
 297:Generated_Source\PSoC4/Comm_SPI_UART.c **** 
 298:Generated_Source\PSoC4/Comm_SPI_UART.c ****                 /* Check if TX Not Full is disabled in interrupt */
 299:Generated_Source\PSoC4/Comm_SPI_UART.c ****                 if (0u == (Comm_INTR_TX_MASK_REG & Comm_INTR_TX_NOT_FULL))
 300:Generated_Source\PSoC4/Comm_SPI_UART.c ****                 {
 301:Generated_Source\PSoC4/Comm_SPI_UART.c ****                     /* Enable TX Not Full interrupt source to transmit from software buffer */
 302:Generated_Source\PSoC4/Comm_SPI_UART.c ****                     Comm_INTR_TX_MASK_REG |= (uint32) Comm_INTR_TX_NOT_FULL;
 303:Generated_Source\PSoC4/Comm_SPI_UART.c ****                 }
 304:Generated_Source\PSoC4/Comm_SPI_UART.c ****             }
 305:Generated_Source\PSoC4/Comm_SPI_UART.c ****         }
 306:Generated_Source\PSoC4/Comm_SPI_UART.c ****         else
 307:Generated_Source\PSoC4/Comm_SPI_UART.c ****         {
 308:Generated_Source\PSoC4/Comm_SPI_UART.c ****             /* Wait until TX FIFO has space to put data element */
 309:Generated_Source\PSoC4/Comm_SPI_UART.c ****             while (Comm_SPI_UART_FIFO_SIZE == Comm_GET_TX_FIFO_ENTRIES)
 310:Generated_Source\PSoC4/Comm_SPI_UART.c ****             {
 311:Generated_Source\PSoC4/Comm_SPI_UART.c ****             }
 312:Generated_Source\PSoC4/Comm_SPI_UART.c **** 
 313:Generated_Source\PSoC4/Comm_SPI_UART.c ****             Comm_TX_FIFO_WR_REG = txData;
 314:Generated_Source\PSoC4/Comm_SPI_UART.c ****         }
 315:Generated_Source\PSoC4/Comm_SPI_UART.c ****         
 316:Generated_Source\PSoC4/Comm_SPI_UART.c ****     }
 317:Generated_Source\PSoC4/Comm_SPI_UART.c **** 
 318:Generated_Source\PSoC4/Comm_SPI_UART.c **** 
 319:Generated_Source\PSoC4/Comm_SPI_UART.c ****     /*******************************************************************************
 320:Generated_Source\PSoC4/Comm_SPI_UART.c ****     * Function Name: Comm_SpiUartPutArray
 321:Generated_Source\PSoC4/Comm_SPI_UART.c ****     ****************************************************************************//**
 322:Generated_Source\PSoC4/Comm_SPI_UART.c ****     *
 323:Generated_Source\PSoC4/Comm_SPI_UART.c ****     *  Places an array of data into the transmit buffer to be sent.
 324:Generated_Source\PSoC4/Comm_SPI_UART.c ****     *  This function is blocking and waits until there is a space available to put
 325:Generated_Source\PSoC4/Comm_SPI_UART.c ****     *  all the requested data in the transmit buffer. The array size can be greater
 326:Generated_Source\PSoC4/Comm_SPI_UART.c ****     *  than transmit buffer size.
 327:Generated_Source\PSoC4/Comm_SPI_UART.c ****     *
 328:Generated_Source\PSoC4/Comm_SPI_UART.c ****     * \param wrBuf: pointer to an array of data to be placed in transmit buffer. 
ARM GAS  C:\Users\TECHCO~1\AppData\Local\Temp\cceWCpvs.s 			page 10


 329:Generated_Source\PSoC4/Comm_SPI_UART.c ****     *  The width of the data to be transmitted depends on TX data width selection 
 330:Generated_Source\PSoC4/Comm_SPI_UART.c ****     *  (the data bit counting starts from LSB for each array element).
 331:Generated_Source\PSoC4/Comm_SPI_UART.c ****     * \param count: number of data elements to be placed in the transmit buffer.
 332:Generated_Source\PSoC4/Comm_SPI_UART.c ****     *
 333:Generated_Source\PSoC4/Comm_SPI_UART.c ****     * \globalvars
 334:Generated_Source\PSoC4/Comm_SPI_UART.c ****     *  Comm_txBufferHead - the start index to put data into the 
 335:Generated_Source\PSoC4/Comm_SPI_UART.c ****     *  software transmit buffer.
 336:Generated_Source\PSoC4/Comm_SPI_UART.c ****     *  Comm_txBufferTail - start index to get data from the software
 337:Generated_Source\PSoC4/Comm_SPI_UART.c ****     *  transmit buffer.
 338:Generated_Source\PSoC4/Comm_SPI_UART.c ****     *
 339:Generated_Source\PSoC4/Comm_SPI_UART.c ****     *******************************************************************************/
 340:Generated_Source\PSoC4/Comm_SPI_UART.c ****     void Comm_SpiUartPutArray(const uint8 wrBuf[], uint32 count)
 341:Generated_Source\PSoC4/Comm_SPI_UART.c ****     {
 342:Generated_Source\PSoC4/Comm_SPI_UART.c ****         uint32 i;
 343:Generated_Source\PSoC4/Comm_SPI_UART.c **** 
 344:Generated_Source\PSoC4/Comm_SPI_UART.c ****         for (i=0u; i < count; i++)
 345:Generated_Source\PSoC4/Comm_SPI_UART.c ****         {
 346:Generated_Source\PSoC4/Comm_SPI_UART.c ****             Comm_SpiUartWriteTxData((uint32) wrBuf[i]);
 347:Generated_Source\PSoC4/Comm_SPI_UART.c ****         }
 348:Generated_Source\PSoC4/Comm_SPI_UART.c ****     }
 349:Generated_Source\PSoC4/Comm_SPI_UART.c **** 
 350:Generated_Source\PSoC4/Comm_SPI_UART.c **** 
 351:Generated_Source\PSoC4/Comm_SPI_UART.c ****     /*******************************************************************************
 352:Generated_Source\PSoC4/Comm_SPI_UART.c ****     * Function Name: Comm_SpiUartGetTxBufferSize
 353:Generated_Source\PSoC4/Comm_SPI_UART.c ****     ****************************************************************************//**
 354:Generated_Source\PSoC4/Comm_SPI_UART.c ****     *
 355:Generated_Source\PSoC4/Comm_SPI_UART.c ****     *  Returns the number of elements currently in the transmit buffer.
 356:Generated_Source\PSoC4/Comm_SPI_UART.c ****     *   - TX software buffer is disabled: returns the number of used entries in
 357:Generated_Source\PSoC4/Comm_SPI_UART.c ****     *     TX FIFO.
 358:Generated_Source\PSoC4/Comm_SPI_UART.c ****     *   - TX software buffer is enabled: returns the number of elements currently
 359:Generated_Source\PSoC4/Comm_SPI_UART.c ****     *     used in the transmit buffer. This number does not include used entries in
 360:Generated_Source\PSoC4/Comm_SPI_UART.c ****     *     the TX FIFO. The transmit buffer size is zero until the TX FIFO is
 361:Generated_Source\PSoC4/Comm_SPI_UART.c ****     *     not full.
 362:Generated_Source\PSoC4/Comm_SPI_UART.c ****     *
 363:Generated_Source\PSoC4/Comm_SPI_UART.c ****     * \return
 364:Generated_Source\PSoC4/Comm_SPI_UART.c ****     *  Number of data elements ready to transmit.
 365:Generated_Source\PSoC4/Comm_SPI_UART.c ****     *
 366:Generated_Source\PSoC4/Comm_SPI_UART.c ****     * \globalvars
 367:Generated_Source\PSoC4/Comm_SPI_UART.c ****     *  Comm_txBufferHead - the start index to put data into the 
 368:Generated_Source\PSoC4/Comm_SPI_UART.c ****     *  software transmit buffer.
 369:Generated_Source\PSoC4/Comm_SPI_UART.c ****     *  Comm_txBufferTail - start index to get data from the software
 370:Generated_Source\PSoC4/Comm_SPI_UART.c ****     *  transmit buffer.
 371:Generated_Source\PSoC4/Comm_SPI_UART.c ****     *
 372:Generated_Source\PSoC4/Comm_SPI_UART.c ****     *******************************************************************************/
 373:Generated_Source\PSoC4/Comm_SPI_UART.c ****     uint32 Comm_SpiUartGetTxBufferSize(void)
 374:Generated_Source\PSoC4/Comm_SPI_UART.c ****     {
 178              		.loc 1 374 0
 179              		.cfi_startproc
 375:Generated_Source\PSoC4/Comm_SPI_UART.c ****         uint32 size;
 376:Generated_Source\PSoC4/Comm_SPI_UART.c ****     #if (Comm_INTERNAL_TX_SW_BUFFER_CONST)
 377:Generated_Source\PSoC4/Comm_SPI_UART.c ****         uint32 locTail;
 378:Generated_Source\PSoC4/Comm_SPI_UART.c ****     #endif /* (Comm_INTERNAL_TX_SW_BUFFER_CONST) */
 379:Generated_Source\PSoC4/Comm_SPI_UART.c **** 
 380:Generated_Source\PSoC4/Comm_SPI_UART.c ****         if (Comm_CHECK_TX_SW_BUFFER)
 180              		.loc 1 380 0
 181 0000 0A4B     		ldr	r3, .L18
 182 0002 1B68     		ldr	r3, [r3]
ARM GAS  C:\Users\TECHCO~1\AppData\Local\Temp\cceWCpvs.s 			page 11


 183 0004 002B     		cmp	r3, #0
 184 0006 0BD0     		beq	.L14
 381:Generated_Source\PSoC4/Comm_SPI_UART.c ****         {
 382:Generated_Source\PSoC4/Comm_SPI_UART.c ****             /* Get current Tail index */
 383:Generated_Source\PSoC4/Comm_SPI_UART.c ****             locTail = Comm_txBufferTail;
 384:Generated_Source\PSoC4/Comm_SPI_UART.c **** 
 385:Generated_Source\PSoC4/Comm_SPI_UART.c ****             if (Comm_txBufferHead >= locTail)
 185              		.loc 1 385 0
 186 0008 094A     		ldr	r2, .L18+4
 383:Generated_Source\PSoC4/Comm_SPI_UART.c **** 
 187              		.loc 1 383 0
 188 000a 0A4B     		ldr	r3, .L18+8
 189 000c 1B68     		ldr	r3, [r3]
 190              	.LVL9:
 191              		.loc 1 385 0
 192 000e 1168     		ldr	r1, [r2]
 386:Generated_Source\PSoC4/Comm_SPI_UART.c ****             {
 387:Generated_Source\PSoC4/Comm_SPI_UART.c ****                 size = (Comm_txBufferHead - locTail);
 193              		.loc 1 387 0
 194 0010 1068     		ldr	r0, [r2]
 385:Generated_Source\PSoC4/Comm_SPI_UART.c ****             {
 195              		.loc 1 385 0
 196 0012 9942     		cmp	r1, r3
 197 0014 02D2     		bcs	.L17
 388:Generated_Source\PSoC4/Comm_SPI_UART.c ****             }
 389:Generated_Source\PSoC4/Comm_SPI_UART.c ****             else
 390:Generated_Source\PSoC4/Comm_SPI_UART.c ****             {
 391:Generated_Source\PSoC4/Comm_SPI_UART.c ****                 size = (Comm_txBufferHead + (Comm_TX_BUFFER_SIZE - locTail));
 198              		.loc 1 391 0
 199 0016 084A     		ldr	r2, .L18+12
 200 0018 1268     		ldr	r2, [r2]
 201 001a 8018     		add	r0, r0, r2
 202              	.L17:
 203 001c C01A     		sub	r0, r0, r3
 204              	.LVL10:
 205 001e 03E0     		b	.L16
 206              	.LVL11:
 207              	.L14:
 392:Generated_Source\PSoC4/Comm_SPI_UART.c ****             }
 393:Generated_Source\PSoC4/Comm_SPI_UART.c ****         }
 394:Generated_Source\PSoC4/Comm_SPI_UART.c ****         else
 395:Generated_Source\PSoC4/Comm_SPI_UART.c ****         {
 396:Generated_Source\PSoC4/Comm_SPI_UART.c ****             size = Comm_GET_TX_FIFO_ENTRIES;
 208              		.loc 1 396 0
 209 0020 064B     		ldr	r3, .L18+16
 210 0022 1868     		ldr	r0, [r3]
 211 0024 0F23     		mov	r3, #15
 212 0026 1840     		and	r0, r3
 213              	.LVL12:
 214              	.L16:
 397:Generated_Source\PSoC4/Comm_SPI_UART.c ****         }
 398:Generated_Source\PSoC4/Comm_SPI_UART.c ****         
 399:Generated_Source\PSoC4/Comm_SPI_UART.c **** 
 400:Generated_Source\PSoC4/Comm_SPI_UART.c ****         return (size);
 401:Generated_Source\PSoC4/Comm_SPI_UART.c ****     }
 215              		.loc 1 401 0
 216              		@ sp needed
ARM GAS  C:\Users\TECHCO~1\AppData\Local\Temp\cceWCpvs.s 			page 12


 217 0028 7047     		bx	lr
 218              	.L19:
 219 002a C046     		.align	2
 220              	.L18:
 221 002c 00000000 		.word	Comm_txBuffer
 222 0030 00000000 		.word	Comm_txBufferHead
 223 0034 00000000 		.word	Comm_txBufferTail
 224 0038 00000000 		.word	Comm_txBufferSize
 225 003c 08020640 		.word	1074135560
 226              		.cfi_endproc
 227              	.LFE5:
 228              		.size	Comm_SpiUartGetTxBufferSize, .-Comm_SpiUartGetTxBufferSize
 229              		.section	.text.Comm_SpiUartClearTxBuffer,"ax",%progbits
 230              		.align	1
 231              		.global	Comm_SpiUartClearTxBuffer
 232              		.code	16
 233              		.thumb_func
 234              		.type	Comm_SpiUartClearTxBuffer, %function
 235              	Comm_SpiUartClearTxBuffer:
 236              	.LFB6:
 402:Generated_Source\PSoC4/Comm_SPI_UART.c **** 
 403:Generated_Source\PSoC4/Comm_SPI_UART.c **** 
 404:Generated_Source\PSoC4/Comm_SPI_UART.c ****     /*******************************************************************************
 405:Generated_Source\PSoC4/Comm_SPI_UART.c ****     * Function Name: Comm_SpiUartClearTxBuffer
 406:Generated_Source\PSoC4/Comm_SPI_UART.c ****     ****************************************************************************//**
 407:Generated_Source\PSoC4/Comm_SPI_UART.c ****     *
 408:Generated_Source\PSoC4/Comm_SPI_UART.c ****     *  Clears the transmit buffer and TX FIFO.
 409:Generated_Source\PSoC4/Comm_SPI_UART.c ****     *
 410:Generated_Source\PSoC4/Comm_SPI_UART.c ****     * \globalvars
 411:Generated_Source\PSoC4/Comm_SPI_UART.c ****     *  Comm_txBufferHead - the start index to put data into the 
 412:Generated_Source\PSoC4/Comm_SPI_UART.c ****     *  software transmit buffer.
 413:Generated_Source\PSoC4/Comm_SPI_UART.c ****     *  Comm_txBufferTail - start index to get data from the software
 414:Generated_Source\PSoC4/Comm_SPI_UART.c ****     *  transmit buffer.
 415:Generated_Source\PSoC4/Comm_SPI_UART.c ****     *
 416:Generated_Source\PSoC4/Comm_SPI_UART.c ****     *******************************************************************************/
 417:Generated_Source\PSoC4/Comm_SPI_UART.c ****     void Comm_SpiUartClearTxBuffer(void)
 418:Generated_Source\PSoC4/Comm_SPI_UART.c ****     {
 237              		.loc 1 418 0
 238              		.cfi_startproc
 239 0000 38B5     		push	{r3, r4, r5, lr}
 240              		.cfi_def_cfa_offset 16
 241              		.cfi_offset 3, -16
 242              		.cfi_offset 4, -12
 243              		.cfi_offset 5, -8
 244              		.cfi_offset 14, -4
 419:Generated_Source\PSoC4/Comm_SPI_UART.c ****         if (Comm_CHECK_TX_SW_BUFFER)
 245              		.loc 1 419 0
 246 0002 154B     		ldr	r3, .L23
 247 0004 154C     		ldr	r4, .L23+4
 248 0006 1B68     		ldr	r3, [r3]
 249 0008 154D     		ldr	r5, .L23+8
 250 000a 002B     		cmp	r3, #0
 251 000c 1AD0     		beq	.L21
 420:Generated_Source\PSoC4/Comm_SPI_UART.c ****         {
 421:Generated_Source\PSoC4/Comm_SPI_UART.c ****             /* Lock from component interruption */
 422:Generated_Source\PSoC4/Comm_SPI_UART.c ****             Comm_DisableInt();
 252              		.loc 1 422 0
ARM GAS  C:\Users\TECHCO~1\AppData\Local\Temp\cceWCpvs.s 			page 13


 253 000e 0A20     		mov	r0, #10
 254 0010 FFF7FEFF 		bl	CyIntDisable
 255              	.LVL13:
 423:Generated_Source\PSoC4/Comm_SPI_UART.c **** 
 424:Generated_Source\PSoC4/Comm_SPI_UART.c ****             /* Flush TX software buffer */
 425:Generated_Source\PSoC4/Comm_SPI_UART.c ****             Comm_txBufferHead = Comm_txBufferTail;
 426:Generated_Source\PSoC4/Comm_SPI_UART.c **** 
 427:Generated_Source\PSoC4/Comm_SPI_UART.c ****             Comm_INTR_TX_MASK_REG &= (uint32) ~Comm_INTR_TX_NOT_FULL;
 256              		.loc 1 427 0
 257 0014 0221     		mov	r1, #2
 425:Generated_Source\PSoC4/Comm_SPI_UART.c **** 
 258              		.loc 1 425 0
 259 0016 134B     		ldr	r3, .L23+12
 428:Generated_Source\PSoC4/Comm_SPI_UART.c ****             Comm_CLEAR_TX_FIFO;
 429:Generated_Source\PSoC4/Comm_SPI_UART.c ****             Comm_ClearTxInterruptSource(Comm_INTR_TX_ALL);
 430:Generated_Source\PSoC4/Comm_SPI_UART.c **** 
 431:Generated_Source\PSoC4/Comm_SPI_UART.c ****             /* Release lock */
 432:Generated_Source\PSoC4/Comm_SPI_UART.c ****             Comm_EnableInt();
 260              		.loc 1 432 0
 261 0018 0A20     		mov	r0, #10
 425:Generated_Source\PSoC4/Comm_SPI_UART.c **** 
 262              		.loc 1 425 0
 263 001a 1A68     		ldr	r2, [r3]
 264 001c 124B     		ldr	r3, .L23+16
 265 001e 1A60     		str	r2, [r3]
 427:Generated_Source\PSoC4/Comm_SPI_UART.c ****             Comm_CLEAR_TX_FIFO;
 266              		.loc 1 427 0
 267 0020 124A     		ldr	r2, .L23+20
 268 0022 1368     		ldr	r3, [r2]
 269 0024 8B43     		bic	r3, r1
 270 0026 1360     		str	r3, [r2]
 428:Generated_Source\PSoC4/Comm_SPI_UART.c ****             Comm_CLEAR_TX_FIFO;
 271              		.loc 1 428 0
 272 0028 8022     		mov	r2, #128
 273 002a 2368     		ldr	r3, [r4]
 274 002c 5202     		lsl	r2, r2, #9
 275 002e 1343     		orr	r3, r2
 276 0030 2360     		str	r3, [r4]
 277 0032 2368     		ldr	r3, [r4]
 429:Generated_Source\PSoC4/Comm_SPI_UART.c **** 
 278              		.loc 1 429 0
 279 0034 0E4A     		ldr	r2, .L23+24
 428:Generated_Source\PSoC4/Comm_SPI_UART.c ****             Comm_CLEAR_TX_FIFO;
 280              		.loc 1 428 0
 281 0036 1D40     		and	r5, r3
 429:Generated_Source\PSoC4/Comm_SPI_UART.c **** 
 282              		.loc 1 429 0
 283 0038 0E4B     		ldr	r3, .L23+28
 428:Generated_Source\PSoC4/Comm_SPI_UART.c ****             Comm_CLEAR_TX_FIFO;
 284              		.loc 1 428 0
 285 003a 2560     		str	r5, [r4]
 429:Generated_Source\PSoC4/Comm_SPI_UART.c **** 
 286              		.loc 1 429 0
 287 003c 1A60     		str	r2, [r3]
 288              		.loc 1 432 0
 289 003e FFF7FEFF 		bl	CyIntEnable
 290              	.LVL14:
ARM GAS  C:\Users\TECHCO~1\AppData\Local\Temp\cceWCpvs.s 			page 14


 291 0042 07E0     		b	.L20
 292              	.L21:
 433:Generated_Source\PSoC4/Comm_SPI_UART.c ****         }
 434:Generated_Source\PSoC4/Comm_SPI_UART.c ****         else
 435:Generated_Source\PSoC4/Comm_SPI_UART.c ****         {
 436:Generated_Source\PSoC4/Comm_SPI_UART.c ****             Comm_CLEAR_TX_FIFO;
 293              		.loc 1 436 0
 294 0044 8022     		mov	r2, #128
 295 0046 2368     		ldr	r3, [r4]
 296 0048 5202     		lsl	r2, r2, #9
 297 004a 1343     		orr	r3, r2
 298 004c 2360     		str	r3, [r4]
 299 004e 2368     		ldr	r3, [r4]
 300 0050 1D40     		and	r5, r3
 301 0052 2560     		str	r5, [r4]
 302              	.L20:
 437:Generated_Source\PSoC4/Comm_SPI_UART.c ****         }
 438:Generated_Source\PSoC4/Comm_SPI_UART.c ****         
 439:Generated_Source\PSoC4/Comm_SPI_UART.c ****     }
 303              		.loc 1 439 0
 304              		@ sp needed
 305 0054 38BD     		pop	{r3, r4, r5, pc}
 306              	.L24:
 307 0056 C046     		.align	2
 308              	.L23:
 309 0058 00000000 		.word	Comm_txBuffer
 310 005c 04020640 		.word	1074135556
 311 0060 FFFFFEFF 		.word	-65537
 312 0064 00000000 		.word	Comm_txBufferTail
 313 0068 00000000 		.word	Comm_txBufferHead
 314 006c 880F0640 		.word	1074139016
 315 0070 F3070000 		.word	2035
 316 0074 800F0640 		.word	1074139008
 317              		.cfi_endproc
 318              	.LFE6:
 319              		.size	Comm_SpiUartClearTxBuffer, .-Comm_SpiUartClearTxBuffer
 320              		.section	.text.Comm_SpiUartDisableIntRx,"ax",%progbits
 321              		.align	1
 322              		.global	Comm_SpiUartDisableIntRx
 323              		.code	16
 324              		.thumb_func
 325              		.type	Comm_SpiUartDisableIntRx, %function
 326              	Comm_SpiUartDisableIntRx:
 327              	.LFB7:
 440:Generated_Source\PSoC4/Comm_SPI_UART.c **** 
 441:Generated_Source\PSoC4/Comm_SPI_UART.c **** #endif /* (Comm_TX_DIRECTION) */
 442:Generated_Source\PSoC4/Comm_SPI_UART.c **** 
 443:Generated_Source\PSoC4/Comm_SPI_UART.c **** 
 444:Generated_Source\PSoC4/Comm_SPI_UART.c **** /*******************************************************************************
 445:Generated_Source\PSoC4/Comm_SPI_UART.c **** * Function Name: Comm_SpiUartDisableIntRx
 446:Generated_Source\PSoC4/Comm_SPI_UART.c **** ****************************************************************************//**
 447:Generated_Source\PSoC4/Comm_SPI_UART.c **** *
 448:Generated_Source\PSoC4/Comm_SPI_UART.c **** *  Disables the RX interrupt sources.
 449:Generated_Source\PSoC4/Comm_SPI_UART.c **** *
 450:Generated_Source\PSoC4/Comm_SPI_UART.c **** *  \return
 451:Generated_Source\PSoC4/Comm_SPI_UART.c **** *   Returns the RX interrupt sources enabled before the function call.
 452:Generated_Source\PSoC4/Comm_SPI_UART.c **** *
ARM GAS  C:\Users\TECHCO~1\AppData\Local\Temp\cceWCpvs.s 			page 15


 453:Generated_Source\PSoC4/Comm_SPI_UART.c **** *******************************************************************************/
 454:Generated_Source\PSoC4/Comm_SPI_UART.c **** uint32 Comm_SpiUartDisableIntRx(void)
 455:Generated_Source\PSoC4/Comm_SPI_UART.c **** {
 328              		.loc 1 455 0
 329              		.cfi_startproc
 456:Generated_Source\PSoC4/Comm_SPI_UART.c ****     uint32 intSource;
 457:Generated_Source\PSoC4/Comm_SPI_UART.c **** 
 458:Generated_Source\PSoC4/Comm_SPI_UART.c ****     intSource = Comm_GetRxInterruptMode();
 459:Generated_Source\PSoC4/Comm_SPI_UART.c **** 
 460:Generated_Source\PSoC4/Comm_SPI_UART.c ****     Comm_SetRxInterruptMode(Comm_NO_INTR_SOURCES);
 330              		.loc 1 460 0
 331 0000 0022     		mov	r2, #0
 458:Generated_Source\PSoC4/Comm_SPI_UART.c **** 
 332              		.loc 1 458 0
 333 0002 024B     		ldr	r3, .L26
 461:Generated_Source\PSoC4/Comm_SPI_UART.c **** 
 462:Generated_Source\PSoC4/Comm_SPI_UART.c ****     return (intSource);
 463:Generated_Source\PSoC4/Comm_SPI_UART.c **** }
 334              		.loc 1 463 0
 335              		@ sp needed
 458:Generated_Source\PSoC4/Comm_SPI_UART.c **** 
 336              		.loc 1 458 0
 337 0004 1868     		ldr	r0, [r3]
 338              	.LVL15:
 460:Generated_Source\PSoC4/Comm_SPI_UART.c **** 
 339              		.loc 1 460 0
 340 0006 1A60     		str	r2, [r3]
 341              		.loc 1 463 0
 342 0008 7047     		bx	lr
 343              	.L27:
 344 000a C046     		.align	2
 345              	.L26:
 346 000c C80F0640 		.word	1074139080
 347              		.cfi_endproc
 348              	.LFE7:
 349              		.size	Comm_SpiUartDisableIntRx, .-Comm_SpiUartDisableIntRx
 350              		.section	.text.Comm_SpiUartDisableIntTx,"ax",%progbits
 351              		.align	1
 352              		.global	Comm_SpiUartDisableIntTx
 353              		.code	16
 354              		.thumb_func
 355              		.type	Comm_SpiUartDisableIntTx, %function
 356              	Comm_SpiUartDisableIntTx:
 357              	.LFB8:
 464:Generated_Source\PSoC4/Comm_SPI_UART.c **** 
 465:Generated_Source\PSoC4/Comm_SPI_UART.c **** 
 466:Generated_Source\PSoC4/Comm_SPI_UART.c **** /*******************************************************************************
 467:Generated_Source\PSoC4/Comm_SPI_UART.c **** * Function Name: Comm_SpiUartDisableIntTx
 468:Generated_Source\PSoC4/Comm_SPI_UART.c **** ****************************************************************************//**
 469:Generated_Source\PSoC4/Comm_SPI_UART.c **** *
 470:Generated_Source\PSoC4/Comm_SPI_UART.c **** *  Disables TX interrupt sources.
 471:Generated_Source\PSoC4/Comm_SPI_UART.c **** *
 472:Generated_Source\PSoC4/Comm_SPI_UART.c **** *  \return
 473:Generated_Source\PSoC4/Comm_SPI_UART.c **** *   Returns TX interrupt sources enabled before function call.
 474:Generated_Source\PSoC4/Comm_SPI_UART.c **** *
 475:Generated_Source\PSoC4/Comm_SPI_UART.c **** *******************************************************************************/
 476:Generated_Source\PSoC4/Comm_SPI_UART.c **** uint32 Comm_SpiUartDisableIntTx(void)
ARM GAS  C:\Users\TECHCO~1\AppData\Local\Temp\cceWCpvs.s 			page 16


 477:Generated_Source\PSoC4/Comm_SPI_UART.c **** {
 358              		.loc 1 477 0
 359              		.cfi_startproc
 478:Generated_Source\PSoC4/Comm_SPI_UART.c ****     uint32 intSourceMask;
 479:Generated_Source\PSoC4/Comm_SPI_UART.c **** 
 480:Generated_Source\PSoC4/Comm_SPI_UART.c ****     intSourceMask = Comm_GetTxInterruptMode();
 481:Generated_Source\PSoC4/Comm_SPI_UART.c **** 
 482:Generated_Source\PSoC4/Comm_SPI_UART.c ****     Comm_SetTxInterruptMode(Comm_NO_INTR_SOURCES);
 360              		.loc 1 482 0
 361 0000 0022     		mov	r2, #0
 480:Generated_Source\PSoC4/Comm_SPI_UART.c **** 
 362              		.loc 1 480 0
 363 0002 024B     		ldr	r3, .L29
 483:Generated_Source\PSoC4/Comm_SPI_UART.c **** 
 484:Generated_Source\PSoC4/Comm_SPI_UART.c ****     return (intSourceMask);
 485:Generated_Source\PSoC4/Comm_SPI_UART.c **** }
 364              		.loc 1 485 0
 365              		@ sp needed
 480:Generated_Source\PSoC4/Comm_SPI_UART.c **** 
 366              		.loc 1 480 0
 367 0004 1868     		ldr	r0, [r3]
 368              	.LVL16:
 482:Generated_Source\PSoC4/Comm_SPI_UART.c **** 
 369              		.loc 1 482 0
 370 0006 1A60     		str	r2, [r3]
 371              		.loc 1 485 0
 372 0008 7047     		bx	lr
 373              	.L30:
 374 000a C046     		.align	2
 375              	.L29:
 376 000c 880F0640 		.word	1074139016
 377              		.cfi_endproc
 378              	.LFE8:
 379              		.size	Comm_SpiUartDisableIntTx, .-Comm_SpiUartDisableIntTx
 380              		.section	.text.Comm_PutWordInRxBuffer,"ax",%progbits
 381              		.align	1
 382              		.global	Comm_PutWordInRxBuffer
 383              		.code	16
 384              		.thumb_func
 385              		.type	Comm_PutWordInRxBuffer, %function
 386              	Comm_PutWordInRxBuffer:
 387              	.LFB9:
 486:Generated_Source\PSoC4/Comm_SPI_UART.c **** 
 487:Generated_Source\PSoC4/Comm_SPI_UART.c **** 
 488:Generated_Source\PSoC4/Comm_SPI_UART.c **** #if(Comm_SCB_MODE_UNCONFIG_CONST_CFG)
 489:Generated_Source\PSoC4/Comm_SPI_UART.c ****     /*******************************************************************************
 490:Generated_Source\PSoC4/Comm_SPI_UART.c ****     * Function Name: Comm_PutWordInRxBuffer
 491:Generated_Source\PSoC4/Comm_SPI_UART.c ****     ****************************************************************************//**
 492:Generated_Source\PSoC4/Comm_SPI_UART.c ****     *
 493:Generated_Source\PSoC4/Comm_SPI_UART.c ****     *  Stores a byte/word into the RX buffer.
 494:Generated_Source\PSoC4/Comm_SPI_UART.c ****     *  Only available in the Unconfigured operation mode.
 495:Generated_Source\PSoC4/Comm_SPI_UART.c ****     *
 496:Generated_Source\PSoC4/Comm_SPI_UART.c ****     *  \param index:      index to store data byte/word in the RX buffer.
 497:Generated_Source\PSoC4/Comm_SPI_UART.c ****     *  \param rxDataByte: byte/word to store.
 498:Generated_Source\PSoC4/Comm_SPI_UART.c ****     *
 499:Generated_Source\PSoC4/Comm_SPI_UART.c ****     *******************************************************************************/
 500:Generated_Source\PSoC4/Comm_SPI_UART.c ****     void Comm_PutWordInRxBuffer(uint32 idx, uint32 rxDataByte)
ARM GAS  C:\Users\TECHCO~1\AppData\Local\Temp\cceWCpvs.s 			page 17


 501:Generated_Source\PSoC4/Comm_SPI_UART.c ****     {
 388              		.loc 1 501 0
 389              		.cfi_startproc
 390              	.LVL17:
 391 0000 10B5     		push	{r4, lr}
 392              		.cfi_def_cfa_offset 8
 393              		.cfi_offset 4, -8
 394              		.cfi_offset 14, -4
 502:Generated_Source\PSoC4/Comm_SPI_UART.c ****         /* Put data in buffer */
 503:Generated_Source\PSoC4/Comm_SPI_UART.c ****         if (Comm_ONE_BYTE_WIDTH == Comm_rxDataBits)
 395              		.loc 1 503 0
 396 0002 0A4B     		ldr	r3, .L34
 397 0004 CCB2     		uxtb	r4, r1
 398 0006 1A78     		ldrb	r2, [r3]
 399 0008 094B     		ldr	r3, .L34+4
 400 000a 082A     		cmp	r2, #8
 401 000c 03D1     		bne	.L32
 504:Generated_Source\PSoC4/Comm_SPI_UART.c ****         {
 505:Generated_Source\PSoC4/Comm_SPI_UART.c ****             Comm_rxBuffer[idx] = ((uint8) rxDataByte);
 402              		.loc 1 505 0
 403 000e 1B68     		ldr	r3, [r3]
 404 0010 1818     		add	r0, r3, r0
 405              	.LVL18:
 406 0012 0470     		strb	r4, [r0]
 407 0014 09E0     		b	.L31
 408              	.LVL19:
 409              	.L32:
 506:Generated_Source\PSoC4/Comm_SPI_UART.c ****         }
 507:Generated_Source\PSoC4/Comm_SPI_UART.c ****         else
 508:Generated_Source\PSoC4/Comm_SPI_UART.c ****         {
 509:Generated_Source\PSoC4/Comm_SPI_UART.c ****             Comm_rxBuffer[(uint32)(idx << 1u)]      = LO8(LO16(rxDataByte));
 410              		.loc 1 509 0
 411 0016 1A68     		ldr	r2, [r3]
 412 0018 4000     		lsl	r0, r0, #1
 413              	.LVL20:
 414 001a 1218     		add	r2, r2, r0
 415 001c 1470     		strb	r4, [r2]
 510:Generated_Source\PSoC4/Comm_SPI_UART.c ****             Comm_rxBuffer[(uint32)(idx << 1u) + 1u] = HI8(LO16(rxDataByte));
 416              		.loc 1 510 0
 417 001e 1B68     		ldr	r3, [r3]
 418 0020 0130     		add	r0, r0, #1
 419 0022 89B2     		uxth	r1, r1
 420              	.LVL21:
 421 0024 1818     		add	r0, r3, r0
 422 0026 090A     		lsr	r1, r1, #8
 423 0028 0170     		strb	r1, [r0]
 424              	.L31:
 511:Generated_Source\PSoC4/Comm_SPI_UART.c ****         }
 512:Generated_Source\PSoC4/Comm_SPI_UART.c ****     }
 425              		.loc 1 512 0
 426              		@ sp needed
 427 002a 10BD     		pop	{r4, pc}
 428              	.L35:
 429              		.align	2
 430              	.L34:
 431 002c 00000000 		.word	Comm_rxDataBits
 432 0030 00000000 		.word	Comm_rxBuffer
ARM GAS  C:\Users\TECHCO~1\AppData\Local\Temp\cceWCpvs.s 			page 18


 433              		.cfi_endproc
 434              	.LFE9:
 435              		.size	Comm_PutWordInRxBuffer, .-Comm_PutWordInRxBuffer
 436              		.section	.text.Comm_GetWordFromRxBuffer,"ax",%progbits
 437              		.align	1
 438              		.global	Comm_GetWordFromRxBuffer
 439              		.code	16
 440              		.thumb_func
 441              		.type	Comm_GetWordFromRxBuffer, %function
 442              	Comm_GetWordFromRxBuffer:
 443              	.LFB10:
 513:Generated_Source\PSoC4/Comm_SPI_UART.c **** 
 514:Generated_Source\PSoC4/Comm_SPI_UART.c **** 
 515:Generated_Source\PSoC4/Comm_SPI_UART.c ****     /*******************************************************************************
 516:Generated_Source\PSoC4/Comm_SPI_UART.c ****     * Function Name: Comm_GetWordFromRxBuffer
 517:Generated_Source\PSoC4/Comm_SPI_UART.c ****     ****************************************************************************//**
 518:Generated_Source\PSoC4/Comm_SPI_UART.c ****     *
 519:Generated_Source\PSoC4/Comm_SPI_UART.c ****     *  Reads byte/word from RX buffer.
 520:Generated_Source\PSoC4/Comm_SPI_UART.c ****     *  Only available in the Unconfigured operation mode.
 521:Generated_Source\PSoC4/Comm_SPI_UART.c ****     *
 522:Generated_Source\PSoC4/Comm_SPI_UART.c ****     *  \return
 523:Generated_Source\PSoC4/Comm_SPI_UART.c ****     *   Returns byte/word read from RX buffer.
 524:Generated_Source\PSoC4/Comm_SPI_UART.c ****     *
 525:Generated_Source\PSoC4/Comm_SPI_UART.c ****     *******************************************************************************/
 526:Generated_Source\PSoC4/Comm_SPI_UART.c ****     uint32 Comm_GetWordFromRxBuffer(uint32 idx)
 527:Generated_Source\PSoC4/Comm_SPI_UART.c ****     {
 444              		.loc 1 527 0
 445              		.cfi_startproc
 446              	.LVL22:
 528:Generated_Source\PSoC4/Comm_SPI_UART.c ****         uint32 value;
 529:Generated_Source\PSoC4/Comm_SPI_UART.c **** 
 530:Generated_Source\PSoC4/Comm_SPI_UART.c ****         if (Comm_ONE_BYTE_WIDTH == Comm_rxDataBits)
 447              		.loc 1 530 0
 448 0000 094B     		ldr	r3, .L39
 449 0002 1A78     		ldrb	r2, [r3]
 450 0004 094B     		ldr	r3, .L39+4
 451 0006 082A     		cmp	r2, #8
 452 0008 04D1     		bne	.L37
 531:Generated_Source\PSoC4/Comm_SPI_UART.c ****         {
 532:Generated_Source\PSoC4/Comm_SPI_UART.c ****             value = Comm_rxBuffer[idx];
 453              		.loc 1 532 0
 454 000a 1B68     		ldr	r3, [r3]
 455 000c 1818     		add	r0, r3, r0
 456              	.LVL23:
 457 000e 0078     		ldrb	r0, [r0]
 458 0010 C0B2     		uxtb	r0, r0
 459              	.LVL24:
 460 0012 08E0     		b	.L38
 461              	.LVL25:
 462              	.L37:
 533:Generated_Source\PSoC4/Comm_SPI_UART.c ****         }
 534:Generated_Source\PSoC4/Comm_SPI_UART.c ****         else
 535:Generated_Source\PSoC4/Comm_SPI_UART.c ****         {
 536:Generated_Source\PSoC4/Comm_SPI_UART.c ****             value  = (uint32) Comm_rxBuffer[(uint32)(idx << 1u)];
 463              		.loc 1 536 0
 464 0014 1968     		ldr	r1, [r3]
 465 0016 4300     		lsl	r3, r0, #1
ARM GAS  C:\Users\TECHCO~1\AppData\Local\Temp\cceWCpvs.s 			page 19


 466 0018 CA18     		add	r2, r1, r3
 537:Generated_Source\PSoC4/Comm_SPI_UART.c ****             value |= (uint32) ((uint32)Comm_rxBuffer[(uint32)(idx << 1u) + 1u] << 8u);
 467              		.loc 1 537 0
 468 001a 0133     		add	r3, r3, #1
 469 001c CB18     		add	r3, r1, r3
 536:Generated_Source\PSoC4/Comm_SPI_UART.c ****             value |= (uint32) ((uint32)Comm_rxBuffer[(uint32)(idx << 1u) + 1u] << 8u);
 470              		.loc 1 536 0
 471 001e 1278     		ldrb	r2, [r2]
 472              	.LVL26:
 473              		.loc 1 537 0
 474 0020 1878     		ldrb	r0, [r3]
 475              	.LVL27:
 476 0022 0002     		lsl	r0, r0, #8
 477 0024 1043     		orr	r0, r2
 478              	.LVL28:
 479              	.L38:
 538:Generated_Source\PSoC4/Comm_SPI_UART.c ****         }
 539:Generated_Source\PSoC4/Comm_SPI_UART.c **** 
 540:Generated_Source\PSoC4/Comm_SPI_UART.c ****         return (value);
 541:Generated_Source\PSoC4/Comm_SPI_UART.c ****     }
 480              		.loc 1 541 0
 481              		@ sp needed
 482 0026 7047     		bx	lr
 483              	.L40:
 484              		.align	2
 485              	.L39:
 486 0028 00000000 		.word	Comm_rxDataBits
 487 002c 00000000 		.word	Comm_rxBuffer
 488              		.cfi_endproc
 489              	.LFE10:
 490              		.size	Comm_GetWordFromRxBuffer, .-Comm_GetWordFromRxBuffer
 491              		.section	.text.Comm_SpiUartReadRxData,"ax",%progbits
 492              		.align	1
 493              		.global	Comm_SpiUartReadRxData
 494              		.code	16
 495              		.thumb_func
 496              		.type	Comm_SpiUartReadRxData, %function
 497              	Comm_SpiUartReadRxData:
 498              	.LFB0:
  84:Generated_Source\PSoC4/Comm_SPI_UART.c ****         uint32 rxData = 0u;
 499              		.loc 1 84 0
 500              		.cfi_startproc
 501              	.LVL29:
 502 0000 38B5     		push	{r3, r4, r5, lr}
 503              		.cfi_def_cfa_offset 16
 504              		.cfi_offset 3, -16
 505              		.cfi_offset 4, -12
 506              		.cfi_offset 5, -8
 507              		.cfi_offset 14, -4
  91:Generated_Source\PSoC4/Comm_SPI_UART.c ****         {
 508              		.loc 1 91 0
 509 0002 0E4B     		ldr	r3, .L46
 510 0004 1B68     		ldr	r3, [r3]
 511 0006 002B     		cmp	r3, #0
 512 0008 14D0     		beq	.L42
  93:Generated_Source\PSoC4/Comm_SPI_UART.c ****             {
 513              		.loc 1 93 0
ARM GAS  C:\Users\TECHCO~1\AppData\Local\Temp\cceWCpvs.s 			page 20


 514 000a 0D4B     		ldr	r3, .L46+4
 515 000c 0D4D     		ldr	r5, .L46+8
 516 000e 1A68     		ldr	r2, [r3]
 517 0010 2B68     		ldr	r3, [r5]
  85:Generated_Source\PSoC4/Comm_SPI_UART.c **** 
 518              		.loc 1 85 0
 519 0012 0020     		mov	r0, #0
  93:Generated_Source\PSoC4/Comm_SPI_UART.c ****             {
 520              		.loc 1 93 0
 521 0014 9A42     		cmp	r2, r3
 522 0016 0FD0     		beq	.L43
 100:Generated_Source\PSoC4/Comm_SPI_UART.c ****                 {
 523              		.loc 1 100 0
 524 0018 0B4B     		ldr	r3, .L46+12
  98:Generated_Source\PSoC4/Comm_SPI_UART.c **** 
 525              		.loc 1 98 0
 526 001a 2A68     		ldr	r2, [r5]
 527              	.LVL30:
 100:Generated_Source\PSoC4/Comm_SPI_UART.c ****                 {
 528              		.loc 1 100 0
 529 001c 1B68     		ldr	r3, [r3]
 530 001e 541C     		add	r4, r2, #1
 531              	.LVL31:
 102:Generated_Source\PSoC4/Comm_SPI_UART.c ****                 }
 532              		.loc 1 102 0
 533 0020 9B1A     		sub	r3, r3, r2
 534 0022 5A1E     		sub	r2, r3, #1
 535 0024 9341     		sbc	r3, r3, r2
 536 0026 5B42     		neg	r3, r3
 537 0028 1C40     		and	r4, r3
 538              	.LVL32:
 106:Generated_Source\PSoC4/Comm_SPI_UART.c **** 
 539              		.loc 1 106 0
 540 002a 201C     		mov	r0, r4
 541 002c FFF7FEFF 		bl	Comm_GetWordFromRxBuffer
 542              	.LVL33:
 109:Generated_Source\PSoC4/Comm_SPI_UART.c **** 
 543              		.loc 1 109 0
 544 0030 2C60     		str	r4, [r5]
 545 0032 01E0     		b	.L43
 546              	.LVL34:
 547              	.L42:
 129:Generated_Source\PSoC4/Comm_SPI_UART.c ****         }
 548              		.loc 1 129 0
 549 0034 054B     		ldr	r3, .L46+16
 550 0036 1868     		ldr	r0, [r3]
 551              	.LVL35:
 552              	.L43:
 134:Generated_Source\PSoC4/Comm_SPI_UART.c **** 
 553              		.loc 1 134 0
 554              		@ sp needed
 555 0038 38BD     		pop	{r3, r4, r5, pc}
 556              	.L47:
 557 003a C046     		.align	2
 558              	.L46:
 559 003c 00000000 		.word	Comm_rxBuffer
 560 0040 00000000 		.word	Comm_rxBufferHead
ARM GAS  C:\Users\TECHCO~1\AppData\Local\Temp\cceWCpvs.s 			page 21


 561 0044 00000000 		.word	Comm_rxBufferTail
 562 0048 00000000 		.word	Comm_rxBufferSize
 563 004c 40030640 		.word	1074135872
 564              		.cfi_endproc
 565              	.LFE0:
 566              		.size	Comm_SpiUartReadRxData, .-Comm_SpiUartReadRxData
 567              		.section	.text.Comm_PutWordInTxBuffer,"ax",%progbits
 568              		.align	1
 569              		.global	Comm_PutWordInTxBuffer
 570              		.code	16
 571              		.thumb_func
 572              		.type	Comm_PutWordInTxBuffer, %function
 573              	Comm_PutWordInTxBuffer:
 574              	.LFB11:
 542:Generated_Source\PSoC4/Comm_SPI_UART.c **** 
 543:Generated_Source\PSoC4/Comm_SPI_UART.c **** 
 544:Generated_Source\PSoC4/Comm_SPI_UART.c ****     /*******************************************************************************
 545:Generated_Source\PSoC4/Comm_SPI_UART.c ****     * Function Name: Comm_PutWordInTxBuffer
 546:Generated_Source\PSoC4/Comm_SPI_UART.c ****     ****************************************************************************//**
 547:Generated_Source\PSoC4/Comm_SPI_UART.c ****     *
 548:Generated_Source\PSoC4/Comm_SPI_UART.c ****     *  Stores byte/word into the TX buffer.
 549:Generated_Source\PSoC4/Comm_SPI_UART.c ****     *  Only available in the Unconfigured operation mode.
 550:Generated_Source\PSoC4/Comm_SPI_UART.c ****     *
 551:Generated_Source\PSoC4/Comm_SPI_UART.c ****     *  \param idx:        index to store data byte/word in the TX buffer.
 552:Generated_Source\PSoC4/Comm_SPI_UART.c ****     *  \param txDataByte: byte/word to store.
 553:Generated_Source\PSoC4/Comm_SPI_UART.c ****     *
 554:Generated_Source\PSoC4/Comm_SPI_UART.c ****     *******************************************************************************/
 555:Generated_Source\PSoC4/Comm_SPI_UART.c ****     void Comm_PutWordInTxBuffer(uint32 idx, uint32 txDataByte)
 556:Generated_Source\PSoC4/Comm_SPI_UART.c ****     {
 575              		.loc 1 556 0
 576              		.cfi_startproc
 577              	.LVL36:
 578 0000 10B5     		push	{r4, lr}
 579              		.cfi_def_cfa_offset 8
 580              		.cfi_offset 4, -8
 581              		.cfi_offset 14, -4
 557:Generated_Source\PSoC4/Comm_SPI_UART.c ****         /* Put data in buffer */
 558:Generated_Source\PSoC4/Comm_SPI_UART.c ****         if (Comm_ONE_BYTE_WIDTH == Comm_txDataBits)
 582              		.loc 1 558 0
 583 0002 0A4B     		ldr	r3, .L51
 584 0004 CCB2     		uxtb	r4, r1
 585 0006 1A78     		ldrb	r2, [r3]
 586 0008 094B     		ldr	r3, .L51+4
 587 000a 082A     		cmp	r2, #8
 588 000c 03D1     		bne	.L49
 559:Generated_Source\PSoC4/Comm_SPI_UART.c ****         {
 560:Generated_Source\PSoC4/Comm_SPI_UART.c ****             Comm_txBuffer[idx] = ((uint8) txDataByte);
 589              		.loc 1 560 0
 590 000e 1B68     		ldr	r3, [r3]
 591 0010 1818     		add	r0, r3, r0
 592              	.LVL37:
 593 0012 0470     		strb	r4, [r0]
 594 0014 09E0     		b	.L48
 595              	.LVL38:
 596              	.L49:
 561:Generated_Source\PSoC4/Comm_SPI_UART.c ****         }
 562:Generated_Source\PSoC4/Comm_SPI_UART.c ****         else
ARM GAS  C:\Users\TECHCO~1\AppData\Local\Temp\cceWCpvs.s 			page 22


 563:Generated_Source\PSoC4/Comm_SPI_UART.c ****         {
 564:Generated_Source\PSoC4/Comm_SPI_UART.c ****             Comm_txBuffer[(uint32)(idx << 1u)]      = LO8(LO16(txDataByte));
 597              		.loc 1 564 0
 598 0016 1A68     		ldr	r2, [r3]
 599 0018 4000     		lsl	r0, r0, #1
 600              	.LVL39:
 601 001a 1218     		add	r2, r2, r0
 602 001c 1470     		strb	r4, [r2]
 565:Generated_Source\PSoC4/Comm_SPI_UART.c ****             Comm_txBuffer[(uint32)(idx << 1u) + 1u] = HI8(LO16(txDataByte));
 603              		.loc 1 565 0
 604 001e 1B68     		ldr	r3, [r3]
 605 0020 0130     		add	r0, r0, #1
 606 0022 89B2     		uxth	r1, r1
 607              	.LVL40:
 608 0024 1818     		add	r0, r3, r0
 609 0026 090A     		lsr	r1, r1, #8
 610 0028 0170     		strb	r1, [r0]
 611              	.L48:
 566:Generated_Source\PSoC4/Comm_SPI_UART.c ****         }
 567:Generated_Source\PSoC4/Comm_SPI_UART.c ****     }
 612              		.loc 1 567 0
 613              		@ sp needed
 614 002a 10BD     		pop	{r4, pc}
 615              	.L52:
 616              		.align	2
 617              	.L51:
 618 002c 00000000 		.word	Comm_txDataBits
 619 0030 00000000 		.word	Comm_txBuffer
 620              		.cfi_endproc
 621              	.LFE11:
 622              		.size	Comm_PutWordInTxBuffer, .-Comm_PutWordInTxBuffer
 623              		.section	.text.Comm_SpiUartWriteTxData,"ax",%progbits
 624              		.align	1
 625              		.global	Comm_SpiUartWriteTxData
 626              		.code	16
 627              		.thumb_func
 628              		.type	Comm_SpiUartWriteTxData, %function
 629              	Comm_SpiUartWriteTxData:
 630              	.LFB3:
 258:Generated_Source\PSoC4/Comm_SPI_UART.c ****     #if (Comm_INTERNAL_TX_SW_BUFFER_CONST)
 631              		.loc 1 258 0
 632              		.cfi_startproc
 633              	.LVL41:
 263:Generated_Source\PSoC4/Comm_SPI_UART.c ****         {
 634              		.loc 1 263 0
 635 0000 1A4B     		ldr	r3, .L65
 258:Generated_Source\PSoC4/Comm_SPI_UART.c ****     #if (Comm_INTERNAL_TX_SW_BUFFER_CONST)
 636              		.loc 1 258 0
 637 0002 70B5     		push	{r4, r5, r6, lr}
 638              		.cfi_def_cfa_offset 16
 639              		.cfi_offset 4, -16
 640              		.cfi_offset 5, -12
 641              		.cfi_offset 6, -8
 642              		.cfi_offset 14, -4
 263:Generated_Source\PSoC4/Comm_SPI_UART.c ****         {
 643              		.loc 1 263 0
 644 0004 1B68     		ldr	r3, [r3]
ARM GAS  C:\Users\TECHCO~1\AppData\Local\Temp\cceWCpvs.s 			page 23


 645 0006 002B     		cmp	r3, #0
 646 0008 27D0     		beq	.L54
 266:Generated_Source\PSoC4/Comm_SPI_UART.c ****                 (Comm_SPI_UART_FIFO_SIZE != Comm_GET_TX_FIFO_ENTRIES))
 647              		.loc 1 266 0
 648 000a 194D     		ldr	r5, .L65+4
 649 000c 194A     		ldr	r2, .L65+8
 650 000e 2968     		ldr	r1, [r5]
 651 0010 1368     		ldr	r3, [r2]
 652 0012 9942     		cmp	r1, r3
 653 0014 05D1     		bne	.L55
 267:Generated_Source\PSoC4/Comm_SPI_UART.c ****             {
 654              		.loc 1 267 0 discriminator 1
 655 0016 184B     		ldr	r3, .L65+12
 656 0018 1968     		ldr	r1, [r3]
 657 001a 0F23     		mov	r3, #15
 658 001c 0B40     		and	r3, r1
 266:Generated_Source\PSoC4/Comm_SPI_UART.c ****                 (Comm_SPI_UART_FIFO_SIZE != Comm_GET_TX_FIFO_ENTRIES))
 659              		.loc 1 266 0 discriminator 1
 660 001e 082B     		cmp	r3, #8
 661 0020 21D1     		bne	.L64
 662              	.L55:
 279:Generated_Source\PSoC4/Comm_SPI_UART.c ****                 {
 663              		.loc 1 279 0
 664 0022 164B     		ldr	r3, .L65+16
 276:Generated_Source\PSoC4/Comm_SPI_UART.c **** 
 665              		.loc 1 276 0
 666 0024 2C68     		ldr	r4, [r5]
 279:Generated_Source\PSoC4/Comm_SPI_UART.c ****                 {
 667              		.loc 1 279 0
 668 0026 1B68     		ldr	r3, [r3]
 276:Generated_Source\PSoC4/Comm_SPI_UART.c **** 
 669              		.loc 1 276 0
 670 0028 0134     		add	r4, r4, #1
 671              	.LVL42:
 281:Generated_Source\PSoC4/Comm_SPI_UART.c ****                 }
 672              		.loc 1 281 0
 673 002a 1B1B     		sub	r3, r3, r4
 674 002c 591E     		sub	r1, r3, #1
 675 002e 8B41     		sbc	r3, r3, r1
 676 0030 5B42     		neg	r3, r3
 677 0032 1C40     		and	r4, r3
 678              	.LVL43:
 679              	.L58:
 285:Generated_Source\PSoC4/Comm_SPI_UART.c ****                 {
 680              		.loc 1 285 0 discriminator 1
 681 0034 1368     		ldr	r3, [r2]
 682 0036 9C42     		cmp	r4, r3
 683 0038 FCD0     		beq	.L58
 292:Generated_Source\PSoC4/Comm_SPI_UART.c **** 
 684              		.loc 1 292 0
 685 003a 0226     		mov	r6, #2
 686 003c 104B     		ldr	r3, .L65+20
 687 003e 011C     		mov	r1, r0
 688 0040 1E60     		str	r6, [r3]
 294:Generated_Source\PSoC4/Comm_SPI_UART.c **** 
 689              		.loc 1 294 0
 690 0042 201C     		mov	r0, r4
ARM GAS  C:\Users\TECHCO~1\AppData\Local\Temp\cceWCpvs.s 			page 24


 691              	.LVL44:
 692 0044 FFF7FEFF 		bl	Comm_PutWordInTxBuffer
 693              	.LVL45:
 299:Generated_Source\PSoC4/Comm_SPI_UART.c ****                 {
 694              		.loc 1 299 0
 695 0048 0E4B     		ldr	r3, .L65+24
 296:Generated_Source\PSoC4/Comm_SPI_UART.c **** 
 696              		.loc 1 296 0
 697 004a 2C60     		str	r4, [r5]
 299:Generated_Source\PSoC4/Comm_SPI_UART.c ****                 {
 698              		.loc 1 299 0
 699 004c 1A68     		ldr	r2, [r3]
 700 004e 3242     		tst	r2, r6
 701 0050 0BD1     		bne	.L53
 302:Generated_Source\PSoC4/Comm_SPI_UART.c ****                 }
 702              		.loc 1 302 0
 703 0052 1A68     		ldr	r2, [r3]
 704 0054 3243     		orr	r2, r6
 705 0056 1A60     		str	r2, [r3]
 706 0058 07E0     		b	.L53
 707              	.LVL46:
 708              	.L54:
 709              	.LBB4:
 710              	.LBB5:
 309:Generated_Source\PSoC4/Comm_SPI_UART.c ****             {
 711              		.loc 1 309 0
 712 005a 074B     		ldr	r3, .L65+12
 713 005c 1A68     		ldr	r2, [r3]
 714 005e 0F23     		mov	r3, #15
 715 0060 1340     		and	r3, r2
 716 0062 082B     		cmp	r3, #8
 717 0064 F9D0     		beq	.L54
 718              	.L64:
 313:Generated_Source\PSoC4/Comm_SPI_UART.c ****         }
 719              		.loc 1 313 0
 720 0066 084B     		ldr	r3, .L65+28
 721 0068 1860     		str	r0, [r3]
 722              	.LVL47:
 723              	.L53:
 724              	.LBE5:
 725              	.LBE4:
 316:Generated_Source\PSoC4/Comm_SPI_UART.c **** 
 726              		.loc 1 316 0
 727              		@ sp needed
 728 006a 70BD     		pop	{r4, r5, r6, pc}
 729              	.L66:
 730              		.align	2
 731              	.L65:
 732 006c 00000000 		.word	Comm_txBuffer
 733 0070 00000000 		.word	Comm_txBufferHead
 734 0074 00000000 		.word	Comm_txBufferTail
 735 0078 08020640 		.word	1074135560
 736 007c 00000000 		.word	Comm_txBufferSize
 737 0080 800F0640 		.word	1074139008
 738 0084 880F0640 		.word	1074139016
 739 0088 40020640 		.word	1074135616
 740              		.cfi_endproc
ARM GAS  C:\Users\TECHCO~1\AppData\Local\Temp\cceWCpvs.s 			page 25


 741              	.LFE3:
 742              		.size	Comm_SpiUartWriteTxData, .-Comm_SpiUartWriteTxData
 743              		.section	.text.Comm_SpiUartPutArray,"ax",%progbits
 744              		.align	1
 745              		.global	Comm_SpiUartPutArray
 746              		.code	16
 747              		.thumb_func
 748              		.type	Comm_SpiUartPutArray, %function
 749              	Comm_SpiUartPutArray:
 750              	.LFB4:
 341:Generated_Source\PSoC4/Comm_SPI_UART.c ****         uint32 i;
 751              		.loc 1 341 0
 752              		.cfi_startproc
 753              	.LVL48:
 754 0000 38B5     		push	{r3, r4, r5, lr}
 755              		.cfi_def_cfa_offset 16
 756              		.cfi_offset 3, -16
 757              		.cfi_offset 4, -12
 758              		.cfi_offset 5, -8
 759              		.cfi_offset 14, -4
 760 0002 041C     		mov	r4, r0
 761 0004 4518     		add	r5, r0, r1
 762              	.LVL49:
 763              	.L68:
 344:Generated_Source\PSoC4/Comm_SPI_UART.c ****         {
 764              		.loc 1 344 0 discriminator 1
 765 0006 AC42     		cmp	r4, r5
 766 0008 04D0     		beq	.L70
 346:Generated_Source\PSoC4/Comm_SPI_UART.c ****         }
 767              		.loc 1 346 0 discriminator 3
 768 000a 2078     		ldrb	r0, [r4]
 769 000c FFF7FEFF 		bl	Comm_SpiUartWriteTxData
 770              	.LVL50:
 771 0010 0134     		add	r4, r4, #1
 772              	.LVL51:
 773 0012 F8E7     		b	.L68
 774              	.L70:
 348:Generated_Source\PSoC4/Comm_SPI_UART.c **** 
 775              		.loc 1 348 0
 776              		@ sp needed
 777              	.LVL52:
 778 0014 38BD     		pop	{r3, r4, r5, pc}
 779              		.cfi_endproc
 780              	.LFE4:
 781              		.size	Comm_SpiUartPutArray, .-Comm_SpiUartPutArray
 782              		.section	.text.Comm_GetWordFromTxBuffer,"ax",%progbits
 783              		.align	1
 784              		.global	Comm_GetWordFromTxBuffer
 785              		.code	16
 786              		.thumb_func
 787              		.type	Comm_GetWordFromTxBuffer, %function
 788              	Comm_GetWordFromTxBuffer:
 789              	.LFB12:
 568:Generated_Source\PSoC4/Comm_SPI_UART.c **** 
 569:Generated_Source\PSoC4/Comm_SPI_UART.c **** 
 570:Generated_Source\PSoC4/Comm_SPI_UART.c ****     /*******************************************************************************
 571:Generated_Source\PSoC4/Comm_SPI_UART.c ****     * Function Name: Comm_GetWordFromTxBuffer
ARM GAS  C:\Users\TECHCO~1\AppData\Local\Temp\cceWCpvs.s 			page 26


 572:Generated_Source\PSoC4/Comm_SPI_UART.c ****     ****************************************************************************//**
 573:Generated_Source\PSoC4/Comm_SPI_UART.c ****     *
 574:Generated_Source\PSoC4/Comm_SPI_UART.c ****     *  Reads byte/word from the TX buffer.
 575:Generated_Source\PSoC4/Comm_SPI_UART.c ****     *  Only available in the Unconfigured operation mode.
 576:Generated_Source\PSoC4/Comm_SPI_UART.c ****     *
 577:Generated_Source\PSoC4/Comm_SPI_UART.c ****     *  \param idx: index to get data byte/word from the TX buffer.
 578:Generated_Source\PSoC4/Comm_SPI_UART.c ****     *
 579:Generated_Source\PSoC4/Comm_SPI_UART.c ****     *  \return
 580:Generated_Source\PSoC4/Comm_SPI_UART.c ****     *   Returns byte/word read from the TX buffer.
 581:Generated_Source\PSoC4/Comm_SPI_UART.c ****     *
 582:Generated_Source\PSoC4/Comm_SPI_UART.c ****     *******************************************************************************/
 583:Generated_Source\PSoC4/Comm_SPI_UART.c ****     uint32 Comm_GetWordFromTxBuffer(uint32 idx)
 584:Generated_Source\PSoC4/Comm_SPI_UART.c ****     {
 790              		.loc 1 584 0
 791              		.cfi_startproc
 792              	.LVL53:
 585:Generated_Source\PSoC4/Comm_SPI_UART.c ****         uint32 value;
 586:Generated_Source\PSoC4/Comm_SPI_UART.c **** 
 587:Generated_Source\PSoC4/Comm_SPI_UART.c ****         if (Comm_ONE_BYTE_WIDTH == Comm_txDataBits)
 793              		.loc 1 587 0
 794 0000 094B     		ldr	r3, .L74
 795 0002 1A78     		ldrb	r2, [r3]
 796 0004 094B     		ldr	r3, .L74+4
 797 0006 082A     		cmp	r2, #8
 798 0008 04D1     		bne	.L72
 588:Generated_Source\PSoC4/Comm_SPI_UART.c ****         {
 589:Generated_Source\PSoC4/Comm_SPI_UART.c ****             value = (uint32) Comm_txBuffer[idx];
 799              		.loc 1 589 0
 800 000a 1B68     		ldr	r3, [r3]
 801 000c 1818     		add	r0, r3, r0
 802              	.LVL54:
 803 000e 0078     		ldrb	r0, [r0]
 804 0010 C0B2     		uxtb	r0, r0
 805              	.LVL55:
 806 0012 08E0     		b	.L73
 807              	.LVL56:
 808              	.L72:
 590:Generated_Source\PSoC4/Comm_SPI_UART.c ****         }
 591:Generated_Source\PSoC4/Comm_SPI_UART.c ****         else
 592:Generated_Source\PSoC4/Comm_SPI_UART.c ****         {
 593:Generated_Source\PSoC4/Comm_SPI_UART.c ****             value  = (uint32) Comm_txBuffer[(uint32)(idx << 1u)];
 809              		.loc 1 593 0
 810 0014 1968     		ldr	r1, [r3]
 811 0016 4300     		lsl	r3, r0, #1
 812 0018 CA18     		add	r2, r1, r3
 594:Generated_Source\PSoC4/Comm_SPI_UART.c ****             value |= (uint32) ((uint32) Comm_txBuffer[(uint32)(idx << 1u) + 1u] << 8u);
 813              		.loc 1 594 0
 814 001a 0133     		add	r3, r3, #1
 815 001c CB18     		add	r3, r1, r3
 593:Generated_Source\PSoC4/Comm_SPI_UART.c ****             value |= (uint32) ((uint32) Comm_txBuffer[(uint32)(idx << 1u) + 1u] << 8u);
 816              		.loc 1 593 0
 817 001e 1278     		ldrb	r2, [r2]
 818              	.LVL57:
 819              		.loc 1 594 0
 820 0020 1878     		ldrb	r0, [r3]
 821              	.LVL58:
 822 0022 0002     		lsl	r0, r0, #8
ARM GAS  C:\Users\TECHCO~1\AppData\Local\Temp\cceWCpvs.s 			page 27


 823 0024 1043     		orr	r0, r2
 824              	.LVL59:
 825              	.L73:
 595:Generated_Source\PSoC4/Comm_SPI_UART.c ****         }
 596:Generated_Source\PSoC4/Comm_SPI_UART.c **** 
 597:Generated_Source\PSoC4/Comm_SPI_UART.c ****         return (value);
 598:Generated_Source\PSoC4/Comm_SPI_UART.c ****     }
 826              		.loc 1 598 0
 827              		@ sp needed
 828 0026 7047     		bx	lr
 829              	.L75:
 830              		.align	2
 831              	.L74:
 832 0028 00000000 		.word	Comm_txDataBits
 833 002c 00000000 		.word	Comm_txBuffer
 834              		.cfi_endproc
 835              	.LFE12:
 836              		.size	Comm_GetWordFromTxBuffer, .-Comm_GetWordFromTxBuffer
 837              		.comm	Comm_txBufferTail,4,4
 838              		.comm	Comm_txBufferHead,4,4
 839              		.comm	Comm_rxBufferOverflow,1,1
 840              		.comm	Comm_rxBufferTail,4,4
 841              		.comm	Comm_rxBufferHead,4,4
 842              		.text
 843              	.Letext0:
 844              		.file 2 "Generated_Source\\PSoC4/cytypes.h"
 845              		.file 3 "Generated_Source\\PSoC4\\Comm_PVT.h"
 846              		.file 4 "Generated_Source\\PSoC4/CyLib.h"