ARM GAS  C:\Users\TECHCO~1\AppData\Local\Temp\ccDTBYJl.s 			page 1


   1              		.cpu cortex-m0
   2              		.fpu softvfp
   3              		.eabi_attribute 20, 1
   4              		.eabi_attribute 21, 1
   5              		.eabi_attribute 23, 3
   6              		.eabi_attribute 24, 1
   7              		.eabi_attribute 25, 1
   8              		.eabi_attribute 26, 1
   9              		.eabi_attribute 30, 4
  10              		.eabi_attribute 34, 0
  11              		.eabi_attribute 18, 4
  12              		.code	16
  13              		.file	"Comm_EZI2C.c"
  14              		.text
  15              	.Ltext0:
  16              		.cfi_sections	.debug_frame
  17              		.section	.text.Comm_EzI2CUpdateRxMatchReg,"ax",%progbits
  18              		.align	1
  19              		.code	16
  20              		.thumb_func
  21              		.type	Comm_EzI2CUpdateRxMatchReg, %function
  22              	Comm_EzI2CUpdateRxMatchReg:
  23              	.LFB7:
  24              		.file 1 "Generated_Source\\PSoC4\\Comm_EZI2C.c"
   1:Generated_Source\PSoC4/Comm_EZI2C.c **** /***************************************************************************//**
   2:Generated_Source\PSoC4/Comm_EZI2C.c **** * \file Comm_EZI2C.c
   3:Generated_Source\PSoC4/Comm_EZI2C.c **** * \version 3.20
   4:Generated_Source\PSoC4/Comm_EZI2C.c **** *
   5:Generated_Source\PSoC4/Comm_EZI2C.c **** * \brief
   6:Generated_Source\PSoC4/Comm_EZI2C.c **** *  This file provides the source code to the API for the SCB Component in
   7:Generated_Source\PSoC4/Comm_EZI2C.c **** *  EZI2C mode.
   8:Generated_Source\PSoC4/Comm_EZI2C.c **** *
   9:Generated_Source\PSoC4/Comm_EZI2C.c **** * Note:
  10:Generated_Source\PSoC4/Comm_EZI2C.c **** *
  11:Generated_Source\PSoC4/Comm_EZI2C.c **** *******************************************************************************
  12:Generated_Source\PSoC4/Comm_EZI2C.c **** * \copyright
  13:Generated_Source\PSoC4/Comm_EZI2C.c **** * Copyright 2013-2016, Cypress Semiconductor Corporation.  All rights reserved.
  14:Generated_Source\PSoC4/Comm_EZI2C.c **** * You may use this file only in accordance with the license, terms, conditions,
  15:Generated_Source\PSoC4/Comm_EZI2C.c **** * disclaimers, and limitations in the end user license agreement accompanying
  16:Generated_Source\PSoC4/Comm_EZI2C.c **** * the software package with which this file was provided.
  17:Generated_Source\PSoC4/Comm_EZI2C.c **** *******************************************************************************/
  18:Generated_Source\PSoC4/Comm_EZI2C.c **** 
  19:Generated_Source\PSoC4/Comm_EZI2C.c **** #include "Comm_PVT.h"
  20:Generated_Source\PSoC4/Comm_EZI2C.c **** #include "Comm_EZI2C_PVT.h"
  21:Generated_Source\PSoC4/Comm_EZI2C.c **** 
  22:Generated_Source\PSoC4/Comm_EZI2C.c **** 
  23:Generated_Source\PSoC4/Comm_EZI2C.c **** /***************************************
  24:Generated_Source\PSoC4/Comm_EZI2C.c **** *      EZI2C Private Vars
  25:Generated_Source\PSoC4/Comm_EZI2C.c **** ***************************************/
  26:Generated_Source\PSoC4/Comm_EZI2C.c **** 
  27:Generated_Source\PSoC4/Comm_EZI2C.c **** volatile uint8 Comm_curStatus; /* Status byte */
  28:Generated_Source\PSoC4/Comm_EZI2C.c **** uint8 Comm_fsmState;           /* FSM state   */
  29:Generated_Source\PSoC4/Comm_EZI2C.c **** 
  30:Generated_Source\PSoC4/Comm_EZI2C.c **** /* Variables intended to be used with Buffer 1: Primary slave address */
  31:Generated_Source\PSoC4/Comm_EZI2C.c **** volatile uint8 * Comm_dataBuffer1; /* Pointer to data buffer 1 */
  32:Generated_Source\PSoC4/Comm_EZI2C.c **** uint16 Comm_bufSizeBuf1;           /* Size of buffer 1 in bytes      */
  33:Generated_Source\PSoC4/Comm_EZI2C.c **** uint16 Comm_protectBuf1;           /* Start index of write protected area buffer 1 */
ARM GAS  C:\Users\TECHCO~1\AppData\Local\Temp\ccDTBYJl.s 			page 2


  34:Generated_Source\PSoC4/Comm_EZI2C.c **** uint16 Comm_offsetBuf1; /* Current offset within buffer 1 */
  35:Generated_Source\PSoC4/Comm_EZI2C.c **** uint16 Comm_indexBuf1;             /* Current index within buffer 1  */
  36:Generated_Source\PSoC4/Comm_EZI2C.c **** 
  37:Generated_Source\PSoC4/Comm_EZI2C.c **** #if(Comm_SECONDARY_ADDRESS_ENABLE_CONST)
  38:Generated_Source\PSoC4/Comm_EZI2C.c ****     uint8 Comm_addrBuf1; /* Primary slave address. Used for software comparison   */
  39:Generated_Source\PSoC4/Comm_EZI2C.c ****     uint8 Comm_addrBuf2; /* Secondary slave address. Used for software comparison */
  40:Generated_Source\PSoC4/Comm_EZI2C.c **** 
  41:Generated_Source\PSoC4/Comm_EZI2C.c ****     /* Variables intended to be used with Buffer 2: Primary slave address */
  42:Generated_Source\PSoC4/Comm_EZI2C.c ****     volatile uint8 * Comm_dataBuffer2; /* Pointer to data buffer 2 */
  43:Generated_Source\PSoC4/Comm_EZI2C.c ****     uint16 Comm_bufSizeBuf2;           /* Size of buffer 2 in bytes */
  44:Generated_Source\PSoC4/Comm_EZI2C.c ****     uint16 Comm_protectBuf2;           /* Start index of write protected area buffer 2 */
  45:Generated_Source\PSoC4/Comm_EZI2C.c ****     uint16 Comm_offsetBuf2; /* Current offset within buffer 2 */
  46:Generated_Source\PSoC4/Comm_EZI2C.c ****     uint16 Comm_indexBuf2;             /* Current index within buffer 2 */
  47:Generated_Source\PSoC4/Comm_EZI2C.c **** #endif /* (Comm_SECONDARY_ADDRESS_ENABLE_CONST) */
  48:Generated_Source\PSoC4/Comm_EZI2C.c **** 
  49:Generated_Source\PSoC4/Comm_EZI2C.c **** 
  50:Generated_Source\PSoC4/Comm_EZI2C.c **** /***************************************
  51:Generated_Source\PSoC4/Comm_EZI2C.c **** *      EZI2C Private Functions
  52:Generated_Source\PSoC4/Comm_EZI2C.c **** ***************************************/
  53:Generated_Source\PSoC4/Comm_EZI2C.c **** 
  54:Generated_Source\PSoC4/Comm_EZI2C.c **** #if(Comm_SECONDARY_ADDRESS_ENABLE_CONST)
  55:Generated_Source\PSoC4/Comm_EZI2C.c ****     static uint32 Comm_EzI2CUpdateRxMatchReg(uint32 addr1, uint32 addr2);
  56:Generated_Source\PSoC4/Comm_EZI2C.c **** #endif /* (Comm_SECONDARY_ADDRESS_ENABLE_CONST) */
  57:Generated_Source\PSoC4/Comm_EZI2C.c **** 
  58:Generated_Source\PSoC4/Comm_EZI2C.c **** #if(Comm_SCB_MODE_UNCONFIG_CONST_CFG)
  59:Generated_Source\PSoC4/Comm_EZI2C.c **** 
  60:Generated_Source\PSoC4/Comm_EZI2C.c ****     /***************************************
  61:Generated_Source\PSoC4/Comm_EZI2C.c ****     *  Configuration Structure Initialization
  62:Generated_Source\PSoC4/Comm_EZI2C.c ****     ***************************************/
  63:Generated_Source\PSoC4/Comm_EZI2C.c **** 
  64:Generated_Source\PSoC4/Comm_EZI2C.c ****     /* Constant configuration of EZI2C */
  65:Generated_Source\PSoC4/Comm_EZI2C.c ****     const Comm_EZI2C_INIT_STRUCT Comm_configEzI2C =
  66:Generated_Source\PSoC4/Comm_EZI2C.c ****     {
  67:Generated_Source\PSoC4/Comm_EZI2C.c ****         Comm_EZI2C_CLOCK_STRETCHING,
  68:Generated_Source\PSoC4/Comm_EZI2C.c ****         Comm_EZI2C_MEDIAN_FILTER_ENABLE,
  69:Generated_Source\PSoC4/Comm_EZI2C.c ****         Comm_EZI2C_NUMBER_OF_ADDRESSES,
  70:Generated_Source\PSoC4/Comm_EZI2C.c ****         Comm_EZI2C_PRIMARY_SLAVE_ADDRESS,
  71:Generated_Source\PSoC4/Comm_EZI2C.c ****         Comm_EZI2C_SECONDARY_SLAVE_ADDRESS,
  72:Generated_Source\PSoC4/Comm_EZI2C.c ****         Comm_EZI2C_SUB_ADDRESS_SIZE,
  73:Generated_Source\PSoC4/Comm_EZI2C.c ****         Comm_EZI2C_WAKE_ENABLE,
  74:Generated_Source\PSoC4/Comm_EZI2C.c ****         Comm_EZI2C_BYTE_MODE_ENABLE
  75:Generated_Source\PSoC4/Comm_EZI2C.c ****     };
  76:Generated_Source\PSoC4/Comm_EZI2C.c **** 
  77:Generated_Source\PSoC4/Comm_EZI2C.c ****     /*******************************************************************************
  78:Generated_Source\PSoC4/Comm_EZI2C.c ****     * Function Name: Comm_EzI2CInit
  79:Generated_Source\PSoC4/Comm_EZI2C.c ****     ****************************************************************************//**
  80:Generated_Source\PSoC4/Comm_EZI2C.c ****     *
  81:Generated_Source\PSoC4/Comm_EZI2C.c ****     *  Configures the Comm for EZI2C operation.
  82:Generated_Source\PSoC4/Comm_EZI2C.c ****     *
  83:Generated_Source\PSoC4/Comm_EZI2C.c ****     *  This function is intended specifically to be used when the Comm 
  84:Generated_Source\PSoC4/Comm_EZI2C.c ****     *  configuration is set to “Unconfigured Comm” in the customizer. 
  85:Generated_Source\PSoC4/Comm_EZI2C.c ****     *  After initializing the Comm in EZI2C mode using this function, 
  86:Generated_Source\PSoC4/Comm_EZI2C.c ****     *  the component can be enabled using the Comm_Start() or 
  87:Generated_Source\PSoC4/Comm_EZI2C.c ****     * Comm_Enable() function.
  88:Generated_Source\PSoC4/Comm_EZI2C.c ****     *  This function uses a pointer to a structure that provides the configuration 
  89:Generated_Source\PSoC4/Comm_EZI2C.c ****     *  settings. This structure contains the same information that would otherwise 
  90:Generated_Source\PSoC4/Comm_EZI2C.c ****     *  be provided by the customizer settings.
ARM GAS  C:\Users\TECHCO~1\AppData\Local\Temp\ccDTBYJl.s 			page 3


  91:Generated_Source\PSoC4/Comm_EZI2C.c ****     *
  92:Generated_Source\PSoC4/Comm_EZI2C.c ****     * \param config: pointer to a structure that contains the following list of 
  93:Generated_Source\PSoC4/Comm_EZI2C.c ****     *  fields. These fields match the selections available in the customizer. 
  94:Generated_Source\PSoC4/Comm_EZI2C.c ****     *  Refer to the customizer for further description of the settings.
  95:Generated_Source\PSoC4/Comm_EZI2C.c ****     *
  96:Generated_Source\PSoC4/Comm_EZI2C.c ****     *******************************************************************************/
  97:Generated_Source\PSoC4/Comm_EZI2C.c ****     void Comm_EzI2CInit(const Comm_EZI2C_INIT_STRUCT *config)
  98:Generated_Source\PSoC4/Comm_EZI2C.c ****     {
  99:Generated_Source\PSoC4/Comm_EZI2C.c ****         if(NULL == config)
 100:Generated_Source\PSoC4/Comm_EZI2C.c ****         {
 101:Generated_Source\PSoC4/Comm_EZI2C.c ****             CYASSERT(0u != 0u); /* Halt execution due to bad function parameter */
 102:Generated_Source\PSoC4/Comm_EZI2C.c ****         }
 103:Generated_Source\PSoC4/Comm_EZI2C.c ****         else
 104:Generated_Source\PSoC4/Comm_EZI2C.c ****         {
 105:Generated_Source\PSoC4/Comm_EZI2C.c ****             /* Configure pins */
 106:Generated_Source\PSoC4/Comm_EZI2C.c ****             Comm_SetPins(Comm_SCB_MODE_EZI2C, Comm_DUMMY_PARAM,
 107:Generated_Source\PSoC4/Comm_EZI2C.c ****                                                                       Comm_DUMMY_PARAM);
 108:Generated_Source\PSoC4/Comm_EZI2C.c **** 
 109:Generated_Source\PSoC4/Comm_EZI2C.c ****             /* Store internal configuration */
 110:Generated_Source\PSoC4/Comm_EZI2C.c ****             Comm_scbMode       = (uint8) Comm_SCB_MODE_EZI2C;
 111:Generated_Source\PSoC4/Comm_EZI2C.c ****             Comm_scbEnableWake = (uint8) config->enableWake;
 112:Generated_Source\PSoC4/Comm_EZI2C.c ****             Comm_scbEnableIntr = (uint8) Comm_SCB_IRQ_INTERNAL;
 113:Generated_Source\PSoC4/Comm_EZI2C.c **** 
 114:Generated_Source\PSoC4/Comm_EZI2C.c ****             Comm_numberOfAddr  = (uint8) config->numberOfAddresses;
 115:Generated_Source\PSoC4/Comm_EZI2C.c ****             Comm_subAddrSize   = (uint8) config->subAddrSize;
 116:Generated_Source\PSoC4/Comm_EZI2C.c **** 
 117:Generated_Source\PSoC4/Comm_EZI2C.c ****         #if (Comm_CY_SCBIP_V0)
 118:Generated_Source\PSoC4/Comm_EZI2C.c ****             /* Adjust SDA filter settings. Ticket ID#150521 */
 119:Generated_Source\PSoC4/Comm_EZI2C.c ****             Comm_SET_I2C_CFG_SDA_FILT_TRIM(Comm_EC_AM_I2C_CFG_SDA_FILT_TRIM);
 120:Generated_Source\PSoC4/Comm_EZI2C.c ****         #endif /* (Comm_CY_SCBIP_V0) */
 121:Generated_Source\PSoC4/Comm_EZI2C.c **** 
 122:Generated_Source\PSoC4/Comm_EZI2C.c ****             /* Adjust AF and DF filter settings, AF = 1, DF = 0. Ticket ID#176179 */
 123:Generated_Source\PSoC4/Comm_EZI2C.c ****             Comm_I2C_CFG_ANALOG_FITER_ENABLE;
 124:Generated_Source\PSoC4/Comm_EZI2C.c **** 
 125:Generated_Source\PSoC4/Comm_EZI2C.c ****             /* Configure I2C interface */
 126:Generated_Source\PSoC4/Comm_EZI2C.c ****             Comm_CTRL_REG     = Comm_GET_CTRL_BYTE_MODE  (config->enableByteMode)    |
 127:Generated_Source\PSoC4/Comm_EZI2C.c ****                                             Comm_GET_CTRL_ADDR_ACCEPT(config->numberOfAddresses) |
 128:Generated_Source\PSoC4/Comm_EZI2C.c ****                                             Comm_GET_CTRL_EC_AM_MODE (config->enableWake);
 129:Generated_Source\PSoC4/Comm_EZI2C.c **** 
 130:Generated_Source\PSoC4/Comm_EZI2C.c ****             Comm_I2C_CTRL_REG = Comm_EZI2C_CTRL;
 131:Generated_Source\PSoC4/Comm_EZI2C.c **** 
 132:Generated_Source\PSoC4/Comm_EZI2C.c ****             /* Configure RX direction */
 133:Generated_Source\PSoC4/Comm_EZI2C.c ****             Comm_RX_CTRL_REG = Comm_EZI2C_RX_CTRL |
 134:Generated_Source\PSoC4/Comm_EZI2C.c ****                                         Comm_GET_RX_CTRL_MEDIAN(Comm_DIGITAL_FILTER_DISABLE);
 135:Generated_Source\PSoC4/Comm_EZI2C.c ****                                                 ;
 136:Generated_Source\PSoC4/Comm_EZI2C.c ****             Comm_RX_FIFO_CTRL_REG = Comm_CLEAR_REG;
 137:Generated_Source\PSoC4/Comm_EZI2C.c **** 
 138:Generated_Source\PSoC4/Comm_EZI2C.c ****             /* Set default address and mask */
 139:Generated_Source\PSoC4/Comm_EZI2C.c ****             if(Comm_EZI2C_PRIMARY_ADDRESS == config->numberOfAddresses)
 140:Generated_Source\PSoC4/Comm_EZI2C.c ****             {
 141:Generated_Source\PSoC4/Comm_EZI2C.c ****                 Comm_RX_MATCH_REG = Comm_EzI2CUpdateRxMatchReg(config->primarySlaveAddr,
 142:Generated_Source\PSoC4/Comm_EZI2C.c ****                                                                                        config->prim
 143:Generated_Source\PSoC4/Comm_EZI2C.c ****             }
 144:Generated_Source\PSoC4/Comm_EZI2C.c ****             else
 145:Generated_Source\PSoC4/Comm_EZI2C.c ****             {
 146:Generated_Source\PSoC4/Comm_EZI2C.c ****                 Comm_RX_MATCH_REG = Comm_EzI2CUpdateRxMatchReg(config->primarySlaveAddr,
 147:Generated_Source\PSoC4/Comm_EZI2C.c ****                                                                                        config->seco
ARM GAS  C:\Users\TECHCO~1\AppData\Local\Temp\ccDTBYJl.s 			page 4


 148:Generated_Source\PSoC4/Comm_EZI2C.c ****             }
 149:Generated_Source\PSoC4/Comm_EZI2C.c **** 
 150:Generated_Source\PSoC4/Comm_EZI2C.c ****             /* Configure TX direction */
 151:Generated_Source\PSoC4/Comm_EZI2C.c ****             Comm_TX_CTRL_REG      = Comm_EZI2C_TX_CTRL;
 152:Generated_Source\PSoC4/Comm_EZI2C.c ****             Comm_TX_FIFO_CTRL_REG = ((0u != (config->enableClockStretch)) ?
 153:Generated_Source\PSoC4/Comm_EZI2C.c ****                                                  Comm_CLEAR_REG : Comm_EZI2C_TX_FIFO_CTRL);
 154:Generated_Source\PSoC4/Comm_EZI2C.c **** 
 155:Generated_Source\PSoC4/Comm_EZI2C.c ****             /* Configure interrupt sources */
 156:Generated_Source\PSoC4/Comm_EZI2C.c ****         #if (!Comm_CY_SCBIP_V1)
 157:Generated_Source\PSoC4/Comm_EZI2C.c ****            Comm_INTR_SPI_EC_MASK_REG = Comm_NO_INTR_SOURCES;
 158:Generated_Source\PSoC4/Comm_EZI2C.c ****         #endif /* (!Comm_CY_SCBIP_V1) */
 159:Generated_Source\PSoC4/Comm_EZI2C.c **** 
 160:Generated_Source\PSoC4/Comm_EZI2C.c ****             Comm_INTR_I2C_EC_MASK_REG = Comm_NO_INTR_SOURCES;
 161:Generated_Source\PSoC4/Comm_EZI2C.c ****             Comm_INTR_MASTER_MASK_REG = Comm_NO_INTR_SOURCES;
 162:Generated_Source\PSoC4/Comm_EZI2C.c ****             Comm_INTR_SLAVE_MASK_REG  = Comm_EZI2C_INTR_SLAVE_MASK;
 163:Generated_Source\PSoC4/Comm_EZI2C.c ****             Comm_INTR_TX_MASK_REG     = Comm_NO_INTR_SOURCES;
 164:Generated_Source\PSoC4/Comm_EZI2C.c **** 
 165:Generated_Source\PSoC4/Comm_EZI2C.c ****             /* Configure interrupt with EZI2C handler but do not enable it */
 166:Generated_Source\PSoC4/Comm_EZI2C.c ****             CyIntDisable    (Comm_ISR_NUMBER);
 167:Generated_Source\PSoC4/Comm_EZI2C.c ****             CyIntSetPriority(Comm_ISR_NUMBER, Comm_ISR_PRIORITY);
 168:Generated_Source\PSoC4/Comm_EZI2C.c ****             (void) CyIntSetVector(Comm_ISR_NUMBER, (0u != (config->enableClockStretch)) ?
 169:Generated_Source\PSoC4/Comm_EZI2C.c ****                                                                       (&Comm_EZI2C_STRETCH_ISR) :
 170:Generated_Source\PSoC4/Comm_EZI2C.c ****                                                                       (&Comm_EZI2C_NO_STRETCH_ISR))
 171:Generated_Source\PSoC4/Comm_EZI2C.c **** 
 172:Generated_Source\PSoC4/Comm_EZI2C.c ****             if(0u != (config->enableClockStretch))
 173:Generated_Source\PSoC4/Comm_EZI2C.c ****             {
 174:Generated_Source\PSoC4/Comm_EZI2C.c ****                 /* Configure interrupt sources */
 175:Generated_Source\PSoC4/Comm_EZI2C.c ****                 Comm_INTR_SLAVE_MASK_REG |= Comm_INTR_SLAVE_I2C_ADDR_MATCH;
 176:Generated_Source\PSoC4/Comm_EZI2C.c ****                 Comm_INTR_RX_MASK_REG     = Comm_NO_INTR_SOURCES;
 177:Generated_Source\PSoC4/Comm_EZI2C.c ****             }
 178:Generated_Source\PSoC4/Comm_EZI2C.c ****             else
 179:Generated_Source\PSoC4/Comm_EZI2C.c ****             {
 180:Generated_Source\PSoC4/Comm_EZI2C.c ****                 /* Enable Auto ACK/NACK features */
 181:Generated_Source\PSoC4/Comm_EZI2C.c ****                 Comm_I2C_CTRL_REG |= Comm_EZI2C_CTRL_AUTO;
 182:Generated_Source\PSoC4/Comm_EZI2C.c **** 
 183:Generated_Source\PSoC4/Comm_EZI2C.c ****                 /* Configure RX interrupt source */
 184:Generated_Source\PSoC4/Comm_EZI2C.c ****                 Comm_INTR_SLAVE_MASK_REG |= Comm_INTR_SLAVE_I2C_START;
 185:Generated_Source\PSoC4/Comm_EZI2C.c ****                 Comm_INTR_RX_MASK_REG     = Comm_INTR_RX_NOT_EMPTY;
 186:Generated_Source\PSoC4/Comm_EZI2C.c ****             }
 187:Generated_Source\PSoC4/Comm_EZI2C.c **** 
 188:Generated_Source\PSoC4/Comm_EZI2C.c ****             /* Configure global variables */
 189:Generated_Source\PSoC4/Comm_EZI2C.c ****             Comm_fsmState = Comm_EZI2C_FSM_IDLE;
 190:Generated_Source\PSoC4/Comm_EZI2C.c **** 
 191:Generated_Source\PSoC4/Comm_EZI2C.c ****             Comm_curStatus  = 0u;
 192:Generated_Source\PSoC4/Comm_EZI2C.c ****             Comm_indexBuf1  = 0u;
 193:Generated_Source\PSoC4/Comm_EZI2C.c ****             Comm_offsetBuf1 = 0u;
 194:Generated_Source\PSoC4/Comm_EZI2C.c ****             Comm_indexBuf2  = 0u;
 195:Generated_Source\PSoC4/Comm_EZI2C.c ****             Comm_offsetBuf2 = 0u;
 196:Generated_Source\PSoC4/Comm_EZI2C.c **** 
 197:Generated_Source\PSoC4/Comm_EZI2C.c ****             Comm_addrBuf1 = (uint8) config->primarySlaveAddr;
 198:Generated_Source\PSoC4/Comm_EZI2C.c ****             Comm_addrBuf2 = (uint8) config->secondarySlaveAddr;
 199:Generated_Source\PSoC4/Comm_EZI2C.c ****         }
 200:Generated_Source\PSoC4/Comm_EZI2C.c ****     }
 201:Generated_Source\PSoC4/Comm_EZI2C.c **** 
 202:Generated_Source\PSoC4/Comm_EZI2C.c **** #else
 203:Generated_Source\PSoC4/Comm_EZI2C.c **** 
 204:Generated_Source\PSoC4/Comm_EZI2C.c ****     /*******************************************************************************
ARM GAS  C:\Users\TECHCO~1\AppData\Local\Temp\ccDTBYJl.s 			page 5


 205:Generated_Source\PSoC4/Comm_EZI2C.c ****     * Function Name: Comm_EzI2CInit
 206:Generated_Source\PSoC4/Comm_EZI2C.c ****     ****************************************************************************//**
 207:Generated_Source\PSoC4/Comm_EZI2C.c ****     *
 208:Generated_Source\PSoC4/Comm_EZI2C.c ****     *  Configures the SCB for the EZI2C operation.
 209:Generated_Source\PSoC4/Comm_EZI2C.c ****     *
 210:Generated_Source\PSoC4/Comm_EZI2C.c ****     *******************************************************************************/
 211:Generated_Source\PSoC4/Comm_EZI2C.c ****     void Comm_EzI2CInit(void)
 212:Generated_Source\PSoC4/Comm_EZI2C.c ****     {
 213:Generated_Source\PSoC4/Comm_EZI2C.c ****         /* Configure I2C interface */
 214:Generated_Source\PSoC4/Comm_EZI2C.c ****         Comm_CTRL_REG     = Comm_EZI2C_DEFAULT_CTRL;
 215:Generated_Source\PSoC4/Comm_EZI2C.c ****         Comm_I2C_CTRL_REG = Comm_EZI2C_DEFAULT_I2C_CTRL;
 216:Generated_Source\PSoC4/Comm_EZI2C.c **** 
 217:Generated_Source\PSoC4/Comm_EZI2C.c ****     #if (Comm_CY_SCBIP_V0)
 218:Generated_Source\PSoC4/Comm_EZI2C.c ****         /* Adjust SDA filter settings. Ticket ID#150521 */
 219:Generated_Source\PSoC4/Comm_EZI2C.c ****         Comm_SET_I2C_CFG_SDA_FILT_TRIM(Comm_EC_AM_I2C_CFG_SDA_FILT_TRIM);
 220:Generated_Source\PSoC4/Comm_EZI2C.c ****     #endif /* (Comm_CY_SCBIP_V0) */
 221:Generated_Source\PSoC4/Comm_EZI2C.c **** 
 222:Generated_Source\PSoC4/Comm_EZI2C.c ****         /* Configure RX direction */
 223:Generated_Source\PSoC4/Comm_EZI2C.c ****         Comm_RX_CTRL_REG      = Comm_EZI2C_DEFAULT_RX_CTRL;
 224:Generated_Source\PSoC4/Comm_EZI2C.c ****         Comm_RX_FIFO_CTRL_REG = Comm_EZI2C_DEFAULT_RX_FIFO_CTRL;
 225:Generated_Source\PSoC4/Comm_EZI2C.c **** 
 226:Generated_Source\PSoC4/Comm_EZI2C.c ****         /* Set default address and mask */
 227:Generated_Source\PSoC4/Comm_EZI2C.c ****         Comm_RX_MATCH_REG     = Comm_EZI2C_DEFAULT_RX_MATCH;
 228:Generated_Source\PSoC4/Comm_EZI2C.c **** 
 229:Generated_Source\PSoC4/Comm_EZI2C.c ****         /* Configure TX direction */
 230:Generated_Source\PSoC4/Comm_EZI2C.c ****         Comm_TX_CTRL_REG      = Comm_EZI2C_DEFAULT_TX_CTRL;
 231:Generated_Source\PSoC4/Comm_EZI2C.c ****         Comm_TX_FIFO_CTRL_REG = Comm_EZI2C_DEFAULT_TX_FIFO_CTRL;
 232:Generated_Source\PSoC4/Comm_EZI2C.c **** 
 233:Generated_Source\PSoC4/Comm_EZI2C.c ****         /* Configure interrupt with EZI2C handler but do not enable it */
 234:Generated_Source\PSoC4/Comm_EZI2C.c ****     #if !defined (CY_EXTERNAL_INTERRUPT_CONFIG)
 235:Generated_Source\PSoC4/Comm_EZI2C.c ****         CyIntDisable    (Comm_ISR_NUMBER);
 236:Generated_Source\PSoC4/Comm_EZI2C.c ****         CyIntSetPriority(Comm_ISR_NUMBER, Comm_ISR_PRIORITY);
 237:Generated_Source\PSoC4/Comm_EZI2C.c **** 
 238:Generated_Source\PSoC4/Comm_EZI2C.c ****     #if (Comm_EZI2C_SCL_STRETCH_ENABLE_CONST)
 239:Generated_Source\PSoC4/Comm_EZI2C.c ****         (void) CyIntSetVector(Comm_ISR_NUMBER, &Comm_EZI2C_STRETCH_ISR);
 240:Generated_Source\PSoC4/Comm_EZI2C.c ****     #else
 241:Generated_Source\PSoC4/Comm_EZI2C.c ****         (void) CyIntSetVector(Comm_ISR_NUMBER, &Comm_EZI2C_NO_STRETCH_ISR);
 242:Generated_Source\PSoC4/Comm_EZI2C.c ****     #endif /* (Comm_EZI2C_SCL_STRETCH_ENABLE_CONST) */
 243:Generated_Source\PSoC4/Comm_EZI2C.c **** 
 244:Generated_Source\PSoC4/Comm_EZI2C.c ****     #endif /* !defined (CY_EXTERNAL_INTERRUPT_CONFIG) */
 245:Generated_Source\PSoC4/Comm_EZI2C.c **** 
 246:Generated_Source\PSoC4/Comm_EZI2C.c ****         /* Configure interrupt sources */
 247:Generated_Source\PSoC4/Comm_EZI2C.c ****     #if (!Comm_CY_SCBIP_V1)
 248:Generated_Source\PSoC4/Comm_EZI2C.c ****         Comm_INTR_SPI_EC_MASK_REG = Comm_EZI2C_DEFAULT_INTR_SPI_EC_MASK;
 249:Generated_Source\PSoC4/Comm_EZI2C.c ****     #endif /* (!Comm_CY_SCBIP_V1) */
 250:Generated_Source\PSoC4/Comm_EZI2C.c **** 
 251:Generated_Source\PSoC4/Comm_EZI2C.c ****         Comm_INTR_I2C_EC_MASK_REG = Comm_EZI2C_DEFAULT_INTR_I2C_EC_MASK;
 252:Generated_Source\PSoC4/Comm_EZI2C.c ****         Comm_INTR_SLAVE_MASK_REG  = Comm_EZI2C_DEFAULT_INTR_SLAVE_MASK;
 253:Generated_Source\PSoC4/Comm_EZI2C.c ****         Comm_INTR_MASTER_MASK_REG = Comm_EZI2C_DEFAULT_INTR_MASTER_MASK;
 254:Generated_Source\PSoC4/Comm_EZI2C.c ****         Comm_INTR_RX_MASK_REG     = Comm_EZI2C_DEFAULT_INTR_RX_MASK;
 255:Generated_Source\PSoC4/Comm_EZI2C.c ****         Comm_INTR_TX_MASK_REG     = Comm_EZI2C_DEFAULT_INTR_TX_MASK;
 256:Generated_Source\PSoC4/Comm_EZI2C.c **** 
 257:Generated_Source\PSoC4/Comm_EZI2C.c ****         /* Configure global variables */
 258:Generated_Source\PSoC4/Comm_EZI2C.c ****         Comm_fsmState = Comm_EZI2C_FSM_IDLE;
 259:Generated_Source\PSoC4/Comm_EZI2C.c **** 
 260:Generated_Source\PSoC4/Comm_EZI2C.c ****         Comm_curStatus  = 0u;
 261:Generated_Source\PSoC4/Comm_EZI2C.c ****         Comm_indexBuf1  = 0u;
ARM GAS  C:\Users\TECHCO~1\AppData\Local\Temp\ccDTBYJl.s 			page 6


 262:Generated_Source\PSoC4/Comm_EZI2C.c ****         Comm_offsetBuf1 = 0u;
 263:Generated_Source\PSoC4/Comm_EZI2C.c **** 
 264:Generated_Source\PSoC4/Comm_EZI2C.c ****     #if(Comm_SECONDARY_ADDRESS_ENABLE_CONST)
 265:Generated_Source\PSoC4/Comm_EZI2C.c ****         Comm_indexBuf2  = 0u;
 266:Generated_Source\PSoC4/Comm_EZI2C.c ****         Comm_offsetBuf2 = 0u;
 267:Generated_Source\PSoC4/Comm_EZI2C.c **** 
 268:Generated_Source\PSoC4/Comm_EZI2C.c ****         Comm_addrBuf1 = Comm_EZI2C_PRIMARY_SLAVE_ADDRESS;
 269:Generated_Source\PSoC4/Comm_EZI2C.c ****         Comm_addrBuf2 = Comm_EZI2C_SECONDARY_SLAVE_ADDRESS;
 270:Generated_Source\PSoC4/Comm_EZI2C.c ****     #endif /* (Comm_SECONDARY_ADDRESS_ENABLE_CONST) */
 271:Generated_Source\PSoC4/Comm_EZI2C.c ****     }
 272:Generated_Source\PSoC4/Comm_EZI2C.c **** #endif /* (Comm_SCB_MODE_UNCONFIG_CONST_CFG) */
 273:Generated_Source\PSoC4/Comm_EZI2C.c **** 
 274:Generated_Source\PSoC4/Comm_EZI2C.c **** 
 275:Generated_Source\PSoC4/Comm_EZI2C.c **** /*******************************************************************************
 276:Generated_Source\PSoC4/Comm_EZI2C.c **** * Function Name: Comm_EzI2CStop
 277:Generated_Source\PSoC4/Comm_EZI2C.c **** ****************************************************************************//**
 278:Generated_Source\PSoC4/Comm_EZI2C.c **** *
 279:Generated_Source\PSoC4/Comm_EZI2C.c **** *  Resets the EZI2C FSM into the default state.
 280:Generated_Source\PSoC4/Comm_EZI2C.c **** *
 281:Generated_Source\PSoC4/Comm_EZI2C.c **** *******************************************************************************/
 282:Generated_Source\PSoC4/Comm_EZI2C.c **** void Comm_EzI2CStop(void)
 283:Generated_Source\PSoC4/Comm_EZI2C.c **** {
 284:Generated_Source\PSoC4/Comm_EZI2C.c ****     Comm_fsmState = Comm_EZI2C_FSM_IDLE;
 285:Generated_Source\PSoC4/Comm_EZI2C.c **** }
 286:Generated_Source\PSoC4/Comm_EZI2C.c **** 
 287:Generated_Source\PSoC4/Comm_EZI2C.c **** 
 288:Generated_Source\PSoC4/Comm_EZI2C.c **** /*******************************************************************************
 289:Generated_Source\PSoC4/Comm_EZI2C.c **** * Function Name: Comm_EzI2CGetActivity
 290:Generated_Source\PSoC4/Comm_EZI2C.c **** ****************************************************************************//**
 291:Generated_Source\PSoC4/Comm_EZI2C.c **** *
 292:Generated_Source\PSoC4/Comm_EZI2C.c **** *  Returns the EZI2C slave status.
 293:Generated_Source\PSoC4/Comm_EZI2C.c **** *  The read, write and error status flags reset to zero after this function
 294:Generated_Source\PSoC4/Comm_EZI2C.c **** *  call. The busy status flag is cleared when the transaction intended for
 295:Generated_Source\PSoC4/Comm_EZI2C.c **** *  the EZI2C slave completes.
 296:Generated_Source\PSoC4/Comm_EZI2C.c **** *
 297:Generated_Source\PSoC4/Comm_EZI2C.c **** * \return
 298:Generated_Source\PSoC4/Comm_EZI2C.c **** *  Returns the status of the EZI2C Slave activity.
 299:Generated_Source\PSoC4/Comm_EZI2C.c **** *  - Comm_EZI2C_STATUS_READ1 - Read transfer complete. The transfer 
 300:Generated_Source\PSoC4/Comm_EZI2C.c **** *    used the primary slave address. The error condition status bit must be 
 301:Generated_Source\PSoC4/Comm_EZI2C.c **** *    checked to ensure that read transfer was completed successfully.
 302:Generated_Source\PSoC4/Comm_EZI2C.c **** *  - Comm_EZI2C_STATUS_WRITE1 - Write transfer complete. The buffer 
 303:Generated_Source\PSoC4/Comm_EZI2C.c **** *    content was modified. The transfer used the primary slave address. 
 304:Generated_Source\PSoC4/Comm_EZI2C.c **** *    The error condition status bit must be checked to ensure that write 
 305:Generated_Source\PSoC4/Comm_EZI2C.c **** *    transfer was completed successfully.
 306:Generated_Source\PSoC4/Comm_EZI2C.c **** *  - Comm_EZI2C_STATUS_READ2 - Read transfer complete. The transfer
 307:Generated_Source\PSoC4/Comm_EZI2C.c **** *    used the secondary slave address. The error condition status bit must be 
 308:Generated_Source\PSoC4/Comm_EZI2C.c **** *    checked to ensure that read transfer was completed successfully.
 309:Generated_Source\PSoC4/Comm_EZI2C.c **** *  - Comm_EZI2C_STATUS_WRITE2 - Write transfer complete. The buffer
 310:Generated_Source\PSoC4/Comm_EZI2C.c **** *    content was modified. The transfer used the secondary slave address. 
 311:Generated_Source\PSoC4/Comm_EZI2C.c **** *    The error condition status bit must be checked to ensure that write 
 312:Generated_Source\PSoC4/Comm_EZI2C.c **** *    transfer was completed successfully.
 313:Generated_Source\PSoC4/Comm_EZI2C.c **** *  - Comm_EZI2C_STATUS_BUSY - A transfer intended for the primary 
 314:Generated_Source\PSoC4/Comm_EZI2C.c **** *    or secondary address is in progress. The status bit is set after an 
 315:Generated_Source\PSoC4/Comm_EZI2C.c **** *    address match and cleared on a Stop or ReStart condition.
 316:Generated_Source\PSoC4/Comm_EZI2C.c **** *  - Comm_EZI2C_STATUS_ERR - An error occurred during a transfer 
 317:Generated_Source\PSoC4/Comm_EZI2C.c **** *    intended for the primary or secondary slave address. The sources of error
 318:Generated_Source\PSoC4/Comm_EZI2C.c **** *    are: misplaced Start or Stop condition or lost arbitration while slave 
ARM GAS  C:\Users\TECHCO~1\AppData\Local\Temp\ccDTBYJl.s 			page 7


 319:Generated_Source\PSoC4/Comm_EZI2C.c **** *    drives SDA.
 320:Generated_Source\PSoC4/Comm_EZI2C.c **** *    The write buffer may contain invalid byte or part of the transaction when 
 321:Generated_Source\PSoC4/Comm_EZI2C.c **** *    Comm_EZI2C_STATUS_ERR and Comm_EZI2C_STATUS_WRITE1/2 
 322:Generated_Source\PSoC4/Comm_EZI2C.c **** *    is set. It is recommended to discard buffer content in this case.
 323:Generated_Source\PSoC4/Comm_EZI2C.c **** *
 324:Generated_Source\PSoC4/Comm_EZI2C.c **** * \globalvars
 325:Generated_Source\PSoC4/Comm_EZI2C.c **** *  Comm_curStatus - used to store the current status of the EZI2C 
 326:Generated_Source\PSoC4/Comm_EZI2C.c **** *  slave.
 327:Generated_Source\PSoC4/Comm_EZI2C.c **** *
 328:Generated_Source\PSoC4/Comm_EZI2C.c **** *******************************************************************************/
 329:Generated_Source\PSoC4/Comm_EZI2C.c **** uint32 Comm_EzI2CGetActivity(void)
 330:Generated_Source\PSoC4/Comm_EZI2C.c **** {
 331:Generated_Source\PSoC4/Comm_EZI2C.c ****     uint32 status;
 332:Generated_Source\PSoC4/Comm_EZI2C.c **** 
 333:Generated_Source\PSoC4/Comm_EZI2C.c ****     Comm_DisableInt();  /* Lock from interruption */
 334:Generated_Source\PSoC4/Comm_EZI2C.c **** 
 335:Generated_Source\PSoC4/Comm_EZI2C.c ****     status = Comm_curStatus;
 336:Generated_Source\PSoC4/Comm_EZI2C.c **** 
 337:Generated_Source\PSoC4/Comm_EZI2C.c ****     /* Relay on address match event from HW as bus busy status */
 338:Generated_Source\PSoC4/Comm_EZI2C.c ****     if(Comm_EZI2C_SCL_STRETCH_DISABLE)
 339:Generated_Source\PSoC4/Comm_EZI2C.c ****     {
 340:Generated_Source\PSoC4/Comm_EZI2C.c ****         /* For Comm_CY_SCBIP_V0 the wake is prohibited by customizer */
 341:Generated_Source\PSoC4/Comm_EZI2C.c ****         if(Comm_EZI2C_EC_AM_ENABLE)
 342:Generated_Source\PSoC4/Comm_EZI2C.c ****         {
 343:Generated_Source\PSoC4/Comm_EZI2C.c ****             status |= Comm_CHECK_INTR_I2C_EC(Comm_INTR_I2C_EC_WAKE_UP) ?
 344:Generated_Source\PSoC4/Comm_EZI2C.c ****                         Comm_EZI2C_STATUS_BUSY : 0u;
 345:Generated_Source\PSoC4/Comm_EZI2C.c ****         }
 346:Generated_Source\PSoC4/Comm_EZI2C.c ****         else
 347:Generated_Source\PSoC4/Comm_EZI2C.c ****         {
 348:Generated_Source\PSoC4/Comm_EZI2C.c ****             status |= Comm_CHECK_INTR_SLAVE(Comm_INTR_SLAVE_I2C_ADDR_MATCH) ?
 349:Generated_Source\PSoC4/Comm_EZI2C.c ****                         Comm_EZI2C_STATUS_BUSY : 0u;
 350:Generated_Source\PSoC4/Comm_EZI2C.c ****         }
 351:Generated_Source\PSoC4/Comm_EZI2C.c ****         
 352:Generated_Source\PSoC4/Comm_EZI2C.c ****     }
 353:Generated_Source\PSoC4/Comm_EZI2C.c ****     
 354:Generated_Source\PSoC4/Comm_EZI2C.c **** 
 355:Generated_Source\PSoC4/Comm_EZI2C.c ****     Comm_curStatus &= ((uint8) ~Comm_EZI2C_CLEAR_STATUS);
 356:Generated_Source\PSoC4/Comm_EZI2C.c **** 
 357:Generated_Source\PSoC4/Comm_EZI2C.c ****     Comm_EnableInt();   /* Release lock */
 358:Generated_Source\PSoC4/Comm_EZI2C.c **** 
 359:Generated_Source\PSoC4/Comm_EZI2C.c ****     return(status);
 360:Generated_Source\PSoC4/Comm_EZI2C.c **** }
 361:Generated_Source\PSoC4/Comm_EZI2C.c **** 
 362:Generated_Source\PSoC4/Comm_EZI2C.c **** 
 363:Generated_Source\PSoC4/Comm_EZI2C.c **** /*******************************************************************************
 364:Generated_Source\PSoC4/Comm_EZI2C.c **** * Function Name: Comm_EzI2CSetAddress1
 365:Generated_Source\PSoC4/Comm_EZI2C.c **** ****************************************************************************//**
 366:Generated_Source\PSoC4/Comm_EZI2C.c **** *
 367:Generated_Source\PSoC4/Comm_EZI2C.c **** *  Sets the primary EZI2C slave address.
 368:Generated_Source\PSoC4/Comm_EZI2C.c **** *
 369:Generated_Source\PSoC4/Comm_EZI2C.c **** * \param address: I2C slave address for the secondary device.
 370:Generated_Source\PSoC4/Comm_EZI2C.c **** *  This address is the 7-bit right-justified slave address and does not 
 371:Generated_Source\PSoC4/Comm_EZI2C.c **** *   include the R/W bit.
 372:Generated_Source\PSoC4/Comm_EZI2C.c **** *
 373:Generated_Source\PSoC4/Comm_EZI2C.c **** *  The address value is not checked to see if it violates the I2C spec. 
 374:Generated_Source\PSoC4/Comm_EZI2C.c **** *  The preferred addresses are in the range between 8 and 120 (0x08 to 0x78).
 375:Generated_Source\PSoC4/Comm_EZI2C.c **** *
ARM GAS  C:\Users\TECHCO~1\AppData\Local\Temp\ccDTBYJl.s 			page 8


 376:Generated_Source\PSoC4/Comm_EZI2C.c **** * \globalvars
 377:Generated_Source\PSoC4/Comm_EZI2C.c **** *  Comm_addrBuf1 - used to store the primary 7-bit slave address 
 378:Generated_Source\PSoC4/Comm_EZI2C.c **** *  value.
 379:Generated_Source\PSoC4/Comm_EZI2C.c **** *
 380:Generated_Source\PSoC4/Comm_EZI2C.c **** *******************************************************************************/
 381:Generated_Source\PSoC4/Comm_EZI2C.c **** void Comm_EzI2CSetAddress1(uint32 address)
 382:Generated_Source\PSoC4/Comm_EZI2C.c **** {
 383:Generated_Source\PSoC4/Comm_EZI2C.c ****     if(Comm_SECONDARY_ADDRESS_ENABLE)
 384:Generated_Source\PSoC4/Comm_EZI2C.c ****     {
 385:Generated_Source\PSoC4/Comm_EZI2C.c ****         Comm_addrBuf1 = (uint8) address;
 386:Generated_Source\PSoC4/Comm_EZI2C.c **** 
 387:Generated_Source\PSoC4/Comm_EZI2C.c ****         Comm_RX_MATCH_REG = 
 388:Generated_Source\PSoC4/Comm_EZI2C.c ****                         Comm_EzI2CUpdateRxMatchReg(address, (uint32) Comm_addrBuf2);
 389:Generated_Source\PSoC4/Comm_EZI2C.c ****     }
 390:Generated_Source\PSoC4/Comm_EZI2C.c ****     else
 391:Generated_Source\PSoC4/Comm_EZI2C.c ****     {
 392:Generated_Source\PSoC4/Comm_EZI2C.c ****         uint32 matchReg;
 393:Generated_Source\PSoC4/Comm_EZI2C.c **** 
 394:Generated_Source\PSoC4/Comm_EZI2C.c ****         matchReg = Comm_RX_MATCH_REG;
 395:Generated_Source\PSoC4/Comm_EZI2C.c **** 
 396:Generated_Source\PSoC4/Comm_EZI2C.c ****         /* Set address. */
 397:Generated_Source\PSoC4/Comm_EZI2C.c ****         matchReg &= (uint32) ~Comm_RX_MATCH_ADDR_MASK;
 398:Generated_Source\PSoC4/Comm_EZI2C.c ****         matchReg |= (uint32)  Comm_GET_I2C_8BIT_ADDRESS(address);
 399:Generated_Source\PSoC4/Comm_EZI2C.c **** 
 400:Generated_Source\PSoC4/Comm_EZI2C.c ****         Comm_RX_MATCH_REG = matchReg;
 401:Generated_Source\PSoC4/Comm_EZI2C.c ****     }
 402:Generated_Source\PSoC4/Comm_EZI2C.c ****     
 403:Generated_Source\PSoC4/Comm_EZI2C.c **** }
 404:Generated_Source\PSoC4/Comm_EZI2C.c **** 
 405:Generated_Source\PSoC4/Comm_EZI2C.c **** 
 406:Generated_Source\PSoC4/Comm_EZI2C.c **** /*******************************************************************************
 407:Generated_Source\PSoC4/Comm_EZI2C.c **** * Function Name: Comm_EzI2CGetAddress1
 408:Generated_Source\PSoC4/Comm_EZI2C.c **** ****************************************************************************//**
 409:Generated_Source\PSoC4/Comm_EZI2C.c **** *
 410:Generated_Source\PSoC4/Comm_EZI2C.c **** *  Returns primary the EZ I2C slave address.
 411:Generated_Source\PSoC4/Comm_EZI2C.c **** *  This address is the 7-bit right-justified slave address and does not include 
 412:Generated_Source\PSoC4/Comm_EZI2C.c **** *  the R/W bit.
 413:Generated_Source\PSoC4/Comm_EZI2C.c **** *
 414:Generated_Source\PSoC4/Comm_EZI2C.c **** * \return
 415:Generated_Source\PSoC4/Comm_EZI2C.c **** *  Primary EZI2C slave address.
 416:Generated_Source\PSoC4/Comm_EZI2C.c **** *
 417:Generated_Source\PSoC4/Comm_EZI2C.c **** * \globalvars
 418:Generated_Source\PSoC4/Comm_EZI2C.c **** *  Comm_addrBuf1 - used to store the primary 7-bit slave address 
 419:Generated_Source\PSoC4/Comm_EZI2C.c **** *  value.
 420:Generated_Source\PSoC4/Comm_EZI2C.c **** *
 421:Generated_Source\PSoC4/Comm_EZI2C.c **** *******************************************************************************/
 422:Generated_Source\PSoC4/Comm_EZI2C.c **** uint32 Comm_EzI2CGetAddress1(void)
 423:Generated_Source\PSoC4/Comm_EZI2C.c **** {
 424:Generated_Source\PSoC4/Comm_EZI2C.c ****     uint32 address;
 425:Generated_Source\PSoC4/Comm_EZI2C.c **** 
 426:Generated_Source\PSoC4/Comm_EZI2C.c ****     if(Comm_SECONDARY_ADDRESS_ENABLE)
 427:Generated_Source\PSoC4/Comm_EZI2C.c ****     {
 428:Generated_Source\PSoC4/Comm_EZI2C.c ****         address = (uint32) Comm_addrBuf1;
 429:Generated_Source\PSoC4/Comm_EZI2C.c ****     }
 430:Generated_Source\PSoC4/Comm_EZI2C.c ****     else
 431:Generated_Source\PSoC4/Comm_EZI2C.c ****     {
 432:Generated_Source\PSoC4/Comm_EZI2C.c ****         address = (Comm_GET_RX_MATCH_ADDR(Comm_RX_MATCH_REG) >>
ARM GAS  C:\Users\TECHCO~1\AppData\Local\Temp\ccDTBYJl.s 			page 9


 433:Generated_Source\PSoC4/Comm_EZI2C.c ****                    Comm_I2C_SLAVE_ADDR_POS);
 434:Generated_Source\PSoC4/Comm_EZI2C.c ****     }
 435:Generated_Source\PSoC4/Comm_EZI2C.c ****     
 436:Generated_Source\PSoC4/Comm_EZI2C.c **** 
 437:Generated_Source\PSoC4/Comm_EZI2C.c ****     return(address);
 438:Generated_Source\PSoC4/Comm_EZI2C.c **** }
 439:Generated_Source\PSoC4/Comm_EZI2C.c **** 
 440:Generated_Source\PSoC4/Comm_EZI2C.c **** 
 441:Generated_Source\PSoC4/Comm_EZI2C.c **** /*******************************************************************************
 442:Generated_Source\PSoC4/Comm_EZI2C.c **** * Function Name: Comm_EzI2CSetBuffer1
 443:Generated_Source\PSoC4/Comm_EZI2C.c **** ****************************************************************************//**
 444:Generated_Source\PSoC4/Comm_EZI2C.c **** *
 445:Generated_Source\PSoC4/Comm_EZI2C.c **** *  Sets up the data buffer to be exposed to the I2C master on a primary slave
 446:Generated_Source\PSoC4/Comm_EZI2C.c **** *  address request.
 447:Generated_Source\PSoC4/Comm_EZI2C.c **** *
 448:Generated_Source\PSoC4/Comm_EZI2C.c **** * \param bufSize: Size of the buffer in bytes.
 449:Generated_Source\PSoC4/Comm_EZI2C.c **** * \param rwBoundary: Number of data bytes starting from the beginning of the 
 450:Generated_Source\PSoC4/Comm_EZI2C.c **** *  buffer with read and write access. Data bytes located at offset rwBoundary 
 451:Generated_Source\PSoC4/Comm_EZI2C.c **** *  or greater are read only.
 452:Generated_Source\PSoC4/Comm_EZI2C.c **** *  This value must be less than or equal to the buffer size.
 453:Generated_Source\PSoC4/Comm_EZI2C.c **** * \param buffer: Pointer to the data buffer.
 454:Generated_Source\PSoC4/Comm_EZI2C.c **** *
 455:Generated_Source\PSoC4/Comm_EZI2C.c **** * \sideeffect
 456:Generated_Source\PSoC4/Comm_EZI2C.c **** *  Calling this function in the middle of a transaction intended for the 
 457:Generated_Source\PSoC4/Comm_EZI2C.c **** *  primary slave address leads to unexpected behavior.
 458:Generated_Source\PSoC4/Comm_EZI2C.c **** *
 459:Generated_Source\PSoC4/Comm_EZI2C.c **** * \globalvars
 460:Generated_Source\PSoC4/Comm_EZI2C.c **** *  Comm_dataBuffer1 – the pointer to the buffer to be exposed to the
 461:Generated_Source\PSoC4/Comm_EZI2C.c **** *  master on a primary address.
 462:Generated_Source\PSoC4/Comm_EZI2C.c **** *  Comm_bufSizeBuf1 - the size of the buffer to be exposed to the 
 463:Generated_Source\PSoC4/Comm_EZI2C.c **** *  master on a primary address.
 464:Generated_Source\PSoC4/Comm_EZI2C.c **** *  Comm_protectBuf1 - the start index of the read-only region in the
 465:Generated_Source\PSoC4/Comm_EZI2C.c **** *  buffer to be exposed to the master on a primary address. The read-only region
 466:Generated_Source\PSoC4/Comm_EZI2C.c **** *  continues up to the end the buffer.
 467:Generated_Source\PSoC4/Comm_EZI2C.c **** *
 468:Generated_Source\PSoC4/Comm_EZI2C.c **** *******************************************************************************/
 469:Generated_Source\PSoC4/Comm_EZI2C.c **** void Comm_EzI2CSetBuffer1(uint32 bufSize, uint32 rwBoundary, volatile uint8 * buffer)
 470:Generated_Source\PSoC4/Comm_EZI2C.c **** {
 471:Generated_Source\PSoC4/Comm_EZI2C.c ****     if (NULL != buffer)
 472:Generated_Source\PSoC4/Comm_EZI2C.c ****     {
 473:Generated_Source\PSoC4/Comm_EZI2C.c ****         Comm_DisableInt();  /* Lock from interruption */
 474:Generated_Source\PSoC4/Comm_EZI2C.c **** 
 475:Generated_Source\PSoC4/Comm_EZI2C.c ****         Comm_dataBuffer1 =  buffer;
 476:Generated_Source\PSoC4/Comm_EZI2C.c ****         Comm_bufSizeBuf1 = (uint16) bufSize;
 477:Generated_Source\PSoC4/Comm_EZI2C.c ****         Comm_protectBuf1 = (uint16) rwBoundary;
 478:Generated_Source\PSoC4/Comm_EZI2C.c **** 
 479:Generated_Source\PSoC4/Comm_EZI2C.c ****         Comm_EnableInt();   /* Release lock */
 480:Generated_Source\PSoC4/Comm_EZI2C.c ****     }
 481:Generated_Source\PSoC4/Comm_EZI2C.c **** }
 482:Generated_Source\PSoC4/Comm_EZI2C.c **** 
 483:Generated_Source\PSoC4/Comm_EZI2C.c **** 
 484:Generated_Source\PSoC4/Comm_EZI2C.c **** /*******************************************************************************
 485:Generated_Source\PSoC4/Comm_EZI2C.c **** * Function Name: Comm_EzI2CSetReadBoundaryBuffer1
 486:Generated_Source\PSoC4/Comm_EZI2C.c **** ****************************************************************************//**
 487:Generated_Source\PSoC4/Comm_EZI2C.c **** *
 488:Generated_Source\PSoC4/Comm_EZI2C.c **** *  Sets the read only boundary in the data buffer to be exposed to the I2C
 489:Generated_Source\PSoC4/Comm_EZI2C.c **** *  master on a primary slave address request.
ARM GAS  C:\Users\TECHCO~1\AppData\Local\Temp\ccDTBYJl.s 			page 10


 490:Generated_Source\PSoC4/Comm_EZI2C.c **** *
 491:Generated_Source\PSoC4/Comm_EZI2C.c **** * \param rwBoundry: Number of data bytes starting from the beginning of the 
 492:Generated_Source\PSoC4/Comm_EZI2C.c **** *  buffer with read and write access. Data bytes located at offset rwBoundary 
 493:Generated_Source\PSoC4/Comm_EZI2C.c **** *  or greater are read only.
 494:Generated_Source\PSoC4/Comm_EZI2C.c **** *  This value must be less than or equal to the buffer size.
 495:Generated_Source\PSoC4/Comm_EZI2C.c **** *
 496:Generated_Source\PSoC4/Comm_EZI2C.c **** * \sideeffect
 497:Generated_Source\PSoC4/Comm_EZI2C.c **** *  Calling this function in the middle of a transaction intended for the 
 498:Generated_Source\PSoC4/Comm_EZI2C.c **** *  primary slave address leads to unexpected behavior.
 499:Generated_Source\PSoC4/Comm_EZI2C.c **** *
 500:Generated_Source\PSoC4/Comm_EZI2C.c **** * \globalvars
 501:Generated_Source\PSoC4/Comm_EZI2C.c **** *  Comm_protectBuf1 - the start index of the read-only region in the
 502:Generated_Source\PSoC4/Comm_EZI2C.c **** *  buffer to be exposed to the master on a primary address. The read-only region
 503:Generated_Source\PSoC4/Comm_EZI2C.c **** *  continues up to the end the buffer.
 504:Generated_Source\PSoC4/Comm_EZI2C.c **** *
 505:Generated_Source\PSoC4/Comm_EZI2C.c **** *******************************************************************************/
 506:Generated_Source\PSoC4/Comm_EZI2C.c **** void Comm_EzI2CSetReadBoundaryBuffer1(uint32 rwBoundary)
 507:Generated_Source\PSoC4/Comm_EZI2C.c **** {
 508:Generated_Source\PSoC4/Comm_EZI2C.c ****     Comm_protectBuf1 = (uint16) rwBoundary;
 509:Generated_Source\PSoC4/Comm_EZI2C.c **** }
 510:Generated_Source\PSoC4/Comm_EZI2C.c **** 
 511:Generated_Source\PSoC4/Comm_EZI2C.c **** 
 512:Generated_Source\PSoC4/Comm_EZI2C.c **** #if(Comm_SECONDARY_ADDRESS_ENABLE_CONST)
 513:Generated_Source\PSoC4/Comm_EZI2C.c ****     /*******************************************************************************
 514:Generated_Source\PSoC4/Comm_EZI2C.c ****     * Function Name: Comm_EzI2CUpdateRxMatchReg
 515:Generated_Source\PSoC4/Comm_EZI2C.c ****     ****************************************************************************//**
 516:Generated_Source\PSoC4/Comm_EZI2C.c ****     *
 517:Generated_Source\PSoC4/Comm_EZI2C.c ****     *  Returns the value of the RX MATCH register for addr1 and addr2. The addr1 is
 518:Generated_Source\PSoC4/Comm_EZI2C.c ****     *  accepted as the primary address and it is written to RX_MATCH.ADDRESS
 519:Generated_Source\PSoC4/Comm_EZI2C.c ****     *  (addr1 << 0x01).
 520:Generated_Source\PSoC4/Comm_EZI2C.c ****     *  The RX_MATCH.MASK is set as follow: addr1 and addr2 equal bits set to 1
 521:Generated_Source\PSoC4/Comm_EZI2C.c ****     *  otherwise 0.
 522:Generated_Source\PSoC4/Comm_EZI2C.c ****     *
 523:Generated_Source\PSoC4/Comm_EZI2C.c ****     * \param addr1: I2C slave address for the primary device.
 524:Generated_Source\PSoC4/Comm_EZI2C.c ****     * \param addr2: I2C slave address for the secondary device.
 525:Generated_Source\PSoC4/Comm_EZI2C.c ****     *  This address is the 7-bit right-justified slave address and does
 526:Generated_Source\PSoC4/Comm_EZI2C.c ****     *  not include the R/W bit.
 527:Generated_Source\PSoC4/Comm_EZI2C.c ****     *
 528:Generated_Source\PSoC4/Comm_EZI2C.c ****     * \return
 529:Generated_Source\PSoC4/Comm_EZI2C.c ****     *  Value of RX MATCH register.
 530:Generated_Source\PSoC4/Comm_EZI2C.c ****     *
 531:Generated_Source\PSoC4/Comm_EZI2C.c ****     *******************************************************************************/
 532:Generated_Source\PSoC4/Comm_EZI2C.c ****     static uint32 Comm_EzI2CUpdateRxMatchReg(uint32 addr1, uint32 addr2)
 533:Generated_Source\PSoC4/Comm_EZI2C.c ****     {
  25              		.loc 1 533 0
  26              		.cfi_startproc
  27              	.LVL0:
 534:Generated_Source\PSoC4/Comm_EZI2C.c ****         uint32 matchReg;
 535:Generated_Source\PSoC4/Comm_EZI2C.c **** 
 536:Generated_Source\PSoC4/Comm_EZI2C.c ****         matchReg  = ~(addr1 ^ addr2); /* If (addr1 and addr2) bit matches - mask bit equals 1, in o
  28              		.loc 1 536 0
  29 0000 4140     		eor	r1, r0
  30              	.LVL1:
  31 0002 C943     		mvn	r1, r1
  32              	.LVL2:
 537:Generated_Source\PSoC4/Comm_EZI2C.c **** 
 538:Generated_Source\PSoC4/Comm_EZI2C.c ****         matchReg  = (uint32) (Comm_GET_I2C_8BIT_ADDRESS(matchReg) << Comm_RX_MATCH_MASK_POS);
ARM GAS  C:\Users\TECHCO~1\AppData\Local\Temp\ccDTBYJl.s 			page 11


  33              		.loc 1 538 0
  34 0004 FF23     		mov	r3, #255
  35 0006 4900     		lsl	r1, r1, #1
  36              	.LVL3:
  37 0008 1940     		and	r1, r3
 539:Generated_Source\PSoC4/Comm_EZI2C.c ****         matchReg |= Comm_GET_I2C_8BIT_ADDRESS(addr1);
  38              		.loc 1 539 0
  39 000a 4000     		lsl	r0, r0, #1
  40              	.LVL4:
 538:Generated_Source\PSoC4/Comm_EZI2C.c ****         matchReg |= Comm_GET_I2C_8BIT_ADDRESS(addr1);
  41              		.loc 1 538 0
  42 000c 0904     		lsl	r1, r1, #16
  43              	.LVL5:
  44              		.loc 1 539 0
  45 000e 1840     		and	r0, r3
  46 0010 0843     		orr	r0, r1
 540:Generated_Source\PSoC4/Comm_EZI2C.c **** 
 541:Generated_Source\PSoC4/Comm_EZI2C.c ****         return(matchReg);
 542:Generated_Source\PSoC4/Comm_EZI2C.c ****     }
  47              		.loc 1 542 0
  48              		@ sp needed
  49 0012 7047     		bx	lr
  50              		.cfi_endproc
  51              	.LFE7:
  52              		.size	Comm_EzI2CUpdateRxMatchReg, .-Comm_EzI2CUpdateRxMatchReg
  53              		.section	.text.Comm_EzI2CInit,"ax",%progbits
  54              		.align	1
  55              		.global	Comm_EzI2CInit
  56              		.code	16
  57              		.thumb_func
  58              		.type	Comm_EzI2CInit, %function
  59              	Comm_EzI2CInit:
  60              	.LFB0:
  98:Generated_Source\PSoC4/Comm_EZI2C.c ****         if(NULL == config)
  61              		.loc 1 98 0
  62              		.cfi_startproc
  63              	.LVL6:
  64 0000 F7B5     		push	{r0, r1, r2, r4, r5, r6, r7, lr}
  65              		.cfi_def_cfa_offset 32
  66              		.cfi_offset 0, -32
  67              		.cfi_offset 1, -28
  68              		.cfi_offset 2, -24
  69              		.cfi_offset 4, -20
  70              		.cfi_offset 5, -16
  71              		.cfi_offset 6, -12
  72              		.cfi_offset 7, -8
  73              		.cfi_offset 14, -4
  99:Generated_Source\PSoC4/Comm_EZI2C.c ****         {
  74              		.loc 1 99 0
  75 0002 0028     		cmp	r0, #0
  76 0004 00D1     		bne	.LCB46
  77 0006 8FE0     		b	.L2	@long jump
  78              	.LCB46:
 106:Generated_Source\PSoC4/Comm_EZI2C.c ****                                                                       Comm_DUMMY_PARAM);
  79              		.loc 1 106 0
  80 0008 0021     		mov	r1, #0
  81 000a 041C     		mov	r4, r0
ARM GAS  C:\Users\TECHCO~1\AppData\Local\Temp\ccDTBYJl.s 			page 12


  82 000c 0A1C     		mov	r2, r1
  83 000e 0820     		mov	r0, #8
  84              	.LVL7:
  85 0010 FFF7FEFF 		bl	Comm_SetPins
  86              	.LVL8:
 110:Generated_Source\PSoC4/Comm_EZI2C.c ****             Comm_scbEnableWake = (uint8) config->enableWake;
  87              		.loc 1 110 0
  88 0014 0822     		mov	r2, #8
  89 0016 454B     		ldr	r3, .L24
 119:Generated_Source\PSoC4/Comm_EZI2C.c ****         #endif /* (Comm_CY_SCBIP_V0) */
  90              		.loc 1 119 0
  91 0018 0C20     		mov	r0, #12
 110:Generated_Source\PSoC4/Comm_EZI2C.c ****             Comm_scbEnableWake = (uint8) config->enableWake;
  92              		.loc 1 110 0
  93 001a 1A70     		strb	r2, [r3]
 111:Generated_Source\PSoC4/Comm_EZI2C.c ****             Comm_scbEnableIntr = (uint8) Comm_SCB_IRQ_INTERNAL;
  94              		.loc 1 111 0
  95 001c 227E     		ldrb	r2, [r4, #24]
  96 001e 444B     		ldr	r3, .L24+4
 115:Generated_Source\PSoC4/Comm_EZI2C.c **** 
  97              		.loc 1 115 0
  98 0020 4449     		ldr	r1, .L24+8
 111:Generated_Source\PSoC4/Comm_EZI2C.c ****             Comm_scbEnableIntr = (uint8) Comm_SCB_IRQ_INTERNAL;
  99              		.loc 1 111 0
 100 0022 1A70     		strb	r2, [r3]
 112:Generated_Source\PSoC4/Comm_EZI2C.c **** 
 101              		.loc 1 112 0
 102 0024 0122     		mov	r2, #1
 103 0026 444B     		ldr	r3, .L24+12
 104 0028 1A70     		strb	r2, [r3]
 114:Generated_Source\PSoC4/Comm_EZI2C.c ****             Comm_subAddrSize   = (uint8) config->subAddrSize;
 105              		.loc 1 114 0
 106 002a 227A     		ldrb	r2, [r4, #8]
 107 002c 434B     		ldr	r3, .L24+16
 108 002e 1A70     		strb	r2, [r3]
 115:Generated_Source\PSoC4/Comm_EZI2C.c **** 
 109              		.loc 1 115 0
 110 0030 237D     		ldrb	r3, [r4, #20]
 111 0032 0B70     		strb	r3, [r1]
 119:Generated_Source\PSoC4/Comm_EZI2C.c ****         #endif /* (Comm_CY_SCBIP_V0) */
 112              		.loc 1 119 0
 113 0034 424B     		ldr	r3, .L24+20
 114 0036 1A68     		ldr	r2, [r3]
 115 0038 0243     		orr	r2, r0
 116 003a 1A60     		str	r2, [r3]
 123:Generated_Source\PSoC4/Comm_EZI2C.c **** 
 117              		.loc 1 123 0
 118 003c 1A68     		ldr	r2, [r3]
 119 003e 4148     		ldr	r0, .L24+24
 120 0040 0243     		orr	r2, r0
 121 0042 1A60     		str	r2, [r3]
 127:Generated_Source\PSoC4/Comm_EZI2C.c ****                                             Comm_GET_CTRL_EC_AM_MODE (config->enableWake);
 122              		.loc 1 127 0
 123 0044 A368     		ldr	r3, [r4, #8]
 124 0046 0191     		str	r1, [sp, #4]
 126:Generated_Source\PSoC4/Comm_EZI2C.c ****                                             Comm_GET_CTRL_ADDR_ACCEPT(config->numberOfAddresses) |
 125              		.loc 1 126 0
ARM GAS  C:\Users\TECHCO~1\AppData\Local\Temp\ccDTBYJl.s 			page 13


 126 0048 002B     		cmp	r3, #0
 127 004a 01D0     		beq	.L4
 128 004c 8023     		mov	r3, #128
 129 004e 5B02     		lsl	r3, r3, #9
 130              	.L4:
 128:Generated_Source\PSoC4/Comm_EZI2C.c **** 
 131              		.loc 1 128 0
 132 0050 A269     		ldr	r2, [r4, #24]
 133 0052 002A     		cmp	r2, #0
 134 0054 01D0     		beq	.L5
 135 0056 8022     		mov	r2, #128
 136 0058 5200     		lsl	r2, r2, #1
 137              	.L5:
 127:Generated_Source\PSoC4/Comm_EZI2C.c ****                                             Comm_GET_CTRL_EC_AM_MODE (config->enableWake);
 138              		.loc 1 127 0
 139 005a 1343     		orr	r3, r2
 126:Generated_Source\PSoC4/Comm_EZI2C.c ****                                             Comm_GET_CTRL_ADDR_ACCEPT(config->numberOfAddresses) |
 140              		.loc 1 126 0
 141 005c 3A4A     		ldr	r2, .L24+28
 130:Generated_Source\PSoC4/Comm_EZI2C.c **** 
 142              		.loc 1 130 0
 143 005e 3B4D     		ldr	r5, .L24+32
 126:Generated_Source\PSoC4/Comm_EZI2C.c ****                                             Comm_GET_CTRL_ADDR_ACCEPT(config->numberOfAddresses) |
 144              		.loc 1 126 0
 145 0060 1360     		str	r3, [r2]
 136:Generated_Source\PSoC4/Comm_EZI2C.c **** 
 146              		.loc 1 136 0
 147 0062 0022     		mov	r2, #0
 130:Generated_Source\PSoC4/Comm_EZI2C.c **** 
 148              		.loc 1 130 0
 149 0064 3A4B     		ldr	r3, .L24+36
 133:Generated_Source\PSoC4/Comm_EZI2C.c ****                                         Comm_GET_RX_CTRL_MEDIAN(Comm_DIGITAL_FILTER_DISABLE);
 150              		.loc 1 133 0
 151 0066 3B4E     		ldr	r6, .L24+40
 130:Generated_Source\PSoC4/Comm_EZI2C.c **** 
 152              		.loc 1 130 0
 153 0068 2B60     		str	r3, [r5]
 133:Generated_Source\PSoC4/Comm_EZI2C.c ****                                         Comm_GET_RX_CTRL_MEDIAN(Comm_DIGITAL_FILTER_DISABLE);
 154              		.loc 1 133 0
 155 006a 3B4B     		ldr	r3, .L24+44
 156 006c 3B4F     		ldr	r7, .L24+48
 157 006e 1E60     		str	r6, [r3]
 136:Generated_Source\PSoC4/Comm_EZI2C.c **** 
 158              		.loc 1 136 0
 159 0070 3B4B     		ldr	r3, .L24+52
 160 0072 1A60     		str	r2, [r3]
 141:Generated_Source\PSoC4/Comm_EZI2C.c ****                                                                                        config->prim
 161              		.loc 1 141 0
 162 0074 E068     		ldr	r0, [r4, #12]
 139:Generated_Source\PSoC4/Comm_EZI2C.c ****             {
 163              		.loc 1 139 0
 164 0076 A368     		ldr	r3, [r4, #8]
 141:Generated_Source\PSoC4/Comm_EZI2C.c ****                                                                                        config->prim
 165              		.loc 1 141 0
 166 0078 011C     		mov	r1, r0
 139:Generated_Source\PSoC4/Comm_EZI2C.c ****             {
 167              		.loc 1 139 0
ARM GAS  C:\Users\TECHCO~1\AppData\Local\Temp\ccDTBYJl.s 			page 14


 168 007a 9342     		cmp	r3, r2
 169 007c 00D0     		beq	.L21
 146:Generated_Source\PSoC4/Comm_EZI2C.c ****                                                                                        config->seco
 170              		.loc 1 146 0
 171 007e 2169     		ldr	r1, [r4, #16]
 172              	.L21:
 173 0080 FFF7FEFF 		bl	Comm_EzI2CUpdateRxMatchReg
 174              	.LVL9:
 151:Generated_Source\PSoC4/Comm_EZI2C.c ****             Comm_TX_FIFO_CTRL_REG = ((0u != (config->enableClockStretch)) ?
 175              		.loc 1 151 0
 176 0084 374B     		ldr	r3, .L24+56
 146:Generated_Source\PSoC4/Comm_EZI2C.c ****                                                                                        config->seco
 177              		.loc 1 146 0
 178 0086 3860     		str	r0, [r7]
 151:Generated_Source\PSoC4/Comm_EZI2C.c ****             Comm_TX_FIFO_CTRL_REG = ((0u != (config->enableClockStretch)) ?
 179              		.loc 1 151 0
 180 0088 1E60     		str	r6, [r3]
 153:Generated_Source\PSoC4/Comm_EZI2C.c **** 
 181              		.loc 1 153 0
 182 008a 2368     		ldr	r3, [r4]
 162:Generated_Source\PSoC4/Comm_EZI2C.c ****             Comm_INTR_TX_MASK_REG     = Comm_NO_INTR_SOURCES;
 183              		.loc 1 162 0
 184 008c 364E     		ldr	r6, .L24+60
 153:Generated_Source\PSoC4/Comm_EZI2C.c **** 
 185              		.loc 1 153 0
 186 008e 5A42     		neg	r2, r3
 187 0090 5341     		adc	r3, r3, r2
 152:Generated_Source\PSoC4/Comm_EZI2C.c ****                                                  Comm_CLEAR_REG : Comm_EZI2C_TX_FIFO_CTRL);
 188              		.loc 1 152 0
 189 0092 364A     		ldr	r2, .L24+64
 153:Generated_Source\PSoC4/Comm_EZI2C.c **** 
 190              		.loc 1 153 0
 191 0094 5B00     		lsl	r3, r3, #1
 152:Generated_Source\PSoC4/Comm_EZI2C.c ****                                                  Comm_CLEAR_REG : Comm_EZI2C_TX_FIFO_CTRL);
 192              		.loc 1 152 0
 193 0096 1360     		str	r3, [r2]
 157:Generated_Source\PSoC4/Comm_EZI2C.c ****         #endif /* (!Comm_CY_SCBIP_V1) */
 194              		.loc 1 157 0
 195 0098 0023     		mov	r3, #0
 196 009a 354A     		ldr	r2, .L24+68
 166:Generated_Source\PSoC4/Comm_EZI2C.c ****             CyIntSetPriority(Comm_ISR_NUMBER, Comm_ISR_PRIORITY);
 197              		.loc 1 166 0
 198 009c 0A20     		mov	r0, #10
 157:Generated_Source\PSoC4/Comm_EZI2C.c ****         #endif /* (!Comm_CY_SCBIP_V1) */
 199              		.loc 1 157 0
 200 009e 1360     		str	r3, [r2]
 160:Generated_Source\PSoC4/Comm_EZI2C.c ****             Comm_INTR_MASTER_MASK_REG = Comm_NO_INTR_SOURCES;
 201              		.loc 1 160 0
 202 00a0 344A     		ldr	r2, .L24+72
 203 00a2 1360     		str	r3, [r2]
 161:Generated_Source\PSoC4/Comm_EZI2C.c ****             Comm_INTR_SLAVE_MASK_REG  = Comm_EZI2C_INTR_SLAVE_MASK;
 204              		.loc 1 161 0
 205 00a4 344A     		ldr	r2, .L24+76
 206 00a6 1360     		str	r3, [r2]
 162:Generated_Source\PSoC4/Comm_EZI2C.c ****             Comm_INTR_TX_MASK_REG     = Comm_NO_INTR_SOURCES;
 207              		.loc 1 162 0
 208 00a8 1222     		mov	r2, #18
ARM GAS  C:\Users\TECHCO~1\AppData\Local\Temp\ccDTBYJl.s 			page 15


 209 00aa FF32     		add	r2, r2, #255
 210 00ac 3260     		str	r2, [r6]
 163:Generated_Source\PSoC4/Comm_EZI2C.c **** 
 211              		.loc 1 163 0
 212 00ae 334A     		ldr	r2, .L24+80
 213 00b0 1360     		str	r3, [r2]
 166:Generated_Source\PSoC4/Comm_EZI2C.c ****             CyIntSetPriority(Comm_ISR_NUMBER, Comm_ISR_PRIORITY);
 214              		.loc 1 166 0
 215 00b2 FFF7FEFF 		bl	CyIntDisable
 216              	.LVL10:
 167:Generated_Source\PSoC4/Comm_EZI2C.c ****             (void) CyIntSetVector(Comm_ISR_NUMBER, (0u != (config->enableClockStretch)) ?
 217              		.loc 1 167 0
 218 00b6 0321     		mov	r1, #3
 219 00b8 0A20     		mov	r0, #10
 220 00ba FFF7FEFF 		bl	CyIntSetPriority
 221              	.LVL11:
 168:Generated_Source\PSoC4/Comm_EZI2C.c ****                                                                       (&Comm_EZI2C_STRETCH_ISR) :
 222              		.loc 1 168 0
 223 00be 2368     		ldr	r3, [r4]
 224 00c0 2F49     		ldr	r1, .L24+84
 225 00c2 002B     		cmp	r3, #0
 226 00c4 00D1     		bne	.L9
 227 00c6 2F49     		ldr	r1, .L24+88
 228              	.L9:
 168:Generated_Source\PSoC4/Comm_EZI2C.c ****                                                                       (&Comm_EZI2C_STRETCH_ISR) :
 229              		.loc 1 168 0 is_stmt 0 discriminator 4
 230 00c8 0A20     		mov	r0, #10
 231 00ca FFF7FEFF 		bl	CyIntSetVector
 232              	.LVL12:
 172:Generated_Source\PSoC4/Comm_EZI2C.c ****             {
 233              		.loc 1 172 0 is_stmt 1 discriminator 4
 234 00ce 2368     		ldr	r3, [r4]
 235 00d0 2D4A     		ldr	r2, .L24+92
 236 00d2 002B     		cmp	r3, #0
 237 00d4 05D0     		beq	.L10
 175:Generated_Source\PSoC4/Comm_EZI2C.c ****                 Comm_INTR_RX_MASK_REG     = Comm_NO_INTR_SOURCES;
 238              		.loc 1 175 0
 239 00d6 4021     		mov	r1, #64
 240 00d8 3368     		ldr	r3, [r6]
 241 00da 0B43     		orr	r3, r1
 242 00dc 3360     		str	r3, [r6]
 176:Generated_Source\PSoC4/Comm_EZI2C.c ****             }
 243              		.loc 1 176 0
 244 00de 0023     		mov	r3, #0
 245 00e0 09E0     		b	.L22
 246              	.L10:
 181:Generated_Source\PSoC4/Comm_EZI2C.c **** 
 247              		.loc 1 181 0
 248 00e2 F021     		mov	r1, #240
 249 00e4 2B68     		ldr	r3, [r5]
 250 00e6 0902     		lsl	r1, r1, #8
 251 00e8 0B43     		orr	r3, r1
 184:Generated_Source\PSoC4/Comm_EZI2C.c ****                 Comm_INTR_RX_MASK_REG     = Comm_INTR_RX_NOT_EMPTY;
 252              		.loc 1 184 0
 253 00ea 2021     		mov	r1, #32
 181:Generated_Source\PSoC4/Comm_EZI2C.c **** 
 254              		.loc 1 181 0
ARM GAS  C:\Users\TECHCO~1\AppData\Local\Temp\ccDTBYJl.s 			page 16


 255 00ec 2B60     		str	r3, [r5]
 184:Generated_Source\PSoC4/Comm_EZI2C.c ****                 Comm_INTR_RX_MASK_REG     = Comm_INTR_RX_NOT_EMPTY;
 256              		.loc 1 184 0
 257 00ee 3368     		ldr	r3, [r6]
 258 00f0 0B43     		orr	r3, r1
 259 00f2 3360     		str	r3, [r6]
 185:Generated_Source\PSoC4/Comm_EZI2C.c ****             }
 260              		.loc 1 185 0
 261 00f4 0423     		mov	r3, #4
 262              	.L22:
 263 00f6 1360     		str	r3, [r2]
 189:Generated_Source\PSoC4/Comm_EZI2C.c **** 
 264              		.loc 1 189 0
 265 00f8 019B     		ldr	r3, [sp, #4]
 266 00fa 1B78     		ldrb	r3, [r3]
 267 00fc 002B     		cmp	r3, #0
 268 00fe 00D0     		beq	.L12
 269 0100 0223     		mov	r3, #2
 270              	.L12:
 189:Generated_Source\PSoC4/Comm_EZI2C.c **** 
 271              		.loc 1 189 0 is_stmt 0 discriminator 4
 272 0102 224A     		ldr	r2, .L24+96
 273 0104 1370     		strb	r3, [r2]
 191:Generated_Source\PSoC4/Comm_EZI2C.c ****             Comm_indexBuf1  = 0u;
 274              		.loc 1 191 0 is_stmt 1 discriminator 4
 275 0106 0023     		mov	r3, #0
 276 0108 214A     		ldr	r2, .L24+100
 277 010a 1370     		strb	r3, [r2]
 192:Generated_Source\PSoC4/Comm_EZI2C.c ****             Comm_offsetBuf1 = 0u;
 278              		.loc 1 192 0 discriminator 4
 279 010c 214A     		ldr	r2, .L24+104
 280 010e 1380     		strh	r3, [r2]
 193:Generated_Source\PSoC4/Comm_EZI2C.c ****             Comm_indexBuf2  = 0u;
 281              		.loc 1 193 0 discriminator 4
 282 0110 214A     		ldr	r2, .L24+108
 283 0112 1380     		strh	r3, [r2]
 194:Generated_Source\PSoC4/Comm_EZI2C.c ****             Comm_offsetBuf2 = 0u;
 284              		.loc 1 194 0 discriminator 4
 285 0114 214A     		ldr	r2, .L24+112
 286 0116 1380     		strh	r3, [r2]
 195:Generated_Source\PSoC4/Comm_EZI2C.c **** 
 287              		.loc 1 195 0 discriminator 4
 288 0118 214A     		ldr	r2, .L24+116
 289 011a 1380     		strh	r3, [r2]
 197:Generated_Source\PSoC4/Comm_EZI2C.c ****             Comm_addrBuf2 = (uint8) config->secondarySlaveAddr;
 290              		.loc 1 197 0 discriminator 4
 291 011c 214B     		ldr	r3, .L24+120
 292 011e 227B     		ldrb	r2, [r4, #12]
 293 0120 1A70     		strb	r2, [r3]
 198:Generated_Source\PSoC4/Comm_EZI2C.c ****         }
 294              		.loc 1 198 0 discriminator 4
 295 0122 2269     		ldr	r2, [r4, #16]
 296 0124 204B     		ldr	r3, .L24+124
 297 0126 1A70     		strb	r2, [r3]
 298              	.LVL13:
 299              	.L2:
 200:Generated_Source\PSoC4/Comm_EZI2C.c **** 
ARM GAS  C:\Users\TECHCO~1\AppData\Local\Temp\ccDTBYJl.s 			page 17


 300              		.loc 1 200 0
 301              		@ sp needed
 302 0128 F7BD     		pop	{r0, r1, r2, r4, r5, r6, r7, pc}
 303              	.L25:
 304 012a C046     		.align	2
 305              	.L24:
 306 012c 00000000 		.word	Comm_scbMode
 307 0130 00000000 		.word	Comm_scbEnableWake
 308 0134 00000000 		.word	Comm_subAddrSize
 309 0138 00000000 		.word	Comm_scbEnableIntr
 310 013c 00000000 		.word	Comm_numberOfAddr
 311 0140 70000640 		.word	1074135152
 312 0144 00000202 		.word	33685504
 313 0148 00000640 		.word	1074135040
 314 014c 60000640 		.word	1074135136
 315 0150 00080040 		.word	1073743872
 316 0154 07010080 		.word	-2147483385
 317 0158 00030640 		.word	1074135808
 318 015c 10030640 		.word	1074135824
 319 0160 04030640 		.word	1074135812
 320 0164 00020640 		.word	1074135552
 321 0168 480F0640 		.word	1074138952
 322 016c 04020640 		.word	1074135556
 323 0170 C80E0640 		.word	1074138824
 324 0174 880E0640 		.word	1074138760
 325 0178 080F0640 		.word	1074138888
 326 017c 880F0640 		.word	1074139016
 327 0180 00000000 		.word	Comm_EZI2C_STRETCH_ISR
 328 0184 00000000 		.word	Comm_EZI2C_NO_STRETCH_ISR
 329 0188 C80F0640 		.word	1074139080
 330 018c 00000000 		.word	Comm_fsmState
 331 0190 00000000 		.word	Comm_curStatus
 332 0194 00000000 		.word	Comm_indexBuf1
 333 0198 00000000 		.word	Comm_offsetBuf1
 334 019c 00000000 		.word	Comm_indexBuf2
 335 01a0 00000000 		.word	Comm_offsetBuf2
 336 01a4 00000000 		.word	Comm_addrBuf1
 337 01a8 00000000 		.word	Comm_addrBuf2
 338              		.cfi_endproc
 339              	.LFE0:
 340              		.size	Comm_EzI2CInit, .-Comm_EzI2CInit
 341              		.section	.text.Comm_EzI2CStop,"ax",%progbits
 342              		.align	1
 343              		.global	Comm_EzI2CStop
 344              		.code	16
 345              		.thumb_func
 346              		.type	Comm_EzI2CStop, %function
 347              	Comm_EzI2CStop:
 348              	.LFB1:
 283:Generated_Source\PSoC4/Comm_EZI2C.c ****     Comm_fsmState = Comm_EZI2C_FSM_IDLE;
 349              		.loc 1 283 0
 350              		.cfi_startproc
 284:Generated_Source\PSoC4/Comm_EZI2C.c **** }
 351              		.loc 1 284 0
 352 0000 034B     		ldr	r3, .L29
 353 0002 1B78     		ldrb	r3, [r3]
 354 0004 002B     		cmp	r3, #0
ARM GAS  C:\Users\TECHCO~1\AppData\Local\Temp\ccDTBYJl.s 			page 18


 355 0006 00D0     		beq	.L27
 356 0008 0223     		mov	r3, #2
 357              	.L27:
 284:Generated_Source\PSoC4/Comm_EZI2C.c **** }
 358              		.loc 1 284 0 is_stmt 0 discriminator 4
 359 000a 024A     		ldr	r2, .L29+4
 285:Generated_Source\PSoC4/Comm_EZI2C.c **** 
 360              		.loc 1 285 0 is_stmt 1 discriminator 4
 361              		@ sp needed
 284:Generated_Source\PSoC4/Comm_EZI2C.c **** }
 362              		.loc 1 284 0 discriminator 4
 363 000c 1370     		strb	r3, [r2]
 285:Generated_Source\PSoC4/Comm_EZI2C.c **** 
 364              		.loc 1 285 0 discriminator 4
 365 000e 7047     		bx	lr
 366              	.L30:
 367              		.align	2
 368              	.L29:
 369 0010 00000000 		.word	Comm_subAddrSize
 370 0014 00000000 		.word	Comm_fsmState
 371              		.cfi_endproc
 372              	.LFE1:
 373              		.size	Comm_EzI2CStop, .-Comm_EzI2CStop
 374              		.section	.text.Comm_EzI2CGetActivity,"ax",%progbits
 375              		.align	1
 376              		.global	Comm_EzI2CGetActivity
 377              		.code	16
 378              		.thumb_func
 379              		.type	Comm_EzI2CGetActivity, %function
 380              	Comm_EzI2CGetActivity:
 381              	.LFB2:
 330:Generated_Source\PSoC4/Comm_EZI2C.c ****     uint32 status;
 382              		.loc 1 330 0
 383              		.cfi_startproc
 384 0000 10B5     		push	{r4, lr}
 385              		.cfi_def_cfa_offset 8
 386              		.cfi_offset 4, -8
 387              		.cfi_offset 14, -4
 333:Generated_Source\PSoC4/Comm_EZI2C.c **** 
 388              		.loc 1 333 0
 389 0002 0A20     		mov	r0, #10
 390 0004 FFF7FEFF 		bl	CyIntDisable
 391              	.LVL14:
 338:Generated_Source\PSoC4/Comm_EZI2C.c ****     {
 392              		.loc 1 338 0
 393 0008 0F4B     		ldr	r3, .L41
 335:Generated_Source\PSoC4/Comm_EZI2C.c **** 
 394              		.loc 1 335 0
 395 000a 104A     		ldr	r2, .L41+4
 396 000c 1478     		ldrb	r4, [r2]
 338:Generated_Source\PSoC4/Comm_EZI2C.c ****     {
 397              		.loc 1 338 0
 398 000e 1968     		ldr	r1, [r3]
 399 0010 4023     		mov	r3, #64
 335:Generated_Source\PSoC4/Comm_EZI2C.c **** 
 400              		.loc 1 335 0
 401 0012 E4B2     		uxtb	r4, r4
ARM GAS  C:\Users\TECHCO~1\AppData\Local\Temp\ccDTBYJl.s 			page 19


 402              	.LVL15:
 338:Generated_Source\PSoC4/Comm_EZI2C.c ****     {
 403              		.loc 1 338 0
 404 0014 1942     		tst	r1, r3
 405 0016 0DD1     		bne	.L32
 341:Generated_Source\PSoC4/Comm_EZI2C.c ****         {
 406              		.loc 1 341 0
 407 0018 0D49     		ldr	r1, .L41+8
 408 001a 0968     		ldr	r1, [r1]
 409 001c C905     		lsl	r1, r1, #23
 410 001e 03D5     		bpl	.L33
 343:Generated_Source\PSoC4/Comm_EZI2C.c ****                         Comm_EZI2C_STATUS_BUSY : 0u;
 411              		.loc 1 343 0
 412 0020 0C4B     		ldr	r3, .L41+12
 413 0022 1968     		ldr	r1, [r3]
 414 0024 0123     		mov	r3, #1
 415 0026 01E0     		b	.L40
 416              	.L33:
 348:Generated_Source\PSoC4/Comm_EZI2C.c ****                         Comm_EZI2C_STATUS_BUSY : 0u;
 417              		.loc 1 348 0
 418 0028 0B49     		ldr	r1, .L41+16
 419 002a 0968     		ldr	r1, [r1]
 420              	.L40:
 421 002c 0B40     		and	r3, r1
 349:Generated_Source\PSoC4/Comm_EZI2C.c ****         }
 422              		.loc 1 349 0
 423 002e 00D0     		beq	.L35
 424 0030 2023     		mov	r3, #32
 425              	.L35:
 348:Generated_Source\PSoC4/Comm_EZI2C.c ****                         Comm_EZI2C_STATUS_BUSY : 0u;
 426              		.loc 1 348 0 discriminator 4
 427 0032 1C43     		orr	r4, r3
 428              	.LVL16:
 429              	.L32:
 355:Generated_Source\PSoC4/Comm_EZI2C.c **** 
 430              		.loc 1 355 0
 431 0034 1F21     		mov	r1, #31
 432 0036 1378     		ldrb	r3, [r2]
 357:Generated_Source\PSoC4/Comm_EZI2C.c **** 
 433              		.loc 1 357 0
 434 0038 0A20     		mov	r0, #10
 355:Generated_Source\PSoC4/Comm_EZI2C.c **** 
 435              		.loc 1 355 0
 436 003a 8B43     		bic	r3, r1
 437 003c 1370     		strb	r3, [r2]
 360:Generated_Source\PSoC4/Comm_EZI2C.c **** 
 438              		.loc 1 360 0
 439              		@ sp needed
 357:Generated_Source\PSoC4/Comm_EZI2C.c **** 
 440              		.loc 1 357 0
 441 003e FFF7FEFF 		bl	CyIntEnable
 442              	.LVL17:
 360:Generated_Source\PSoC4/Comm_EZI2C.c **** 
 443              		.loc 1 360 0
 444 0042 201C     		mov	r0, r4
 445              	.LVL18:
 446 0044 10BD     		pop	{r4, pc}
ARM GAS  C:\Users\TECHCO~1\AppData\Local\Temp\ccDTBYJl.s 			page 20


 447              	.L42:
 448 0046 C046     		.align	2
 449              	.L41:
 450 0048 480F0640 		.word	1074138952
 451 004c 00000000 		.word	Comm_curStatus
 452 0050 00000640 		.word	1074135040
 453 0054 800E0640 		.word	1074138752
 454 0058 400F0640 		.word	1074138944
 455              		.cfi_endproc
 456              	.LFE2:
 457              		.size	Comm_EzI2CGetActivity, .-Comm_EzI2CGetActivity
 458              		.section	.text.Comm_EzI2CSetAddress1,"ax",%progbits
 459              		.align	1
 460              		.global	Comm_EzI2CSetAddress1
 461              		.code	16
 462              		.thumb_func
 463              		.type	Comm_EzI2CSetAddress1, %function
 464              	Comm_EzI2CSetAddress1:
 465              	.LFB3:
 382:Generated_Source\PSoC4/Comm_EZI2C.c ****     if(Comm_SECONDARY_ADDRESS_ENABLE)
 466              		.loc 1 382 0
 467              		.cfi_startproc
 468              	.LVL19:
 469 0000 10B5     		push	{r4, lr}
 470              		.cfi_def_cfa_offset 8
 471              		.cfi_offset 4, -8
 472              		.cfi_offset 14, -4
 383:Generated_Source\PSoC4/Comm_EZI2C.c ****     {
 473              		.loc 1 383 0
 474 0002 0A4B     		ldr	r3, .L47
 475 0004 0A4C     		ldr	r4, .L47+4
 476 0006 1B78     		ldrb	r3, [r3]
 477 0008 002B     		cmp	r3, #0
 478 000a 06D0     		beq	.L44
 385:Generated_Source\PSoC4/Comm_EZI2C.c **** 
 479              		.loc 1 385 0
 480 000c 094B     		ldr	r3, .L47+8
 481 000e 1870     		strb	r0, [r3]
 388:Generated_Source\PSoC4/Comm_EZI2C.c ****     }
 482              		.loc 1 388 0
 483 0010 094B     		ldr	r3, .L47+12
 484 0012 1978     		ldrb	r1, [r3]
 485 0014 FFF7FEFF 		bl	Comm_EzI2CUpdateRxMatchReg
 486              	.LVL20:
 487 0018 05E0     		b	.L46
 488              	.LVL21:
 489              	.L44:
 490              	.LBB2:
 397:Generated_Source\PSoC4/Comm_EZI2C.c ****         matchReg |= (uint32)  Comm_GET_I2C_8BIT_ADDRESS(address);
 491              		.loc 1 397 0
 492 001a FF22     		mov	r2, #255
 394:Generated_Source\PSoC4/Comm_EZI2C.c **** 
 493              		.loc 1 394 0
 494 001c 2368     		ldr	r3, [r4]
 495              	.LVL22:
 398:Generated_Source\PSoC4/Comm_EZI2C.c **** 
 496              		.loc 1 398 0
ARM GAS  C:\Users\TECHCO~1\AppData\Local\Temp\ccDTBYJl.s 			page 21


 497 001e 4000     		lsl	r0, r0, #1
 498              	.LVL23:
 397:Generated_Source\PSoC4/Comm_EZI2C.c ****         matchReg |= (uint32)  Comm_GET_I2C_8BIT_ADDRESS(address);
 499              		.loc 1 397 0
 500 0020 9343     		bic	r3, r2
 501              	.LVL24:
 398:Generated_Source\PSoC4/Comm_EZI2C.c **** 
 502              		.loc 1 398 0
 503 0022 1040     		and	r0, r2
 504 0024 1843     		orr	r0, r3
 505              	.LVL25:
 506              	.L46:
 400:Generated_Source\PSoC4/Comm_EZI2C.c ****     }
 507              		.loc 1 400 0
 508 0026 2060     		str	r0, [r4]
 509              	.LBE2:
 403:Generated_Source\PSoC4/Comm_EZI2C.c **** 
 510              		.loc 1 403 0
 511              		@ sp needed
 512 0028 10BD     		pop	{r4, pc}
 513              	.L48:
 514 002a C046     		.align	2
 515              	.L47:
 516 002c 00000000 		.word	Comm_numberOfAddr
 517 0030 10030640 		.word	1074135824
 518 0034 00000000 		.word	Comm_addrBuf1
 519 0038 00000000 		.word	Comm_addrBuf2
 520              		.cfi_endproc
 521              	.LFE3:
 522              		.size	Comm_EzI2CSetAddress1, .-Comm_EzI2CSetAddress1
 523              		.section	.text.Comm_EzI2CGetAddress1,"ax",%progbits
 524              		.align	1
 525              		.global	Comm_EzI2CGetAddress1
 526              		.code	16
 527              		.thumb_func
 528              		.type	Comm_EzI2CGetAddress1, %function
 529              	Comm_EzI2CGetAddress1:
 530              	.LFB4:
 423:Generated_Source\PSoC4/Comm_EZI2C.c ****     uint32 address;
 531              		.loc 1 423 0
 532              		.cfi_startproc
 426:Generated_Source\PSoC4/Comm_EZI2C.c ****     {
 533              		.loc 1 426 0
 534 0000 054B     		ldr	r3, .L52
 535 0002 1B78     		ldrb	r3, [r3]
 536 0004 002B     		cmp	r3, #0
 537 0006 02D0     		beq	.L50
 428:Generated_Source\PSoC4/Comm_EZI2C.c ****     }
 538              		.loc 1 428 0
 539 0008 044B     		ldr	r3, .L52+4
 540 000a 1878     		ldrb	r0, [r3]
 541              	.LVL26:
 542 000c 03E0     		b	.L51
 543              	.LVL27:
 544              	.L50:
 432:Generated_Source\PSoC4/Comm_EZI2C.c ****                    Comm_I2C_SLAVE_ADDR_POS);
 545              		.loc 1 432 0
ARM GAS  C:\Users\TECHCO~1\AppData\Local\Temp\ccDTBYJl.s 			page 22


 546 000e 044B     		ldr	r3, .L52+8
 547 0010 1868     		ldr	r0, [r3]
 548 0012 C0B2     		uxtb	r0, r0
 549 0014 4008     		lsr	r0, r0, #1
 550              	.LVL28:
 551              	.L51:
 438:Generated_Source\PSoC4/Comm_EZI2C.c **** 
 552              		.loc 1 438 0
 553              		@ sp needed
 554 0016 7047     		bx	lr
 555              	.L53:
 556              		.align	2
 557              	.L52:
 558 0018 00000000 		.word	Comm_numberOfAddr
 559 001c 00000000 		.word	Comm_addrBuf1
 560 0020 10030640 		.word	1074135824
 561              		.cfi_endproc
 562              	.LFE4:
 563              		.size	Comm_EzI2CGetAddress1, .-Comm_EzI2CGetAddress1
 564              		.section	.text.Comm_EzI2CSetBuffer1,"ax",%progbits
 565              		.align	1
 566              		.global	Comm_EzI2CSetBuffer1
 567              		.code	16
 568              		.thumb_func
 569              		.type	Comm_EzI2CSetBuffer1, %function
 570              	Comm_EzI2CSetBuffer1:
 571              	.LFB5:
 470:Generated_Source\PSoC4/Comm_EZI2C.c ****     if (NULL != buffer)
 572              		.loc 1 470 0
 573              		.cfi_startproc
 574              	.LVL29:
 575 0000 70B5     		push	{r4, r5, r6, lr}
 576              		.cfi_def_cfa_offset 16
 577              		.cfi_offset 4, -16
 578              		.cfi_offset 5, -12
 579              		.cfi_offset 6, -8
 580              		.cfi_offset 14, -4
 470:Generated_Source\PSoC4/Comm_EZI2C.c ****     if (NULL != buffer)
 581              		.loc 1 470 0
 582 0002 061C     		mov	r6, r0
 583 0004 0D1C     		mov	r5, r1
 584 0006 141E     		sub	r4, r2, #0
 471:Generated_Source\PSoC4/Comm_EZI2C.c ****     {
 585              		.loc 1 471 0
 586 0008 0BD0     		beq	.L54
 473:Generated_Source\PSoC4/Comm_EZI2C.c **** 
 587              		.loc 1 473 0
 588 000a 0A20     		mov	r0, #10
 589              	.LVL30:
 590 000c FFF7FEFF 		bl	CyIntDisable
 591              	.LVL31:
 475:Generated_Source\PSoC4/Comm_EZI2C.c ****         Comm_bufSizeBuf1 = (uint16) bufSize;
 592              		.loc 1 475 0
 593 0010 044B     		ldr	r3, .L59
 479:Generated_Source\PSoC4/Comm_EZI2C.c ****     }
 594              		.loc 1 479 0
 595 0012 0A20     		mov	r0, #10
ARM GAS  C:\Users\TECHCO~1\AppData\Local\Temp\ccDTBYJl.s 			page 23


 475:Generated_Source\PSoC4/Comm_EZI2C.c ****         Comm_bufSizeBuf1 = (uint16) bufSize;
 596              		.loc 1 475 0
 597 0014 1C60     		str	r4, [r3]
 476:Generated_Source\PSoC4/Comm_EZI2C.c ****         Comm_protectBuf1 = (uint16) rwBoundary;
 598              		.loc 1 476 0
 599 0016 044B     		ldr	r3, .L59+4
 600 0018 1E80     		strh	r6, [r3]
 477:Generated_Source\PSoC4/Comm_EZI2C.c **** 
 601              		.loc 1 477 0
 602 001a 044B     		ldr	r3, .L59+8
 603 001c 1D80     		strh	r5, [r3]
 479:Generated_Source\PSoC4/Comm_EZI2C.c ****     }
 604              		.loc 1 479 0
 605 001e FFF7FEFF 		bl	CyIntEnable
 606              	.LVL32:
 607              	.L54:
 481:Generated_Source\PSoC4/Comm_EZI2C.c **** 
 608              		.loc 1 481 0
 609              		@ sp needed
 610              	.LVL33:
 611              	.LVL34:
 612              	.LVL35:
 613 0022 70BD     		pop	{r4, r5, r6, pc}
 614              	.L60:
 615              		.align	2
 616              	.L59:
 617 0024 00000000 		.word	Comm_dataBuffer1
 618 0028 00000000 		.word	Comm_bufSizeBuf1
 619 002c 00000000 		.word	Comm_protectBuf1
 620              		.cfi_endproc
 621              	.LFE5:
 622              		.size	Comm_EzI2CSetBuffer1, .-Comm_EzI2CSetBuffer1
 623              		.section	.text.Comm_EzI2CSetReadBoundaryBuffer1,"ax",%progbits
 624              		.align	1
 625              		.global	Comm_EzI2CSetReadBoundaryBuffer1
 626              		.code	16
 627              		.thumb_func
 628              		.type	Comm_EzI2CSetReadBoundaryBuffer1, %function
 629              	Comm_EzI2CSetReadBoundaryBuffer1:
 630              	.LFB6:
 507:Generated_Source\PSoC4/Comm_EZI2C.c ****     Comm_protectBuf1 = (uint16) rwBoundary;
 631              		.loc 1 507 0
 632              		.cfi_startproc
 633              	.LVL36:
 508:Generated_Source\PSoC4/Comm_EZI2C.c **** }
 634              		.loc 1 508 0
 635 0000 014B     		ldr	r3, .L62
 509:Generated_Source\PSoC4/Comm_EZI2C.c **** 
 636              		.loc 1 509 0
 637              		@ sp needed
 508:Generated_Source\PSoC4/Comm_EZI2C.c **** }
 638              		.loc 1 508 0
 639 0002 1880     		strh	r0, [r3]
 509:Generated_Source\PSoC4/Comm_EZI2C.c **** 
 640              		.loc 1 509 0
 641 0004 7047     		bx	lr
 642              	.L63:
ARM GAS  C:\Users\TECHCO~1\AppData\Local\Temp\ccDTBYJl.s 			page 24


 643 0006 C046     		.align	2
 644              	.L62:
 645 0008 00000000 		.word	Comm_protectBuf1
 646              		.cfi_endproc
 647              	.LFE6:
 648              		.size	Comm_EzI2CSetReadBoundaryBuffer1, .-Comm_EzI2CSetReadBoundaryBuffer1
 649              		.section	.text.Comm_EzI2CSetAddress2,"ax",%progbits
 650              		.align	1
 651              		.global	Comm_EzI2CSetAddress2
 652              		.code	16
 653              		.thumb_func
 654              		.type	Comm_EzI2CSetAddress2, %function
 655              	Comm_EzI2CSetAddress2:
 656              	.LFB8:
 543:Generated_Source\PSoC4/Comm_EZI2C.c **** 
 544:Generated_Source\PSoC4/Comm_EZI2C.c ****     /*******************************************************************************
 545:Generated_Source\PSoC4/Comm_EZI2C.c ****     * Function Name: Comm_EzI2CSetAddress2
 546:Generated_Source\PSoC4/Comm_EZI2C.c ****     ****************************************************************************//**
 547:Generated_Source\PSoC4/Comm_EZI2C.c ****     *
 548:Generated_Source\PSoC4/Comm_EZI2C.c ****     *  Sets the secondary EZI2C slave address.
 549:Generated_Source\PSoC4/Comm_EZI2C.c ****     *
 550:Generated_Source\PSoC4/Comm_EZI2C.c ****     * \param address: secondary I2C slave address.
 551:Generated_Source\PSoC4/Comm_EZI2C.c ****     *  This address is the 7-bit right-justified slave address and does not 
 552:Generated_Source\PSoC4/Comm_EZI2C.c ****     *  include the R/W bit.
 553:Generated_Source\PSoC4/Comm_EZI2C.c ****     *  The address value is not checked to see if it violates the I2C spec. 
 554:Generated_Source\PSoC4/Comm_EZI2C.c ****     *  The preferred addresses are in the range between 8 and 120 (0x08 to 0x78).
 555:Generated_Source\PSoC4/Comm_EZI2C.c ****     *
 556:Generated_Source\PSoC4/Comm_EZI2C.c ****     * \globalvars
 557:Generated_Source\PSoC4/Comm_EZI2C.c ****     *  Comm_addrBuf2 - used to store the secondary 7-bit slave address 
 558:Generated_Source\PSoC4/Comm_EZI2C.c ****     *  value.
 559:Generated_Source\PSoC4/Comm_EZI2C.c ****     *
 560:Generated_Source\PSoC4/Comm_EZI2C.c ****     *******************************************************************************/
 561:Generated_Source\PSoC4/Comm_EZI2C.c ****     void Comm_EzI2CSetAddress2(uint32 address)
 562:Generated_Source\PSoC4/Comm_EZI2C.c ****     {
 657              		.loc 1 562 0
 658              		.cfi_startproc
 659              	.LVL37:
 660 0000 08B5     		push	{r3, lr}
 661              		.cfi_def_cfa_offset 8
 662              		.cfi_offset 3, -8
 663              		.cfi_offset 14, -4
 563:Generated_Source\PSoC4/Comm_EZI2C.c ****         Comm_addrBuf2 = (uint8) address;
 664              		.loc 1 563 0
 665 0002 054B     		ldr	r3, .L65
 562:Generated_Source\PSoC4/Comm_EZI2C.c ****         Comm_addrBuf2 = (uint8) address;
 666              		.loc 1 562 0
 667 0004 011C     		mov	r1, r0
 668              		.loc 1 563 0
 669 0006 1870     		strb	r0, [r3]
 564:Generated_Source\PSoC4/Comm_EZI2C.c **** 
 565:Generated_Source\PSoC4/Comm_EZI2C.c ****         Comm_RX_MATCH_REG = 
 566:Generated_Source\PSoC4/Comm_EZI2C.c ****                         Comm_EzI2CUpdateRxMatchReg((uint32) Comm_addrBuf1, address);
 670              		.loc 1 566 0
 671 0008 044B     		ldr	r3, .L65+4
 567:Generated_Source\PSoC4/Comm_EZI2C.c ****     }
 672              		.loc 1 567 0
 673              		@ sp needed
ARM GAS  C:\Users\TECHCO~1\AppData\Local\Temp\ccDTBYJl.s 			page 25


 566:Generated_Source\PSoC4/Comm_EZI2C.c ****     }
 674              		.loc 1 566 0
 675 000a 1878     		ldrb	r0, [r3]
 676              	.LVL38:
 677 000c FFF7FEFF 		bl	Comm_EzI2CUpdateRxMatchReg
 678              	.LVL39:
 565:Generated_Source\PSoC4/Comm_EZI2C.c ****                         Comm_EzI2CUpdateRxMatchReg((uint32) Comm_addrBuf1, address);
 679              		.loc 1 565 0
 680 0010 034B     		ldr	r3, .L65+8
 681 0012 1860     		str	r0, [r3]
 682              		.loc 1 567 0
 683 0014 08BD     		pop	{r3, pc}
 684              	.L66:
 685 0016 C046     		.align	2
 686              	.L65:
 687 0018 00000000 		.word	Comm_addrBuf2
 688 001c 00000000 		.word	Comm_addrBuf1
 689 0020 10030640 		.word	1074135824
 690              		.cfi_endproc
 691              	.LFE8:
 692              		.size	Comm_EzI2CSetAddress2, .-Comm_EzI2CSetAddress2
 693              		.section	.text.Comm_EzI2CGetAddress2,"ax",%progbits
 694              		.align	1
 695              		.global	Comm_EzI2CGetAddress2
 696              		.code	16
 697              		.thumb_func
 698              		.type	Comm_EzI2CGetAddress2, %function
 699              	Comm_EzI2CGetAddress2:
 700              	.LFB9:
 568:Generated_Source\PSoC4/Comm_EZI2C.c **** 
 569:Generated_Source\PSoC4/Comm_EZI2C.c **** 
 570:Generated_Source\PSoC4/Comm_EZI2C.c ****     /*******************************************************************************
 571:Generated_Source\PSoC4/Comm_EZI2C.c ****     * Function Name: Comm_EzI2CGetAddress2
 572:Generated_Source\PSoC4/Comm_EZI2C.c ****     ****************************************************************************//**
 573:Generated_Source\PSoC4/Comm_EZI2C.c ****     *
 574:Generated_Source\PSoC4/Comm_EZI2C.c ****     *  Returns the secondary EZ I2C slave address.
 575:Generated_Source\PSoC4/Comm_EZI2C.c ****     *  This address is the 7-bit right-justified slave address and does not include 
 576:Generated_Source\PSoC4/Comm_EZI2C.c ****     *  the R/W bit.
 577:Generated_Source\PSoC4/Comm_EZI2C.c ****     *
 578:Generated_Source\PSoC4/Comm_EZI2C.c ****     * \return
 579:Generated_Source\PSoC4/Comm_EZI2C.c ****     *  Secondary I2C slave address.
 580:Generated_Source\PSoC4/Comm_EZI2C.c ****     *
 581:Generated_Source\PSoC4/Comm_EZI2C.c ****     * \globalvars
 582:Generated_Source\PSoC4/Comm_EZI2C.c ****     *  Comm_addrBuf2 - used to store the secondary 7-bit slave address 
 583:Generated_Source\PSoC4/Comm_EZI2C.c ****     *  value.
 584:Generated_Source\PSoC4/Comm_EZI2C.c ****     *
 585:Generated_Source\PSoC4/Comm_EZI2C.c ****     *******************************************************************************/
 586:Generated_Source\PSoC4/Comm_EZI2C.c ****     uint32 Comm_EzI2CGetAddress2(void)
 587:Generated_Source\PSoC4/Comm_EZI2C.c ****     {
 701              		.loc 1 587 0
 702              		.cfi_startproc
 588:Generated_Source\PSoC4/Comm_EZI2C.c ****         return((uint32) Comm_addrBuf2);
 703              		.loc 1 588 0
 704 0000 014B     		ldr	r3, .L68
 589:Generated_Source\PSoC4/Comm_EZI2C.c ****     }
 705              		.loc 1 589 0
 706              		@ sp needed
ARM GAS  C:\Users\TECHCO~1\AppData\Local\Temp\ccDTBYJl.s 			page 26


 588:Generated_Source\PSoC4/Comm_EZI2C.c ****         return((uint32) Comm_addrBuf2);
 707              		.loc 1 588 0
 708 0002 1878     		ldrb	r0, [r3]
 709              		.loc 1 589 0
 710 0004 7047     		bx	lr
 711              	.L69:
 712 0006 C046     		.align	2
 713              	.L68:
 714 0008 00000000 		.word	Comm_addrBuf2
 715              		.cfi_endproc
 716              	.LFE9:
 717              		.size	Comm_EzI2CGetAddress2, .-Comm_EzI2CGetAddress2
 718              		.section	.text.Comm_EzI2CSetBuffer2,"ax",%progbits
 719              		.align	1
 720              		.global	Comm_EzI2CSetBuffer2
 721              		.code	16
 722              		.thumb_func
 723              		.type	Comm_EzI2CSetBuffer2, %function
 724              	Comm_EzI2CSetBuffer2:
 725              	.LFB10:
 590:Generated_Source\PSoC4/Comm_EZI2C.c **** 
 591:Generated_Source\PSoC4/Comm_EZI2C.c **** 
 592:Generated_Source\PSoC4/Comm_EZI2C.c ****     /*******************************************************************************
 593:Generated_Source\PSoC4/Comm_EZI2C.c ****     * Function Name: Comm_EzI2CSetBuffer2
 594:Generated_Source\PSoC4/Comm_EZI2C.c ****     ****************************************************************************//**
 595:Generated_Source\PSoC4/Comm_EZI2C.c ****     *
 596:Generated_Source\PSoC4/Comm_EZI2C.c ****     *  Sets up the data buffer to be exposed to the I2C master on a secondary slave
 597:Generated_Source\PSoC4/Comm_EZI2C.c ****     *  address request.
 598:Generated_Source\PSoC4/Comm_EZI2C.c ****     *
 599:Generated_Source\PSoC4/Comm_EZI2C.c ****     * \param bufSize: Size of the buffer in bytes.
 600:Generated_Source\PSoC4/Comm_EZI2C.c ****     * \param rwBoundary: Number of data bytes starting from the beginning of the 
 601:Generated_Source\PSoC4/Comm_EZI2C.c ****     *  buffer with read and write access. Data bytes located at offset rwBoundary 
 602:Generated_Source\PSoC4/Comm_EZI2C.c ****     *  or greater are read only.
 603:Generated_Source\PSoC4/Comm_EZI2C.c ****     *  This value must be less than or equal to the buffer size.
 604:Generated_Source\PSoC4/Comm_EZI2C.c ****     * \param buffer: Pointer to the data buffer.
 605:Generated_Source\PSoC4/Comm_EZI2C.c ****     *
 606:Generated_Source\PSoC4/Comm_EZI2C.c ****     * \sideeffects
 607:Generated_Source\PSoC4/Comm_EZI2C.c ****     *  Calling this function in the middle of a transaction intended for the 
 608:Generated_Source\PSoC4/Comm_EZI2C.c ****     *  secondary slave address leads to unexpected behavior.
 609:Generated_Source\PSoC4/Comm_EZI2C.c ****     *
 610:Generated_Source\PSoC4/Comm_EZI2C.c ****     * \globalvars
 611:Generated_Source\PSoC4/Comm_EZI2C.c ****     *  Comm_dataBuffer2 – the pointer to the buffer to be exposed to the
 612:Generated_Source\PSoC4/Comm_EZI2C.c ****     *  master on a secondary address.
 613:Generated_Source\PSoC4/Comm_EZI2C.c ****     *  Comm_bufSizeBuf2 - the size of the buffer to be exposed to the 
 614:Generated_Source\PSoC4/Comm_EZI2C.c ****     *  master on a secondary address.
 615:Generated_Source\PSoC4/Comm_EZI2C.c ****     *  Comm_protectBuf2 - the start index of the read-only region in the
 616:Generated_Source\PSoC4/Comm_EZI2C.c ****     *  buffer to be exposed to the master on a secondary address. The read-only 
 617:Generated_Source\PSoC4/Comm_EZI2C.c ****     *  region continues up to the end the buffer.
 618:Generated_Source\PSoC4/Comm_EZI2C.c ****     *
 619:Generated_Source\PSoC4/Comm_EZI2C.c ****     *******************************************************************************/
 620:Generated_Source\PSoC4/Comm_EZI2C.c ****     void Comm_EzI2CSetBuffer2(uint32 bufSize, uint32 rwBoundary, volatile uint8 * buffer)
 621:Generated_Source\PSoC4/Comm_EZI2C.c ****     {
 726              		.loc 1 621 0
 727              		.cfi_startproc
 728              	.LVL40:
 729 0000 70B5     		push	{r4, r5, r6, lr}
 730              		.cfi_def_cfa_offset 16
ARM GAS  C:\Users\TECHCO~1\AppData\Local\Temp\ccDTBYJl.s 			page 27


 731              		.cfi_offset 4, -16
 732              		.cfi_offset 5, -12
 733              		.cfi_offset 6, -8
 734              		.cfi_offset 14, -4
 735              		.loc 1 621 0
 736 0002 061C     		mov	r6, r0
 737 0004 0D1C     		mov	r5, r1
 738 0006 141E     		sub	r4, r2, #0
 622:Generated_Source\PSoC4/Comm_EZI2C.c ****         if (NULL != buffer)
 739              		.loc 1 622 0
 740 0008 0BD0     		beq	.L70
 623:Generated_Source\PSoC4/Comm_EZI2C.c ****         {
 624:Generated_Source\PSoC4/Comm_EZI2C.c ****             Comm_DisableInt();  /* Lock from interruption */
 741              		.loc 1 624 0
 742 000a 0A20     		mov	r0, #10
 743              	.LVL41:
 744 000c FFF7FEFF 		bl	CyIntDisable
 745              	.LVL42:
 625:Generated_Source\PSoC4/Comm_EZI2C.c **** 
 626:Generated_Source\PSoC4/Comm_EZI2C.c ****             Comm_dataBuffer2 =  buffer;
 746              		.loc 1 626 0
 747 0010 044B     		ldr	r3, .L75
 627:Generated_Source\PSoC4/Comm_EZI2C.c ****             Comm_bufSizeBuf2 = (uint16) bufSize;
 628:Generated_Source\PSoC4/Comm_EZI2C.c ****             Comm_protectBuf2 = (uint16) rwBoundary;
 629:Generated_Source\PSoC4/Comm_EZI2C.c **** 
 630:Generated_Source\PSoC4/Comm_EZI2C.c ****             Comm_EnableInt();   /* Release lock */
 748              		.loc 1 630 0
 749 0012 0A20     		mov	r0, #10
 626:Generated_Source\PSoC4/Comm_EZI2C.c ****             Comm_bufSizeBuf2 = (uint16) bufSize;
 750              		.loc 1 626 0
 751 0014 1C60     		str	r4, [r3]
 627:Generated_Source\PSoC4/Comm_EZI2C.c ****             Comm_bufSizeBuf2 = (uint16) bufSize;
 752              		.loc 1 627 0
 753 0016 044B     		ldr	r3, .L75+4
 754 0018 1E80     		strh	r6, [r3]
 628:Generated_Source\PSoC4/Comm_EZI2C.c **** 
 755              		.loc 1 628 0
 756 001a 044B     		ldr	r3, .L75+8
 757 001c 1D80     		strh	r5, [r3]
 758              		.loc 1 630 0
 759 001e FFF7FEFF 		bl	CyIntEnable
 760              	.LVL43:
 761              	.L70:
 631:Generated_Source\PSoC4/Comm_EZI2C.c ****         }
 632:Generated_Source\PSoC4/Comm_EZI2C.c ****     }
 762              		.loc 1 632 0
 763              		@ sp needed
 764              	.LVL44:
 765              	.LVL45:
 766              	.LVL46:
 767 0022 70BD     		pop	{r4, r5, r6, pc}
 768              	.L76:
 769              		.align	2
 770              	.L75:
 771 0024 00000000 		.word	Comm_dataBuffer2
 772 0028 00000000 		.word	Comm_bufSizeBuf2
 773 002c 00000000 		.word	Comm_protectBuf2
ARM GAS  C:\Users\TECHCO~1\AppData\Local\Temp\ccDTBYJl.s 			page 28


 774              		.cfi_endproc
 775              	.LFE10:
 776              		.size	Comm_EzI2CSetBuffer2, .-Comm_EzI2CSetBuffer2
 777              		.section	.text.Comm_EzI2CSetReadBoundaryBuffer2,"ax",%progbits
 778              		.align	1
 779              		.global	Comm_EzI2CSetReadBoundaryBuffer2
 780              		.code	16
 781              		.thumb_func
 782              		.type	Comm_EzI2CSetReadBoundaryBuffer2, %function
 783              	Comm_EzI2CSetReadBoundaryBuffer2:
 784              	.LFB11:
 633:Generated_Source\PSoC4/Comm_EZI2C.c **** 
 634:Generated_Source\PSoC4/Comm_EZI2C.c **** 
 635:Generated_Source\PSoC4/Comm_EZI2C.c ****     /*******************************************************************************
 636:Generated_Source\PSoC4/Comm_EZI2C.c ****     * Function Name: Comm_EzI2CSetReadBoundaryBuffer2
 637:Generated_Source\PSoC4/Comm_EZI2C.c ****     ****************************************************************************//**
 638:Generated_Source\PSoC4/Comm_EZI2C.c ****     *
 639:Generated_Source\PSoC4/Comm_EZI2C.c ****     *  Sets the read only boundary in the data buffer to be exposed to the I2C
 640:Generated_Source\PSoC4/Comm_EZI2C.c ****     *  master on a secondary address request.
 641:Generated_Source\PSoC4/Comm_EZI2C.c ****     *
 642:Generated_Source\PSoC4/Comm_EZI2C.c ****     *  \param rwBoundary: Number of data bytes starting from the beginning of the
 643:Generated_Source\PSoC4/Comm_EZI2C.c ****     *   buffer with read and write access. Data bytes located at offset rwBoundary 
 644:Generated_Source\PSoC4/Comm_EZI2C.c ****     *   or greater are read only.
 645:Generated_Source\PSoC4/Comm_EZI2C.c ****     *   This value must be less than or equal to the buffer size.
 646:Generated_Source\PSoC4/Comm_EZI2C.c ****     *
 647:Generated_Source\PSoC4/Comm_EZI2C.c ****     *  \sideeffect
 648:Generated_Source\PSoC4/Comm_EZI2C.c ****     *   Calling this function in the middle of a transaction intended for the 
 649:Generated_Source\PSoC4/Comm_EZI2C.c ****     *   secondary slave address leads to unexpected behavior.
 650:Generated_Source\PSoC4/Comm_EZI2C.c ****     *
 651:Generated_Source\PSoC4/Comm_EZI2C.c ****     * \globalvars
 652:Generated_Source\PSoC4/Comm_EZI2C.c ****     *  Comm_protectBuf2 - the start index of the read-only region in the
 653:Generated_Source\PSoC4/Comm_EZI2C.c ****     *  buffer to be exposed to the master on a secondary address. The read-only 
 654:Generated_Source\PSoC4/Comm_EZI2C.c ****     *  region continues up to the end the buffe
 655:Generated_Source\PSoC4/Comm_EZI2C.c ****     *
 656:Generated_Source\PSoC4/Comm_EZI2C.c ****     *******************************************************************************/
 657:Generated_Source\PSoC4/Comm_EZI2C.c ****     void Comm_EzI2CSetReadBoundaryBuffer2(uint32 rwBoundary)
 658:Generated_Source\PSoC4/Comm_EZI2C.c ****     {
 785              		.loc 1 658 0
 786              		.cfi_startproc
 787              	.LVL47:
 659:Generated_Source\PSoC4/Comm_EZI2C.c ****         Comm_protectBuf2 = (uint16) rwBoundary;
 788              		.loc 1 659 0
 789 0000 014B     		ldr	r3, .L78
 660:Generated_Source\PSoC4/Comm_EZI2C.c ****     }
 790              		.loc 1 660 0
 791              		@ sp needed
 659:Generated_Source\PSoC4/Comm_EZI2C.c ****         Comm_protectBuf2 = (uint16) rwBoundary;
 792              		.loc 1 659 0
 793 0002 1880     		strh	r0, [r3]
 794              		.loc 1 660 0
 795 0004 7047     		bx	lr
 796              	.L79:
 797 0006 C046     		.align	2
 798              	.L78:
 799 0008 00000000 		.word	Comm_protectBuf2
 800              		.cfi_endproc
 801              	.LFE11:
ARM GAS  C:\Users\TECHCO~1\AppData\Local\Temp\ccDTBYJl.s 			page 29


 802              		.size	Comm_EzI2CSetReadBoundaryBuffer2, .-Comm_EzI2CSetReadBoundaryBuffer2
 803              		.section	.text.Comm_EzI2CSaveConfig,"ax",%progbits
 804              		.align	1
 805              		.global	Comm_EzI2CSaveConfig
 806              		.code	16
 807              		.thumb_func
 808              		.type	Comm_EzI2CSaveConfig, %function
 809              	Comm_EzI2CSaveConfig:
 810              	.LFB12:
 661:Generated_Source\PSoC4/Comm_EZI2C.c **** 
 662:Generated_Source\PSoC4/Comm_EZI2C.c **** #endif /* (Comm_SECONDARY_ADDRESS_ENABLE_CONST) */
 663:Generated_Source\PSoC4/Comm_EZI2C.c **** 
 664:Generated_Source\PSoC4/Comm_EZI2C.c **** 
 665:Generated_Source\PSoC4/Comm_EZI2C.c **** #if(Comm_EZI2C_WAKE_ENABLE_CONST)
 666:Generated_Source\PSoC4/Comm_EZI2C.c ****     /*******************************************************************************
 667:Generated_Source\PSoC4/Comm_EZI2C.c ****     * Function Name: Comm_EzI2CSaveConfig
 668:Generated_Source\PSoC4/Comm_EZI2C.c ****     ****************************************************************************//**
 669:Generated_Source\PSoC4/Comm_EZI2C.c ****     *
 670:Generated_Source\PSoC4/Comm_EZI2C.c ****     *  Clock stretching is  enabled: Enables INTR_I2C_EC.WAKE_UP interrupt source.
 671:Generated_Source\PSoC4/Comm_EZI2C.c ****     *  It triggers on the slave address match.
 672:Generated_Source\PSoC4/Comm_EZI2C.c ****     *  Clock stretching is disabled: Waits until the I2C slave becomes free and
 673:Generated_Source\PSoC4/Comm_EZI2C.c ****     *  disables the block to perform reconfiguration from the active mode operation
 674:Generated_Source\PSoC4/Comm_EZI2C.c ****     *  to deep sleep with wake up on the address match: enables INTR_I2C_EC.WAKE_UP
 675:Generated_Source\PSoC4/Comm_EZI2C.c ****     *  interrupt source and disables the INTR_S and INTR_TX interrupt sources.
 676:Generated_Source\PSoC4/Comm_EZI2C.c ****     *  The block is disabled before reconfiguration and enabled when
 677:Generated_Source\PSoC4/Comm_EZI2C.c ****     *  it is completed.
 678:Generated_Source\PSoC4/Comm_EZI2C.c ****     *
 679:Generated_Source\PSoC4/Comm_EZI2C.c ****     *******************************************************************************/
 680:Generated_Source\PSoC4/Comm_EZI2C.c ****     void Comm_EzI2CSaveConfig(void)
 681:Generated_Source\PSoC4/Comm_EZI2C.c ****     {
 811              		.loc 1 681 0
 812              		.cfi_startproc
 682:Generated_Source\PSoC4/Comm_EZI2C.c ****     #if(Comm_CY_SCBIP_V0)
 683:Generated_Source\PSoC4/Comm_EZI2C.c **** 
 684:Generated_Source\PSoC4/Comm_EZI2C.c ****         if(Comm_EZI2C_SCL_STRETCH_ENABLE)
 813              		.loc 1 684 0
 814 0000 034B     		ldr	r3, .L85
 815 0002 1B68     		ldr	r3, [r3]
 816 0004 5B06     		lsl	r3, r3, #25
 817 0006 02D5     		bpl	.L80
 685:Generated_Source\PSoC4/Comm_EZI2C.c ****         {
 686:Generated_Source\PSoC4/Comm_EZI2C.c ****             /* Enable wakeup interrupt source on address match */
 687:Generated_Source\PSoC4/Comm_EZI2C.c ****             Comm_SetI2CExtClkInterruptMode(Comm_INTR_I2C_EC_WAKE_UP);
 818              		.loc 1 687 0
 819 0008 0122     		mov	r2, #1
 820 000a 024B     		ldr	r3, .L85+4
 821 000c 1A60     		str	r2, [r3]
 822              	.L80:
 688:Generated_Source\PSoC4/Comm_EZI2C.c ****         }
 689:Generated_Source\PSoC4/Comm_EZI2C.c ****         
 690:Generated_Source\PSoC4/Comm_EZI2C.c **** 
 691:Generated_Source\PSoC4/Comm_EZI2C.c ****     #else
 692:Generated_Source\PSoC4/Comm_EZI2C.c ****         uint8 enableInt;
 693:Generated_Source\PSoC4/Comm_EZI2C.c **** 
 694:Generated_Source\PSoC4/Comm_EZI2C.c ****         enableInt = (uint8) Comm_INTR_I2C_EC_WAKE_UP;
 695:Generated_Source\PSoC4/Comm_EZI2C.c **** 
 696:Generated_Source\PSoC4/Comm_EZI2C.c ****         if(Comm_EZI2C_SCL_STRETCH_ENABLE)
ARM GAS  C:\Users\TECHCO~1\AppData\Local\Temp\ccDTBYJl.s 			page 30


 697:Generated_Source\PSoC4/Comm_EZI2C.c ****         {
 698:Generated_Source\PSoC4/Comm_EZI2C.c ****         #if (Comm_SCB_CLK_INTERNAL)
 699:Generated_Source\PSoC4/Comm_EZI2C.c ****             /* Disable clock to internal address match logic. Ticket ID #187931 */
 700:Generated_Source\PSoC4/Comm_EZI2C.c ****             Comm_SCBCLK_Stop();
 701:Generated_Source\PSoC4/Comm_EZI2C.c ****         #endif /* (Comm_SCB_CLK_INTERNAL) */
 702:Generated_Source\PSoC4/Comm_EZI2C.c **** 
 703:Generated_Source\PSoC4/Comm_EZI2C.c ****             /* Enable interrupt source to wakeup device */
 704:Generated_Source\PSoC4/Comm_EZI2C.c ****             Comm_SetI2CExtClkInterruptMode(enableInt);
 705:Generated_Source\PSoC4/Comm_EZI2C.c ****         }
 706:Generated_Source\PSoC4/Comm_EZI2C.c ****         else
 707:Generated_Source\PSoC4/Comm_EZI2C.c ****         {
 708:Generated_Source\PSoC4/Comm_EZI2C.c ****             for(;;) /* Wait for end of transaction intended to slave */
 709:Generated_Source\PSoC4/Comm_EZI2C.c ****             {
 710:Generated_Source\PSoC4/Comm_EZI2C.c ****                 if(0u == (Comm_GetI2CExtClkInterruptSource() & Comm_INTR_I2C_EC_WAKE_UP))
 711:Generated_Source\PSoC4/Comm_EZI2C.c ****                 {
 712:Generated_Source\PSoC4/Comm_EZI2C.c ****                     enableInt = CyEnterCriticalSection();
 713:Generated_Source\PSoC4/Comm_EZI2C.c **** 
 714:Generated_Source\PSoC4/Comm_EZI2C.c ****                     if(0u == (Comm_GetI2CExtClkInterruptSource() & Comm_INTR_I2C_EC_WAKE_UP))
 715:Generated_Source\PSoC4/Comm_EZI2C.c ****                     {
 716:Generated_Source\PSoC4/Comm_EZI2C.c ****                         /* Attempts to set NACK command before disable block */
 717:Generated_Source\PSoC4/Comm_EZI2C.c ****                         Comm_I2C_SLAVE_GENERATE_NACK;
 718:Generated_Source\PSoC4/Comm_EZI2C.c **** 
 719:Generated_Source\PSoC4/Comm_EZI2C.c ****                         if(0u == (Comm_GetI2CExtClkInterruptSource() & Comm_INTR_I2C_EC_WAKE_UP))
 720:Generated_Source\PSoC4/Comm_EZI2C.c ****                         {
 721:Generated_Source\PSoC4/Comm_EZI2C.c ****                             /* NACK command was set before. It is safe to disable block */
 722:Generated_Source\PSoC4/Comm_EZI2C.c ****                             Comm_CTRL_REG &= (uint32) ~Comm_CTRL_ENABLED;
 723:Generated_Source\PSoC4/Comm_EZI2C.c ****                             Comm_DisableInt();
 724:Generated_Source\PSoC4/Comm_EZI2C.c **** 
 725:Generated_Source\PSoC4/Comm_EZI2C.c ****                             CyExitCriticalSection(enableInt);
 726:Generated_Source\PSoC4/Comm_EZI2C.c ****                             break;
 727:Generated_Source\PSoC4/Comm_EZI2C.c ****                         }
 728:Generated_Source\PSoC4/Comm_EZI2C.c ****                         else
 729:Generated_Source\PSoC4/Comm_EZI2C.c ****                         {
 730:Generated_Source\PSoC4/Comm_EZI2C.c ****                             /* Clear NACK command to prevent data NACK */
 731:Generated_Source\PSoC4/Comm_EZI2C.c ****                             Comm_I2C_SLAVE_CLEAR_NACK;
 732:Generated_Source\PSoC4/Comm_EZI2C.c ****                         }
 733:Generated_Source\PSoC4/Comm_EZI2C.c ****                     }
 734:Generated_Source\PSoC4/Comm_EZI2C.c **** 
 735:Generated_Source\PSoC4/Comm_EZI2C.c ****                     CyExitCriticalSection(enableInt);
 736:Generated_Source\PSoC4/Comm_EZI2C.c ****                 }
 737:Generated_Source\PSoC4/Comm_EZI2C.c ****             }
 738:Generated_Source\PSoC4/Comm_EZI2C.c **** 
 739:Generated_Source\PSoC4/Comm_EZI2C.c ****             /* Disable all active mode interrupt sources */
 740:Generated_Source\PSoC4/Comm_EZI2C.c ****             Comm_SetTxInterruptMode(Comm_NO_INTR_SOURCES);
 741:Generated_Source\PSoC4/Comm_EZI2C.c ****             Comm_SetSlaveInterruptMode(Comm_NO_INTR_SOURCES);
 742:Generated_Source\PSoC4/Comm_EZI2C.c ****             Comm_ClearPendingInt();
 743:Generated_Source\PSoC4/Comm_EZI2C.c ****             Comm_EnableInt();
 744:Generated_Source\PSoC4/Comm_EZI2C.c **** 
 745:Generated_Source\PSoC4/Comm_EZI2C.c ****             /* Enable wakeup interrupt on address match */
 746:Generated_Source\PSoC4/Comm_EZI2C.c ****             Comm_SetI2CExtClkInterruptMode(Comm_INTR_I2C_EC_WAKE_UP);
 747:Generated_Source\PSoC4/Comm_EZI2C.c **** 
 748:Generated_Source\PSoC4/Comm_EZI2C.c ****             enableInt = CyEnterCriticalSection();
 749:Generated_Source\PSoC4/Comm_EZI2C.c **** 
 750:Generated_Source\PSoC4/Comm_EZI2C.c ****             Comm_CTRL_REG |= (uint32) Comm_CTRL_ENABLED;
 751:Generated_Source\PSoC4/Comm_EZI2C.c ****             Comm_I2C_SLAVE_GENERATE_NACK;
 752:Generated_Source\PSoC4/Comm_EZI2C.c **** 
 753:Generated_Source\PSoC4/Comm_EZI2C.c ****             CyExitCriticalSection(enableInt);
ARM GAS  C:\Users\TECHCO~1\AppData\Local\Temp\ccDTBYJl.s 			page 31


 754:Generated_Source\PSoC4/Comm_EZI2C.c ****         }
 755:Generated_Source\PSoC4/Comm_EZI2C.c ****         
 756:Generated_Source\PSoC4/Comm_EZI2C.c ****     #endif /* (Comm_CY_SCBIP_V0) */
 757:Generated_Source\PSoC4/Comm_EZI2C.c ****     }
 823              		.loc 1 757 0
 824              		@ sp needed
 825 000e 7047     		bx	lr
 826              	.L86:
 827              		.align	2
 828              	.L85:
 829 0010 480F0640 		.word	1074138952
 830 0014 880E0640 		.word	1074138760
 831              		.cfi_endproc
 832              	.LFE12:
 833              		.size	Comm_EzI2CSaveConfig, .-Comm_EzI2CSaveConfig
 834              		.section	.text.Comm_EzI2CRestoreConfig,"ax",%progbits
 835              		.align	1
 836              		.global	Comm_EzI2CRestoreConfig
 837              		.code	16
 838              		.thumb_func
 839              		.type	Comm_EzI2CRestoreConfig, %function
 840              	Comm_EzI2CRestoreConfig:
 841              	.LFB13:
 758:Generated_Source\PSoC4/Comm_EZI2C.c **** 
 759:Generated_Source\PSoC4/Comm_EZI2C.c **** 
 760:Generated_Source\PSoC4/Comm_EZI2C.c ****     /*******************************************************************************
 761:Generated_Source\PSoC4/Comm_EZI2C.c ****     * Function Name: Comm_EzI2CRestoreConfig
 762:Generated_Source\PSoC4/Comm_EZI2C.c ****     ****************************************************************************//**
 763:Generated_Source\PSoC4/Comm_EZI2C.c ****     *
 764:Generated_Source\PSoC4/Comm_EZI2C.c ****     *  Clock stretching is  enabled: Disables the INTR_I2C_EC.WAKE_UP interrupt
 765:Generated_Source\PSoC4/Comm_EZI2C.c ****     *  source.
 766:Generated_Source\PSoC4/Comm_EZI2C.c ****     *  Clock stretching is disabled: Reconfigures the EZI2C component from
 767:Generated_Source\PSoC4/Comm_EZI2C.c ****     *  Deep Sleep (wake up on the address match) to active operation: disables
 768:Generated_Source\PSoC4/Comm_EZI2C.c ****     *  the INTR_I2C_EC.WAKE_UP interrupt source and restores the INTR_S
 769:Generated_Source\PSoC4/Comm_EZI2C.c ****     *  interrupt sources to operate in the active mode.
 770:Generated_Source\PSoC4/Comm_EZI2C.c ****     *  The block is disabled before reconfiguration and enabled when
 771:Generated_Source\PSoC4/Comm_EZI2C.c ****     *  it is completed.
 772:Generated_Source\PSoC4/Comm_EZI2C.c ****     *
 773:Generated_Source\PSoC4/Comm_EZI2C.c ****     *******************************************************************************/
 774:Generated_Source\PSoC4/Comm_EZI2C.c ****     void Comm_EzI2CRestoreConfig(void)
 775:Generated_Source\PSoC4/Comm_EZI2C.c ****     {
 842              		.loc 1 775 0
 843              		.cfi_startproc
 776:Generated_Source\PSoC4/Comm_EZI2C.c ****     #if(Comm_CY_SCBIP_V0)
 777:Generated_Source\PSoC4/Comm_EZI2C.c **** 
 778:Generated_Source\PSoC4/Comm_EZI2C.c ****         if(Comm_EZI2C_SCL_STRETCH_ENABLE)
 844              		.loc 1 778 0
 845 0000 034B     		ldr	r3, .L92
 846 0002 1B68     		ldr	r3, [r3]
 847 0004 5B06     		lsl	r3, r3, #25
 848 0006 02D5     		bpl	.L87
 779:Generated_Source\PSoC4/Comm_EZI2C.c ****         {
 780:Generated_Source\PSoC4/Comm_EZI2C.c ****             /* Disable wakeup interrupt on address match */
 781:Generated_Source\PSoC4/Comm_EZI2C.c ****             Comm_SetI2CExtClkInterruptMode(Comm_NO_INTR_SOURCES);
 849              		.loc 1 781 0
 850 0008 0022     		mov	r2, #0
 851 000a 024B     		ldr	r3, .L92+4
ARM GAS  C:\Users\TECHCO~1\AppData\Local\Temp\ccDTBYJl.s 			page 32


 852 000c 1A60     		str	r2, [r3]
 853              	.L87:
 782:Generated_Source\PSoC4/Comm_EZI2C.c ****         }
 783:Generated_Source\PSoC4/Comm_EZI2C.c ****         
 784:Generated_Source\PSoC4/Comm_EZI2C.c **** 
 785:Generated_Source\PSoC4/Comm_EZI2C.c ****     #else
 786:Generated_Source\PSoC4/Comm_EZI2C.c **** 
 787:Generated_Source\PSoC4/Comm_EZI2C.c ****         if(Comm_EZI2C_SCL_STRETCH_ENABLE)
 788:Generated_Source\PSoC4/Comm_EZI2C.c ****         {
 789:Generated_Source\PSoC4/Comm_EZI2C.c ****             /* Disable wakeup interrupt source on address match */
 790:Generated_Source\PSoC4/Comm_EZI2C.c ****             Comm_SetI2CExtClkInterruptMode(Comm_NO_INTR_SOURCES);
 791:Generated_Source\PSoC4/Comm_EZI2C.c **** 
 792:Generated_Source\PSoC4/Comm_EZI2C.c ****         #if (Comm_SCB_CLK_INTERNAL)
 793:Generated_Source\PSoC4/Comm_EZI2C.c ****             /* Enable clock to internal address match logic. Ticket ID #187931 */
 794:Generated_Source\PSoC4/Comm_EZI2C.c ****             Comm_SCBCLK_Start();
 795:Generated_Source\PSoC4/Comm_EZI2C.c ****         #endif /* (Comm_SCB_CLK_INTERNAL) */
 796:Generated_Source\PSoC4/Comm_EZI2C.c ****         }
 797:Generated_Source\PSoC4/Comm_EZI2C.c ****         else
 798:Generated_Source\PSoC4/Comm_EZI2C.c ****         {
 799:Generated_Source\PSoC4/Comm_EZI2C.c ****             /* NACK will be driven on the bus by wakeup or NACK command.
 800:Generated_Source\PSoC4/Comm_EZI2C.c ****             * It is safe to disable block to restore active mode configuration.
 801:Generated_Source\PSoC4/Comm_EZI2C.c ****             */
 802:Generated_Source\PSoC4/Comm_EZI2C.c ****             Comm_CTRL_REG &= (uint32) ~Comm_CTRL_ENABLED;
 803:Generated_Source\PSoC4/Comm_EZI2C.c **** 
 804:Generated_Source\PSoC4/Comm_EZI2C.c ****             /* Restore active mode interrupt sources */
 805:Generated_Source\PSoC4/Comm_EZI2C.c ****             Comm_SetI2CExtClkInterruptMode(Comm_NO_INTR_SOURCES);
 806:Generated_Source\PSoC4/Comm_EZI2C.c ****             Comm_SetSlaveInterruptMode(Comm_EZI2C_INTR_SLAVE_MASK |
 807:Generated_Source\PSoC4/Comm_EZI2C.c ****                                                    Comm_INTR_SLAVE_I2C_START);
 808:Generated_Source\PSoC4/Comm_EZI2C.c ****             Comm_ClearPendingInt();
 809:Generated_Source\PSoC4/Comm_EZI2C.c **** 
 810:Generated_Source\PSoC4/Comm_EZI2C.c ****             Comm_CTRL_REG |= (uint32) Comm_CTRL_ENABLED;
 811:Generated_Source\PSoC4/Comm_EZI2C.c ****         }
 812:Generated_Source\PSoC4/Comm_EZI2C.c ****         
 813:Generated_Source\PSoC4/Comm_EZI2C.c **** 
 814:Generated_Source\PSoC4/Comm_EZI2C.c ****     #endif /* (Comm_CY_SCBIP_V0) */
 815:Generated_Source\PSoC4/Comm_EZI2C.c ****     }
 854              		.loc 1 815 0
 855              		@ sp needed
 856 000e 7047     		bx	lr
 857              	.L93:
 858              		.align	2
 859              	.L92:
 860 0010 480F0640 		.word	1074138952
 861 0014 880E0640 		.word	1074138760
 862              		.cfi_endproc
 863              	.LFE13:
 864              		.size	Comm_EzI2CRestoreConfig, .-Comm_EzI2CRestoreConfig
 865              		.global	Comm_configEzI2C
 866              		.comm	Comm_indexBuf2,2,2
 867              		.comm	Comm_offsetBuf2,2,2
 868              		.comm	Comm_protectBuf2,2,2
 869              		.comm	Comm_bufSizeBuf2,2,2
 870              		.comm	Comm_dataBuffer2,4,4
 871              		.comm	Comm_addrBuf2,1,1
 872              		.comm	Comm_addrBuf1,1,1
 873              		.comm	Comm_indexBuf1,2,2
 874              		.comm	Comm_offsetBuf1,2,2
ARM GAS  C:\Users\TECHCO~1\AppData\Local\Temp\ccDTBYJl.s 			page 33


 875              		.comm	Comm_protectBuf1,2,2
 876              		.comm	Comm_bufSizeBuf1,2,2
 877              		.comm	Comm_dataBuffer1,4,4
 878              		.comm	Comm_fsmState,1,1
 879              		.comm	Comm_curStatus,1,1
 880              		.section	.rodata
 881              		.align	2
 882              		.type	Comm_configEzI2C, %object
 883              		.size	Comm_configEzI2C, 32
 884              	Comm_configEzI2C:
 885 0000 01000000 		.word	1
 886 0004 01000000 		.word	1
 887 0008 00000000 		.word	0
 888 000c 08000000 		.word	8
 889 0010 09000000 		.word	9
 890 0014 00000000 		.word	0
 891 0018 00000000 		.word	0
 892 001c 00       		.byte	0
 893 001d 000000   		.space	3
 894              		.text
 895              	.Letext0:
 896              		.file 2 "Generated_Source\\PSoC4/cytypes.h"
 897              		.file 3 "Generated_Source\\PSoC4\\Comm_EZI2C.h"
 898              		.file 4 "Generated_Source\\PSoC4\\Comm_PVT.h"
 899              		.file 5 "Generated_Source\\PSoC4/CyLib.h"