ARM GAS  C:\Users\TECHCO~1\AppData\Local\Temp\ccQSWV90.s 			page 1


   1              		.cpu cortex-m0
   2              		.fpu softvfp
   3              		.eabi_attribute 20, 1
   4              		.eabi_attribute 21, 1
   5              		.eabi_attribute 23, 3
   6              		.eabi_attribute 24, 1
   7              		.eabi_attribute 25, 1
   8              		.eabi_attribute 26, 1
   9              		.eabi_attribute 30, 4
  10              		.eabi_attribute 34, 0
  11              		.eabi_attribute 18, 4
  12              		.code	16
  13              		.file	"Comm_PM.c"
  14              		.text
  15              	.Ltext0:
  16              		.cfi_sections	.debug_frame
  17              		.section	.text.Comm_Sleep,"ax",%progbits
  18              		.align	1
  19              		.global	Comm_Sleep
  20              		.code	16
  21              		.thumb_func
  22              		.type	Comm_Sleep, %function
  23              	Comm_Sleep:
  24              	.LFB0:
  25              		.file 1 "Generated_Source\\PSoC4\\Comm_PM.c"
   1:Generated_Source\PSoC4/Comm_PM.c **** /***************************************************************************//**
   2:Generated_Source\PSoC4/Comm_PM.c **** * \file Comm_PM.c
   3:Generated_Source\PSoC4/Comm_PM.c **** * \version 3.20
   4:Generated_Source\PSoC4/Comm_PM.c **** *
   5:Generated_Source\PSoC4/Comm_PM.c **** * \brief
   6:Generated_Source\PSoC4/Comm_PM.c **** *  This file provides the source code to the Power Management support for
   7:Generated_Source\PSoC4/Comm_PM.c **** *  the SCB Component.
   8:Generated_Source\PSoC4/Comm_PM.c **** *
   9:Generated_Source\PSoC4/Comm_PM.c **** * Note:
  10:Generated_Source\PSoC4/Comm_PM.c **** *
  11:Generated_Source\PSoC4/Comm_PM.c **** ********************************************************************************
  12:Generated_Source\PSoC4/Comm_PM.c **** * \copyright
  13:Generated_Source\PSoC4/Comm_PM.c **** * Copyright 2013-2016, Cypress Semiconductor Corporation.  All rights reserved.
  14:Generated_Source\PSoC4/Comm_PM.c **** * You may use this file only in accordance with the license, terms, conditions,
  15:Generated_Source\PSoC4/Comm_PM.c **** * disclaimers, and limitations in the end user license agreement accompanying
  16:Generated_Source\PSoC4/Comm_PM.c **** * the software package with which this file was provided.
  17:Generated_Source\PSoC4/Comm_PM.c **** *******************************************************************************/
  18:Generated_Source\PSoC4/Comm_PM.c **** 
  19:Generated_Source\PSoC4/Comm_PM.c **** #include "Comm.h"
  20:Generated_Source\PSoC4/Comm_PM.c **** #include "Comm_PVT.h"
  21:Generated_Source\PSoC4/Comm_PM.c **** 
  22:Generated_Source\PSoC4/Comm_PM.c **** #if(Comm_SCB_MODE_I2C_INC)
  23:Generated_Source\PSoC4/Comm_PM.c ****     #include "Comm_I2C_PVT.h"
  24:Generated_Source\PSoC4/Comm_PM.c **** #endif /* (Comm_SCB_MODE_I2C_INC) */
  25:Generated_Source\PSoC4/Comm_PM.c **** 
  26:Generated_Source\PSoC4/Comm_PM.c **** #if(Comm_SCB_MODE_EZI2C_INC)
  27:Generated_Source\PSoC4/Comm_PM.c ****     #include "Comm_EZI2C_PVT.h"
  28:Generated_Source\PSoC4/Comm_PM.c **** #endif /* (Comm_SCB_MODE_EZI2C_INC) */
  29:Generated_Source\PSoC4/Comm_PM.c **** 
  30:Generated_Source\PSoC4/Comm_PM.c **** #if(Comm_SCB_MODE_SPI_INC || Comm_SCB_MODE_UART_INC)
  31:Generated_Source\PSoC4/Comm_PM.c ****     #include "Comm_SPI_UART_PVT.h"
  32:Generated_Source\PSoC4/Comm_PM.c **** #endif /* (Comm_SCB_MODE_SPI_INC || Comm_SCB_MODE_UART_INC) */
ARM GAS  C:\Users\TECHCO~1\AppData\Local\Temp\ccQSWV90.s 			page 2


  33:Generated_Source\PSoC4/Comm_PM.c **** 
  34:Generated_Source\PSoC4/Comm_PM.c **** 
  35:Generated_Source\PSoC4/Comm_PM.c **** /***************************************
  36:Generated_Source\PSoC4/Comm_PM.c **** *   Backup Structure declaration
  37:Generated_Source\PSoC4/Comm_PM.c **** ***************************************/
  38:Generated_Source\PSoC4/Comm_PM.c **** 
  39:Generated_Source\PSoC4/Comm_PM.c **** #if(Comm_SCB_MODE_UNCONFIG_CONST_CFG || \
  40:Generated_Source\PSoC4/Comm_PM.c ****    (Comm_SCB_MODE_I2C_CONST_CFG   && (!Comm_I2C_WAKE_ENABLE_CONST))   || \
  41:Generated_Source\PSoC4/Comm_PM.c ****    (Comm_SCB_MODE_EZI2C_CONST_CFG && (!Comm_EZI2C_WAKE_ENABLE_CONST)) || \
  42:Generated_Source\PSoC4/Comm_PM.c ****    (Comm_SCB_MODE_SPI_CONST_CFG   && (!Comm_SPI_WAKE_ENABLE_CONST))   || \
  43:Generated_Source\PSoC4/Comm_PM.c ****    (Comm_SCB_MODE_UART_CONST_CFG  && (!Comm_UART_WAKE_ENABLE_CONST)))
  44:Generated_Source\PSoC4/Comm_PM.c **** 
  45:Generated_Source\PSoC4/Comm_PM.c ****     Comm_BACKUP_STRUCT Comm_backup =
  46:Generated_Source\PSoC4/Comm_PM.c ****     {
  47:Generated_Source\PSoC4/Comm_PM.c ****         0u, /* enableState */
  48:Generated_Source\PSoC4/Comm_PM.c ****     };
  49:Generated_Source\PSoC4/Comm_PM.c **** #endif
  50:Generated_Source\PSoC4/Comm_PM.c **** 
  51:Generated_Source\PSoC4/Comm_PM.c **** 
  52:Generated_Source\PSoC4/Comm_PM.c **** /*******************************************************************************
  53:Generated_Source\PSoC4/Comm_PM.c **** * Function Name: Comm_Sleep
  54:Generated_Source\PSoC4/Comm_PM.c **** ****************************************************************************//**
  55:Generated_Source\PSoC4/Comm_PM.c **** *
  56:Generated_Source\PSoC4/Comm_PM.c **** *  Prepares the Comm component to enter Deep Sleep.
  57:Generated_Source\PSoC4/Comm_PM.c **** *  The “Enable wakeup from Deep Sleep Mode” selection has an influence on this 
  58:Generated_Source\PSoC4/Comm_PM.c **** *  function implementation:
  59:Generated_Source\PSoC4/Comm_PM.c **** *  - Checked: configures the component to be wakeup source from Deep Sleep.
  60:Generated_Source\PSoC4/Comm_PM.c **** *  - Unchecked: stores the current component state (enabled or disabled) and 
  61:Generated_Source\PSoC4/Comm_PM.c **** *    disables the component. See SCB_Stop() function for details about component 
  62:Generated_Source\PSoC4/Comm_PM.c **** *    disabling.
  63:Generated_Source\PSoC4/Comm_PM.c **** *
  64:Generated_Source\PSoC4/Comm_PM.c **** *  Call the Comm_Sleep() function before calling the 
  65:Generated_Source\PSoC4/Comm_PM.c **** *  CyPmSysDeepSleep() function. 
  66:Generated_Source\PSoC4/Comm_PM.c **** *  Refer to the PSoC Creator System Reference Guide for more information about 
  67:Generated_Source\PSoC4/Comm_PM.c **** *  power management functions and Low power section of this document for the 
  68:Generated_Source\PSoC4/Comm_PM.c **** *  selected mode.
  69:Generated_Source\PSoC4/Comm_PM.c **** *
  70:Generated_Source\PSoC4/Comm_PM.c **** *  This function should not be called before entering Sleep.
  71:Generated_Source\PSoC4/Comm_PM.c **** *
  72:Generated_Source\PSoC4/Comm_PM.c **** *******************************************************************************/
  73:Generated_Source\PSoC4/Comm_PM.c **** void Comm_Sleep(void)
  74:Generated_Source\PSoC4/Comm_PM.c **** {
  26              		.loc 1 74 0
  27              		.cfi_startproc
  28 0000 08B5     		push	{r3, lr}
  29              		.cfi_def_cfa_offset 8
  30              		.cfi_offset 3, -8
  31              		.cfi_offset 14, -4
  75:Generated_Source\PSoC4/Comm_PM.c **** #if(Comm_SCB_MODE_UNCONFIG_CONST_CFG)
  76:Generated_Source\PSoC4/Comm_PM.c **** 
  77:Generated_Source\PSoC4/Comm_PM.c ****     if(Comm_SCB_WAKE_ENABLE_CHECK)
  32              		.loc 1 77 0
  33 0002 114B     		ldr	r3, .L13
  34 0004 1B78     		ldrb	r3, [r3]
  35 0006 002B     		cmp	r3, #0
  36 0008 15D0     		beq	.L2
  78:Generated_Source\PSoC4/Comm_PM.c ****     {
ARM GAS  C:\Users\TECHCO~1\AppData\Local\Temp\ccQSWV90.s 			page 3


  79:Generated_Source\PSoC4/Comm_PM.c ****         if(Comm_SCB_MODE_I2C_RUNTM_CFG)
  37              		.loc 1 79 0
  38 000a 104B     		ldr	r3, .L13+4
  39 000c 1B78     		ldrb	r3, [r3]
  40 000e 012B     		cmp	r3, #1
  41 0010 02D1     		bne	.L3
  80:Generated_Source\PSoC4/Comm_PM.c ****         {
  81:Generated_Source\PSoC4/Comm_PM.c ****             Comm_I2CSaveConfig();
  42              		.loc 1 81 0
  43 0012 FFF7FEFF 		bl	Comm_I2CSaveConfig
  44              	.LVL0:
  45 0016 16E0     		b	.L1
  46              	.L3:
  82:Generated_Source\PSoC4/Comm_PM.c ****         }
  83:Generated_Source\PSoC4/Comm_PM.c ****         else if(Comm_SCB_MODE_EZI2C_RUNTM_CFG)
  47              		.loc 1 83 0
  48 0018 082B     		cmp	r3, #8
  49 001a 02D1     		bne	.L5
  84:Generated_Source\PSoC4/Comm_PM.c ****         {
  85:Generated_Source\PSoC4/Comm_PM.c ****             Comm_EzI2CSaveConfig();
  50              		.loc 1 85 0
  51 001c FFF7FEFF 		bl	Comm_EzI2CSaveConfig
  52              	.LVL1:
  53 0020 11E0     		b	.L1
  54              	.L5:
  86:Generated_Source\PSoC4/Comm_PM.c ****         }
  87:Generated_Source\PSoC4/Comm_PM.c ****     #if(!Comm_CY_SCBIP_V1)
  88:Generated_Source\PSoC4/Comm_PM.c ****         else if(Comm_SCB_MODE_SPI_RUNTM_CFG)
  55              		.loc 1 88 0
  56 0022 022B     		cmp	r3, #2
  57 0024 02D1     		bne	.L6
  89:Generated_Source\PSoC4/Comm_PM.c ****         {
  90:Generated_Source\PSoC4/Comm_PM.c ****             Comm_SpiSaveConfig();
  58              		.loc 1 90 0
  59 0026 FFF7FEFF 		bl	Comm_SpiSaveConfig
  60              	.LVL2:
  61 002a 0CE0     		b	.L1
  62              	.L6:
  91:Generated_Source\PSoC4/Comm_PM.c ****         }
  92:Generated_Source\PSoC4/Comm_PM.c ****         else if(Comm_SCB_MODE_UART_RUNTM_CFG)
  63              		.loc 1 92 0
  64 002c 042B     		cmp	r3, #4
  65 002e 0AD1     		bne	.L1
  93:Generated_Source\PSoC4/Comm_PM.c ****         {
  94:Generated_Source\PSoC4/Comm_PM.c ****             Comm_UartSaveConfig();
  66              		.loc 1 94 0
  67 0030 FFF7FEFF 		bl	Comm_UartSaveConfig
  68              	.LVL3:
  69 0034 07E0     		b	.L1
  70              	.L2:
  95:Generated_Source\PSoC4/Comm_PM.c ****         }
  96:Generated_Source\PSoC4/Comm_PM.c ****     #endif /* (!Comm_CY_SCBIP_V1) */
  97:Generated_Source\PSoC4/Comm_PM.c ****         else
  98:Generated_Source\PSoC4/Comm_PM.c ****         {
  99:Generated_Source\PSoC4/Comm_PM.c ****             /* Unknown mode */
 100:Generated_Source\PSoC4/Comm_PM.c ****         }
 101:Generated_Source\PSoC4/Comm_PM.c ****     }
ARM GAS  C:\Users\TECHCO~1\AppData\Local\Temp\ccQSWV90.s 			page 4


 102:Generated_Source\PSoC4/Comm_PM.c ****     else
 103:Generated_Source\PSoC4/Comm_PM.c ****     {
 104:Generated_Source\PSoC4/Comm_PM.c ****         Comm_backup.enableState = (uint8) Comm_GET_CTRL_ENABLED;
  71              		.loc 1 104 0
  72 0036 064B     		ldr	r3, .L13+8
  73 0038 064A     		ldr	r2, .L13+12
  74 003a 1B68     		ldr	r3, [r3]
  75 003c DB0F     		lsr	r3, r3, #31
  76 003e 1370     		strb	r3, [r2]
 105:Generated_Source\PSoC4/Comm_PM.c **** 
 106:Generated_Source\PSoC4/Comm_PM.c ****         if(0u != Comm_backup.enableState)
  77              		.loc 1 106 0
  78 0040 01D0     		beq	.L1
 107:Generated_Source\PSoC4/Comm_PM.c ****         {
 108:Generated_Source\PSoC4/Comm_PM.c ****             Comm_Stop();
  79              		.loc 1 108 0
  80 0042 FFF7FEFF 		bl	Comm_Stop
  81              	.LVL4:
  82              	.L1:
 109:Generated_Source\PSoC4/Comm_PM.c ****         }
 110:Generated_Source\PSoC4/Comm_PM.c ****     }
 111:Generated_Source\PSoC4/Comm_PM.c **** 
 112:Generated_Source\PSoC4/Comm_PM.c **** #else
 113:Generated_Source\PSoC4/Comm_PM.c **** 
 114:Generated_Source\PSoC4/Comm_PM.c ****     #if (Comm_SCB_MODE_I2C_CONST_CFG && Comm_I2C_WAKE_ENABLE_CONST)
 115:Generated_Source\PSoC4/Comm_PM.c ****         Comm_I2CSaveConfig();
 116:Generated_Source\PSoC4/Comm_PM.c **** 
 117:Generated_Source\PSoC4/Comm_PM.c ****     #elif (Comm_SCB_MODE_EZI2C_CONST_CFG && Comm_EZI2C_WAKE_ENABLE_CONST)
 118:Generated_Source\PSoC4/Comm_PM.c ****         Comm_EzI2CSaveConfig();
 119:Generated_Source\PSoC4/Comm_PM.c **** 
 120:Generated_Source\PSoC4/Comm_PM.c ****     #elif (Comm_SCB_MODE_SPI_CONST_CFG && Comm_SPI_WAKE_ENABLE_CONST)
 121:Generated_Source\PSoC4/Comm_PM.c ****         Comm_SpiSaveConfig();
 122:Generated_Source\PSoC4/Comm_PM.c **** 
 123:Generated_Source\PSoC4/Comm_PM.c ****     #elif (Comm_SCB_MODE_UART_CONST_CFG && Comm_UART_WAKE_ENABLE_CONST)
 124:Generated_Source\PSoC4/Comm_PM.c ****         Comm_UartSaveConfig();
 125:Generated_Source\PSoC4/Comm_PM.c **** 
 126:Generated_Source\PSoC4/Comm_PM.c ****     #else
 127:Generated_Source\PSoC4/Comm_PM.c **** 
 128:Generated_Source\PSoC4/Comm_PM.c ****         Comm_backup.enableState = (uint8) Comm_GET_CTRL_ENABLED;
 129:Generated_Source\PSoC4/Comm_PM.c **** 
 130:Generated_Source\PSoC4/Comm_PM.c ****         if(0u != Comm_backup.enableState)
 131:Generated_Source\PSoC4/Comm_PM.c ****         {
 132:Generated_Source\PSoC4/Comm_PM.c ****             Comm_Stop();
 133:Generated_Source\PSoC4/Comm_PM.c ****         }
 134:Generated_Source\PSoC4/Comm_PM.c **** 
 135:Generated_Source\PSoC4/Comm_PM.c ****     #endif /* defined (Comm_SCB_MODE_I2C_CONST_CFG) && (Comm_I2C_WAKE_ENABLE_CONST) */
 136:Generated_Source\PSoC4/Comm_PM.c **** 
 137:Generated_Source\PSoC4/Comm_PM.c **** #endif /* (Comm_SCB_MODE_UNCONFIG_CONST_CFG) */
 138:Generated_Source\PSoC4/Comm_PM.c **** }
  83              		.loc 1 138 0
  84              		@ sp needed
  85 0046 08BD     		pop	{r3, pc}
  86              	.L14:
  87              		.align	2
  88              	.L13:
  89 0048 00000000 		.word	Comm_scbEnableWake
  90 004c 00000000 		.word	Comm_scbMode
ARM GAS  C:\Users\TECHCO~1\AppData\Local\Temp\ccQSWV90.s 			page 5


  91 0050 00000640 		.word	1074135040
  92 0054 00000000 		.word	.LANCHOR0
  93              		.cfi_endproc
  94              	.LFE0:
  95              		.size	Comm_Sleep, .-Comm_Sleep
  96              		.section	.text.Comm_Wakeup,"ax",%progbits
  97              		.align	1
  98              		.global	Comm_Wakeup
  99              		.code	16
 100              		.thumb_func
 101              		.type	Comm_Wakeup, %function
 102              	Comm_Wakeup:
 103              	.LFB1:
 139:Generated_Source\PSoC4/Comm_PM.c **** 
 140:Generated_Source\PSoC4/Comm_PM.c **** 
 141:Generated_Source\PSoC4/Comm_PM.c **** /*******************************************************************************
 142:Generated_Source\PSoC4/Comm_PM.c **** * Function Name: Comm_Wakeup
 143:Generated_Source\PSoC4/Comm_PM.c **** ****************************************************************************//**
 144:Generated_Source\PSoC4/Comm_PM.c **** *
 145:Generated_Source\PSoC4/Comm_PM.c **** *  Prepares the Comm component for Active mode operation after 
 146:Generated_Source\PSoC4/Comm_PM.c **** *  Deep Sleep.
 147:Generated_Source\PSoC4/Comm_PM.c **** *  The “Enable wakeup from Deep Sleep Mode” selection has influence on this 
 148:Generated_Source\PSoC4/Comm_PM.c **** *  function implementation:
 149:Generated_Source\PSoC4/Comm_PM.c **** *  - Checked: restores the component Active mode configuration.
 150:Generated_Source\PSoC4/Comm_PM.c **** *  - Unchecked: enables the component if it was enabled before enter Deep Sleep.
 151:Generated_Source\PSoC4/Comm_PM.c **** *
 152:Generated_Source\PSoC4/Comm_PM.c **** *  This function should not be called after exiting Sleep.
 153:Generated_Source\PSoC4/Comm_PM.c **** *
 154:Generated_Source\PSoC4/Comm_PM.c **** *  \sideeffect
 155:Generated_Source\PSoC4/Comm_PM.c **** *   Calling the Comm_Wakeup() function without first calling the 
 156:Generated_Source\PSoC4/Comm_PM.c **** *   Comm_Sleep() function may produce unexpected behavior.
 157:Generated_Source\PSoC4/Comm_PM.c **** *
 158:Generated_Source\PSoC4/Comm_PM.c **** *******************************************************************************/
 159:Generated_Source\PSoC4/Comm_PM.c **** void Comm_Wakeup(void)
 160:Generated_Source\PSoC4/Comm_PM.c **** {
 104              		.loc 1 160 0
 105              		.cfi_startproc
 106 0000 08B5     		push	{r3, lr}
 107              		.cfi_def_cfa_offset 8
 108              		.cfi_offset 3, -8
 109              		.cfi_offset 14, -4
 161:Generated_Source\PSoC4/Comm_PM.c **** #if(Comm_SCB_MODE_UNCONFIG_CONST_CFG)
 162:Generated_Source\PSoC4/Comm_PM.c **** 
 163:Generated_Source\PSoC4/Comm_PM.c ****     if(Comm_SCB_WAKE_ENABLE_CHECK)
 110              		.loc 1 163 0
 111 0002 104B     		ldr	r3, .L24
 112 0004 1B78     		ldrb	r3, [r3]
 113 0006 002B     		cmp	r3, #0
 114 0008 15D0     		beq	.L16
 164:Generated_Source\PSoC4/Comm_PM.c ****     {
 165:Generated_Source\PSoC4/Comm_PM.c ****         if(Comm_SCB_MODE_I2C_RUNTM_CFG)
 115              		.loc 1 165 0
 116 000a 0F4B     		ldr	r3, .L24+4
 117 000c 1B78     		ldrb	r3, [r3]
 118 000e 012B     		cmp	r3, #1
 119 0010 02D1     		bne	.L17
 166:Generated_Source\PSoC4/Comm_PM.c ****         {
ARM GAS  C:\Users\TECHCO~1\AppData\Local\Temp\ccQSWV90.s 			page 6


 167:Generated_Source\PSoC4/Comm_PM.c ****             Comm_I2CRestoreConfig();
 120              		.loc 1 167 0
 121 0012 FFF7FEFF 		bl	Comm_I2CRestoreConfig
 122              	.LVL5:
 123 0016 14E0     		b	.L15
 124              	.L17:
 168:Generated_Source\PSoC4/Comm_PM.c ****         }
 169:Generated_Source\PSoC4/Comm_PM.c ****         else if(Comm_SCB_MODE_EZI2C_RUNTM_CFG)
 125              		.loc 1 169 0
 126 0018 082B     		cmp	r3, #8
 127 001a 02D1     		bne	.L19
 170:Generated_Source\PSoC4/Comm_PM.c ****         {
 171:Generated_Source\PSoC4/Comm_PM.c ****             Comm_EzI2CRestoreConfig();
 128              		.loc 1 171 0
 129 001c FFF7FEFF 		bl	Comm_EzI2CRestoreConfig
 130              	.LVL6:
 131 0020 0FE0     		b	.L15
 132              	.L19:
 172:Generated_Source\PSoC4/Comm_PM.c ****         }
 173:Generated_Source\PSoC4/Comm_PM.c ****     #if(!Comm_CY_SCBIP_V1)
 174:Generated_Source\PSoC4/Comm_PM.c ****         else if(Comm_SCB_MODE_SPI_RUNTM_CFG)
 133              		.loc 1 174 0
 134 0022 022B     		cmp	r3, #2
 135 0024 02D1     		bne	.L20
 175:Generated_Source\PSoC4/Comm_PM.c ****         {
 176:Generated_Source\PSoC4/Comm_PM.c ****             Comm_SpiRestoreConfig();
 136              		.loc 1 176 0
 137 0026 FFF7FEFF 		bl	Comm_SpiRestoreConfig
 138              	.LVL7:
 139 002a 0AE0     		b	.L15
 140              	.L20:
 177:Generated_Source\PSoC4/Comm_PM.c ****         }
 178:Generated_Source\PSoC4/Comm_PM.c ****         else if(Comm_SCB_MODE_UART_RUNTM_CFG)
 141              		.loc 1 178 0
 142 002c 042B     		cmp	r3, #4
 143 002e 08D1     		bne	.L15
 179:Generated_Source\PSoC4/Comm_PM.c ****         {
 180:Generated_Source\PSoC4/Comm_PM.c ****             Comm_UartRestoreConfig();
 144              		.loc 1 180 0
 145 0030 FFF7FEFF 		bl	Comm_UartRestoreConfig
 146              	.LVL8:
 147 0034 05E0     		b	.L15
 148              	.L16:
 181:Generated_Source\PSoC4/Comm_PM.c ****         }
 182:Generated_Source\PSoC4/Comm_PM.c ****     #endif /* (!Comm_CY_SCBIP_V1) */
 183:Generated_Source\PSoC4/Comm_PM.c ****         else
 184:Generated_Source\PSoC4/Comm_PM.c ****         {
 185:Generated_Source\PSoC4/Comm_PM.c ****             /* Unknown mode */
 186:Generated_Source\PSoC4/Comm_PM.c ****         }
 187:Generated_Source\PSoC4/Comm_PM.c ****     }
 188:Generated_Source\PSoC4/Comm_PM.c ****     else
 189:Generated_Source\PSoC4/Comm_PM.c ****     {
 190:Generated_Source\PSoC4/Comm_PM.c ****         if(0u != Comm_backup.enableState)
 149              		.loc 1 190 0
 150 0036 054B     		ldr	r3, .L24+8
 151 0038 1B78     		ldrb	r3, [r3]
 152 003a 002B     		cmp	r3, #0
ARM GAS  C:\Users\TECHCO~1\AppData\Local\Temp\ccQSWV90.s 			page 7


 153 003c 01D0     		beq	.L15
 191:Generated_Source\PSoC4/Comm_PM.c ****         {
 192:Generated_Source\PSoC4/Comm_PM.c ****             Comm_Enable();
 154              		.loc 1 192 0
 155 003e FFF7FEFF 		bl	Comm_Enable
 156              	.LVL9:
 157              	.L15:
 193:Generated_Source\PSoC4/Comm_PM.c ****         }
 194:Generated_Source\PSoC4/Comm_PM.c ****     }
 195:Generated_Source\PSoC4/Comm_PM.c **** 
 196:Generated_Source\PSoC4/Comm_PM.c **** #else
 197:Generated_Source\PSoC4/Comm_PM.c **** 
 198:Generated_Source\PSoC4/Comm_PM.c ****     #if (Comm_SCB_MODE_I2C_CONST_CFG  && Comm_I2C_WAKE_ENABLE_CONST)
 199:Generated_Source\PSoC4/Comm_PM.c ****         Comm_I2CRestoreConfig();
 200:Generated_Source\PSoC4/Comm_PM.c **** 
 201:Generated_Source\PSoC4/Comm_PM.c ****     #elif (Comm_SCB_MODE_EZI2C_CONST_CFG && Comm_EZI2C_WAKE_ENABLE_CONST)
 202:Generated_Source\PSoC4/Comm_PM.c ****         Comm_EzI2CRestoreConfig();
 203:Generated_Source\PSoC4/Comm_PM.c **** 
 204:Generated_Source\PSoC4/Comm_PM.c ****     #elif (Comm_SCB_MODE_SPI_CONST_CFG && Comm_SPI_WAKE_ENABLE_CONST)
 205:Generated_Source\PSoC4/Comm_PM.c ****         Comm_SpiRestoreConfig();
 206:Generated_Source\PSoC4/Comm_PM.c **** 
 207:Generated_Source\PSoC4/Comm_PM.c ****     #elif (Comm_SCB_MODE_UART_CONST_CFG && Comm_UART_WAKE_ENABLE_CONST)
 208:Generated_Source\PSoC4/Comm_PM.c ****         Comm_UartRestoreConfig();
 209:Generated_Source\PSoC4/Comm_PM.c **** 
 210:Generated_Source\PSoC4/Comm_PM.c ****     #else
 211:Generated_Source\PSoC4/Comm_PM.c **** 
 212:Generated_Source\PSoC4/Comm_PM.c ****         if(0u != Comm_backup.enableState)
 213:Generated_Source\PSoC4/Comm_PM.c ****         {
 214:Generated_Source\PSoC4/Comm_PM.c ****             Comm_Enable();
 215:Generated_Source\PSoC4/Comm_PM.c ****         }
 216:Generated_Source\PSoC4/Comm_PM.c **** 
 217:Generated_Source\PSoC4/Comm_PM.c ****     #endif /* (Comm_I2C_WAKE_ENABLE_CONST) */
 218:Generated_Source\PSoC4/Comm_PM.c **** 
 219:Generated_Source\PSoC4/Comm_PM.c **** #endif /* (Comm_SCB_MODE_UNCONFIG_CONST_CFG) */
 220:Generated_Source\PSoC4/Comm_PM.c **** }
 158              		.loc 1 220 0
 159              		@ sp needed
 160 0042 08BD     		pop	{r3, pc}
 161              	.L25:
 162              		.align	2
 163              	.L24:
 164 0044 00000000 		.word	Comm_scbEnableWake
 165 0048 00000000 		.word	Comm_scbMode
 166 004c 00000000 		.word	.LANCHOR0
 167              		.cfi_endproc
 168              	.LFE1:
 169              		.size	Comm_Wakeup, .-Comm_Wakeup
 170              		.global	Comm_backup
 171              		.bss
 172              		.set	.LANCHOR0,. + 0
 173              		.type	Comm_backup, %object
 174              		.size	Comm_backup, 1
 175              	Comm_backup:
 176 0000 00       		.space	1
 177              		.text
 178              	.Letext0:
 179              		.file 2 "Generated_Source\\PSoC4/cytypes.h"
ARM GAS  C:\Users\TECHCO~1\AppData\Local\Temp\ccQSWV90.s 			page 8


 180              		.file 3 "Generated_Source\\PSoC4\\Comm.h"
 181              		.file 4 "Generated_Source\\PSoC4\\Comm_PVT.h"
 182              		.file 5 "Generated_Source\\PSoC4\\Comm_I2C_PVT.h"
 183              		.file 6 "Generated_Source\\PSoC4\\Comm_EZI2C_PVT.h"
 184              		.file 7 "Generated_Source\\PSoC4\\Comm_SPI_UART_PVT.h"