ARM GAS  C:\Users\TECHCO~1\AppData\Local\Temp\cceSNk65.s 			page 1


   1              		.cpu cortex-m0
   2              		.fpu softvfp
   3              		.eabi_attribute 20, 1
   4              		.eabi_attribute 21, 1
   5              		.eabi_attribute 23, 3
   6              		.eabi_attribute 24, 1
   7              		.eabi_attribute 25, 1
   8              		.eabi_attribute 26, 1
   9              		.eabi_attribute 30, 4
  10              		.eabi_attribute 34, 0
  11              		.eabi_attribute 18, 4
  12              		.code	16
  13              		.file	"Comm_I2C_SLAVE.c"
  14              		.text
  15              	.Ltext0:
  16              		.cfi_sections	.debug_frame
  17              		.section	.text.Comm_SetI2cAddressCustomInterruptHandler,"ax",%progbits
  18              		.align	1
  19              		.global	Comm_SetI2cAddressCustomInterruptHandler
  20              		.code	16
  21              		.thumb_func
  22              		.type	Comm_SetI2cAddressCustomInterruptHandler, %function
  23              	Comm_SetI2cAddressCustomInterruptHandler:
  24              	.LFB0:
  25              		.file 1 "Generated_Source\\PSoC4\\Comm_I2C_SLAVE.c"
   1:Generated_Source\PSoC4/Comm_I2C_SLAVE.c **** /***************************************************************************//**
   2:Generated_Source\PSoC4/Comm_I2C_SLAVE.c **** * \file Comm_I2C_SLAVE.c
   3:Generated_Source\PSoC4/Comm_I2C_SLAVE.c **** * \version 3.20
   4:Generated_Source\PSoC4/Comm_I2C_SLAVE.c **** *
   5:Generated_Source\PSoC4/Comm_I2C_SLAVE.c **** * \brief
   6:Generated_Source\PSoC4/Comm_I2C_SLAVE.c **** *  This file provides the source code to the API for the SCB Component in
   7:Generated_Source\PSoC4/Comm_I2C_SLAVE.c **** *  I2C Slave mode.
   8:Generated_Source\PSoC4/Comm_I2C_SLAVE.c **** *
   9:Generated_Source\PSoC4/Comm_I2C_SLAVE.c **** * Note:
  10:Generated_Source\PSoC4/Comm_I2C_SLAVE.c **** *
  11:Generated_Source\PSoC4/Comm_I2C_SLAVE.c **** *******************************************************************************
  12:Generated_Source\PSoC4/Comm_I2C_SLAVE.c **** * \copyright
  13:Generated_Source\PSoC4/Comm_I2C_SLAVE.c **** * Copyright 2013-2016, Cypress Semiconductor Corporation.  All rights reserved.
  14:Generated_Source\PSoC4/Comm_I2C_SLAVE.c **** * You may use this file only in accordance with the license, terms, conditions,
  15:Generated_Source\PSoC4/Comm_I2C_SLAVE.c **** * disclaimers, and limitations in the end user license agreement accompanying
  16:Generated_Source\PSoC4/Comm_I2C_SLAVE.c **** * the software package with which this file was provided.
  17:Generated_Source\PSoC4/Comm_I2C_SLAVE.c **** *******************************************************************************/
  18:Generated_Source\PSoC4/Comm_I2C_SLAVE.c **** 
  19:Generated_Source\PSoC4/Comm_I2C_SLAVE.c **** #include "Comm_I2C_PVT.h"
  20:Generated_Source\PSoC4/Comm_I2C_SLAVE.c **** 
  21:Generated_Source\PSoC4/Comm_I2C_SLAVE.c **** #if(Comm_I2C_SLAVE_CONST)
  22:Generated_Source\PSoC4/Comm_I2C_SLAVE.c **** 
  23:Generated_Source\PSoC4/Comm_I2C_SLAVE.c **** /***************************************
  24:Generated_Source\PSoC4/Comm_I2C_SLAVE.c **** *      I2C Slave Private Vars
  25:Generated_Source\PSoC4/Comm_I2C_SLAVE.c **** ***************************************/
  26:Generated_Source\PSoC4/Comm_I2C_SLAVE.c **** 
  27:Generated_Source\PSoC4/Comm_I2C_SLAVE.c **** volatile uint8 Comm_slStatus;          /* Slave Status */
  28:Generated_Source\PSoC4/Comm_I2C_SLAVE.c **** 
  29:Generated_Source\PSoC4/Comm_I2C_SLAVE.c **** /* Receive buffer variables */
  30:Generated_Source\PSoC4/Comm_I2C_SLAVE.c **** volatile uint8 * Comm_slWrBufPtr;      /* Pointer to Receive buffer  */
  31:Generated_Source\PSoC4/Comm_I2C_SLAVE.c **** volatile uint32  Comm_slWrBufSize;     /* Slave Receive buffer size  */
  32:Generated_Source\PSoC4/Comm_I2C_SLAVE.c **** volatile uint32  Comm_slWrBufIndex;    /* Slave Receive buffer Index */
ARM GAS  C:\Users\TECHCO~1\AppData\Local\Temp\cceSNk65.s 			page 2


  33:Generated_Source\PSoC4/Comm_I2C_SLAVE.c **** 
  34:Generated_Source\PSoC4/Comm_I2C_SLAVE.c **** /* Transmit buffer variables */
  35:Generated_Source\PSoC4/Comm_I2C_SLAVE.c **** volatile uint8 * Comm_slRdBufPtr;      /* Pointer to Transmit buffer  */
  36:Generated_Source\PSoC4/Comm_I2C_SLAVE.c **** volatile uint32  Comm_slRdBufSize;     /* Slave Transmit buffer size  */
  37:Generated_Source\PSoC4/Comm_I2C_SLAVE.c **** volatile uint32  Comm_slRdBufIndex;    /* Slave Transmit buffer Index */
  38:Generated_Source\PSoC4/Comm_I2C_SLAVE.c **** volatile uint32  Comm_slRdBufIndexTmp; /* Slave Transmit buffer Index Tmp */
  39:Generated_Source\PSoC4/Comm_I2C_SLAVE.c **** volatile uint8   Comm_slOverFlowCount; /* Slave Transmit Overflow counter */
  40:Generated_Source\PSoC4/Comm_I2C_SLAVE.c **** 
  41:Generated_Source\PSoC4/Comm_I2C_SLAVE.c **** #if (Comm_I2C_CUSTOM_ADDRESS_HANDLER_CONST)
  42:Generated_Source\PSoC4/Comm_I2C_SLAVE.c **** 
  43:Generated_Source\PSoC4/Comm_I2C_SLAVE.c ****     uint32 (*Comm_customAddressHandler)(void) = NULL;
  44:Generated_Source\PSoC4/Comm_I2C_SLAVE.c **** 
  45:Generated_Source\PSoC4/Comm_I2C_SLAVE.c ****     /*******************************************************************************
  46:Generated_Source\PSoC4/Comm_I2C_SLAVE.c ****     * Function Name: Comm_SetI2cAddressCustomInterruptHandler
  47:Generated_Source\PSoC4/Comm_I2C_SLAVE.c ****     ****************************************************************************//**
  48:Generated_Source\PSoC4/Comm_I2C_SLAVE.c ****     *
  49:Generated_Source\PSoC4/Comm_I2C_SLAVE.c ****     *  Registers a function to be called by the I2C slave interrupt handler during
  50:Generated_Source\PSoC4/Comm_I2C_SLAVE.c ****     *  the I2C interrupt address processing. This function should be used when
  51:Generated_Source\PSoC4/Comm_I2C_SLAVE.c ****     *  multiple I2C addresses need to be decoded or general call address supported.
  52:Generated_Source\PSoC4/Comm_I2C_SLAVE.c ****     *  The registered function must return decision whether to ACK or NACK address.
  53:Generated_Source\PSoC4/Comm_I2C_SLAVE.c ****     *  Only one I2C address handler is supported, which is the function provided
  54:Generated_Source\PSoC4/Comm_I2C_SLAVE.c ****     *  by the most recent call.
  55:Generated_Source\PSoC4/Comm_I2C_SLAVE.c ****     *  At initialization time no I2C address handler is registered.
  56:Generated_Source\PSoC4/Comm_I2C_SLAVE.c ****     *
  57:Generated_Source\PSoC4/Comm_I2C_SLAVE.c ****     *  \param func: Pointer to the function to register.
  58:Generated_Source\PSoC4/Comm_I2C_SLAVE.c ****     *   The value NULL indicates to remove the current custom interrupt
  59:Generated_Source\PSoC4/Comm_I2C_SLAVE.c ****     *   handler.
  60:Generated_Source\PSoC4/Comm_I2C_SLAVE.c ****     *   The registered function must return decision whether to ACK or NACK 
  61:Generated_Source\PSoC4/Comm_I2C_SLAVE.c ****     *   accepted address: 0 – ACK, other values – NACK. The registered 
  62:Generated_Source\PSoC4/Comm_I2C_SLAVE.c ****     *   callback function does not perform the ACK/NACK, this operation is 
  63:Generated_Source\PSoC4/Comm_I2C_SLAVE.c ****     *   performed in the I2C ISR.
  64:Generated_Source\PSoC4/Comm_I2C_SLAVE.c ****     *
  65:Generated_Source\PSoC4/Comm_I2C_SLAVE.c ****     *******************************************************************************/
  66:Generated_Source\PSoC4/Comm_I2C_SLAVE.c ****     void Comm_SetI2cAddressCustomInterruptHandler(uint32 (*func) (void))
  67:Generated_Source\PSoC4/Comm_I2C_SLAVE.c ****     {
  26              		.loc 1 67 0
  27              		.cfi_startproc
  28              	.LVL0:
  68:Generated_Source\PSoC4/Comm_I2C_SLAVE.c ****         /* Register custom address handler */
  69:Generated_Source\PSoC4/Comm_I2C_SLAVE.c ****         Comm_customAddressHandler = func;
  29              		.loc 1 69 0
  30 0000 014B     		ldr	r3, .L2
  70:Generated_Source\PSoC4/Comm_I2C_SLAVE.c ****     }
  31              		.loc 1 70 0
  32              		@ sp needed
  69:Generated_Source\PSoC4/Comm_I2C_SLAVE.c ****     }
  33              		.loc 1 69 0
  34 0002 1860     		str	r0, [r3]
  35              		.loc 1 70 0
  36 0004 7047     		bx	lr
  37              	.L3:
  38 0006 C046     		.align	2
  39              	.L2:
  40 0008 00000000 		.word	.LANCHOR0
  41              		.cfi_endproc
  42              	.LFE0:
  43              		.size	Comm_SetI2cAddressCustomInterruptHandler, .-Comm_SetI2cAddressCustomInterruptHandler
ARM GAS  C:\Users\TECHCO~1\AppData\Local\Temp\cceSNk65.s 			page 3


  44              		.section	.text.Comm_I2CSlaveStatus,"ax",%progbits
  45              		.align	1
  46              		.global	Comm_I2CSlaveStatus
  47              		.code	16
  48              		.thumb_func
  49              		.type	Comm_I2CSlaveStatus, %function
  50              	Comm_I2CSlaveStatus:
  51              	.LFB1:
  71:Generated_Source\PSoC4/Comm_I2C_SLAVE.c **** #endif /* (Comm_I2C_CUSTOM_ADDRESS_HANDLER_CONST) */
  72:Generated_Source\PSoC4/Comm_I2C_SLAVE.c **** 
  73:Generated_Source\PSoC4/Comm_I2C_SLAVE.c **** 
  74:Generated_Source\PSoC4/Comm_I2C_SLAVE.c **** /*******************************************************************************
  75:Generated_Source\PSoC4/Comm_I2C_SLAVE.c **** * Function Name: Comm_I2CSlaveStatus
  76:Generated_Source\PSoC4/Comm_I2C_SLAVE.c **** ****************************************************************************//**
  77:Generated_Source\PSoC4/Comm_I2C_SLAVE.c **** *
  78:Generated_Source\PSoC4/Comm_I2C_SLAVE.c **** *  Returns the I2C slave's communication status.
  79:Generated_Source\PSoC4/Comm_I2C_SLAVE.c **** *
  80:Generated_Source\PSoC4/Comm_I2C_SLAVE.c **** * \return
  81:Generated_Source\PSoC4/Comm_I2C_SLAVE.c **** *  Current status of I2C slave.
  82:Generated_Source\PSoC4/Comm_I2C_SLAVE.c **** *  This status incorporates read and write status constants. 
  83:Generated_Source\PSoC4/Comm_I2C_SLAVE.c **** *  Each constant is a bit field value. The value returned may have multiple 
  84:Generated_Source\PSoC4/Comm_I2C_SLAVE.c **** *  bits set to indicate the status of the read or write transfer.
  85:Generated_Source\PSoC4/Comm_I2C_SLAVE.c **** *   - Comm_I2C_SSTAT_RD_CMPLT - Slave read transfer complete. 
  86:Generated_Source\PSoC4/Comm_I2C_SLAVE.c **** *     Set when master indicates it is done reading by sending a NAK.
  87:Generated_Source\PSoC4/Comm_I2C_SLAVE.c **** *     The read error condition status bit must be checked to ensure that 
  88:Generated_Source\PSoC4/Comm_I2C_SLAVE.c **** *     the read transfer was completed successfully.
  89:Generated_Source\PSoC4/Comm_I2C_SLAVE.c **** *   - Comm_I2C_SSTAT_RD_BUSY - Slave read transfer is in progress. 
  90:Generated_Source\PSoC4/Comm_I2C_SLAVE.c **** *     Set when master addresses slave with a read, cleared when 
  91:Generated_Source\PSoC4/Comm_I2C_SLAVE.c **** *    Comm_I2C_SSTAT_RD_CMPLT is set.
  92:Generated_Source\PSoC4/Comm_I2C_SLAVE.c **** *   - Comm_I2C_SSTAT_RD_OVFL - Master attempted to read more bytes
  93:Generated_Source\PSoC4/Comm_I2C_SLAVE.c **** *     than are in buffer. Slave continually returns 0xFF byte in this case.
  94:Generated_Source\PSoC4/Comm_I2C_SLAVE.c **** *   - Comm_I2C_SSTAT_RD_ERR - Slave captured error on the bus during 
  95:Generated_Source\PSoC4/Comm_I2C_SLAVE.c **** *     a read transfer. The sources of error are: misplaced Start or Stop 
  96:Generated_Source\PSoC4/Comm_I2C_SLAVE.c **** *     condition or lost arbitration while slave drives SDA.
  97:Generated_Source\PSoC4/Comm_I2C_SLAVE.c **** *   - Comm_I2C_SSTAT_WR_CMPLT - Slave write transfer complete. 
  98:Generated_Source\PSoC4/Comm_I2C_SLAVE.c **** *     Set at reception of a Stop or ReStart condition. The write error condition
  99:Generated_Source\PSoC4/Comm_I2C_SLAVE.c **** *     status bit must be checked to ensure that write transfer was completed
 100:Generated_Source\PSoC4/Comm_I2C_SLAVE.c **** *     successfully.
 101:Generated_Source\PSoC4/Comm_I2C_SLAVE.c **** *   - Comm_I2C_SSTAT_WR_BUSY - Slave write transfer is in progress. 
 102:Generated_Source\PSoC4/Comm_I2C_SLAVE.c **** *     Set when the master addresses the slave with a write, cleared when 
 103:Generated_Source\PSoC4/Comm_I2C_SLAVE.c **** *    Comm_I2C_SSTAT_WR_CMPLT is set.
 104:Generated_Source\PSoC4/Comm_I2C_SLAVE.c **** *   - Comm_I2C_SSTAT_WR_OVFL - Master attempted to write past end of 
 105:Generated_Source\PSoC4/Comm_I2C_SLAVE.c **** *     buffer. Further bytes are ignored.
 106:Generated_Source\PSoC4/Comm_I2C_SLAVE.c **** *   - Comm_I2C_SSTAT_WR_ERR - Slave captured error on the bus during
 107:Generated_Source\PSoC4/Comm_I2C_SLAVE.c **** *     write transfer. The sources of error are: misplaced Start or Stop condition
 108:Generated_Source\PSoC4/Comm_I2C_SLAVE.c **** *     or lost arbitration while slave drives SDA.
 109:Generated_Source\PSoC4/Comm_I2C_SLAVE.c **** *     The write buffer may contain invalid bytes or part of the data transfer when 
 110:Generated_Source\PSoC4/Comm_I2C_SLAVE.c **** *     Comm_I2C_SSTAT_WR_ERR is set. It is recommended to discard write 
 111:Generated_Source\PSoC4/Comm_I2C_SLAVE.c **** *     buffer content in this case.
 112:Generated_Source\PSoC4/Comm_I2C_SLAVE.c **** *
 113:Generated_Source\PSoC4/Comm_I2C_SLAVE.c **** * \globalvars
 114:Generated_Source\PSoC4/Comm_I2C_SLAVE.c **** *  Comm_slStatus  - used to store current status of I2C slave.
 115:Generated_Source\PSoC4/Comm_I2C_SLAVE.c **** *
 116:Generated_Source\PSoC4/Comm_I2C_SLAVE.c **** *******************************************************************************/
 117:Generated_Source\PSoC4/Comm_I2C_SLAVE.c **** uint32 Comm_I2CSlaveStatus(void)
 118:Generated_Source\PSoC4/Comm_I2C_SLAVE.c **** {
  52              		.loc 1 118 0
ARM GAS  C:\Users\TECHCO~1\AppData\Local\Temp\cceSNk65.s 			page 4


  53              		.cfi_startproc
 119:Generated_Source\PSoC4/Comm_I2C_SLAVE.c ****     return((uint32) Comm_slStatus);
  54              		.loc 1 119 0
  55 0000 014B     		ldr	r3, .L5
 120:Generated_Source\PSoC4/Comm_I2C_SLAVE.c **** }
  56              		.loc 1 120 0
  57              		@ sp needed
 119:Generated_Source\PSoC4/Comm_I2C_SLAVE.c ****     return((uint32) Comm_slStatus);
  58              		.loc 1 119 0
  59 0002 1878     		ldrb	r0, [r3]
  60 0004 C0B2     		uxtb	r0, r0
  61              		.loc 1 120 0
  62 0006 7047     		bx	lr
  63              	.L6:
  64              		.align	2
  65              	.L5:
  66 0008 00000000 		.word	Comm_slStatus
  67              		.cfi_endproc
  68              	.LFE1:
  69              		.size	Comm_I2CSlaveStatus, .-Comm_I2CSlaveStatus
  70              		.section	.text.Comm_I2CSlaveClearReadStatus,"ax",%progbits
  71              		.align	1
  72              		.global	Comm_I2CSlaveClearReadStatus
  73              		.code	16
  74              		.thumb_func
  75              		.type	Comm_I2CSlaveClearReadStatus, %function
  76              	Comm_I2CSlaveClearReadStatus:
  77              	.LFB2:
 121:Generated_Source\PSoC4/Comm_I2C_SLAVE.c **** 
 122:Generated_Source\PSoC4/Comm_I2C_SLAVE.c **** 
 123:Generated_Source\PSoC4/Comm_I2C_SLAVE.c **** /*******************************************************************************
 124:Generated_Source\PSoC4/Comm_I2C_SLAVE.c **** * Function Name: Comm_I2CSlaveClearReadStatus
 125:Generated_Source\PSoC4/Comm_I2C_SLAVE.c **** ****************************************************************************//**
 126:Generated_Source\PSoC4/Comm_I2C_SLAVE.c **** *
 127:Generated_Source\PSoC4/Comm_I2C_SLAVE.c **** *  Clears the read status flags and returns their values. No other status flags
 128:Generated_Source\PSoC4/Comm_I2C_SLAVE.c **** *  are affected.
 129:Generated_Source\PSoC4/Comm_I2C_SLAVE.c **** *
 130:Generated_Source\PSoC4/Comm_I2C_SLAVE.c **** * \return
 131:Generated_Source\PSoC4/Comm_I2C_SLAVE.c **** *  Current read status of slave. See the SCB_I2CSlaveStatus() function for 
 132:Generated_Source\PSoC4/Comm_I2C_SLAVE.c **** *  constants.
 133:Generated_Source\PSoC4/Comm_I2C_SLAVE.c **** *
 134:Generated_Source\PSoC4/Comm_I2C_SLAVE.c **** * \sideeffect
 135:Generated_Source\PSoC4/Comm_I2C_SLAVE.c **** *  This function does not clear Comm_I2C_SSTAT_RD_BUSY.
 136:Generated_Source\PSoC4/Comm_I2C_SLAVE.c **** *
 137:Generated_Source\PSoC4/Comm_I2C_SLAVE.c **** * \globalvars
 138:Generated_Source\PSoC4/Comm_I2C_SLAVE.c **** *  Comm_slStatus  - used to store current status of I2C slave.
 139:Generated_Source\PSoC4/Comm_I2C_SLAVE.c **** *
 140:Generated_Source\PSoC4/Comm_I2C_SLAVE.c **** *******************************************************************************/
 141:Generated_Source\PSoC4/Comm_I2C_SLAVE.c **** uint32 Comm_I2CSlaveClearReadStatus(void)
 142:Generated_Source\PSoC4/Comm_I2C_SLAVE.c **** {
  78              		.loc 1 142 0
  79              		.cfi_startproc
  80 0000 10B5     		push	{r4, lr}
  81              		.cfi_def_cfa_offset 8
  82              		.cfi_offset 4, -8
  83              		.cfi_offset 14, -4
 143:Generated_Source\PSoC4/Comm_I2C_SLAVE.c ****     uint32 status;
ARM GAS  C:\Users\TECHCO~1\AppData\Local\Temp\cceSNk65.s 			page 5


 144:Generated_Source\PSoC4/Comm_I2C_SLAVE.c **** 
 145:Generated_Source\PSoC4/Comm_I2C_SLAVE.c ****     Comm_DisableInt();  /* Lock from interruption */
  84              		.loc 1 145 0
  85 0002 0A20     		mov	r0, #10
  86 0004 FFF7FEFF 		bl	CyIntDisable
  87              	.LVL1:
 146:Generated_Source\PSoC4/Comm_I2C_SLAVE.c **** 
 147:Generated_Source\PSoC4/Comm_I2C_SLAVE.c ****     /* Mask of transfer complete flag and error status */
 148:Generated_Source\PSoC4/Comm_I2C_SLAVE.c ****     status = ((uint32) Comm_slStatus & Comm_I2C_SSTAT_RD_MASK);
 149:Generated_Source\PSoC4/Comm_I2C_SLAVE.c ****     Comm_slStatus &= (uint8) ~Comm_I2C_SSTAT_RD_CLEAR;
  88              		.loc 1 149 0
  89 0008 0D21     		mov	r1, #13
 148:Generated_Source\PSoC4/Comm_I2C_SLAVE.c ****     Comm_slStatus &= (uint8) ~Comm_I2C_SSTAT_RD_CLEAR;
  90              		.loc 1 148 0
  91 000a 064B     		ldr	r3, .L8
 150:Generated_Source\PSoC4/Comm_I2C_SLAVE.c **** 
 151:Generated_Source\PSoC4/Comm_I2C_SLAVE.c ****     Comm_EnableInt();   /* Release lock */
 152:Generated_Source\PSoC4/Comm_I2C_SLAVE.c **** 
 153:Generated_Source\PSoC4/Comm_I2C_SLAVE.c ****     return(status);
 154:Generated_Source\PSoC4/Comm_I2C_SLAVE.c **** }
  92              		.loc 1 154 0
  93              		@ sp needed
 148:Generated_Source\PSoC4/Comm_I2C_SLAVE.c ****     Comm_slStatus &= (uint8) ~Comm_I2C_SSTAT_RD_CLEAR;
  94              		.loc 1 148 0
  95 000c 1878     		ldrb	r0, [r3]
 149:Generated_Source\PSoC4/Comm_I2C_SLAVE.c **** 
  96              		.loc 1 149 0
  97 000e 1A78     		ldrb	r2, [r3]
 148:Generated_Source\PSoC4/Comm_I2C_SLAVE.c ****     Comm_slStatus &= (uint8) ~Comm_I2C_SSTAT_RD_CLEAR;
  98              		.loc 1 148 0
  99 0010 C4B2     		uxtb	r4, r0
 100              	.LVL2:
 149:Generated_Source\PSoC4/Comm_I2C_SLAVE.c **** 
 101              		.loc 1 149 0
 102 0012 8A43     		bic	r2, r1
 151:Generated_Source\PSoC4/Comm_I2C_SLAVE.c **** 
 103              		.loc 1 151 0
 104 0014 0A20     		mov	r0, #10
 149:Generated_Source\PSoC4/Comm_I2C_SLAVE.c **** 
 105              		.loc 1 149 0
 106 0016 1A70     		strb	r2, [r3]
 151:Generated_Source\PSoC4/Comm_I2C_SLAVE.c **** 
 107              		.loc 1 151 0
 108 0018 FFF7FEFF 		bl	CyIntEnable
 109              	.LVL3:
 148:Generated_Source\PSoC4/Comm_I2C_SLAVE.c ****     Comm_slStatus &= (uint8) ~Comm_I2C_SSTAT_RD_CLEAR;
 110              		.loc 1 148 0
 111 001c 0F20     		mov	r0, #15
 112 001e 2040     		and	r0, r4
 113              	.LVL4:
 114              		.loc 1 154 0
 115 0020 10BD     		pop	{r4, pc}
 116              	.L9:
 117 0022 C046     		.align	2
 118              	.L8:
 119 0024 00000000 		.word	Comm_slStatus
 120              		.cfi_endproc
ARM GAS  C:\Users\TECHCO~1\AppData\Local\Temp\cceSNk65.s 			page 6


 121              	.LFE2:
 122              		.size	Comm_I2CSlaveClearReadStatus, .-Comm_I2CSlaveClearReadStatus
 123              		.section	.text.Comm_I2CSlaveClearWriteStatus,"ax",%progbits
 124              		.align	1
 125              		.global	Comm_I2CSlaveClearWriteStatus
 126              		.code	16
 127              		.thumb_func
 128              		.type	Comm_I2CSlaveClearWriteStatus, %function
 129              	Comm_I2CSlaveClearWriteStatus:
 130              	.LFB3:
 155:Generated_Source\PSoC4/Comm_I2C_SLAVE.c **** 
 156:Generated_Source\PSoC4/Comm_I2C_SLAVE.c **** 
 157:Generated_Source\PSoC4/Comm_I2C_SLAVE.c **** /*******************************************************************************
 158:Generated_Source\PSoC4/Comm_I2C_SLAVE.c **** * Function Name: Comm_I2CSlaveClearWriteStatus
 159:Generated_Source\PSoC4/Comm_I2C_SLAVE.c **** ****************************************************************************//**
 160:Generated_Source\PSoC4/Comm_I2C_SLAVE.c **** *
 161:Generated_Source\PSoC4/Comm_I2C_SLAVE.c **** *  Clears the write status flags and returns their values. No other status flags
 162:Generated_Source\PSoC4/Comm_I2C_SLAVE.c **** *  are affected.
 163:Generated_Source\PSoC4/Comm_I2C_SLAVE.c **** *
 164:Generated_Source\PSoC4/Comm_I2C_SLAVE.c **** * \return
 165:Generated_Source\PSoC4/Comm_I2C_SLAVE.c **** *  Current write status of slave. See the SCB_I2CSlaveStatus() function 
 166:Generated_Source\PSoC4/Comm_I2C_SLAVE.c **** *  for constants.
 167:Generated_Source\PSoC4/Comm_I2C_SLAVE.c **** *
 168:Generated_Source\PSoC4/Comm_I2C_SLAVE.c **** * \sideeffect
 169:Generated_Source\PSoC4/Comm_I2C_SLAVE.c **** *  This function does not clear Comm_I2C_SSTAT_WR_BUSY.*
 170:Generated_Source\PSoC4/Comm_I2C_SLAVE.c **** *
 171:Generated_Source\PSoC4/Comm_I2C_SLAVE.c **** * \globalvars
 172:Generated_Source\PSoC4/Comm_I2C_SLAVE.c **** *  Comm_slStatus  - used to store current status of I2C slave.
 173:Generated_Source\PSoC4/Comm_I2C_SLAVE.c **** *
 174:Generated_Source\PSoC4/Comm_I2C_SLAVE.c **** *******************************************************************************/
 175:Generated_Source\PSoC4/Comm_I2C_SLAVE.c **** uint32 Comm_I2CSlaveClearWriteStatus(void)
 176:Generated_Source\PSoC4/Comm_I2C_SLAVE.c **** {
 131              		.loc 1 176 0
 132              		.cfi_startproc
 133 0000 10B5     		push	{r4, lr}
 134              		.cfi_def_cfa_offset 8
 135              		.cfi_offset 4, -8
 136              		.cfi_offset 14, -4
 177:Generated_Source\PSoC4/Comm_I2C_SLAVE.c ****     uint32 status;
 178:Generated_Source\PSoC4/Comm_I2C_SLAVE.c **** 
 179:Generated_Source\PSoC4/Comm_I2C_SLAVE.c ****     Comm_DisableInt();  /* Lock from interruption */
 137              		.loc 1 179 0
 138 0002 0A20     		mov	r0, #10
 139 0004 FFF7FEFF 		bl	CyIntDisable
 140              	.LVL5:
 180:Generated_Source\PSoC4/Comm_I2C_SLAVE.c **** 
 181:Generated_Source\PSoC4/Comm_I2C_SLAVE.c ****     /* Mask of transfer complete flag and Error status */
 182:Generated_Source\PSoC4/Comm_I2C_SLAVE.c ****     status = ((uint32) Comm_slStatus & Comm_I2C_SSTAT_WR_MASK);
 183:Generated_Source\PSoC4/Comm_I2C_SLAVE.c ****     Comm_slStatus &= (uint8) ~Comm_I2C_SSTAT_WR_CLEAR;
 141              		.loc 1 183 0
 142 0008 2F22     		mov	r2, #47
 182:Generated_Source\PSoC4/Comm_I2C_SLAVE.c ****     Comm_slStatus &= (uint8) ~Comm_I2C_SSTAT_WR_CLEAR;
 143              		.loc 1 182 0
 144 000a 064B     		ldr	r3, .L11
 184:Generated_Source\PSoC4/Comm_I2C_SLAVE.c **** 
 185:Generated_Source\PSoC4/Comm_I2C_SLAVE.c ****     Comm_EnableInt();   /* Release lock */
 145              		.loc 1 185 0
ARM GAS  C:\Users\TECHCO~1\AppData\Local\Temp\cceSNk65.s 			page 7


 146 000c 0A20     		mov	r0, #10
 182:Generated_Source\PSoC4/Comm_I2C_SLAVE.c ****     Comm_slStatus &= (uint8) ~Comm_I2C_SSTAT_WR_CLEAR;
 147              		.loc 1 182 0
 148 000e 1C78     		ldrb	r4, [r3]
 183:Generated_Source\PSoC4/Comm_I2C_SLAVE.c **** 
 149              		.loc 1 183 0
 150 0010 1978     		ldrb	r1, [r3]
 182:Generated_Source\PSoC4/Comm_I2C_SLAVE.c ****     Comm_slStatus &= (uint8) ~Comm_I2C_SSTAT_WR_CLEAR;
 151              		.loc 1 182 0
 152 0012 E4B2     		uxtb	r4, r4
 153              	.LVL6:
 183:Generated_Source\PSoC4/Comm_I2C_SLAVE.c **** 
 154              		.loc 1 183 0
 155 0014 0A40     		and	r2, r1
 156 0016 1A70     		strb	r2, [r3]
 157              		.loc 1 185 0
 158 0018 FFF7FEFF 		bl	CyIntEnable
 159              	.LVL7:
 182:Generated_Source\PSoC4/Comm_I2C_SLAVE.c ****     Comm_slStatus &= (uint8) ~Comm_I2C_SSTAT_WR_CLEAR;
 160              		.loc 1 182 0
 161 001c 0F23     		mov	r3, #15
 162 001e 201C     		mov	r0, r4
 186:Generated_Source\PSoC4/Comm_I2C_SLAVE.c **** 
 187:Generated_Source\PSoC4/Comm_I2C_SLAVE.c ****     return(status);
 188:Generated_Source\PSoC4/Comm_I2C_SLAVE.c **** }
 163              		.loc 1 188 0
 164              		@ sp needed
 182:Generated_Source\PSoC4/Comm_I2C_SLAVE.c ****     Comm_slStatus &= (uint8) ~Comm_I2C_SSTAT_WR_CLEAR;
 165              		.loc 1 182 0
 166 0020 9843     		bic	r0, r3
 167              	.LVL8:
 168              		.loc 1 188 0
 169 0022 10BD     		pop	{r4, pc}
 170              	.L12:
 171              		.align	2
 172              	.L11:
 173 0024 00000000 		.word	Comm_slStatus
 174              		.cfi_endproc
 175              	.LFE3:
 176              		.size	Comm_I2CSlaveClearWriteStatus, .-Comm_I2CSlaveClearWriteStatus
 177              		.section	.text.Comm_I2CSlaveSetAddress,"ax",%progbits
 178              		.align	1
 179              		.global	Comm_I2CSlaveSetAddress
 180              		.code	16
 181              		.thumb_func
 182              		.type	Comm_I2CSlaveSetAddress, %function
 183              	Comm_I2CSlaveSetAddress:
 184              	.LFB4:
 189:Generated_Source\PSoC4/Comm_I2C_SLAVE.c **** 
 190:Generated_Source\PSoC4/Comm_I2C_SLAVE.c **** 
 191:Generated_Source\PSoC4/Comm_I2C_SLAVE.c **** /*******************************************************************************
 192:Generated_Source\PSoC4/Comm_I2C_SLAVE.c **** * Function Name: Comm_I2CSlaveSetAddress
 193:Generated_Source\PSoC4/Comm_I2C_SLAVE.c **** ****************************************************************************//**
 194:Generated_Source\PSoC4/Comm_I2C_SLAVE.c **** *
 195:Generated_Source\PSoC4/Comm_I2C_SLAVE.c **** * Sets the I2C slave address.
 196:Generated_Source\PSoC4/Comm_I2C_SLAVE.c **** *
 197:Generated_Source\PSoC4/Comm_I2C_SLAVE.c **** * \param address: I2C slave address for the primary device.
ARM GAS  C:\Users\TECHCO~1\AppData\Local\Temp\cceSNk65.s 			page 8


 198:Generated_Source\PSoC4/Comm_I2C_SLAVE.c **** *  This address is the 7-bit right-justified slave address and does not 
 199:Generated_Source\PSoC4/Comm_I2C_SLAVE.c **** *  include the R/W bit.
 200:Generated_Source\PSoC4/Comm_I2C_SLAVE.c **** *  The address value is not checked to see if it violates the I2C spec. 
 201:Generated_Source\PSoC4/Comm_I2C_SLAVE.c **** *  The preferred addresses are between 8 and 120 (0x08 to 0x78).
 202:Generated_Source\PSoC4/Comm_I2C_SLAVE.c **** *
 203:Generated_Source\PSoC4/Comm_I2C_SLAVE.c **** *******************************************************************************/
 204:Generated_Source\PSoC4/Comm_I2C_SLAVE.c **** void Comm_I2CSlaveSetAddress(uint32 address)
 205:Generated_Source\PSoC4/Comm_I2C_SLAVE.c **** {
 185              		.loc 1 205 0
 186              		.cfi_startproc
 187              	.LVL9:
 206:Generated_Source\PSoC4/Comm_I2C_SLAVE.c ****     uint32 matchReg;
 207:Generated_Source\PSoC4/Comm_I2C_SLAVE.c **** 
 208:Generated_Source\PSoC4/Comm_I2C_SLAVE.c ****     matchReg = Comm_RX_MATCH_REG;
 209:Generated_Source\PSoC4/Comm_I2C_SLAVE.c **** 
 210:Generated_Source\PSoC4/Comm_I2C_SLAVE.c ****     matchReg &= ((uint32) ~Comm_RX_MATCH_ADDR_MASK); /* Clear address bits */
 188              		.loc 1 210 0
 189 0000 FF22     		mov	r2, #255
 208:Generated_Source\PSoC4/Comm_I2C_SLAVE.c **** 
 190              		.loc 1 208 0
 191 0002 0449     		ldr	r1, .L14
 211:Generated_Source\PSoC4/Comm_I2C_SLAVE.c ****     matchReg |= ((uint32)  Comm_GET_I2C_8BIT_ADDRESS(address));
 192              		.loc 1 211 0
 193 0004 4000     		lsl	r0, r0, #1
 194              	.LVL10:
 208:Generated_Source\PSoC4/Comm_I2C_SLAVE.c **** 
 195              		.loc 1 208 0
 196 0006 0B68     		ldr	r3, [r1]
 197              	.LVL11:
 198              		.loc 1 211 0
 199 0008 1040     		and	r0, r2
 210:Generated_Source\PSoC4/Comm_I2C_SLAVE.c ****     matchReg |= ((uint32)  Comm_GET_I2C_8BIT_ADDRESS(address));
 200              		.loc 1 210 0
 201 000a 9343     		bic	r3, r2
 202              	.LVL12:
 203              		.loc 1 211 0
 204 000c 1843     		orr	r0, r3
 205              	.LVL13:
 212:Generated_Source\PSoC4/Comm_I2C_SLAVE.c **** 
 213:Generated_Source\PSoC4/Comm_I2C_SLAVE.c ****     Comm_RX_MATCH_REG = matchReg;
 206              		.loc 1 213 0
 207 000e 0860     		str	r0, [r1]
 214:Generated_Source\PSoC4/Comm_I2C_SLAVE.c **** }
 208              		.loc 1 214 0
 209              		@ sp needed
 210 0010 7047     		bx	lr
 211              	.L15:
 212 0012 C046     		.align	2
 213              	.L14:
 214 0014 10030640 		.word	1074135824
 215              		.cfi_endproc
 216              	.LFE4:
 217              		.size	Comm_I2CSlaveSetAddress, .-Comm_I2CSlaveSetAddress
 218              		.section	.text.Comm_I2CSlaveSetAddressMask,"ax",%progbits
 219              		.align	1
 220              		.global	Comm_I2CSlaveSetAddressMask
 221              		.code	16
ARM GAS  C:\Users\TECHCO~1\AppData\Local\Temp\cceSNk65.s 			page 9


 222              		.thumb_func
 223              		.type	Comm_I2CSlaveSetAddressMask, %function
 224              	Comm_I2CSlaveSetAddressMask:
 225              	.LFB5:
 215:Generated_Source\PSoC4/Comm_I2C_SLAVE.c **** 
 216:Generated_Source\PSoC4/Comm_I2C_SLAVE.c **** 
 217:Generated_Source\PSoC4/Comm_I2C_SLAVE.c **** /*******************************************************************************
 218:Generated_Source\PSoC4/Comm_I2C_SLAVE.c **** * Function Name: Comm_I2CSlaveSetAddressMask
 219:Generated_Source\PSoC4/Comm_I2C_SLAVE.c **** ****************************************************************************//**
 220:Generated_Source\PSoC4/Comm_I2C_SLAVE.c **** *
 221:Generated_Source\PSoC4/Comm_I2C_SLAVE.c **** *  Sets the I2C slave address mask.
 222:Generated_Source\PSoC4/Comm_I2C_SLAVE.c **** *
 223:Generated_Source\PSoC4/Comm_I2C_SLAVE.c **** * \param addressMask: I2C slave address mask.
 224:Generated_Source\PSoC4/Comm_I2C_SLAVE.c **** *  - Bit value 0 – excludes bit from address comparison.
 225:Generated_Source\PSoC4/Comm_I2C_SLAVE.c **** *  - Bit value 1 – the bit needs to match with the corresponding bit of the 
 226:Generated_Source\PSoC4/Comm_I2C_SLAVE.c **** *  I2C slave address.
 227:Generated_Source\PSoC4/Comm_I2C_SLAVE.c **** *
 228:Generated_Source\PSoC4/Comm_I2C_SLAVE.c **** *  The range of valid values is between 0 and 254 (0x00 to 0xFE). 
 229:Generated_Source\PSoC4/Comm_I2C_SLAVE.c **** *  The LSB of the address mask must be 0 because it corresponds to R/W bit 
 230:Generated_Source\PSoC4/Comm_I2C_SLAVE.c **** *  within I2C slave address byte.
 231:Generated_Source\PSoC4/Comm_I2C_SLAVE.c **** *
 232:Generated_Source\PSoC4/Comm_I2C_SLAVE.c **** *******************************************************************************/
 233:Generated_Source\PSoC4/Comm_I2C_SLAVE.c **** void Comm_I2CSlaveSetAddressMask(uint32 addressMask)
 234:Generated_Source\PSoC4/Comm_I2C_SLAVE.c **** {
 226              		.loc 1 234 0
 227              		.cfi_startproc
 228              	.LVL14:
 235:Generated_Source\PSoC4/Comm_I2C_SLAVE.c ****     uint32 matchReg;
 236:Generated_Source\PSoC4/Comm_I2C_SLAVE.c **** 
 237:Generated_Source\PSoC4/Comm_I2C_SLAVE.c ****     matchReg = Comm_RX_MATCH_REG;
 229              		.loc 1 237 0
 230 0000 034A     		ldr	r2, .L17
 238:Generated_Source\PSoC4/Comm_I2C_SLAVE.c **** 
 239:Generated_Source\PSoC4/Comm_I2C_SLAVE.c ****     matchReg &= ((uint32) ~Comm_RX_MATCH_MASK_MASK);
 231              		.loc 1 239 0
 232 0002 044B     		ldr	r3, .L17+4
 237:Generated_Source\PSoC4/Comm_I2C_SLAVE.c **** 
 233              		.loc 1 237 0
 234 0004 1168     		ldr	r1, [r2]
 235              	.LVL15:
 240:Generated_Source\PSoC4/Comm_I2C_SLAVE.c ****     matchReg |= ((uint32) (addressMask << Comm_RX_MATCH_MASK_POS));
 236              		.loc 1 240 0
 237 0006 0004     		lsl	r0, r0, #16
 238              	.LVL16:
 239:Generated_Source\PSoC4/Comm_I2C_SLAVE.c ****     matchReg |= ((uint32) (addressMask << Comm_RX_MATCH_MASK_POS));
 239              		.loc 1 239 0
 240 0008 0B40     		and	r3, r1
 241              	.LVL17:
 242              		.loc 1 240 0
 243 000a 1843     		orr	r0, r3
 244              	.LVL18:
 241:Generated_Source\PSoC4/Comm_I2C_SLAVE.c **** 
 242:Generated_Source\PSoC4/Comm_I2C_SLAVE.c ****     Comm_RX_MATCH_REG = matchReg;
 245              		.loc 1 242 0
 246 000c 1060     		str	r0, [r2]
 243:Generated_Source\PSoC4/Comm_I2C_SLAVE.c **** }
 247              		.loc 1 243 0
ARM GAS  C:\Users\TECHCO~1\AppData\Local\Temp\cceSNk65.s 			page 10


 248              		@ sp needed
 249 000e 7047     		bx	lr
 250              	.L18:
 251              		.align	2
 252              	.L17:
 253 0010 10030640 		.word	1074135824
 254 0014 FFFF00FF 		.word	-16711681
 255              		.cfi_endproc
 256              	.LFE5:
 257              		.size	Comm_I2CSlaveSetAddressMask, .-Comm_I2CSlaveSetAddressMask
 258              		.section	.text.Comm_I2CSlaveInitReadBuf,"ax",%progbits
 259              		.align	1
 260              		.global	Comm_I2CSlaveInitReadBuf
 261              		.code	16
 262              		.thumb_func
 263              		.type	Comm_I2CSlaveInitReadBuf, %function
 264              	Comm_I2CSlaveInitReadBuf:
 265              	.LFB6:
 244:Generated_Source\PSoC4/Comm_I2C_SLAVE.c **** 
 245:Generated_Source\PSoC4/Comm_I2C_SLAVE.c **** 
 246:Generated_Source\PSoC4/Comm_I2C_SLAVE.c **** /*******************************************************************************
 247:Generated_Source\PSoC4/Comm_I2C_SLAVE.c **** * Function Name: Comm_I2CSlaveInitReadBuf
 248:Generated_Source\PSoC4/Comm_I2C_SLAVE.c **** ****************************************************************************//**
 249:Generated_Source\PSoC4/Comm_I2C_SLAVE.c **** *
 250:Generated_Source\PSoC4/Comm_I2C_SLAVE.c **** *  Sets the buffer pointer and size of the read buffer. This function also
 251:Generated_Source\PSoC4/Comm_I2C_SLAVE.c **** *  resets the transfer count returned with the 
 252:Generated_Source\PSoC4/Comm_I2C_SLAVE.c **** *  Comm_SlaveGetReadBufSize() function.
 253:Generated_Source\PSoC4/Comm_I2C_SLAVE.c **** *
 254:Generated_Source\PSoC4/Comm_I2C_SLAVE.c **** * \param readBuf: Pointer to the data buffer to be read by the master.
 255:Generated_Source\PSoC4/Comm_I2C_SLAVE.c **** * \param bufSize: Size of the read buffer exposed to the I2C master.
 256:Generated_Source\PSoC4/Comm_I2C_SLAVE.c **** *
 257:Generated_Source\PSoC4/Comm_I2C_SLAVE.c **** * \sideeffect
 258:Generated_Source\PSoC4/Comm_I2C_SLAVE.c **** *  If this function is called during a bus transaction, data from the previous
 259:Generated_Source\PSoC4/Comm_I2C_SLAVE.c **** *  buffer location and the beginning of current buffer may be transmitted.
 260:Generated_Source\PSoC4/Comm_I2C_SLAVE.c **** *
 261:Generated_Source\PSoC4/Comm_I2C_SLAVE.c **** * \globalvars
 262:Generated_Source\PSoC4/Comm_I2C_SLAVE.c **** *  Comm_slRdBufPtr   - used to store pointer to slave read buffer.
 263:Generated_Source\PSoC4/Comm_I2C_SLAVE.c **** *  Comm_slRdBufSize  - used to store salve read buffer size.
 264:Generated_Source\PSoC4/Comm_I2C_SLAVE.c **** *  Comm_slRdBufIndex - used to store current index within slave
 265:Generated_Source\PSoC4/Comm_I2C_SLAVE.c **** *  read buffer.
 266:Generated_Source\PSoC4/Comm_I2C_SLAVE.c **** *
 267:Generated_Source\PSoC4/Comm_I2C_SLAVE.c **** *******************************************************************************/
 268:Generated_Source\PSoC4/Comm_I2C_SLAVE.c **** void Comm_I2CSlaveInitReadBuf(uint8 * rdBuf, uint32 bufSize)
 269:Generated_Source\PSoC4/Comm_I2C_SLAVE.c **** {
 266              		.loc 1 269 0
 267              		.cfi_startproc
 268              	.LVL19:
 269 0000 38B5     		push	{r3, r4, r5, lr}
 270              		.cfi_def_cfa_offset 16
 271              		.cfi_offset 3, -16
 272              		.cfi_offset 4, -12
 273              		.cfi_offset 5, -8
 274              		.cfi_offset 14, -4
 270:Generated_Source\PSoC4/Comm_I2C_SLAVE.c ****     /* Check for proper buffer */
 271:Generated_Source\PSoC4/Comm_I2C_SLAVE.c ****     if(NULL != rdBuf)
 275              		.loc 1 271 0
 276 0002 0028     		cmp	r0, #0
ARM GAS  C:\Users\TECHCO~1\AppData\Local\Temp\cceSNk65.s 			page 11


 277 0004 10D0     		beq	.L19
 278 0006 041C     		mov	r4, r0
 279 0008 0D1C     		mov	r5, r1
 272:Generated_Source\PSoC4/Comm_I2C_SLAVE.c ****     {
 273:Generated_Source\PSoC4/Comm_I2C_SLAVE.c ****         Comm_DisableInt();  /* Lock from interruption */
 280              		.loc 1 273 0
 281 000a 0A20     		mov	r0, #10
 282              	.LVL20:
 283 000c FFF7FEFF 		bl	CyIntDisable
 284              	.LVL21:
 274:Generated_Source\PSoC4/Comm_I2C_SLAVE.c **** 
 275:Generated_Source\PSoC4/Comm_I2C_SLAVE.c ****         Comm_slRdBufPtr      = (volatile uint8 *) rdBuf; /* Set buffer pointer  */
 285              		.loc 1 275 0
 286 0010 064B     		ldr	r3, .L25
 276:Generated_Source\PSoC4/Comm_I2C_SLAVE.c ****         Comm_slRdBufSize     = bufSize;                  /* Set buffer size     */
 277:Generated_Source\PSoC4/Comm_I2C_SLAVE.c ****         Comm_slRdBufIndex    = 0u;                       /* Clear buffer index  */
 287              		.loc 1 277 0
 288 0012 074A     		ldr	r2, .L25+4
 275:Generated_Source\PSoC4/Comm_I2C_SLAVE.c ****         Comm_slRdBufSize     = bufSize;                  /* Set buffer size     */
 289              		.loc 1 275 0
 290 0014 1C60     		str	r4, [r3]
 276:Generated_Source\PSoC4/Comm_I2C_SLAVE.c ****         Comm_slRdBufSize     = bufSize;                  /* Set buffer size     */
 291              		.loc 1 276 0
 292 0016 074B     		ldr	r3, .L25+8
 278:Generated_Source\PSoC4/Comm_I2C_SLAVE.c ****         Comm_slRdBufIndexTmp = 0u;                       /* Clear buffer index  */
 279:Generated_Source\PSoC4/Comm_I2C_SLAVE.c **** 
 280:Generated_Source\PSoC4/Comm_I2C_SLAVE.c ****         Comm_EnableInt();   /* Release lock */
 293              		.loc 1 280 0
 294 0018 0A20     		mov	r0, #10
 276:Generated_Source\PSoC4/Comm_I2C_SLAVE.c ****         Comm_slRdBufIndex    = 0u;                       /* Clear buffer index  */
 295              		.loc 1 276 0
 296 001a 1D60     		str	r5, [r3]
 277:Generated_Source\PSoC4/Comm_I2C_SLAVE.c ****         Comm_slRdBufIndexTmp = 0u;                       /* Clear buffer index  */
 297              		.loc 1 277 0
 298 001c 0023     		mov	r3, #0
 299 001e 1360     		str	r3, [r2]
 278:Generated_Source\PSoC4/Comm_I2C_SLAVE.c ****         Comm_slRdBufIndexTmp = 0u;                       /* Clear buffer index  */
 300              		.loc 1 278 0
 301 0020 054A     		ldr	r2, .L25+12
 302 0022 1360     		str	r3, [r2]
 303              		.loc 1 280 0
 304 0024 FFF7FEFF 		bl	CyIntEnable
 305              	.LVL22:
 306              	.L19:
 281:Generated_Source\PSoC4/Comm_I2C_SLAVE.c ****     }
 282:Generated_Source\PSoC4/Comm_I2C_SLAVE.c **** }
 307              		.loc 1 282 0
 308              		@ sp needed
 309 0028 38BD     		pop	{r3, r4, r5, pc}
 310              	.L26:
 311 002a C046     		.align	2
 312              	.L25:
 313 002c 00000000 		.word	Comm_slRdBufPtr
 314 0030 00000000 		.word	Comm_slRdBufIndex
 315 0034 00000000 		.word	Comm_slRdBufSize
 316 0038 00000000 		.word	Comm_slRdBufIndexTmp
 317              		.cfi_endproc
ARM GAS  C:\Users\TECHCO~1\AppData\Local\Temp\cceSNk65.s 			page 12


 318              	.LFE6:
 319              		.size	Comm_I2CSlaveInitReadBuf, .-Comm_I2CSlaveInitReadBuf
 320              		.section	.text.Comm_I2CSlaveInitWriteBuf,"ax",%progbits
 321              		.align	1
 322              		.global	Comm_I2CSlaveInitWriteBuf
 323              		.code	16
 324              		.thumb_func
 325              		.type	Comm_I2CSlaveInitWriteBuf, %function
 326              	Comm_I2CSlaveInitWriteBuf:
 327              	.LFB7:
 283:Generated_Source\PSoC4/Comm_I2C_SLAVE.c **** 
 284:Generated_Source\PSoC4/Comm_I2C_SLAVE.c **** 
 285:Generated_Source\PSoC4/Comm_I2C_SLAVE.c **** /*******************************************************************************
 286:Generated_Source\PSoC4/Comm_I2C_SLAVE.c **** * Function Name: Comm_I2CSlaveInitWriteBuf
 287:Generated_Source\PSoC4/Comm_I2C_SLAVE.c **** ****************************************************************************//**
 288:Generated_Source\PSoC4/Comm_I2C_SLAVE.c **** *
 289:Generated_Source\PSoC4/Comm_I2C_SLAVE.c **** *  Sets the buffer pointer and size of the write buffer. This function also 
 290:Generated_Source\PSoC4/Comm_I2C_SLAVE.c **** *  resets the transfer count returned with the 
 291:Generated_Source\PSoC4/Comm_I2C_SLAVE.c **** *  Comm_I2CSlaveGetWriteBufSize() function.
 292:Generated_Source\PSoC4/Comm_I2C_SLAVE.c **** *
 293:Generated_Source\PSoC4/Comm_I2C_SLAVE.c **** * \param writeBuf: Pointer to the data buffer to be written by the master.
 294:Generated_Source\PSoC4/Comm_I2C_SLAVE.c **** * \param bufSize:  Size of the write buffer exposed to the I2C master.
 295:Generated_Source\PSoC4/Comm_I2C_SLAVE.c **** *
 296:Generated_Source\PSoC4/Comm_I2C_SLAVE.c **** * \sideeffect
 297:Generated_Source\PSoC4/Comm_I2C_SLAVE.c **** *  If this function is called during a bus transaction, data may be received in 
 298:Generated_Source\PSoC4/Comm_I2C_SLAVE.c **** *  the previous buffer and the current buffer location.
 299:Generated_Source\PSoC4/Comm_I2C_SLAVE.c **** *
 300:Generated_Source\PSoC4/Comm_I2C_SLAVE.c **** * \globalvars
 301:Generated_Source\PSoC4/Comm_I2C_SLAVE.c **** *  Comm_slWrBufPtr   - used to store pointer to slave write buffer.
 302:Generated_Source\PSoC4/Comm_I2C_SLAVE.c **** *  Comm_slWrBufSize  - used to store salve write buffer size.
 303:Generated_Source\PSoC4/Comm_I2C_SLAVE.c **** *  Comm_slWrBufIndex - used to store current index within slave
 304:Generated_Source\PSoC4/Comm_I2C_SLAVE.c **** *   write buffer.
 305:Generated_Source\PSoC4/Comm_I2C_SLAVE.c **** *
 306:Generated_Source\PSoC4/Comm_I2C_SLAVE.c **** *******************************************************************************/
 307:Generated_Source\PSoC4/Comm_I2C_SLAVE.c **** void Comm_I2CSlaveInitWriteBuf(uint8 * wrBuf, uint32 bufSize)
 308:Generated_Source\PSoC4/Comm_I2C_SLAVE.c **** {
 328              		.loc 1 308 0
 329              		.cfi_startproc
 330              	.LVL23:
 331 0000 38B5     		push	{r3, r4, r5, lr}
 332              		.cfi_def_cfa_offset 16
 333              		.cfi_offset 3, -16
 334              		.cfi_offset 4, -12
 335              		.cfi_offset 5, -8
 336              		.cfi_offset 14, -4
 309:Generated_Source\PSoC4/Comm_I2C_SLAVE.c ****     /* Check buffer pointer */
 310:Generated_Source\PSoC4/Comm_I2C_SLAVE.c ****     if(NULL != wrBuf)
 337              		.loc 1 310 0
 338 0002 0028     		cmp	r0, #0
 339 0004 0ED0     		beq	.L27
 340 0006 041C     		mov	r4, r0
 341 0008 0D1C     		mov	r5, r1
 311:Generated_Source\PSoC4/Comm_I2C_SLAVE.c ****     {
 312:Generated_Source\PSoC4/Comm_I2C_SLAVE.c ****         Comm_DisableInt();  /* Lock from interruption */
 342              		.loc 1 312 0
 343 000a 0A20     		mov	r0, #10
 344              	.LVL24:
ARM GAS  C:\Users\TECHCO~1\AppData\Local\Temp\cceSNk65.s 			page 13


 345 000c FFF7FEFF 		bl	CyIntDisable
 346              	.LVL25:
 313:Generated_Source\PSoC4/Comm_I2C_SLAVE.c **** 
 314:Generated_Source\PSoC4/Comm_I2C_SLAVE.c ****         Comm_slWrBufPtr   = (volatile uint8 *) wrBuf; /* Set buffer pointer  */
 315:Generated_Source\PSoC4/Comm_I2C_SLAVE.c ****         Comm_slWrBufSize  = bufSize;                  /* Set buffer size     */
 316:Generated_Source\PSoC4/Comm_I2C_SLAVE.c ****         Comm_slWrBufIndex = 0u;                       /* Clear buffer index  */
 347              		.loc 1 316 0
 348 0010 0022     		mov	r2, #0
 314:Generated_Source\PSoC4/Comm_I2C_SLAVE.c ****         Comm_slWrBufSize  = bufSize;                  /* Set buffer size     */
 349              		.loc 1 314 0
 350 0012 054B     		ldr	r3, .L32
 317:Generated_Source\PSoC4/Comm_I2C_SLAVE.c **** 
 318:Generated_Source\PSoC4/Comm_I2C_SLAVE.c ****         Comm_EnableInt();   /* Release lock */
 351              		.loc 1 318 0
 352 0014 0A20     		mov	r0, #10
 314:Generated_Source\PSoC4/Comm_I2C_SLAVE.c ****         Comm_slWrBufSize  = bufSize;                  /* Set buffer size     */
 353              		.loc 1 314 0
 354 0016 1C60     		str	r4, [r3]
 315:Generated_Source\PSoC4/Comm_I2C_SLAVE.c ****         Comm_slWrBufIndex = 0u;                       /* Clear buffer index  */
 355              		.loc 1 315 0
 356 0018 044B     		ldr	r3, .L32+4
 357 001a 1D60     		str	r5, [r3]
 316:Generated_Source\PSoC4/Comm_I2C_SLAVE.c **** 
 358              		.loc 1 316 0
 359 001c 044B     		ldr	r3, .L32+8
 360 001e 1A60     		str	r2, [r3]
 361              		.loc 1 318 0
 362 0020 FFF7FEFF 		bl	CyIntEnable
 363              	.LVL26:
 364              	.L27:
 319:Generated_Source\PSoC4/Comm_I2C_SLAVE.c ****     }
 320:Generated_Source\PSoC4/Comm_I2C_SLAVE.c **** }
 365              		.loc 1 320 0
 366              		@ sp needed
 367 0024 38BD     		pop	{r3, r4, r5, pc}
 368              	.L33:
 369 0026 C046     		.align	2
 370              	.L32:
 371 0028 00000000 		.word	Comm_slWrBufPtr
 372 002c 00000000 		.word	Comm_slWrBufSize
 373 0030 00000000 		.word	Comm_slWrBufIndex
 374              		.cfi_endproc
 375              	.LFE7:
 376              		.size	Comm_I2CSlaveInitWriteBuf, .-Comm_I2CSlaveInitWriteBuf
 377              		.section	.text.Comm_I2CSlaveGetReadBufSize,"ax",%progbits
 378              		.align	1
 379              		.global	Comm_I2CSlaveGetReadBufSize
 380              		.code	16
 381              		.thumb_func
 382              		.type	Comm_I2CSlaveGetReadBufSize, %function
 383              	Comm_I2CSlaveGetReadBufSize:
 384              	.LFB8:
 321:Generated_Source\PSoC4/Comm_I2C_SLAVE.c **** 
 322:Generated_Source\PSoC4/Comm_I2C_SLAVE.c **** 
 323:Generated_Source\PSoC4/Comm_I2C_SLAVE.c **** /*******************************************************************************
 324:Generated_Source\PSoC4/Comm_I2C_SLAVE.c **** * Function Name: Comm_I2CSlaveGetReadBufSize
 325:Generated_Source\PSoC4/Comm_I2C_SLAVE.c **** ****************************************************************************//**
ARM GAS  C:\Users\TECHCO~1\AppData\Local\Temp\cceSNk65.s 			page 14


 326:Generated_Source\PSoC4/Comm_I2C_SLAVE.c **** *
 327:Generated_Source\PSoC4/Comm_I2C_SLAVE.c **** *  Returns the number of bytes read by the I2C master since an
 328:Generated_Source\PSoC4/Comm_I2C_SLAVE.c **** *  Comm_I2CSlaveInitReadBuf() or 
 329:Generated_Source\PSoC4/Comm_I2C_SLAVE.c **** *  Comm_I2CSlaveClearReadBuf() function was executed.
 330:Generated_Source\PSoC4/Comm_I2C_SLAVE.c **** *  The maximum return value is the size of the read buffer.
 331:Generated_Source\PSoC4/Comm_I2C_SLAVE.c **** *
 332:Generated_Source\PSoC4/Comm_I2C_SLAVE.c **** * \return
 333:Generated_Source\PSoC4/Comm_I2C_SLAVE.c **** *  Bytes read by master. If the transfer is not yet complete, it returns 
 334:Generated_Source\PSoC4/Comm_I2C_SLAVE.c **** *  zero until transfer completion.
 335:Generated_Source\PSoC4/Comm_I2C_SLAVE.c **** *
 336:Generated_Source\PSoC4/Comm_I2C_SLAVE.c **** * \sideeffect
 337:Generated_Source\PSoC4/Comm_I2C_SLAVE.c **** *  The returned value is not valid if Comm_I2C_SSTAT_RD_ERR was 
 338:Generated_Source\PSoC4/Comm_I2C_SLAVE.c **** *  captured by the slave.
 339:Generated_Source\PSoC4/Comm_I2C_SLAVE.c **** *
 340:Generated_Source\PSoC4/Comm_I2C_SLAVE.c **** * \globalvars
 341:Generated_Source\PSoC4/Comm_I2C_SLAVE.c **** *  Comm_slRdBufIndex - used to store current index within slave
 342:Generated_Source\PSoC4/Comm_I2C_SLAVE.c **** *  read buffer.
 343:Generated_Source\PSoC4/Comm_I2C_SLAVE.c **** *
 344:Generated_Source\PSoC4/Comm_I2C_SLAVE.c **** *******************************************************************************/
 345:Generated_Source\PSoC4/Comm_I2C_SLAVE.c **** uint32 Comm_I2CSlaveGetReadBufSize(void)
 346:Generated_Source\PSoC4/Comm_I2C_SLAVE.c **** {
 385              		.loc 1 346 0
 386              		.cfi_startproc
 347:Generated_Source\PSoC4/Comm_I2C_SLAVE.c ****     return(Comm_slRdBufIndex);
 387              		.loc 1 347 0
 388 0000 014B     		ldr	r3, .L35
 348:Generated_Source\PSoC4/Comm_I2C_SLAVE.c **** }
 389              		.loc 1 348 0
 390              		@ sp needed
 347:Generated_Source\PSoC4/Comm_I2C_SLAVE.c ****     return(Comm_slRdBufIndex);
 391              		.loc 1 347 0
 392 0002 1868     		ldr	r0, [r3]
 393              		.loc 1 348 0
 394 0004 7047     		bx	lr
 395              	.L36:
 396 0006 C046     		.align	2
 397              	.L35:
 398 0008 00000000 		.word	Comm_slRdBufIndex
 399              		.cfi_endproc
 400              	.LFE8:
 401              		.size	Comm_I2CSlaveGetReadBufSize, .-Comm_I2CSlaveGetReadBufSize
 402              		.section	.text.Comm_I2CSlaveGetWriteBufSize,"ax",%progbits
 403              		.align	1
 404              		.global	Comm_I2CSlaveGetWriteBufSize
 405              		.code	16
 406              		.thumb_func
 407              		.type	Comm_I2CSlaveGetWriteBufSize, %function
 408              	Comm_I2CSlaveGetWriteBufSize:
 409              	.LFB9:
 349:Generated_Source\PSoC4/Comm_I2C_SLAVE.c **** 
 350:Generated_Source\PSoC4/Comm_I2C_SLAVE.c **** 
 351:Generated_Source\PSoC4/Comm_I2C_SLAVE.c **** /*******************************************************************************
 352:Generated_Source\PSoC4/Comm_I2C_SLAVE.c **** * Function Name: Comm_I2CSlaveGetWriteBufSize
 353:Generated_Source\PSoC4/Comm_I2C_SLAVE.c **** ****************************************************************************//**
 354:Generated_Source\PSoC4/Comm_I2C_SLAVE.c **** *
 355:Generated_Source\PSoC4/Comm_I2C_SLAVE.c **** *  Returns the number of bytes written by the I2C master since an
 356:Generated_Source\PSoC4/Comm_I2C_SLAVE.c **** *  Comm_I2CSlaveInitWriteBuf() or 
ARM GAS  C:\Users\TECHCO~1\AppData\Local\Temp\cceSNk65.s 			page 15


 357:Generated_Source\PSoC4/Comm_I2C_SLAVE.c **** *  Comm_I2CSlaveClearWriteBuf() function was executed.
 358:Generated_Source\PSoC4/Comm_I2C_SLAVE.c **** *  The maximum return value is the size of the write buffer.
 359:Generated_Source\PSoC4/Comm_I2C_SLAVE.c **** *
 360:Generated_Source\PSoC4/Comm_I2C_SLAVE.c **** * \return
 361:Generated_Source\PSoC4/Comm_I2C_SLAVE.c **** *  Bytes written by master.
 362:Generated_Source\PSoC4/Comm_I2C_SLAVE.c **** *
 363:Generated_Source\PSoC4/Comm_I2C_SLAVE.c **** * \sideeffect
 364:Generated_Source\PSoC4/Comm_I2C_SLAVE.c **** *  The returned value is not valid if Comm_I2C_SSTAT_WR_ERR was 
 365:Generated_Source\PSoC4/Comm_I2C_SLAVE.c **** *  captured by the slave.
 366:Generated_Source\PSoC4/Comm_I2C_SLAVE.c **** *
 367:Generated_Source\PSoC4/Comm_I2C_SLAVE.c **** * \globalvars
 368:Generated_Source\PSoC4/Comm_I2C_SLAVE.c **** *  Comm_slWrBufIndex - used to store current index within slave
 369:Generated_Source\PSoC4/Comm_I2C_SLAVE.c **** *   write buffer.
 370:Generated_Source\PSoC4/Comm_I2C_SLAVE.c **** *
 371:Generated_Source\PSoC4/Comm_I2C_SLAVE.c **** *******************************************************************************/
 372:Generated_Source\PSoC4/Comm_I2C_SLAVE.c **** uint32 Comm_I2CSlaveGetWriteBufSize(void)
 373:Generated_Source\PSoC4/Comm_I2C_SLAVE.c **** {
 410              		.loc 1 373 0
 411              		.cfi_startproc
 374:Generated_Source\PSoC4/Comm_I2C_SLAVE.c ****     return(Comm_slWrBufIndex);
 412              		.loc 1 374 0
 413 0000 014B     		ldr	r3, .L38
 375:Generated_Source\PSoC4/Comm_I2C_SLAVE.c **** }
 414              		.loc 1 375 0
 415              		@ sp needed
 374:Generated_Source\PSoC4/Comm_I2C_SLAVE.c ****     return(Comm_slWrBufIndex);
 416              		.loc 1 374 0
 417 0002 1868     		ldr	r0, [r3]
 418              		.loc 1 375 0
 419 0004 7047     		bx	lr
 420              	.L39:
 421 0006 C046     		.align	2
 422              	.L38:
 423 0008 00000000 		.word	Comm_slWrBufIndex
 424              		.cfi_endproc
 425              	.LFE9:
 426              		.size	Comm_I2CSlaveGetWriteBufSize, .-Comm_I2CSlaveGetWriteBufSize
 427              		.section	.text.Comm_I2CSlaveClearReadBuf,"ax",%progbits
 428              		.align	1
 429              		.global	Comm_I2CSlaveClearReadBuf
 430              		.code	16
 431              		.thumb_func
 432              		.type	Comm_I2CSlaveClearReadBuf, %function
 433              	Comm_I2CSlaveClearReadBuf:
 434              	.LFB10:
 376:Generated_Source\PSoC4/Comm_I2C_SLAVE.c **** 
 377:Generated_Source\PSoC4/Comm_I2C_SLAVE.c **** 
 378:Generated_Source\PSoC4/Comm_I2C_SLAVE.c **** /*******************************************************************************
 379:Generated_Source\PSoC4/Comm_I2C_SLAVE.c **** * Function Name: Comm_I2CSlaveClearReadBuf
 380:Generated_Source\PSoC4/Comm_I2C_SLAVE.c **** ****************************************************************************//**
 381:Generated_Source\PSoC4/Comm_I2C_SLAVE.c **** *
 382:Generated_Source\PSoC4/Comm_I2C_SLAVE.c **** *  Resets the read pointer to the first byte in the read buffer. The next byte
 383:Generated_Source\PSoC4/Comm_I2C_SLAVE.c **** *  read by the master will be the first byte in the read buffer.
 384:Generated_Source\PSoC4/Comm_I2C_SLAVE.c **** *
 385:Generated_Source\PSoC4/Comm_I2C_SLAVE.c **** * \globalvars
 386:Generated_Source\PSoC4/Comm_I2C_SLAVE.c **** *  Comm_slRdBufIndex - used to store current index within slave
 387:Generated_Source\PSoC4/Comm_I2C_SLAVE.c **** *  read buffer.
ARM GAS  C:\Users\TECHCO~1\AppData\Local\Temp\cceSNk65.s 			page 16


 388:Generated_Source\PSoC4/Comm_I2C_SLAVE.c **** *
 389:Generated_Source\PSoC4/Comm_I2C_SLAVE.c **** *******************************************************************************/
 390:Generated_Source\PSoC4/Comm_I2C_SLAVE.c **** void Comm_I2CSlaveClearReadBuf(void)
 391:Generated_Source\PSoC4/Comm_I2C_SLAVE.c **** {
 435              		.loc 1 391 0
 436              		.cfi_startproc
 392:Generated_Source\PSoC4/Comm_I2C_SLAVE.c ****     Comm_slRdBufIndex = 0u;
 437              		.loc 1 392 0
 438 0000 0022     		mov	r2, #0
 439 0002 014B     		ldr	r3, .L41
 393:Generated_Source\PSoC4/Comm_I2C_SLAVE.c **** }
 440              		.loc 1 393 0
 441              		@ sp needed
 392:Generated_Source\PSoC4/Comm_I2C_SLAVE.c ****     Comm_slRdBufIndex = 0u;
 442              		.loc 1 392 0
 443 0004 1A60     		str	r2, [r3]
 444              		.loc 1 393 0
 445 0006 7047     		bx	lr
 446              	.L42:
 447              		.align	2
 448              	.L41:
 449 0008 00000000 		.word	Comm_slRdBufIndex
 450              		.cfi_endproc
 451              	.LFE10:
 452              		.size	Comm_I2CSlaveClearReadBuf, .-Comm_I2CSlaveClearReadBuf
 453              		.section	.text.Comm_I2CSlaveClearWriteBuf,"ax",%progbits
 454              		.align	1
 455              		.global	Comm_I2CSlaveClearWriteBuf
 456              		.code	16
 457              		.thumb_func
 458              		.type	Comm_I2CSlaveClearWriteBuf, %function
 459              	Comm_I2CSlaveClearWriteBuf:
 460              	.LFB11:
 394:Generated_Source\PSoC4/Comm_I2C_SLAVE.c **** 
 395:Generated_Source\PSoC4/Comm_I2C_SLAVE.c **** 
 396:Generated_Source\PSoC4/Comm_I2C_SLAVE.c **** /*******************************************************************************
 397:Generated_Source\PSoC4/Comm_I2C_SLAVE.c **** * Function Name: Comm_I2CSlaveClearWriteBuf
 398:Generated_Source\PSoC4/Comm_I2C_SLAVE.c **** ****************************************************************************//**
 399:Generated_Source\PSoC4/Comm_I2C_SLAVE.c **** *
 400:Generated_Source\PSoC4/Comm_I2C_SLAVE.c **** *  Resets the write pointer to the first byte in the write buffer. The next byte
 401:Generated_Source\PSoC4/Comm_I2C_SLAVE.c **** *  written by the master will be the first byte in the write buffer.
 402:Generated_Source\PSoC4/Comm_I2C_SLAVE.c **** *
 403:Generated_Source\PSoC4/Comm_I2C_SLAVE.c **** * \globalvars
 404:Generated_Source\PSoC4/Comm_I2C_SLAVE.c **** *  Comm_slWrBufIndex - used to store current index within slave
 405:Generated_Source\PSoC4/Comm_I2C_SLAVE.c **** *  write buffer.
 406:Generated_Source\PSoC4/Comm_I2C_SLAVE.c **** *
 407:Generated_Source\PSoC4/Comm_I2C_SLAVE.c **** *******************************************************************************/
 408:Generated_Source\PSoC4/Comm_I2C_SLAVE.c **** void Comm_I2CSlaveClearWriteBuf(void)
 409:Generated_Source\PSoC4/Comm_I2C_SLAVE.c **** {
 461              		.loc 1 409 0
 462              		.cfi_startproc
 410:Generated_Source\PSoC4/Comm_I2C_SLAVE.c ****     Comm_slWrBufIndex = 0u;
 463              		.loc 1 410 0
 464 0000 0022     		mov	r2, #0
 465 0002 014B     		ldr	r3, .L44
 411:Generated_Source\PSoC4/Comm_I2C_SLAVE.c **** }
 466              		.loc 1 411 0
ARM GAS  C:\Users\TECHCO~1\AppData\Local\Temp\cceSNk65.s 			page 17


 467              		@ sp needed
 410:Generated_Source\PSoC4/Comm_I2C_SLAVE.c ****     Comm_slWrBufIndex = 0u;
 468              		.loc 1 410 0
 469 0004 1A60     		str	r2, [r3]
 470              		.loc 1 411 0
 471 0006 7047     		bx	lr
 472              	.L45:
 473              		.align	2
 474              	.L44:
 475 0008 00000000 		.word	Comm_slWrBufIndex
 476              		.cfi_endproc
 477              	.LFE11:
 478              		.size	Comm_I2CSlaveClearWriteBuf, .-Comm_I2CSlaveClearWriteBuf
 479              		.global	Comm_customAddressHandler
 480              		.comm	Comm_slOverFlowCount,1,1
 481              		.comm	Comm_slRdBufIndexTmp,4,4
 482              		.comm	Comm_slRdBufIndex,4,4
 483              		.comm	Comm_slRdBufSize,4,4
 484              		.comm	Comm_slRdBufPtr,4,4
 485              		.comm	Comm_slWrBufIndex,4,4
 486              		.comm	Comm_slWrBufSize,4,4
 487              		.comm	Comm_slWrBufPtr,4,4
 488              		.comm	Comm_slStatus,1,1
 489              		.bss
 490              		.align	2
 491              		.set	.LANCHOR0,. + 0
 492              		.type	Comm_customAddressHandler, %object
 493              		.size	Comm_customAddressHandler, 4
 494              	Comm_customAddressHandler:
 495 0000 00000000 		.space	4
 496              		.text
 497              	.Letext0:
 498              		.file 2 "Generated_Source\\PSoC4/cytypes.h"
 499              		.file 3 "Generated_Source\\PSoC4/CyLib.h"