ARM GAS  C:\Users\TECHCO~1\AppData\Local\Temp\ccHwiEe3.s 			page 1


   1              		.cpu cortex-m0
   2              		.fpu softvfp
   3              		.eabi_attribute 20, 1
   4              		.eabi_attribute 21, 1
   5              		.eabi_attribute 23, 3
   6              		.eabi_attribute 24, 1
   7              		.eabi_attribute 25, 1
   8              		.eabi_attribute 26, 1
   9              		.eabi_attribute 30, 4
  10              		.eabi_attribute 34, 0
  11              		.eabi_attribute 18, 4
  12              		.code	16
  13              		.file	"Comm_UART.c"
  14              		.text
  15              	.Ltext0:
  16              		.cfi_sections	.debug_frame
  17              		.section	.text.Comm_UartInit,"ax",%progbits
  18              		.align	1
  19              		.global	Comm_UartInit
  20              		.code	16
  21              		.thumb_func
  22              		.type	Comm_UartInit, %function
  23              	Comm_UartInit:
  24              	.LFB0:
  25              		.file 1 "Generated_Source\\PSoC4\\Comm_UART.c"
   1:Generated_Source\PSoC4/Comm_UART.c **** /***************************************************************************//**
   2:Generated_Source\PSoC4/Comm_UART.c **** * \file Comm_UART.c
   3:Generated_Source\PSoC4/Comm_UART.c **** * \version 3.20
   4:Generated_Source\PSoC4/Comm_UART.c **** *
   5:Generated_Source\PSoC4/Comm_UART.c **** * \brief
   6:Generated_Source\PSoC4/Comm_UART.c **** *  This file provides the source code to the API for the SCB Component in
   7:Generated_Source\PSoC4/Comm_UART.c **** *  UART mode.
   8:Generated_Source\PSoC4/Comm_UART.c **** *
   9:Generated_Source\PSoC4/Comm_UART.c **** * Note:
  10:Generated_Source\PSoC4/Comm_UART.c **** *
  11:Generated_Source\PSoC4/Comm_UART.c **** *******************************************************************************
  12:Generated_Source\PSoC4/Comm_UART.c **** * \copyright
  13:Generated_Source\PSoC4/Comm_UART.c **** * Copyright 2013-2016, Cypress Semiconductor Corporation.  All rights reserved.
  14:Generated_Source\PSoC4/Comm_UART.c **** * You may use this file only in accordance with the license, terms, conditions,
  15:Generated_Source\PSoC4/Comm_UART.c **** * disclaimers, and limitations in the end user license agreement accompanying
  16:Generated_Source\PSoC4/Comm_UART.c **** * the software package with which this file was provided.
  17:Generated_Source\PSoC4/Comm_UART.c **** *******************************************************************************/
  18:Generated_Source\PSoC4/Comm_UART.c **** 
  19:Generated_Source\PSoC4/Comm_UART.c **** #include "Comm_PVT.h"
  20:Generated_Source\PSoC4/Comm_UART.c **** #include "Comm_SPI_UART_PVT.h"
  21:Generated_Source\PSoC4/Comm_UART.c **** 
  22:Generated_Source\PSoC4/Comm_UART.c **** 
  23:Generated_Source\PSoC4/Comm_UART.c **** #if (Comm_UART_WAKE_ENABLE_CONST && Comm_UART_RX_WAKEUP_IRQ)
  24:Generated_Source\PSoC4/Comm_UART.c ****     /**
  25:Generated_Source\PSoC4/Comm_UART.c ****     * \addtogroup group_globals
  26:Generated_Source\PSoC4/Comm_UART.c ****     * \{
  27:Generated_Source\PSoC4/Comm_UART.c ****     */
  28:Generated_Source\PSoC4/Comm_UART.c ****     /** This global variable determines whether to enable Skip Start
  29:Generated_Source\PSoC4/Comm_UART.c ****     * functionality when Comm_Sleep() function is called:
  30:Generated_Source\PSoC4/Comm_UART.c ****     * 0 – disable, other values – enable. Default value is 1.
  31:Generated_Source\PSoC4/Comm_UART.c ****     * It is only available when Enable wakeup from Deep Sleep Mode is enabled.
  32:Generated_Source\PSoC4/Comm_UART.c ****     */
ARM GAS  C:\Users\TECHCO~1\AppData\Local\Temp\ccHwiEe3.s 			page 2


  33:Generated_Source\PSoC4/Comm_UART.c ****     uint8 Comm_skipStart = 1u;
  34:Generated_Source\PSoC4/Comm_UART.c ****     /** \} globals */
  35:Generated_Source\PSoC4/Comm_UART.c **** #endif /* (Comm_UART_WAKE_ENABLE_CONST && Comm_UART_RX_WAKEUP_IRQ) */
  36:Generated_Source\PSoC4/Comm_UART.c **** 
  37:Generated_Source\PSoC4/Comm_UART.c **** #if(Comm_SCB_MODE_UNCONFIG_CONST_CFG)
  38:Generated_Source\PSoC4/Comm_UART.c **** 
  39:Generated_Source\PSoC4/Comm_UART.c ****     /***************************************
  40:Generated_Source\PSoC4/Comm_UART.c ****     *  Configuration Structure Initialization
  41:Generated_Source\PSoC4/Comm_UART.c ****     ***************************************/
  42:Generated_Source\PSoC4/Comm_UART.c **** 
  43:Generated_Source\PSoC4/Comm_UART.c ****     const Comm_UART_INIT_STRUCT Comm_configUart =
  44:Generated_Source\PSoC4/Comm_UART.c ****     {
  45:Generated_Source\PSoC4/Comm_UART.c ****         Comm_UART_SUB_MODE,
  46:Generated_Source\PSoC4/Comm_UART.c ****         Comm_UART_DIRECTION,
  47:Generated_Source\PSoC4/Comm_UART.c ****         Comm_UART_DATA_BITS_NUM,
  48:Generated_Source\PSoC4/Comm_UART.c ****         Comm_UART_PARITY_TYPE,
  49:Generated_Source\PSoC4/Comm_UART.c ****         Comm_UART_STOP_BITS_NUM,
  50:Generated_Source\PSoC4/Comm_UART.c ****         Comm_UART_OVS_FACTOR,
  51:Generated_Source\PSoC4/Comm_UART.c ****         Comm_UART_IRDA_LOW_POWER,
  52:Generated_Source\PSoC4/Comm_UART.c ****         Comm_UART_MEDIAN_FILTER_ENABLE,
  53:Generated_Source\PSoC4/Comm_UART.c ****         Comm_UART_RETRY_ON_NACK,
  54:Generated_Source\PSoC4/Comm_UART.c ****         Comm_UART_IRDA_POLARITY,
  55:Generated_Source\PSoC4/Comm_UART.c ****         Comm_UART_DROP_ON_PARITY_ERR,
  56:Generated_Source\PSoC4/Comm_UART.c ****         Comm_UART_DROP_ON_FRAME_ERR,
  57:Generated_Source\PSoC4/Comm_UART.c ****         Comm_UART_WAKE_ENABLE,
  58:Generated_Source\PSoC4/Comm_UART.c ****         0u,
  59:Generated_Source\PSoC4/Comm_UART.c ****         NULL,
  60:Generated_Source\PSoC4/Comm_UART.c ****         0u,
  61:Generated_Source\PSoC4/Comm_UART.c ****         NULL,
  62:Generated_Source\PSoC4/Comm_UART.c ****         Comm_UART_MP_MODE_ENABLE,
  63:Generated_Source\PSoC4/Comm_UART.c ****         Comm_UART_MP_ACCEPT_ADDRESS,
  64:Generated_Source\PSoC4/Comm_UART.c ****         Comm_UART_MP_RX_ADDRESS,
  65:Generated_Source\PSoC4/Comm_UART.c ****         Comm_UART_MP_RX_ADDRESS_MASK,
  66:Generated_Source\PSoC4/Comm_UART.c ****         (uint32) Comm_SCB_IRQ_INTERNAL,
  67:Generated_Source\PSoC4/Comm_UART.c ****         Comm_UART_INTR_RX_MASK,
  68:Generated_Source\PSoC4/Comm_UART.c ****         Comm_UART_RX_TRIGGER_LEVEL,
  69:Generated_Source\PSoC4/Comm_UART.c ****         Comm_UART_INTR_TX_MASK,
  70:Generated_Source\PSoC4/Comm_UART.c ****         Comm_UART_TX_TRIGGER_LEVEL,
  71:Generated_Source\PSoC4/Comm_UART.c ****         (uint8) Comm_UART_BYTE_MODE_ENABLE,
  72:Generated_Source\PSoC4/Comm_UART.c ****         (uint8) Comm_UART_CTS_ENABLE,
  73:Generated_Source\PSoC4/Comm_UART.c ****         (uint8) Comm_UART_CTS_POLARITY,
  74:Generated_Source\PSoC4/Comm_UART.c ****         (uint8) Comm_UART_RTS_POLARITY,
  75:Generated_Source\PSoC4/Comm_UART.c ****         (uint8) Comm_UART_RTS_FIFO_LEVEL
  76:Generated_Source\PSoC4/Comm_UART.c ****     };
  77:Generated_Source\PSoC4/Comm_UART.c **** 
  78:Generated_Source\PSoC4/Comm_UART.c **** 
  79:Generated_Source\PSoC4/Comm_UART.c ****     /*******************************************************************************
  80:Generated_Source\PSoC4/Comm_UART.c ****     * Function Name: Comm_UartInit
  81:Generated_Source\PSoC4/Comm_UART.c ****     ****************************************************************************//**
  82:Generated_Source\PSoC4/Comm_UART.c ****     *
  83:Generated_Source\PSoC4/Comm_UART.c ****     *  Configures the Comm for UART operation.
  84:Generated_Source\PSoC4/Comm_UART.c ****     *
  85:Generated_Source\PSoC4/Comm_UART.c ****     *  This function is intended specifically to be used when the Comm
  86:Generated_Source\PSoC4/Comm_UART.c ****     *  configuration is set to “Unconfigured Comm” in the customizer.
  87:Generated_Source\PSoC4/Comm_UART.c ****     *  After initializing the Comm in UART mode using this function,
  88:Generated_Source\PSoC4/Comm_UART.c ****     *  the component can be enabled using the Comm_Start() or
  89:Generated_Source\PSoC4/Comm_UART.c ****     * Comm_Enable() function.
ARM GAS  C:\Users\TECHCO~1\AppData\Local\Temp\ccHwiEe3.s 			page 3


  90:Generated_Source\PSoC4/Comm_UART.c ****     *  This function uses a pointer to a structure that provides the configuration
  91:Generated_Source\PSoC4/Comm_UART.c ****     *  settings. This structure contains the same information that would otherwise
  92:Generated_Source\PSoC4/Comm_UART.c ****     *  be provided by the customizer settings.
  93:Generated_Source\PSoC4/Comm_UART.c ****     *
  94:Generated_Source\PSoC4/Comm_UART.c ****     *  \param config: pointer to a structure that contains the following list of
  95:Generated_Source\PSoC4/Comm_UART.c ****     *   fields. These fields match the selections available in the customizer.
  96:Generated_Source\PSoC4/Comm_UART.c ****     *   Refer to the customizer for further description of the settings.
  97:Generated_Source\PSoC4/Comm_UART.c ****     *
  98:Generated_Source\PSoC4/Comm_UART.c ****     *******************************************************************************/
  99:Generated_Source\PSoC4/Comm_UART.c ****     void Comm_UartInit(const Comm_UART_INIT_STRUCT *config)
 100:Generated_Source\PSoC4/Comm_UART.c ****     {
  26              		.loc 1 100 0
  27              		.cfi_startproc
  28              	.LVL0:
  29 0000 38B5     		push	{r3, r4, r5, lr}
  30              		.cfi_def_cfa_offset 16
  31              		.cfi_offset 3, -16
  32              		.cfi_offset 4, -12
  33              		.cfi_offset 5, -8
  34              		.cfi_offset 14, -4
 101:Generated_Source\PSoC4/Comm_UART.c ****         uint32 pinsConfig;
 102:Generated_Source\PSoC4/Comm_UART.c **** 
 103:Generated_Source\PSoC4/Comm_UART.c ****         if (NULL == config)
  35              		.loc 1 103 0
  36 0002 0028     		cmp	r0, #0
  37 0004 00D1     		bne	.LCB12
  38 0006 F7E0     		b	.L1	@long jump
  39              	.LCB12:
  40 0008 041C     		mov	r4, r0
  41              	.LVL1:
 104:Generated_Source\PSoC4/Comm_UART.c ****         {
 105:Generated_Source\PSoC4/Comm_UART.c ****             CYASSERT(0u != 0u); /* Halt execution due to bad function parameter */
 106:Generated_Source\PSoC4/Comm_UART.c ****         }
 107:Generated_Source\PSoC4/Comm_UART.c ****         else
 108:Generated_Source\PSoC4/Comm_UART.c ****         {
 109:Generated_Source\PSoC4/Comm_UART.c ****             /* Get direction to configure UART pins: TX, RX or TX+RX */
 110:Generated_Source\PSoC4/Comm_UART.c ****             pinsConfig  = config->direction;
 111:Generated_Source\PSoC4/Comm_UART.c **** 
 112:Generated_Source\PSoC4/Comm_UART.c ****         #if !(Comm_CY_SCBIP_V0 || Comm_CY_SCBIP_V1)
 113:Generated_Source\PSoC4/Comm_UART.c ****             /* Add RTS and CTS pins to configure */
 114:Generated_Source\PSoC4/Comm_UART.c ****             pinsConfig |= (0u != config->rtsRxFifoLevel) ? (Comm_UART_RTS_PIN_ENABLE) : (0u);
 115:Generated_Source\PSoC4/Comm_UART.c ****             pinsConfig |= (0u != config->enableCts)      ? (Comm_UART_CTS_PIN_ENABLE) : (0u);
 116:Generated_Source\PSoC4/Comm_UART.c ****         #endif /* !(Comm_CY_SCBIP_V0 || Comm_CY_SCBIP_V1) */
 117:Generated_Source\PSoC4/Comm_UART.c **** 
 118:Generated_Source\PSoC4/Comm_UART.c ****             /* Configure pins */
 119:Generated_Source\PSoC4/Comm_UART.c ****             Comm_SetPins(Comm_SCB_MODE_UART, config->mode, pinsConfig);
  42              		.loc 1 119 0
  43 000a 0420     		mov	r0, #4
  44              	.LVL2:
  45 000c 2168     		ldr	r1, [r4]
  46 000e 6268     		ldr	r2, [r4, #4]
  47 0010 FFF7FEFF 		bl	Comm_SetPins
  48              	.LVL3:
 120:Generated_Source\PSoC4/Comm_UART.c **** 
 121:Generated_Source\PSoC4/Comm_UART.c ****             /* Store internal configuration */
 122:Generated_Source\PSoC4/Comm_UART.c ****             Comm_scbMode       = (uint8) Comm_SCB_MODE_UART;
  49              		.loc 1 122 0
ARM GAS  C:\Users\TECHCO~1\AppData\Local\Temp\ccHwiEe3.s 			page 4


  50 0014 0420     		mov	r0, #4
  51 0016 794B     		ldr	r3, .L49
 123:Generated_Source\PSoC4/Comm_UART.c ****             Comm_scbEnableWake = (uint8) config->enableWake;
  52              		.loc 1 123 0
  53 0018 226B     		ldr	r2, [r4, #48]
 122:Generated_Source\PSoC4/Comm_UART.c ****             Comm_scbEnableWake = (uint8) config->enableWake;
  54              		.loc 1 122 0
  55 001a 1870     		strb	r0, [r3]
  56              		.loc 1 123 0
  57 001c 784B     		ldr	r3, .L49+4
 124:Generated_Source\PSoC4/Comm_UART.c ****             Comm_scbEnableIntr = (uint8) config->enableInterrupt;
 125:Generated_Source\PSoC4/Comm_UART.c **** 
 126:Generated_Source\PSoC4/Comm_UART.c ****             /* Set RX direction internal variables */
 127:Generated_Source\PSoC4/Comm_UART.c ****             Comm_rxBuffer      =         config->rxBuffer;
 128:Generated_Source\PSoC4/Comm_UART.c ****             Comm_rxDataBits    = (uint8) config->dataBits;
 129:Generated_Source\PSoC4/Comm_UART.c ****             Comm_rxBufferSize  = (uint8) config->rxBufferSize;
  58              		.loc 1 129 0
  59 001e 616B     		ldr	r1, [r4, #52]
 123:Generated_Source\PSoC4/Comm_UART.c ****             Comm_scbEnableIntr = (uint8) config->enableInterrupt;
  60              		.loc 1 123 0
  61 0020 1A70     		strb	r2, [r3]
 124:Generated_Source\PSoC4/Comm_UART.c ****             Comm_scbEnableIntr = (uint8) config->enableInterrupt;
  62              		.loc 1 124 0
  63 0022 784B     		ldr	r3, .L49+8
  64 0024 626D     		ldr	r2, [r4, #84]
  65              		.loc 1 129 0
  66 0026 784D     		ldr	r5, .L49+12
 124:Generated_Source\PSoC4/Comm_UART.c ****             Comm_scbEnableIntr = (uint8) config->enableInterrupt;
  67              		.loc 1 124 0
  68 0028 1A70     		strb	r2, [r3]
 127:Generated_Source\PSoC4/Comm_UART.c ****             Comm_rxDataBits    = (uint8) config->dataBits;
  69              		.loc 1 127 0
  70 002a 784B     		ldr	r3, .L49+16
  71 002c A26B     		ldr	r2, [r4, #56]
  72 002e 1A60     		str	r2, [r3]
 128:Generated_Source\PSoC4/Comm_UART.c ****             Comm_rxBufferSize  = (uint8) config->rxBufferSize;
  73              		.loc 1 128 0
  74 0030 227A     		ldrb	r2, [r4, #8]
  75 0032 774B     		ldr	r3, .L49+20
  76 0034 1A70     		strb	r2, [r3]
  77              		.loc 1 129 0
  78 0036 FF23     		mov	r3, #255
  79 0038 1940     		and	r1, r3
  80 003a 2960     		str	r1, [r5]
 130:Generated_Source\PSoC4/Comm_UART.c **** 
 131:Generated_Source\PSoC4/Comm_UART.c ****             /* Set TX direction internal variables */
 132:Generated_Source\PSoC4/Comm_UART.c ****             Comm_txBuffer      =         config->txBuffer;
  81              		.loc 1 132 0
  82 003c 7549     		ldr	r1, .L49+24
  83 003e 256C     		ldr	r5, [r4, #64]
  84 0040 0D60     		str	r5, [r1]
 133:Generated_Source\PSoC4/Comm_UART.c ****             Comm_txDataBits    = (uint8) config->dataBits;
  85              		.loc 1 133 0
  86 0042 7549     		ldr	r1, .L49+28
  87 0044 0A70     		strb	r2, [r1]
 134:Generated_Source\PSoC4/Comm_UART.c ****             Comm_txBufferSize  = (uint8) config->txBufferSize;
  88              		.loc 1 134 0
ARM GAS  C:\Users\TECHCO~1\AppData\Local\Temp\ccHwiEe3.s 			page 5


  89 0046 E26B     		ldr	r2, [r4, #60]
 135:Generated_Source\PSoC4/Comm_UART.c **** 
 136:Generated_Source\PSoC4/Comm_UART.c ****             /* Configure UART interface */
 137:Generated_Source\PSoC4/Comm_UART.c ****             if(Comm_UART_MODE_IRDA == config->mode)
  90              		.loc 1 137 0
  91 0048 2568     		ldr	r5, [r4]
 134:Generated_Source\PSoC4/Comm_UART.c ****             Comm_txBufferSize  = (uint8) config->txBufferSize;
  92              		.loc 1 134 0
  93 004a 1340     		and	r3, r2
  94 004c 734A     		ldr	r2, .L49+32
  95 004e 7449     		ldr	r1, .L49+36
  96 0050 1360     		str	r3, [r2]
  97              		.loc 1 137 0
  98 0052 022D     		cmp	r5, #2
  99 0054 22D1     		bne	.L3
 138:Generated_Source\PSoC4/Comm_UART.c ****             {
 139:Generated_Source\PSoC4/Comm_UART.c ****                 /* OVS settings: IrDA */
 140:Generated_Source\PSoC4/Comm_UART.c ****                 Comm_CTRL_REG  = ((0u != config->enableIrdaLowPower) ?
 100              		.loc 1 140 0
 101 0056 A369     		ldr	r3, [r4, #24]
 102 0058 1022     		mov	r2, #16
 103 005a 002B     		cmp	r3, #0
 104 005c 1CD0     		beq	.L4
 141:Generated_Source\PSoC4/Comm_UART.c ****                                                 (Comm_UART_GET_CTRL_OVS_IRDA_LP(config->oversample)
 105              		.loc 1 141 0 discriminator 1
 106 005e 6369     		ldr	r3, [r4, #20]
 140:Generated_Source\PSoC4/Comm_UART.c ****                                                 (Comm_UART_GET_CTRL_OVS_IRDA_LP(config->oversample)
 107              		.loc 1 140 0 discriminator 1
 108 0060 0022     		mov	r2, #0
 109 0062 102B     		cmp	r3, #16
 110 0064 18D0     		beq	.L4
 140:Generated_Source\PSoC4/Comm_UART.c ****                                                 (Comm_UART_GET_CTRL_OVS_IRDA_LP(config->oversample)
 111              		.loc 1 140 0 is_stmt 0 discriminator 3
 112 0066 0132     		add	r2, r2, #1
 113 0068 202B     		cmp	r3, #32
 114 006a 15D0     		beq	.L4
 140:Generated_Source\PSoC4/Comm_UART.c ****                                                 (Comm_UART_GET_CTRL_OVS_IRDA_LP(config->oversample)
 115              		.loc 1 140 0 discriminator 5
 116 006c 2A1C     		mov	r2, r5
 117 006e 302B     		cmp	r3, #48
 118 0070 12D0     		beq	.L4
 140:Generated_Source\PSoC4/Comm_UART.c ****                                                 (Comm_UART_GET_CTRL_OVS_IRDA_LP(config->oversample)
 119              		.loc 1 140 0 discriminator 7
 120 0072 0132     		add	r2, r2, #1
 121 0074 602B     		cmp	r3, #96
 122 0076 0FD0     		beq	.L4
 140:Generated_Source\PSoC4/Comm_UART.c ****                                                 (Comm_UART_GET_CTRL_OVS_IRDA_LP(config->oversample)
 123              		.loc 1 140 0 discriminator 9
 124 0078 021C     		mov	r2, r0
 125 007a C02B     		cmp	r3, #192
 126 007c 0CD0     		beq	.L4
 140:Generated_Source\PSoC4/Comm_UART.c ****                                                 (Comm_UART_GET_CTRL_OVS_IRDA_LP(config->oversample)
 127              		.loc 1 140 0 discriminator 11
 128 007e C020     		mov	r0, #192
 129 0080 0132     		add	r2, r2, #1
 130 0082 8000     		lsl	r0, r0, #2
 131 0084 8342     		cmp	r3, r0
ARM GAS  C:\Users\TECHCO~1\AppData\Local\Temp\ccHwiEe3.s 			page 6


 132 0086 07D0     		beq	.L4
 140:Generated_Source\PSoC4/Comm_UART.c ****                                                 (Comm_UART_GET_CTRL_OVS_IRDA_LP(config->oversample)
 133              		.loc 1 140 0 discriminator 13
 134 0088 C020     		mov	r0, #192
 135 008a C000     		lsl	r0, r0, #3
 136 008c 1B1A     		sub	r3, r3, r0
 137 008e 5D42     		neg	r5, r3
 138 0090 5D41     		adc	r5, r5, r3
 139 0092 0132     		add	r2, r2, #1
 140 0094 6B42     		neg	r3, r5
 141 0096 1A40     		and	r2, r3
 142              	.L4:
 140:Generated_Source\PSoC4/Comm_UART.c ****                                                 (Comm_UART_GET_CTRL_OVS_IRDA_LP(config->oversample)
 143              		.loc 1 140 0 discriminator 32
 144 0098 0A60     		str	r2, [r1]
 145 009a 04E0     		b	.L5
 146              	.L3:
 142:Generated_Source\PSoC4/Comm_UART.c ****                                                 (Comm_CTRL_OVS_IRDA_OVS16));
 143:Generated_Source\PSoC4/Comm_UART.c ****             }
 144:Generated_Source\PSoC4/Comm_UART.c ****             else
 145:Generated_Source\PSoC4/Comm_UART.c ****             {
 146:Generated_Source\PSoC4/Comm_UART.c ****                 /* OVS settings: UART and SmartCard */
 147:Generated_Source\PSoC4/Comm_UART.c ****                 Comm_CTRL_REG  = Comm_GET_CTRL_OVS(config->oversample);
 147              		.loc 1 147 0 is_stmt 1
 148 009c 6369     		ldr	r3, [r4, #20]
 149 009e 5A1E     		sub	r2, r3, #1
 150 00a0 0F23     		mov	r3, #15
 151 00a2 1340     		and	r3, r2
 152 00a4 0B60     		str	r3, [r1]
 153              	.L5:
 148:Generated_Source\PSoC4/Comm_UART.c ****             }
 149:Generated_Source\PSoC4/Comm_UART.c **** 
 150:Generated_Source\PSoC4/Comm_UART.c ****             Comm_CTRL_REG     |= Comm_GET_CTRL_BYTE_MODE  (config->enableByteMode)      |
 151:Generated_Source\PSoC4/Comm_UART.c ****                                              Comm_GET_CTRL_ADDR_ACCEPT(config->multiprocAcceptAddr)
 154              		.loc 1 151 0
 155 00a6 A26C     		ldr	r2, [r4, #72]
 150:Generated_Source\PSoC4/Comm_UART.c ****                                              Comm_GET_CTRL_ADDR_ACCEPT(config->multiprocAcceptAddr)
 156              		.loc 1 150 0
 157 00a8 0B68     		ldr	r3, [r1]
 158              		.loc 1 151 0
 159 00aa 002A     		cmp	r2, #0
 160 00ac 02D1     		bne	.L27
 161 00ae 8022     		mov	r2, #128
 162 00b0 9204     		lsl	r2, r2, #18
 163 00b2 00E0     		b	.L6
 164              	.L27:
 165 00b4 5B4A     		ldr	r2, .L49+40
 166              	.L6:
 150:Generated_Source\PSoC4/Comm_UART.c ****                                              Comm_GET_CTRL_ADDR_ACCEPT(config->multiprocAcceptAddr)
 167              		.loc 1 150 0
 168 00b6 1343     		orr	r3, r2
 169 00b8 0B60     		str	r3, [r1]
 152:Generated_Source\PSoC4/Comm_UART.c ****                                              Comm_CTRL_UART;
 153:Generated_Source\PSoC4/Comm_UART.c **** 
 154:Generated_Source\PSoC4/Comm_UART.c ****             /* Configure sub-mode: UART, SmartCard or IrDA */
 155:Generated_Source\PSoC4/Comm_UART.c ****             Comm_UART_CTRL_REG = Comm_GET_UART_CTRL_MODE(config->mode);
 170              		.loc 1 155 0
ARM GAS  C:\Users\TECHCO~1\AppData\Local\Temp\ccHwiEe3.s 			page 7


 171 00ba 2368     		ldr	r3, [r4]
 172 00bc 1A06     		lsl	r2, r3, #24
 173 00be C023     		mov	r3, #192
 174 00c0 9B04     		lsl	r3, r3, #18
 175 00c2 1340     		and	r3, r2
 176 00c4 584A     		ldr	r2, .L49+44
 177 00c6 1360     		str	r3, [r2]
 156:Generated_Source\PSoC4/Comm_UART.c **** 
 157:Generated_Source\PSoC4/Comm_UART.c ****             /* Configure RX direction */
 158:Generated_Source\PSoC4/Comm_UART.c ****             Comm_UART_RX_CTRL_REG = Comm_GET_UART_RX_CTRL_MODE(config->stopBits)              |
 178              		.loc 1 158 0
 179 00c8 2369     		ldr	r3, [r4, #16]
 159:Generated_Source\PSoC4/Comm_UART.c ****                                         Comm_GET_UART_RX_CTRL_POLARITY(config->enableInvertedRx)   
 180              		.loc 1 159 0
 181 00ca 606A     		ldr	r0, [r4, #36]
 158:Generated_Source\PSoC4/Comm_UART.c ****                                         Comm_GET_UART_RX_CTRL_POLARITY(config->enableInvertedRx)   
 182              		.loc 1 158 0
 183 00cc 5A1E     		sub	r2, r3, #1
 184 00ce 0723     		mov	r3, #7
 185 00d0 1A40     		and	r2, r3
 186              		.loc 1 159 0
 187 00d2 0028     		cmp	r0, #0
 188 00d4 00D0     		beq	.L7
 189 00d6 4020     		mov	r0, #64
 190              	.L7:
 158:Generated_Source\PSoC4/Comm_UART.c ****                                         Comm_GET_UART_RX_CTRL_POLARITY(config->enableInvertedRx)   
 191              		.loc 1 158 0
 192 00d8 0243     		orr	r2, r0
 160:Generated_Source\PSoC4/Comm_UART.c ****                                         Comm_GET_UART_RX_CTRL_MP_MODE(config->enableMultiproc)     
 193              		.loc 1 160 0
 194 00da 606C     		ldr	r0, [r4, #68]
 195 00dc 0028     		cmp	r0, #0
 196 00de 01D0     		beq	.L8
 197 00e0 8020     		mov	r0, #128
 198 00e2 C000     		lsl	r0, r0, #3
 199              	.L8:
 161:Generated_Source\PSoC4/Comm_UART.c ****                                         Comm_GET_UART_RX_CTRL_DROP_ON_PARITY_ERR(config->dropOnPari
 200              		.loc 1 161 0
 201 00e4 A16A     		ldr	r1, [r4, #40]
 159:Generated_Source\PSoC4/Comm_UART.c ****                                         Comm_GET_UART_RX_CTRL_MP_MODE(config->enableMultiproc)     
 202              		.loc 1 159 0
 203 00e6 0243     		orr	r2, r0
 204              		.loc 1 161 0
 205 00e8 0029     		cmp	r1, #0
 206 00ea 01D0     		beq	.L9
 207 00ec 8021     		mov	r1, #128
 208 00ee 4900     		lsl	r1, r1, #1
 209              	.L9:
 162:Generated_Source\PSoC4/Comm_UART.c ****                                         Comm_GET_UART_RX_CTRL_DROP_ON_FRAME_ERR(config->dropOnFrame
 210              		.loc 1 162 0
 211 00f0 E36A     		ldr	r3, [r4, #44]
 160:Generated_Source\PSoC4/Comm_UART.c ****                                         Comm_GET_UART_RX_CTRL_DROP_ON_PARITY_ERR(config->dropOnPari
 212              		.loc 1 160 0
 213 00f2 0A43     		orr	r2, r1
 214              		.loc 1 162 0
 215 00f4 002B     		cmp	r3, #0
 216 00f6 01D0     		beq	.L10
ARM GAS  C:\Users\TECHCO~1\AppData\Local\Temp\ccHwiEe3.s 			page 8


 217 00f8 8023     		mov	r3, #128
 218 00fa 9B00     		lsl	r3, r3, #2
 219              	.L10:
 161:Generated_Source\PSoC4/Comm_UART.c ****                                         Comm_GET_UART_RX_CTRL_DROP_ON_FRAME_ERR(config->dropOnFrame
 220              		.loc 1 161 0
 221 00fc 1A43     		orr	r2, r3
 158:Generated_Source\PSoC4/Comm_UART.c ****                                         Comm_GET_UART_RX_CTRL_POLARITY(config->enableInvertedRx)   
 222              		.loc 1 158 0
 223 00fe 4B4B     		ldr	r3, .L49+48
 224 0100 1A60     		str	r2, [r3]
 163:Generated_Source\PSoC4/Comm_UART.c **** 
 164:Generated_Source\PSoC4/Comm_UART.c ****             if(Comm_UART_PARITY_NONE != config->parity)
 225              		.loc 1 164 0
 226 0102 E068     		ldr	r0, [r4, #12]
 227 0104 0228     		cmp	r0, #2
 228 0106 06D0     		beq	.L11
 165:Generated_Source\PSoC4/Comm_UART.c ****             {
 166:Generated_Source\PSoC4/Comm_UART.c ****                Comm_UART_RX_CTRL_REG |= Comm_GET_UART_RX_CTRL_PARITY(config->parity) |
 229              		.loc 1 166 0
 230 0108 1A68     		ldr	r2, [r3]
 231 010a 3021     		mov	r1, #48
 232 010c 0028     		cmp	r0, #0
 233 010e 00D1     		bne	.L12
 234 0110 1039     		sub	r1, r1, #16
 235              	.L12:
 236              		.loc 1 166 0 is_stmt 0 discriminator 4
 237 0112 0A43     		orr	r2, r1
 238 0114 1A60     		str	r2, [r3]
 239              	.L11:
 167:Generated_Source\PSoC4/Comm_UART.c ****                                                     Comm_UART_RX_CTRL_PARITY_ENABLED;
 168:Generated_Source\PSoC4/Comm_UART.c ****             }
 169:Generated_Source\PSoC4/Comm_UART.c **** 
 170:Generated_Source\PSoC4/Comm_UART.c ****             Comm_RX_CTRL_REG      = Comm_GET_RX_CTRL_DATA_WIDTH(config->dataBits)       |
 240              		.loc 1 170 0 is_stmt 1
 241 0116 A368     		ldr	r3, [r4, #8]
 242 0118 591E     		sub	r1, r3, #1
 243 011a 0F23     		mov	r3, #15
 244 011c 0B40     		and	r3, r1
 171:Generated_Source\PSoC4/Comm_UART.c ****                                                 Comm_GET_RX_CTRL_MEDIAN(config->enableMedianFilter)
 245              		.loc 1 171 0
 246 011e E169     		ldr	r1, [r4, #28]
 247 0120 0029     		cmp	r1, #0
 248 0122 01D0     		beq	.L13
 249 0124 8021     		mov	r1, #128
 250 0126 8900     		lsl	r1, r1, #2
 251              	.L13:
 172:Generated_Source\PSoC4/Comm_UART.c ****                                                 Comm_GET_UART_RX_CTRL_ENABLED(config->direction);
 252              		.loc 1 172 0
 253 0128 0122     		mov	r2, #1
 170:Generated_Source\PSoC4/Comm_UART.c ****                                                 Comm_GET_RX_CTRL_MEDIAN(config->enableMedianFilter)
 254              		.loc 1 170 0
 255 012a 1943     		orr	r1, r3
 256              		.loc 1 172 0
 257 012c 6368     		ldr	r3, [r4, #4]
 258 012e 1340     		and	r3, r2
 259 0130 01D0     		beq	.L14
 260 0132 8023     		mov	r3, #128
ARM GAS  C:\Users\TECHCO~1\AppData\Local\Temp\ccHwiEe3.s 			page 9


 261 0134 1B06     		lsl	r3, r3, #24
 262              	.L14:
 170:Generated_Source\PSoC4/Comm_UART.c ****                                                 Comm_GET_RX_CTRL_MEDIAN(config->enableMedianFilter)
 263              		.loc 1 170 0
 264 0136 3E4A     		ldr	r2, .L49+52
 171:Generated_Source\PSoC4/Comm_UART.c ****                                                 Comm_GET_RX_CTRL_MEDIAN(config->enableMedianFilter)
 265              		.loc 1 171 0
 266 0138 0B43     		orr	r3, r1
 170:Generated_Source\PSoC4/Comm_UART.c ****                                                 Comm_GET_RX_CTRL_MEDIAN(config->enableMedianFilter)
 267              		.loc 1 170 0
 268 013a 1360     		str	r3, [r2]
 173:Generated_Source\PSoC4/Comm_UART.c **** 
 174:Generated_Source\PSoC4/Comm_UART.c ****             Comm_RX_FIFO_CTRL_REG = Comm_GET_RX_FIFO_CTRL_TRIGGER_LEVEL(config->rxTriggerLevel);
 269              		.loc 1 174 0
 270 013c 0723     		mov	r3, #7
 271 013e E26D     		ldr	r2, [r4, #92]
 272 0140 3C49     		ldr	r1, .L49+56
 273 0142 1A40     		and	r2, r3
 274 0144 0A60     		str	r2, [r1]
 175:Generated_Source\PSoC4/Comm_UART.c **** 
 176:Generated_Source\PSoC4/Comm_UART.c ****             /* Configure MP address */
 177:Generated_Source\PSoC4/Comm_UART.c ****             Comm_RX_MATCH_REG     = Comm_GET_RX_MATCH_ADDR(config->multiprocAddr) |
 178:Generated_Source\PSoC4/Comm_UART.c ****                                                 Comm_GET_RX_MATCH_MASK(config->multiprocAddrMask);
 275              		.loc 1 178 0
 276 0146 226D     		ldr	r2, [r4, #80]
 277 0148 1104     		lsl	r1, r2, #16
 278 014a FF22     		mov	r2, #255
 279 014c 1204     		lsl	r2, r2, #16
 280 014e 0A40     		and	r2, r1
 177:Generated_Source\PSoC4/Comm_UART.c ****                                                 Comm_GET_RX_MATCH_MASK(config->multiprocAddrMask);
 281              		.loc 1 177 0
 282 0150 E16C     		ldr	r1, [r4, #76]
 283 0152 C9B2     		uxtb	r1, r1
 284 0154 0A43     		orr	r2, r1
 285 0156 3849     		ldr	r1, .L49+60
 286 0158 0A60     		str	r2, [r1]
 179:Generated_Source\PSoC4/Comm_UART.c **** 
 180:Generated_Source\PSoC4/Comm_UART.c ****             /* Configure RX direction */
 181:Generated_Source\PSoC4/Comm_UART.c ****             Comm_UART_TX_CTRL_REG = Comm_GET_UART_TX_CTRL_MODE(config->stopBits) |
 287              		.loc 1 181 0
 288 015a 2269     		ldr	r2, [r4, #16]
 289 015c 013A     		sub	r2, r2, #1
 290 015e 1340     		and	r3, r2
 182:Generated_Source\PSoC4/Comm_UART.c ****                                                 Comm_GET_UART_TX_CTRL_RETRY_NACK(config->enableRetr
 291              		.loc 1 182 0
 292 0160 226A     		ldr	r2, [r4, #32]
 293 0162 002A     		cmp	r2, #0
 294 0164 01D0     		beq	.L15
 295 0166 8022     		mov	r2, #128
 296 0168 5200     		lsl	r2, r2, #1
 297              	.L15:
 181:Generated_Source\PSoC4/Comm_UART.c ****                                                 Comm_GET_UART_TX_CTRL_RETRY_NACK(config->enableRetr
 298              		.loc 1 181 0
 299 016a 1343     		orr	r3, r2
 300 016c 334A     		ldr	r2, .L49+64
 301 016e 1360     		str	r3, [r2]
 183:Generated_Source\PSoC4/Comm_UART.c **** 
ARM GAS  C:\Users\TECHCO~1\AppData\Local\Temp\ccHwiEe3.s 			page 10


 184:Generated_Source\PSoC4/Comm_UART.c ****             if(Comm_UART_PARITY_NONE != config->parity)
 302              		.loc 1 184 0
 303 0170 E068     		ldr	r0, [r4, #12]
 304 0172 131C     		mov	r3, r2
 305 0174 0228     		cmp	r0, #2
 306 0176 06D0     		beq	.L16
 185:Generated_Source\PSoC4/Comm_UART.c ****             {
 186:Generated_Source\PSoC4/Comm_UART.c ****                Comm_UART_TX_CTRL_REG |= Comm_GET_UART_TX_CTRL_PARITY(config->parity) |
 307              		.loc 1 186 0
 308 0178 1268     		ldr	r2, [r2]
 309 017a 3021     		mov	r1, #48
 310 017c 0028     		cmp	r0, #0
 311 017e 00D1     		bne	.L17
 312 0180 1039     		sub	r1, r1, #16
 313              	.L17:
 314              		.loc 1 186 0 is_stmt 0 discriminator 4
 315 0182 0A43     		orr	r2, r1
 316 0184 1A60     		str	r2, [r3]
 317              	.L16:
 187:Generated_Source\PSoC4/Comm_UART.c ****                                                     Comm_UART_TX_CTRL_PARITY_ENABLED;
 188:Generated_Source\PSoC4/Comm_UART.c ****             }
 189:Generated_Source\PSoC4/Comm_UART.c **** 
 190:Generated_Source\PSoC4/Comm_UART.c ****             Comm_TX_CTRL_REG      = Comm_GET_TX_CTRL_DATA_WIDTH(config->dataBits)    |
 318              		.loc 1 190 0 is_stmt 1
 319 0186 A368     		ldr	r3, [r4, #8]
 191:Generated_Source\PSoC4/Comm_UART.c ****                                                 Comm_GET_UART_TX_CTRL_ENABLED(config->direction);
 320              		.loc 1 191 0
 321 0188 6168     		ldr	r1, [r4, #4]
 190:Generated_Source\PSoC4/Comm_UART.c ****                                                 Comm_GET_UART_TX_CTRL_ENABLED(config->direction);
 322              		.loc 1 190 0
 323 018a 5A1E     		sub	r2, r3, #1
 324 018c 0F23     		mov	r3, #15
 325 018e 1A40     		and	r2, r3
 326              		.loc 1 191 0
 327 0190 0D3B     		sub	r3, r3, #13
 328 0192 0B40     		and	r3, r1
 329 0194 01D0     		beq	.L18
 330 0196 8023     		mov	r3, #128
 331 0198 1B06     		lsl	r3, r3, #24
 332              	.L18:
 190:Generated_Source\PSoC4/Comm_UART.c ****                                                 Comm_GET_UART_TX_CTRL_ENABLED(config->direction);
 333              		.loc 1 190 0
 334 019a 1343     		orr	r3, r2
 335 019c 284A     		ldr	r2, .L49+68
 192:Generated_Source\PSoC4/Comm_UART.c **** 
 193:Generated_Source\PSoC4/Comm_UART.c ****             Comm_TX_FIFO_CTRL_REG = Comm_GET_TX_FIFO_CTRL_TRIGGER_LEVEL(config->txTriggerLevel);
 194:Generated_Source\PSoC4/Comm_UART.c **** 
 195:Generated_Source\PSoC4/Comm_UART.c ****         #if !(Comm_CY_SCBIP_V0 || Comm_CY_SCBIP_V1)
 196:Generated_Source\PSoC4/Comm_UART.c ****             Comm_UART_FLOW_CTRL_REG = Comm_GET_UART_FLOW_CTRL_CTS_ENABLE(config->enableCts) | \
 197:Generated_Source\PSoC4/Comm_UART.c ****                                             Comm_GET_UART_FLOW_CTRL_CTS_POLARITY (config->ctsPolari
 198:Generated_Source\PSoC4/Comm_UART.c ****                                             Comm_GET_UART_FLOW_CTRL_RTS_POLARITY (config->rtsPolari
 199:Generated_Source\PSoC4/Comm_UART.c ****                                             Comm_GET_UART_FLOW_CTRL_TRIGGER_LEVEL(config->rtsRxFifo
 200:Generated_Source\PSoC4/Comm_UART.c ****         #endif /* !(Comm_CY_SCBIP_V0 || Comm_CY_SCBIP_V1) */
 201:Generated_Source\PSoC4/Comm_UART.c **** 
 202:Generated_Source\PSoC4/Comm_UART.c ****             /* Configure interrupt with UART handler but do not enable it */
 203:Generated_Source\PSoC4/Comm_UART.c ****             CyIntDisable    (Comm_ISR_NUMBER);
 336              		.loc 1 203 0
ARM GAS  C:\Users\TECHCO~1\AppData\Local\Temp\ccHwiEe3.s 			page 11


 337 019e 0A20     		mov	r0, #10
 190:Generated_Source\PSoC4/Comm_UART.c ****                                                 Comm_GET_UART_TX_CTRL_ENABLED(config->direction);
 338              		.loc 1 190 0
 339 01a0 1360     		str	r3, [r2]
 193:Generated_Source\PSoC4/Comm_UART.c **** 
 340              		.loc 1 193 0
 341 01a2 0723     		mov	r3, #7
 342 01a4 626E     		ldr	r2, [r4, #100]
 343 01a6 1340     		and	r3, r2
 344 01a8 264A     		ldr	r2, .L49+72
 345 01aa 1360     		str	r3, [r2]
 346              		.loc 1 203 0
 347 01ac FFF7FEFF 		bl	CyIntDisable
 348              	.LVL4:
 204:Generated_Source\PSoC4/Comm_UART.c ****             CyIntSetPriority(Comm_ISR_NUMBER, Comm_ISR_PRIORITY);
 349              		.loc 1 204 0
 350 01b0 0A20     		mov	r0, #10
 351 01b2 0321     		mov	r1, #3
 352 01b4 FFF7FEFF 		bl	CyIntSetPriority
 353              	.LVL5:
 205:Generated_Source\PSoC4/Comm_UART.c ****             (void) CyIntSetVector(Comm_ISR_NUMBER, &Comm_SPI_UART_ISR);
 354              		.loc 1 205 0
 355 01b8 2349     		ldr	r1, .L49+76
 356 01ba 0A20     		mov	r0, #10
 357 01bc FFF7FEFF 		bl	CyIntSetVector
 358              	.LVL6:
 206:Generated_Source\PSoC4/Comm_UART.c **** 
 207:Generated_Source\PSoC4/Comm_UART.c ****             /* Configure WAKE interrupt */
 208:Generated_Source\PSoC4/Comm_UART.c ****         #if(Comm_UART_RX_WAKEUP_IRQ)
 209:Generated_Source\PSoC4/Comm_UART.c ****             CyIntDisable    (Comm_RX_WAKE_ISR_NUMBER);
 210:Generated_Source\PSoC4/Comm_UART.c ****             CyIntSetPriority(Comm_RX_WAKE_ISR_NUMBER, Comm_RX_WAKE_ISR_PRIORITY);
 211:Generated_Source\PSoC4/Comm_UART.c ****             (void) CyIntSetVector(Comm_RX_WAKE_ISR_NUMBER, &Comm_UART_WAKEUP_ISR);
 212:Generated_Source\PSoC4/Comm_UART.c ****         #endif /* (Comm_UART_RX_WAKEUP_IRQ) */
 213:Generated_Source\PSoC4/Comm_UART.c **** 
 214:Generated_Source\PSoC4/Comm_UART.c ****             /* Configure interrupt sources */
 215:Generated_Source\PSoC4/Comm_UART.c ****             Comm_INTR_I2C_EC_MASK_REG = Comm_NO_INTR_SOURCES;
 359              		.loc 1 215 0
 360 01c0 0023     		mov	r3, #0
 361 01c2 224A     		ldr	r2, .L49+80
 362 01c4 1360     		str	r3, [r2]
 216:Generated_Source\PSoC4/Comm_UART.c ****             Comm_INTR_SPI_EC_MASK_REG = Comm_NO_INTR_SOURCES;
 363              		.loc 1 216 0
 364 01c6 224A     		ldr	r2, .L49+84
 365 01c8 1360     		str	r3, [r2]
 217:Generated_Source\PSoC4/Comm_UART.c ****             Comm_INTR_SLAVE_MASK_REG  = Comm_NO_INTR_SOURCES;
 366              		.loc 1 217 0
 367 01ca 224A     		ldr	r2, .L49+88
 368 01cc 1360     		str	r3, [r2]
 218:Generated_Source\PSoC4/Comm_UART.c ****             Comm_INTR_MASTER_MASK_REG = Comm_NO_INTR_SOURCES;
 369              		.loc 1 218 0
 370 01ce 224A     		ldr	r2, .L49+92
 371 01d0 1360     		str	r3, [r2]
 219:Generated_Source\PSoC4/Comm_UART.c ****             Comm_INTR_RX_MASK_REG     = config->rxInterruptMask;
 372              		.loc 1 219 0
 373 01d2 A16D     		ldr	r1, [r4, #88]
 374 01d4 214A     		ldr	r2, .L49+96
 375 01d6 1160     		str	r1, [r2]
ARM GAS  C:\Users\TECHCO~1\AppData\Local\Temp\ccHwiEe3.s 			page 12


 220:Generated_Source\PSoC4/Comm_UART.c ****             Comm_INTR_TX_MASK_REG     = config->txInterruptMask;
 376              		.loc 1 220 0
 377 01d8 216E     		ldr	r1, [r4, #96]
 378 01da 214A     		ldr	r2, .L49+100
 379 01dc 1160     		str	r1, [r2]
 221:Generated_Source\PSoC4/Comm_UART.c ****         
 222:Generated_Source\PSoC4/Comm_UART.c ****             /* Configure TX interrupt sources to restore. */
 223:Generated_Source\PSoC4/Comm_UART.c ****             Comm_IntrTxMask = LO16(Comm_INTR_TX_MASK_REG);
 380              		.loc 1 223 0
 381 01de 1168     		ldr	r1, [r2]
 382 01e0 204A     		ldr	r2, .L49+104
 383 01e2 1180     		strh	r1, [r2]
 224:Generated_Source\PSoC4/Comm_UART.c **** 
 225:Generated_Source\PSoC4/Comm_UART.c ****             /* Clear RX buffer indexes */
 226:Generated_Source\PSoC4/Comm_UART.c ****             Comm_rxBufferHead     = 0u;
 384              		.loc 1 226 0
 385 01e4 204A     		ldr	r2, .L49+108
 386 01e6 1360     		str	r3, [r2]
 227:Generated_Source\PSoC4/Comm_UART.c ****             Comm_rxBufferTail     = 0u;
 387              		.loc 1 227 0
 388 01e8 204A     		ldr	r2, .L49+112
 389 01ea 1360     		str	r3, [r2]
 228:Generated_Source\PSoC4/Comm_UART.c ****             Comm_rxBufferOverflow = 0u;
 390              		.loc 1 228 0
 391 01ec 204A     		ldr	r2, .L49+116
 392 01ee 1370     		strb	r3, [r2]
 229:Generated_Source\PSoC4/Comm_UART.c **** 
 230:Generated_Source\PSoC4/Comm_UART.c ****             /* Clear TX buffer indexes */
 231:Generated_Source\PSoC4/Comm_UART.c ****             Comm_txBufferHead = 0u;
 393              		.loc 1 231 0
 394 01f0 204A     		ldr	r2, .L49+120
 395 01f2 1360     		str	r3, [r2]
 232:Generated_Source\PSoC4/Comm_UART.c ****             Comm_txBufferTail = 0u;
 396              		.loc 1 232 0
 397 01f4 204A     		ldr	r2, .L49+124
 398 01f6 1360     		str	r3, [r2]
 399              	.LVL7:
 400              	.L1:
 233:Generated_Source\PSoC4/Comm_UART.c ****         }
 234:Generated_Source\PSoC4/Comm_UART.c ****     }
 401              		.loc 1 234 0
 402              		@ sp needed
 403 01f8 38BD     		pop	{r3, r4, r5, pc}
 404              	.L50:
 405 01fa C046     		.align	2
 406              	.L49:
 407 01fc 00000000 		.word	Comm_scbMode
 408 0200 00000000 		.word	Comm_scbEnableWake
 409 0204 00000000 		.word	Comm_scbEnableIntr
 410 0208 00000000 		.word	Comm_rxBufferSize
 411 020c 00000000 		.word	Comm_rxBuffer
 412 0210 00000000 		.word	Comm_rxDataBits
 413 0214 00000000 		.word	Comm_txBuffer
 414 0218 00000000 		.word	Comm_txDataBits
 415 021c 00000000 		.word	Comm_txBufferSize
 416 0220 00000640 		.word	1074135040
 417 0224 00000102 		.word	33619968
ARM GAS  C:\Users\TECHCO~1\AppData\Local\Temp\ccHwiEe3.s 			page 13


 418 0228 40000640 		.word	1074135104
 419 022c 48000640 		.word	1074135112
 420 0230 00030640 		.word	1074135808
 421 0234 04030640 		.word	1074135812
 422 0238 10030640 		.word	1074135824
 423 023c 44000640 		.word	1074135108
 424 0240 00020640 		.word	1074135552
 425 0244 04020640 		.word	1074135556
 426 0248 00000000 		.word	Comm_SPI_UART_ISR
 427 024c 880E0640 		.word	1074138760
 428 0250 C80E0640 		.word	1074138824
 429 0254 480F0640 		.word	1074138952
 430 0258 080F0640 		.word	1074138888
 431 025c C80F0640 		.word	1074139080
 432 0260 880F0640 		.word	1074139016
 433 0264 00000000 		.word	Comm_IntrTxMask
 434 0268 00000000 		.word	Comm_rxBufferHead
 435 026c 00000000 		.word	Comm_rxBufferTail
 436 0270 00000000 		.word	Comm_rxBufferOverflow
 437 0274 00000000 		.word	Comm_txBufferHead
 438 0278 00000000 		.word	Comm_txBufferTail
 439              		.cfi_endproc
 440              	.LFE0:
 441              		.size	Comm_UartInit, .-Comm_UartInit
 442              		.section	.text.Comm_UartPostEnable,"ax",%progbits
 443              		.align	1
 444              		.global	Comm_UartPostEnable
 445              		.code	16
 446              		.thumb_func
 447              		.type	Comm_UartPostEnable, %function
 448              	Comm_UartPostEnable:
 449              	.LFB1:
 235:Generated_Source\PSoC4/Comm_UART.c **** 
 236:Generated_Source\PSoC4/Comm_UART.c **** #else
 237:Generated_Source\PSoC4/Comm_UART.c **** 
 238:Generated_Source\PSoC4/Comm_UART.c ****     /*******************************************************************************
 239:Generated_Source\PSoC4/Comm_UART.c ****     * Function Name: Comm_UartInit
 240:Generated_Source\PSoC4/Comm_UART.c ****     ****************************************************************************//**
 241:Generated_Source\PSoC4/Comm_UART.c ****     *
 242:Generated_Source\PSoC4/Comm_UART.c ****     *  Configures the SCB for the UART operation.
 243:Generated_Source\PSoC4/Comm_UART.c ****     *
 244:Generated_Source\PSoC4/Comm_UART.c ****     *******************************************************************************/
 245:Generated_Source\PSoC4/Comm_UART.c ****     void Comm_UartInit(void)
 246:Generated_Source\PSoC4/Comm_UART.c ****     {
 247:Generated_Source\PSoC4/Comm_UART.c ****         /* Configure UART interface */
 248:Generated_Source\PSoC4/Comm_UART.c ****         Comm_CTRL_REG = Comm_UART_DEFAULT_CTRL;
 249:Generated_Source\PSoC4/Comm_UART.c **** 
 250:Generated_Source\PSoC4/Comm_UART.c ****         /* Configure sub-mode: UART, SmartCard or IrDA */
 251:Generated_Source\PSoC4/Comm_UART.c ****         Comm_UART_CTRL_REG = Comm_UART_DEFAULT_UART_CTRL;
 252:Generated_Source\PSoC4/Comm_UART.c **** 
 253:Generated_Source\PSoC4/Comm_UART.c ****         /* Configure RX direction */
 254:Generated_Source\PSoC4/Comm_UART.c ****         Comm_UART_RX_CTRL_REG = Comm_UART_DEFAULT_UART_RX_CTRL;
 255:Generated_Source\PSoC4/Comm_UART.c ****         Comm_RX_CTRL_REG      = Comm_UART_DEFAULT_RX_CTRL;
 256:Generated_Source\PSoC4/Comm_UART.c ****         Comm_RX_FIFO_CTRL_REG = Comm_UART_DEFAULT_RX_FIFO_CTRL;
 257:Generated_Source\PSoC4/Comm_UART.c ****         Comm_RX_MATCH_REG     = Comm_UART_DEFAULT_RX_MATCH_REG;
 258:Generated_Source\PSoC4/Comm_UART.c **** 
 259:Generated_Source\PSoC4/Comm_UART.c ****         /* Configure TX direction */
ARM GAS  C:\Users\TECHCO~1\AppData\Local\Temp\ccHwiEe3.s 			page 14


 260:Generated_Source\PSoC4/Comm_UART.c ****         Comm_UART_TX_CTRL_REG = Comm_UART_DEFAULT_UART_TX_CTRL;
 261:Generated_Source\PSoC4/Comm_UART.c ****         Comm_TX_CTRL_REG      = Comm_UART_DEFAULT_TX_CTRL;
 262:Generated_Source\PSoC4/Comm_UART.c ****         Comm_TX_FIFO_CTRL_REG = Comm_UART_DEFAULT_TX_FIFO_CTRL;
 263:Generated_Source\PSoC4/Comm_UART.c **** 
 264:Generated_Source\PSoC4/Comm_UART.c ****     #if !(Comm_CY_SCBIP_V0 || Comm_CY_SCBIP_V1)
 265:Generated_Source\PSoC4/Comm_UART.c ****         Comm_UART_FLOW_CTRL_REG = Comm_UART_DEFAULT_FLOW_CTRL;
 266:Generated_Source\PSoC4/Comm_UART.c ****     #endif /* !(Comm_CY_SCBIP_V0 || Comm_CY_SCBIP_V1) */
 267:Generated_Source\PSoC4/Comm_UART.c **** 
 268:Generated_Source\PSoC4/Comm_UART.c ****         /* Configure interrupt with UART handler but do not enable it */
 269:Generated_Source\PSoC4/Comm_UART.c ****     #if(Comm_SCB_IRQ_INTERNAL)
 270:Generated_Source\PSoC4/Comm_UART.c ****         CyIntDisable    (Comm_ISR_NUMBER);
 271:Generated_Source\PSoC4/Comm_UART.c ****         CyIntSetPriority(Comm_ISR_NUMBER, Comm_ISR_PRIORITY);
 272:Generated_Source\PSoC4/Comm_UART.c ****         (void) CyIntSetVector(Comm_ISR_NUMBER, &Comm_SPI_UART_ISR);
 273:Generated_Source\PSoC4/Comm_UART.c ****     #endif /* (Comm_SCB_IRQ_INTERNAL) */
 274:Generated_Source\PSoC4/Comm_UART.c **** 
 275:Generated_Source\PSoC4/Comm_UART.c ****         /* Configure WAKE interrupt */
 276:Generated_Source\PSoC4/Comm_UART.c ****     #if(Comm_UART_RX_WAKEUP_IRQ)
 277:Generated_Source\PSoC4/Comm_UART.c ****         CyIntDisable    (Comm_RX_WAKE_ISR_NUMBER);
 278:Generated_Source\PSoC4/Comm_UART.c ****         CyIntSetPriority(Comm_RX_WAKE_ISR_NUMBER, Comm_RX_WAKE_ISR_PRIORITY);
 279:Generated_Source\PSoC4/Comm_UART.c ****         (void) CyIntSetVector(Comm_RX_WAKE_ISR_NUMBER, &Comm_UART_WAKEUP_ISR);
 280:Generated_Source\PSoC4/Comm_UART.c ****     #endif /* (Comm_UART_RX_WAKEUP_IRQ) */
 281:Generated_Source\PSoC4/Comm_UART.c **** 
 282:Generated_Source\PSoC4/Comm_UART.c ****         /* Configure interrupt sources */
 283:Generated_Source\PSoC4/Comm_UART.c ****         Comm_INTR_I2C_EC_MASK_REG = Comm_UART_DEFAULT_INTR_I2C_EC_MASK;
 284:Generated_Source\PSoC4/Comm_UART.c ****         Comm_INTR_SPI_EC_MASK_REG = Comm_UART_DEFAULT_INTR_SPI_EC_MASK;
 285:Generated_Source\PSoC4/Comm_UART.c ****         Comm_INTR_SLAVE_MASK_REG  = Comm_UART_DEFAULT_INTR_SLAVE_MASK;
 286:Generated_Source\PSoC4/Comm_UART.c ****         Comm_INTR_MASTER_MASK_REG = Comm_UART_DEFAULT_INTR_MASTER_MASK;
 287:Generated_Source\PSoC4/Comm_UART.c ****         Comm_INTR_RX_MASK_REG     = Comm_UART_DEFAULT_INTR_RX_MASK;
 288:Generated_Source\PSoC4/Comm_UART.c ****         Comm_INTR_TX_MASK_REG     = Comm_UART_DEFAULT_INTR_TX_MASK;
 289:Generated_Source\PSoC4/Comm_UART.c ****     
 290:Generated_Source\PSoC4/Comm_UART.c ****         /* Configure TX interrupt sources to restore. */
 291:Generated_Source\PSoC4/Comm_UART.c ****         Comm_IntrTxMask = LO16(Comm_INTR_TX_MASK_REG);
 292:Generated_Source\PSoC4/Comm_UART.c **** 
 293:Generated_Source\PSoC4/Comm_UART.c ****     #if(Comm_INTERNAL_RX_SW_BUFFER_CONST)
 294:Generated_Source\PSoC4/Comm_UART.c ****         Comm_rxBufferHead     = 0u;
 295:Generated_Source\PSoC4/Comm_UART.c ****         Comm_rxBufferTail     = 0u;
 296:Generated_Source\PSoC4/Comm_UART.c ****         Comm_rxBufferOverflow = 0u;
 297:Generated_Source\PSoC4/Comm_UART.c ****     #endif /* (Comm_INTERNAL_RX_SW_BUFFER_CONST) */
 298:Generated_Source\PSoC4/Comm_UART.c **** 
 299:Generated_Source\PSoC4/Comm_UART.c ****     #if(Comm_INTERNAL_TX_SW_BUFFER_CONST)
 300:Generated_Source\PSoC4/Comm_UART.c ****         Comm_txBufferHead = 0u;
 301:Generated_Source\PSoC4/Comm_UART.c ****         Comm_txBufferTail = 0u;
 302:Generated_Source\PSoC4/Comm_UART.c ****     #endif /* (Comm_INTERNAL_TX_SW_BUFFER_CONST) */
 303:Generated_Source\PSoC4/Comm_UART.c ****     }
 304:Generated_Source\PSoC4/Comm_UART.c **** #endif /* (Comm_SCB_MODE_UNCONFIG_CONST_CFG) */
 305:Generated_Source\PSoC4/Comm_UART.c **** 
 306:Generated_Source\PSoC4/Comm_UART.c **** 
 307:Generated_Source\PSoC4/Comm_UART.c **** /*******************************************************************************
 308:Generated_Source\PSoC4/Comm_UART.c **** * Function Name: Comm_UartPostEnable
 309:Generated_Source\PSoC4/Comm_UART.c **** ****************************************************************************//**
 310:Generated_Source\PSoC4/Comm_UART.c **** *
 311:Generated_Source\PSoC4/Comm_UART.c **** *  Restores HSIOM settings for the UART output pins (TX and/or RTS) to be
 312:Generated_Source\PSoC4/Comm_UART.c **** *  controlled by the SCB UART.
 313:Generated_Source\PSoC4/Comm_UART.c **** *
 314:Generated_Source\PSoC4/Comm_UART.c **** *******************************************************************************/
 315:Generated_Source\PSoC4/Comm_UART.c **** void Comm_UartPostEnable(void)
 316:Generated_Source\PSoC4/Comm_UART.c **** {
ARM GAS  C:\Users\TECHCO~1\AppData\Local\Temp\ccHwiEe3.s 			page 15


 450              		.loc 1 316 0
 451              		.cfi_startproc
 317:Generated_Source\PSoC4/Comm_UART.c **** #if (Comm_SCB_MODE_UNCONFIG_CONST_CFG)
 318:Generated_Source\PSoC4/Comm_UART.c ****     #if (Comm_TX_SDA_MISO_PIN)
 319:Generated_Source\PSoC4/Comm_UART.c ****         if (Comm_CHECK_TX_SDA_MISO_PIN_USED)
 452              		.loc 1 319 0
 453 0000 084B     		ldr	r3, .L56
 454 0002 1B68     		ldr	r3, [r3]
 455 0004 9B06     		lsl	r3, r3, #26
 456 0006 5B0F     		lsr	r3, r3, #29
 457 0008 06D0     		beq	.L52
 320:Generated_Source\PSoC4/Comm_UART.c ****         {
 321:Generated_Source\PSoC4/Comm_UART.c ****             /* Set SCB UART to drive the output pin */
 322:Generated_Source\PSoC4/Comm_UART.c ****             Comm_SET_HSIOM_SEL(Comm_TX_SDA_MISO_HSIOM_REG, Comm_TX_SDA_MISO_HSIOM_MASK,
 458              		.loc 1 322 0
 459 000a F021     		mov	r1, #240
 460 000c 064A     		ldr	r2, .L56+4
 461 000e 1368     		ldr	r3, [r2]
 462 0010 8B43     		bic	r3, r1
 463 0012 6039     		sub	r1, r1, #96
 464 0014 0B43     		orr	r3, r1
 465 0016 1360     		str	r3, [r2]
 466              	.L52:
 323:Generated_Source\PSoC4/Comm_UART.c ****                                            Comm_TX_SDA_MISO_HSIOM_POS, Comm_TX_SDA_MISO_HSIOM_SEL_U
 324:Generated_Source\PSoC4/Comm_UART.c ****         }
 325:Generated_Source\PSoC4/Comm_UART.c ****     #endif /* (Comm_TX_SDA_MISO_PIN_PIN) */
 326:Generated_Source\PSoC4/Comm_UART.c **** 
 327:Generated_Source\PSoC4/Comm_UART.c ****     #if !(Comm_CY_SCBIP_V0 || Comm_CY_SCBIP_V1)
 328:Generated_Source\PSoC4/Comm_UART.c ****         #if (Comm_SS0_PIN)
 329:Generated_Source\PSoC4/Comm_UART.c ****             if (Comm_CHECK_SS0_PIN_USED)
 330:Generated_Source\PSoC4/Comm_UART.c ****             {
 331:Generated_Source\PSoC4/Comm_UART.c ****                 /* Set SCB UART to drive the output pin */
 332:Generated_Source\PSoC4/Comm_UART.c ****                 Comm_SET_HSIOM_SEL(Comm_SS0_HSIOM_REG, Comm_SS0_HSIOM_MASK,
 333:Generated_Source\PSoC4/Comm_UART.c ****                                                Comm_SS0_HSIOM_POS, Comm_SS0_HSIOM_SEL_UART);
 334:Generated_Source\PSoC4/Comm_UART.c ****             }
 335:Generated_Source\PSoC4/Comm_UART.c ****         #endif /* (Comm_SS0_PIN) */
 336:Generated_Source\PSoC4/Comm_UART.c ****     #endif /* !(Comm_CY_SCBIP_V0 || Comm_CY_SCBIP_V1) */
 337:Generated_Source\PSoC4/Comm_UART.c **** 
 338:Generated_Source\PSoC4/Comm_UART.c **** #else
 339:Generated_Source\PSoC4/Comm_UART.c ****     #if (Comm_UART_TX_PIN)
 340:Generated_Source\PSoC4/Comm_UART.c ****          /* Set SCB UART to drive the output pin */
 341:Generated_Source\PSoC4/Comm_UART.c ****         Comm_SET_HSIOM_SEL(Comm_TX_HSIOM_REG, Comm_TX_HSIOM_MASK,
 342:Generated_Source\PSoC4/Comm_UART.c ****                                        Comm_TX_HSIOM_POS, Comm_TX_HSIOM_SEL_UART);
 343:Generated_Source\PSoC4/Comm_UART.c ****     #endif /* (Comm_UART_TX_PIN) */
 344:Generated_Source\PSoC4/Comm_UART.c **** 
 345:Generated_Source\PSoC4/Comm_UART.c ****     #if (Comm_UART_RTS_PIN)
 346:Generated_Source\PSoC4/Comm_UART.c ****         /* Set SCB UART to drive the output pin */
 347:Generated_Source\PSoC4/Comm_UART.c ****         Comm_SET_HSIOM_SEL(Comm_RTS_HSIOM_REG, Comm_RTS_HSIOM_MASK,
 348:Generated_Source\PSoC4/Comm_UART.c ****                                        Comm_RTS_HSIOM_POS, Comm_RTS_HSIOM_SEL_UART);
 349:Generated_Source\PSoC4/Comm_UART.c ****     #endif /* (Comm_UART_RTS_PIN) */
 350:Generated_Source\PSoC4/Comm_UART.c **** #endif /* (Comm_SCB_MODE_UNCONFIG_CONST_CFG) */
 351:Generated_Source\PSoC4/Comm_UART.c **** 
 352:Generated_Source\PSoC4/Comm_UART.c ****     /* Restore TX interrupt sources. */
 353:Generated_Source\PSoC4/Comm_UART.c ****     Comm_SetTxInterruptMode(Comm_IntrTxMask);
 467              		.loc 1 353 0
 468 0018 044B     		ldr	r3, .L56+8
 354:Generated_Source\PSoC4/Comm_UART.c **** }
ARM GAS  C:\Users\TECHCO~1\AppData\Local\Temp\ccHwiEe3.s 			page 16


 469              		.loc 1 354 0
 470              		@ sp needed
 353:Generated_Source\PSoC4/Comm_UART.c **** }
 471              		.loc 1 353 0
 472 001a 1A88     		ldrh	r2, [r3]
 473 001c 044B     		ldr	r3, .L56+12
 474 001e 1A60     		str	r2, [r3]
 475              		.loc 1 354 0
 476 0020 7047     		bx	lr
 477              	.L57:
 478 0022 C046     		.align	2
 479              	.L56:
 480 0024 08040440 		.word	1074005000
 481 0028 10000140 		.word	1073807376
 482 002c 00000000 		.word	Comm_IntrTxMask
 483 0030 880F0640 		.word	1074139016
 484              		.cfi_endproc
 485              	.LFE1:
 486              		.size	Comm_UartPostEnable, .-Comm_UartPostEnable
 487              		.section	.text.Comm_UartStop,"ax",%progbits
 488              		.align	1
 489              		.global	Comm_UartStop
 490              		.code	16
 491              		.thumb_func
 492              		.type	Comm_UartStop, %function
 493              	Comm_UartStop:
 494              	.LFB2:
 355:Generated_Source\PSoC4/Comm_UART.c **** 
 356:Generated_Source\PSoC4/Comm_UART.c **** 
 357:Generated_Source\PSoC4/Comm_UART.c **** /*******************************************************************************
 358:Generated_Source\PSoC4/Comm_UART.c **** * Function Name: Comm_UartStop
 359:Generated_Source\PSoC4/Comm_UART.c **** ****************************************************************************//**
 360:Generated_Source\PSoC4/Comm_UART.c **** *
 361:Generated_Source\PSoC4/Comm_UART.c **** *  Changes the HSIOM settings for the UART output pins (TX and/or RTS) to keep
 362:Generated_Source\PSoC4/Comm_UART.c **** *  them inactive after the block is disabled. The output pins are controlled by
 363:Generated_Source\PSoC4/Comm_UART.c **** *  the GPIO data register. Also, the function disables the skip start feature
 364:Generated_Source\PSoC4/Comm_UART.c **** *  to not cause it to trigger after the component is enabled.
 365:Generated_Source\PSoC4/Comm_UART.c **** *
 366:Generated_Source\PSoC4/Comm_UART.c **** *******************************************************************************/
 367:Generated_Source\PSoC4/Comm_UART.c **** void Comm_UartStop(void)
 368:Generated_Source\PSoC4/Comm_UART.c **** {
 495              		.loc 1 368 0
 496              		.cfi_startproc
 369:Generated_Source\PSoC4/Comm_UART.c **** #if(Comm_SCB_MODE_UNCONFIG_CONST_CFG)
 370:Generated_Source\PSoC4/Comm_UART.c ****     #if (Comm_TX_SDA_MISO_PIN)
 371:Generated_Source\PSoC4/Comm_UART.c ****         if (Comm_CHECK_TX_SDA_MISO_PIN_USED)
 497              		.loc 1 371 0
 498 0000 0B4B     		ldr	r3, .L63
 499 0002 1B68     		ldr	r3, [r3]
 500 0004 9B06     		lsl	r3, r3, #26
 501 0006 5B0F     		lsr	r3, r3, #29
 502 0008 04D0     		beq	.L59
 372:Generated_Source\PSoC4/Comm_UART.c ****         {
 373:Generated_Source\PSoC4/Comm_UART.c ****             /* Set GPIO to drive output pin */
 374:Generated_Source\PSoC4/Comm_UART.c ****             Comm_SET_HSIOM_SEL(Comm_TX_SDA_MISO_HSIOM_REG, Comm_TX_SDA_MISO_HSIOM_MASK,
 503              		.loc 1 374 0
 504 000a F021     		mov	r1, #240
ARM GAS  C:\Users\TECHCO~1\AppData\Local\Temp\ccHwiEe3.s 			page 17


 505 000c 094A     		ldr	r2, .L63+4
 506 000e 1368     		ldr	r3, [r2]
 507 0010 8B43     		bic	r3, r1
 508 0012 1360     		str	r3, [r2]
 509              	.L59:
 375:Generated_Source\PSoC4/Comm_UART.c ****                                            Comm_TX_SDA_MISO_HSIOM_POS, Comm_TX_SDA_MISO_HSIOM_SEL_G
 376:Generated_Source\PSoC4/Comm_UART.c ****         }
 377:Generated_Source\PSoC4/Comm_UART.c ****     #endif /* (Comm_TX_SDA_MISO_PIN_PIN) */
 378:Generated_Source\PSoC4/Comm_UART.c **** 
 379:Generated_Source\PSoC4/Comm_UART.c ****     #if !(Comm_CY_SCBIP_V0 || Comm_CY_SCBIP_V1)
 380:Generated_Source\PSoC4/Comm_UART.c ****         #if (Comm_SS0_PIN)
 381:Generated_Source\PSoC4/Comm_UART.c ****             if (Comm_CHECK_SS0_PIN_USED)
 382:Generated_Source\PSoC4/Comm_UART.c ****             {
 383:Generated_Source\PSoC4/Comm_UART.c ****                 /* Set output pin state after block is disabled */
 384:Generated_Source\PSoC4/Comm_UART.c ****                 Comm_spi_ss0_Write(Comm_GET_UART_RTS_INACTIVE);
 385:Generated_Source\PSoC4/Comm_UART.c **** 
 386:Generated_Source\PSoC4/Comm_UART.c ****                 /* Set GPIO to drive output pin */
 387:Generated_Source\PSoC4/Comm_UART.c ****                 Comm_SET_HSIOM_SEL(Comm_SS0_HSIOM_REG, Comm_SS0_HSIOM_MASK,
 388:Generated_Source\PSoC4/Comm_UART.c ****                                                Comm_SS0_HSIOM_POS, Comm_SS0_HSIOM_SEL_GPIO);
 389:Generated_Source\PSoC4/Comm_UART.c ****             }
 390:Generated_Source\PSoC4/Comm_UART.c ****         #endif /* (Comm_SS0_PIN) */
 391:Generated_Source\PSoC4/Comm_UART.c ****     #endif /* !(Comm_CY_SCBIP_V0 || Comm_CY_SCBIP_V1) */
 392:Generated_Source\PSoC4/Comm_UART.c **** 
 393:Generated_Source\PSoC4/Comm_UART.c **** #else
 394:Generated_Source\PSoC4/Comm_UART.c ****     #if (Comm_UART_TX_PIN)
 395:Generated_Source\PSoC4/Comm_UART.c ****         /* Set GPIO to drive output pin */
 396:Generated_Source\PSoC4/Comm_UART.c ****         Comm_SET_HSIOM_SEL(Comm_TX_HSIOM_REG, Comm_TX_HSIOM_MASK,
 397:Generated_Source\PSoC4/Comm_UART.c ****                                        Comm_TX_HSIOM_POS, Comm_TX_HSIOM_SEL_GPIO);
 398:Generated_Source\PSoC4/Comm_UART.c ****     #endif /* (Comm_UART_TX_PIN) */
 399:Generated_Source\PSoC4/Comm_UART.c **** 
 400:Generated_Source\PSoC4/Comm_UART.c ****     #if (Comm_UART_RTS_PIN)
 401:Generated_Source\PSoC4/Comm_UART.c ****         /* Set output pin state after block is disabled */
 402:Generated_Source\PSoC4/Comm_UART.c ****         Comm_rts_Write(Comm_GET_UART_RTS_INACTIVE);
 403:Generated_Source\PSoC4/Comm_UART.c **** 
 404:Generated_Source\PSoC4/Comm_UART.c ****         /* Set GPIO to drive output pin */
 405:Generated_Source\PSoC4/Comm_UART.c ****         Comm_SET_HSIOM_SEL(Comm_RTS_HSIOM_REG, Comm_RTS_HSIOM_MASK,
 406:Generated_Source\PSoC4/Comm_UART.c ****                                        Comm_RTS_HSIOM_POS, Comm_RTS_HSIOM_SEL_GPIO);
 407:Generated_Source\PSoC4/Comm_UART.c ****     #endif /* (Comm_UART_RTS_PIN) */
 408:Generated_Source\PSoC4/Comm_UART.c **** 
 409:Generated_Source\PSoC4/Comm_UART.c **** #endif /* (Comm_SCB_MODE_UNCONFIG_CONST_CFG) */
 410:Generated_Source\PSoC4/Comm_UART.c **** 
 411:Generated_Source\PSoC4/Comm_UART.c **** #if (Comm_UART_WAKE_ENABLE_CONST)
 412:Generated_Source\PSoC4/Comm_UART.c ****     /* Disable skip start feature used for wakeup */
 413:Generated_Source\PSoC4/Comm_UART.c ****     Comm_UART_RX_CTRL_REG &= (uint32) ~Comm_UART_RX_CTRL_SKIP_START;
 510              		.loc 1 413 0
 511 0014 084A     		ldr	r2, .L63+8
 512 0016 094B     		ldr	r3, .L63+12
 513 0018 1168     		ldr	r1, [r2]
 414:Generated_Source\PSoC4/Comm_UART.c **** #endif /* (Comm_UART_WAKE_ENABLE_CONST) */
 415:Generated_Source\PSoC4/Comm_UART.c **** 
 416:Generated_Source\PSoC4/Comm_UART.c ****     /* Store TX interrupt sources (exclude level triggered). */
 417:Generated_Source\PSoC4/Comm_UART.c ****     Comm_IntrTxMask = LO16(Comm_GetTxInterruptMode() & Comm_INTR_UART_TX_RESTORE);
 418:Generated_Source\PSoC4/Comm_UART.c **** }
 514              		.loc 1 418 0
 515              		@ sp needed
 413:Generated_Source\PSoC4/Comm_UART.c **** #endif /* (Comm_UART_WAKE_ENABLE_CONST) */
 516              		.loc 1 413 0
ARM GAS  C:\Users\TECHCO~1\AppData\Local\Temp\ccHwiEe3.s 			page 18


 517 001a 0B40     		and	r3, r1
 518 001c 1360     		str	r3, [r2]
 417:Generated_Source\PSoC4/Comm_UART.c **** }
 519              		.loc 1 417 0
 520 001e 084B     		ldr	r3, .L63+16
 521 0020 1A68     		ldr	r2, [r3]
 522 0022 E423     		mov	r3, #228
 523 0024 DB00     		lsl	r3, r3, #3
 524 0026 1340     		and	r3, r2
 525 0028 064A     		ldr	r2, .L63+20
 526 002a 1380     		strh	r3, [r2]
 527              		.loc 1 418 0
 528 002c 7047     		bx	lr
 529              	.L64:
 530 002e C046     		.align	2
 531              	.L63:
 532 0030 08040440 		.word	1074005000
 533 0034 10000140 		.word	1073807376
 534 0038 48000640 		.word	1074135112
 535 003c FFDFFFFF 		.word	-8193
 536 0040 880F0640 		.word	1074139016
 537 0044 00000000 		.word	Comm_IntrTxMask
 538              		.cfi_endproc
 539              	.LFE2:
 540              		.size	Comm_UartStop, .-Comm_UartStop
 541              		.section	.text.Comm_UartSetRxAddress,"ax",%progbits
 542              		.align	1
 543              		.global	Comm_UartSetRxAddress
 544              		.code	16
 545              		.thumb_func
 546              		.type	Comm_UartSetRxAddress, %function
 547              	Comm_UartSetRxAddress:
 548              	.LFB3:
 419:Generated_Source\PSoC4/Comm_UART.c **** 
 420:Generated_Source\PSoC4/Comm_UART.c **** 
 421:Generated_Source\PSoC4/Comm_UART.c **** /*******************************************************************************
 422:Generated_Source\PSoC4/Comm_UART.c **** * Function Name: Comm_UartSetRxAddress
 423:Generated_Source\PSoC4/Comm_UART.c **** ****************************************************************************//**
 424:Generated_Source\PSoC4/Comm_UART.c **** *
 425:Generated_Source\PSoC4/Comm_UART.c **** *  Sets the hardware detectable receiver address for the UART in the
 426:Generated_Source\PSoC4/Comm_UART.c **** *  Multiprocessor mode.
 427:Generated_Source\PSoC4/Comm_UART.c **** *
 428:Generated_Source\PSoC4/Comm_UART.c **** *  \param address: Address for hardware address detection.
 429:Generated_Source\PSoC4/Comm_UART.c **** *
 430:Generated_Source\PSoC4/Comm_UART.c **** *******************************************************************************/
 431:Generated_Source\PSoC4/Comm_UART.c **** void Comm_UartSetRxAddress(uint32 address)
 432:Generated_Source\PSoC4/Comm_UART.c **** {
 549              		.loc 1 432 0
 550              		.cfi_startproc
 551              	.LVL8:
 433:Generated_Source\PSoC4/Comm_UART.c ****      uint32 matchReg;
 434:Generated_Source\PSoC4/Comm_UART.c **** 
 435:Generated_Source\PSoC4/Comm_UART.c ****     matchReg = Comm_RX_MATCH_REG;
 436:Generated_Source\PSoC4/Comm_UART.c **** 
 437:Generated_Source\PSoC4/Comm_UART.c ****     matchReg &= ((uint32) ~Comm_RX_MATCH_ADDR_MASK); /* Clear address bits */
 552              		.loc 1 437 0
 553 0000 FF22     		mov	r2, #255
ARM GAS  C:\Users\TECHCO~1\AppData\Local\Temp\ccHwiEe3.s 			page 19


 435:Generated_Source\PSoC4/Comm_UART.c **** 
 554              		.loc 1 435 0
 555 0002 0349     		ldr	r1, .L66
 438:Generated_Source\PSoC4/Comm_UART.c ****     matchReg |= ((uint32)  (address & Comm_RX_MATCH_ADDR_MASK)); /* Set address  */
 556              		.loc 1 438 0
 557 0004 1040     		and	r0, r2
 558              	.LVL9:
 435:Generated_Source\PSoC4/Comm_UART.c **** 
 559              		.loc 1 435 0
 560 0006 0B68     		ldr	r3, [r1]
 561              	.LVL10:
 439:Generated_Source\PSoC4/Comm_UART.c **** 
 440:Generated_Source\PSoC4/Comm_UART.c ****     Comm_RX_MATCH_REG = matchReg;
 441:Generated_Source\PSoC4/Comm_UART.c **** }
 562              		.loc 1 441 0
 563              		@ sp needed
 437:Generated_Source\PSoC4/Comm_UART.c ****     matchReg |= ((uint32)  (address & Comm_RX_MATCH_ADDR_MASK)); /* Set address  */
 564              		.loc 1 437 0
 565 0008 9343     		bic	r3, r2
 566              	.LVL11:
 438:Generated_Source\PSoC4/Comm_UART.c ****     matchReg |= ((uint32)  (address & Comm_RX_MATCH_ADDR_MASK)); /* Set address  */
 567              		.loc 1 438 0
 568 000a 1843     		orr	r0, r3
 569              	.LVL12:
 440:Generated_Source\PSoC4/Comm_UART.c **** }
 570              		.loc 1 440 0
 571 000c 0860     		str	r0, [r1]
 572              		.loc 1 441 0
 573 000e 7047     		bx	lr
 574              	.L67:
 575              		.align	2
 576              	.L66:
 577 0010 10030640 		.word	1074135824
 578              		.cfi_endproc
 579              	.LFE3:
 580              		.size	Comm_UartSetRxAddress, .-Comm_UartSetRxAddress
 581              		.section	.text.Comm_UartSetRxAddressMask,"ax",%progbits
 582              		.align	1
 583              		.global	Comm_UartSetRxAddressMask
 584              		.code	16
 585              		.thumb_func
 586              		.type	Comm_UartSetRxAddressMask, %function
 587              	Comm_UartSetRxAddressMask:
 588              	.LFB4:
 442:Generated_Source\PSoC4/Comm_UART.c **** 
 443:Generated_Source\PSoC4/Comm_UART.c **** 
 444:Generated_Source\PSoC4/Comm_UART.c **** /*******************************************************************************
 445:Generated_Source\PSoC4/Comm_UART.c **** * Function Name: Comm_UartSetRxAddressMask
 446:Generated_Source\PSoC4/Comm_UART.c **** ****************************************************************************//**
 447:Generated_Source\PSoC4/Comm_UART.c **** *
 448:Generated_Source\PSoC4/Comm_UART.c **** *  Sets the hardware address mask for the UART in the Multiprocessor mode.
 449:Generated_Source\PSoC4/Comm_UART.c **** *
 450:Generated_Source\PSoC4/Comm_UART.c **** *  \param addressMask: Address mask.
 451:Generated_Source\PSoC4/Comm_UART.c **** *   - Bit value 0 – excludes bit from address comparison.
 452:Generated_Source\PSoC4/Comm_UART.c **** *   - Bit value 1 – the bit needs to match with the corresponding bit
 453:Generated_Source\PSoC4/Comm_UART.c **** *     of the address.
 454:Generated_Source\PSoC4/Comm_UART.c **** *
ARM GAS  C:\Users\TECHCO~1\AppData\Local\Temp\ccHwiEe3.s 			page 20


 455:Generated_Source\PSoC4/Comm_UART.c **** *******************************************************************************/
 456:Generated_Source\PSoC4/Comm_UART.c **** void Comm_UartSetRxAddressMask(uint32 addressMask)
 457:Generated_Source\PSoC4/Comm_UART.c **** {
 589              		.loc 1 457 0
 590              		.cfi_startproc
 591              	.LVL13:
 458:Generated_Source\PSoC4/Comm_UART.c ****     uint32 matchReg;
 459:Generated_Source\PSoC4/Comm_UART.c **** 
 460:Generated_Source\PSoC4/Comm_UART.c ****     matchReg = Comm_RX_MATCH_REG;
 592              		.loc 1 460 0
 593 0000 034A     		ldr	r2, .L69
 461:Generated_Source\PSoC4/Comm_UART.c **** 
 462:Generated_Source\PSoC4/Comm_UART.c ****     matchReg &= ((uint32) ~Comm_RX_MATCH_MASK_MASK); /* Clear address mask bits */
 594              		.loc 1 462 0
 595 0002 044B     		ldr	r3, .L69+4
 460:Generated_Source\PSoC4/Comm_UART.c **** 
 596              		.loc 1 460 0
 597 0004 1168     		ldr	r1, [r2]
 598              	.LVL14:
 463:Generated_Source\PSoC4/Comm_UART.c ****     matchReg |= ((uint32) (addressMask << Comm_RX_MATCH_MASK_POS));
 599              		.loc 1 463 0
 600 0006 0004     		lsl	r0, r0, #16
 601              	.LVL15:
 462:Generated_Source\PSoC4/Comm_UART.c ****     matchReg |= ((uint32) (addressMask << Comm_RX_MATCH_MASK_POS));
 602              		.loc 1 462 0
 603 0008 0B40     		and	r3, r1
 604              	.LVL16:
 605              		.loc 1 463 0
 606 000a 1843     		orr	r0, r3
 607              	.LVL17:
 464:Generated_Source\PSoC4/Comm_UART.c **** 
 465:Generated_Source\PSoC4/Comm_UART.c ****     Comm_RX_MATCH_REG = matchReg;
 608              		.loc 1 465 0
 609 000c 1060     		str	r0, [r2]
 466:Generated_Source\PSoC4/Comm_UART.c **** }
 610              		.loc 1 466 0
 611              		@ sp needed
 612 000e 7047     		bx	lr
 613              	.L70:
 614              		.align	2
 615              	.L69:
 616 0010 10030640 		.word	1074135824
 617 0014 FFFF00FF 		.word	-16711681
 618              		.cfi_endproc
 619              	.LFE4:
 620              		.size	Comm_UartSetRxAddressMask, .-Comm_UartSetRxAddressMask
 621              		.section	.text.Comm_UartGetChar,"ax",%progbits
 622              		.align	1
 623              		.global	Comm_UartGetChar
 624              		.code	16
 625              		.thumb_func
 626              		.type	Comm_UartGetChar, %function
 627              	Comm_UartGetChar:
 628              	.LFB5:
 467:Generated_Source\PSoC4/Comm_UART.c **** 
 468:Generated_Source\PSoC4/Comm_UART.c **** 
 469:Generated_Source\PSoC4/Comm_UART.c **** #if(Comm_UART_RX_DIRECTION)
ARM GAS  C:\Users\TECHCO~1\AppData\Local\Temp\ccHwiEe3.s 			page 21


 470:Generated_Source\PSoC4/Comm_UART.c ****     /*******************************************************************************
 471:Generated_Source\PSoC4/Comm_UART.c ****     * Function Name: Comm_UartGetChar
 472:Generated_Source\PSoC4/Comm_UART.c ****     ****************************************************************************//**
 473:Generated_Source\PSoC4/Comm_UART.c ****     *
 474:Generated_Source\PSoC4/Comm_UART.c ****     *  Retrieves next data element from receive buffer.
 475:Generated_Source\PSoC4/Comm_UART.c ****     *  This function is designed for ASCII characters and returns a char where
 476:Generated_Source\PSoC4/Comm_UART.c ****     *  1 to 255 are valid characters and 0 indicates an error occurred or no data
 477:Generated_Source\PSoC4/Comm_UART.c ****     *  is present.
 478:Generated_Source\PSoC4/Comm_UART.c ****     *  - RX software buffer is disabled: Returns data element retrieved from RX
 479:Generated_Source\PSoC4/Comm_UART.c ****     *    FIFO.
 480:Generated_Source\PSoC4/Comm_UART.c ****     *  - RX software buffer is enabled: Returns data element from the software
 481:Generated_Source\PSoC4/Comm_UART.c ****     *    receive buffer.
 482:Generated_Source\PSoC4/Comm_UART.c ****     *
 483:Generated_Source\PSoC4/Comm_UART.c ****     *  \return
 484:Generated_Source\PSoC4/Comm_UART.c ****     *   Next data element from the receive buffer. ASCII character values from
 485:Generated_Source\PSoC4/Comm_UART.c ****     *   1 to 255 are valid. A returned zero signifies an error condition or no
 486:Generated_Source\PSoC4/Comm_UART.c ****     *   data available.
 487:Generated_Source\PSoC4/Comm_UART.c ****     *
 488:Generated_Source\PSoC4/Comm_UART.c ****     *  \sideeffect
 489:Generated_Source\PSoC4/Comm_UART.c ****     *   The errors bits may not correspond with reading characters due to
 490:Generated_Source\PSoC4/Comm_UART.c ****     *   RX FIFO and software buffer usage.
 491:Generated_Source\PSoC4/Comm_UART.c ****     *   RX software buffer is enabled: The internal software buffer overflow
 492:Generated_Source\PSoC4/Comm_UART.c ****     *   is not treated as an error condition.
 493:Generated_Source\PSoC4/Comm_UART.c ****     *   Check Comm_rxBufferOverflow to capture that error condition.
 494:Generated_Source\PSoC4/Comm_UART.c ****     *
 495:Generated_Source\PSoC4/Comm_UART.c ****     *******************************************************************************/
 496:Generated_Source\PSoC4/Comm_UART.c ****     uint32 Comm_UartGetChar(void)
 497:Generated_Source\PSoC4/Comm_UART.c ****     {
 629              		.loc 1 497 0
 630              		.cfi_startproc
 631              	.LVL18:
 632 0000 08B5     		push	{r3, lr}
 633              		.cfi_def_cfa_offset 8
 634              		.cfi_offset 3, -8
 635              		.cfi_offset 14, -4
 498:Generated_Source\PSoC4/Comm_UART.c ****         uint32 rxData = 0u;
 499:Generated_Source\PSoC4/Comm_UART.c **** 
 500:Generated_Source\PSoC4/Comm_UART.c ****         /* Reads data only if there is data to read */
 501:Generated_Source\PSoC4/Comm_UART.c ****         if (0u != Comm_SpiUartGetRxBufferSize())
 636              		.loc 1 501 0
 637 0002 FFF7FEFF 		bl	Comm_SpiUartGetRxBufferSize
 638              	.LVL19:
 639 0006 031C     		mov	r3, r0
 498:Generated_Source\PSoC4/Comm_UART.c ****         uint32 rxData = 0u;
 640              		.loc 1 498 0
 641 0008 0020     		mov	r0, #0
 642              		.loc 1 501 0
 643 000a 8342     		cmp	r3, r0
 644 000c 01D0     		beq	.L72
 502:Generated_Source\PSoC4/Comm_UART.c ****         {
 503:Generated_Source\PSoC4/Comm_UART.c ****             rxData = Comm_SpiUartReadRxData();
 645              		.loc 1 503 0
 646 000e FFF7FEFF 		bl	Comm_SpiUartReadRxData
 647              	.LVL20:
 648              	.L72:
 504:Generated_Source\PSoC4/Comm_UART.c ****         }
 505:Generated_Source\PSoC4/Comm_UART.c **** 
ARM GAS  C:\Users\TECHCO~1\AppData\Local\Temp\ccHwiEe3.s 			page 22


 506:Generated_Source\PSoC4/Comm_UART.c ****         if (Comm_CHECK_INTR_RX(Comm_INTR_RX_ERR))
 649              		.loc 1 506 0
 650 0012 D822     		mov	r2, #216
 651 0014 034B     		ldr	r3, .L79
 652 0016 9200     		lsl	r2, r2, #2
 653 0018 1968     		ldr	r1, [r3]
 654 001a 1142     		tst	r1, r2
 655 001c 01D0     		beq	.L73
 656              	.LVL21:
 507:Generated_Source\PSoC4/Comm_UART.c ****         {
 508:Generated_Source\PSoC4/Comm_UART.c ****             rxData = 0u; /* Error occurred: returns zero */
 657              		.loc 1 508 0
 658 001e 0020     		mov	r0, #0
 509:Generated_Source\PSoC4/Comm_UART.c ****             Comm_ClearRxInterruptSource(Comm_INTR_RX_ERR);
 659              		.loc 1 509 0
 660 0020 1A60     		str	r2, [r3]
 661              	.LVL22:
 662              	.L73:
 510:Generated_Source\PSoC4/Comm_UART.c ****         }
 511:Generated_Source\PSoC4/Comm_UART.c **** 
 512:Generated_Source\PSoC4/Comm_UART.c ****         return (rxData);
 513:Generated_Source\PSoC4/Comm_UART.c ****     }
 663              		.loc 1 513 0
 664              		@ sp needed
 665 0022 08BD     		pop	{r3, pc}
 666              	.L80:
 667              		.align	2
 668              	.L79:
 669 0024 C00F0640 		.word	1074139072
 670              		.cfi_endproc
 671              	.LFE5:
 672              		.size	Comm_UartGetChar, .-Comm_UartGetChar
 673              		.section	.text.Comm_UartGetByte,"ax",%progbits
 674              		.align	1
 675              		.global	Comm_UartGetByte
 676              		.code	16
 677              		.thumb_func
 678              		.type	Comm_UartGetByte, %function
 679              	Comm_UartGetByte:
 680              	.LFB6:
 514:Generated_Source\PSoC4/Comm_UART.c **** 
 515:Generated_Source\PSoC4/Comm_UART.c **** 
 516:Generated_Source\PSoC4/Comm_UART.c ****     /*******************************************************************************
 517:Generated_Source\PSoC4/Comm_UART.c ****     * Function Name: Comm_UartGetByte
 518:Generated_Source\PSoC4/Comm_UART.c ****     ****************************************************************************//**
 519:Generated_Source\PSoC4/Comm_UART.c ****     *
 520:Generated_Source\PSoC4/Comm_UART.c ****     *  Retrieves the next data element from the receive buffer, returns the
 521:Generated_Source\PSoC4/Comm_UART.c ****     *  received byte and error condition.
 522:Generated_Source\PSoC4/Comm_UART.c ****     *   - The RX software buffer is disabled: returns the data element retrieved
 523:Generated_Source\PSoC4/Comm_UART.c ****     *     from the RX FIFO. Undefined data will be returned if the RX FIFO is
 524:Generated_Source\PSoC4/Comm_UART.c ****     *     empty.
 525:Generated_Source\PSoC4/Comm_UART.c ****     *   - The RX software buffer is enabled: returns data element from the
 526:Generated_Source\PSoC4/Comm_UART.c ****     *     software receive buffer.
 527:Generated_Source\PSoC4/Comm_UART.c ****     *
 528:Generated_Source\PSoC4/Comm_UART.c ****     *  \return
 529:Generated_Source\PSoC4/Comm_UART.c ****     *   Bits 7-0 contain the next data element from the receive buffer and
 530:Generated_Source\PSoC4/Comm_UART.c ****     *   other bits contain the error condition.
ARM GAS  C:\Users\TECHCO~1\AppData\Local\Temp\ccHwiEe3.s 			page 23


 531:Generated_Source\PSoC4/Comm_UART.c ****     *   - Comm_UART_RX_OVERFLOW - Attempt to write to a full
 532:Generated_Source\PSoC4/Comm_UART.c ****     *     receiver FIFO.
 533:Generated_Source\PSoC4/Comm_UART.c ****     *   - Comm_UART_RX_UNDERFLOW	Attempt to read from an empty
 534:Generated_Source\PSoC4/Comm_UART.c ****     *     receiver FIFO.
 535:Generated_Source\PSoC4/Comm_UART.c ****     *   - Comm_UART_RX_FRAME_ERROR - UART framing error detected.
 536:Generated_Source\PSoC4/Comm_UART.c ****     *   - Comm_UART_RX_PARITY_ERROR - UART parity error detected.
 537:Generated_Source\PSoC4/Comm_UART.c ****     *
 538:Generated_Source\PSoC4/Comm_UART.c ****     *  \sideeffect
 539:Generated_Source\PSoC4/Comm_UART.c ****     *   The errors bits may not correspond with reading characters due to
 540:Generated_Source\PSoC4/Comm_UART.c ****     *   RX FIFO and software buffer usage.
 541:Generated_Source\PSoC4/Comm_UART.c ****     *   RX software buffer is enabled: The internal software buffer overflow
 542:Generated_Source\PSoC4/Comm_UART.c ****     *   is not treated as an error condition.
 543:Generated_Source\PSoC4/Comm_UART.c ****     *   Check Comm_rxBufferOverflow to capture that error condition.
 544:Generated_Source\PSoC4/Comm_UART.c ****     *
 545:Generated_Source\PSoC4/Comm_UART.c ****     *******************************************************************************/
 546:Generated_Source\PSoC4/Comm_UART.c ****     uint32 Comm_UartGetByte(void)
 547:Generated_Source\PSoC4/Comm_UART.c ****     {
 681              		.loc 1 547 0
 682              		.cfi_startproc
 683 0000 70B5     		push	{r4, r5, r6, lr}
 684              		.cfi_def_cfa_offset 16
 685              		.cfi_offset 4, -16
 686              		.cfi_offset 5, -12
 687              		.cfi_offset 6, -8
 688              		.cfi_offset 14, -4
 548:Generated_Source\PSoC4/Comm_UART.c ****         uint32 rxData;
 549:Generated_Source\PSoC4/Comm_UART.c ****         uint32 tmpStatus;
 550:Generated_Source\PSoC4/Comm_UART.c **** 
 551:Generated_Source\PSoC4/Comm_UART.c ****         if (Comm_CHECK_RX_SW_BUFFER)
 689              		.loc 1 551 0
 690 0002 144D     		ldr	r5, .L95
 691 0004 2B68     		ldr	r3, [r5]
 692 0006 002B     		cmp	r3, #0
 693 0008 02D0     		beq	.L82
 552:Generated_Source\PSoC4/Comm_UART.c ****         {
 553:Generated_Source\PSoC4/Comm_UART.c ****             Comm_DisableInt();
 694              		.loc 1 553 0
 695 000a 0A20     		mov	r0, #10
 696 000c FFF7FEFF 		bl	CyIntDisable
 697              	.LVL23:
 698              	.L82:
 554:Generated_Source\PSoC4/Comm_UART.c ****         }
 555:Generated_Source\PSoC4/Comm_UART.c ****         
 556:Generated_Source\PSoC4/Comm_UART.c **** 
 557:Generated_Source\PSoC4/Comm_UART.c ****         if (0u != Comm_SpiUartGetRxBufferSize())
 699              		.loc 1 557 0
 700 0010 FFF7FEFF 		bl	Comm_SpiUartGetRxBufferSize
 701              	.LVL24:
 702 0014 104E     		ldr	r6, .L95+4
 703 0016 0028     		cmp	r0, #0
 704 0018 09D0     		beq	.L83
 558:Generated_Source\PSoC4/Comm_UART.c ****         {
 559:Generated_Source\PSoC4/Comm_UART.c ****             /* Enables interrupt to receive more bytes: at least one byte is in
 560:Generated_Source\PSoC4/Comm_UART.c ****             * buffer.
 561:Generated_Source\PSoC4/Comm_UART.c ****             */
 562:Generated_Source\PSoC4/Comm_UART.c ****             if (Comm_CHECK_RX_SW_BUFFER)
 705              		.loc 1 562 0
ARM GAS  C:\Users\TECHCO~1\AppData\Local\Temp\ccHwiEe3.s 			page 24


 706 001a 2B68     		ldr	r3, [r5]
 707 001c 002B     		cmp	r3, #0
 708 001e 02D0     		beq	.L84
 563:Generated_Source\PSoC4/Comm_UART.c ****             {
 564:Generated_Source\PSoC4/Comm_UART.c ****                 Comm_EnableInt();
 709              		.loc 1 564 0
 710 0020 0A20     		mov	r0, #10
 711 0022 FFF7FEFF 		bl	CyIntEnable
 712              	.LVL25:
 713              	.L84:
 565:Generated_Source\PSoC4/Comm_UART.c ****             }
 566:Generated_Source\PSoC4/Comm_UART.c ****             
 567:Generated_Source\PSoC4/Comm_UART.c **** 
 568:Generated_Source\PSoC4/Comm_UART.c ****             /* Get received byte */
 569:Generated_Source\PSoC4/Comm_UART.c ****             rxData = Comm_SpiUartReadRxData();
 714              		.loc 1 569 0
 715 0026 FFF7FEFF 		bl	Comm_SpiUartReadRxData
 716              	.LVL26:
 717 002a 041C     		mov	r4, r0
 718              	.LVL27:
 719 002c 09E0     		b	.L85
 720              	.LVL28:
 721              	.L83:
 570:Generated_Source\PSoC4/Comm_UART.c ****         }
 571:Generated_Source\PSoC4/Comm_UART.c ****         else
 572:Generated_Source\PSoC4/Comm_UART.c ****         {
 573:Generated_Source\PSoC4/Comm_UART.c ****             /* Reads a byte directly from RX FIFO: underflow is raised in the
 574:Generated_Source\PSoC4/Comm_UART.c ****             * case of empty. Otherwise the first received byte will be read.
 575:Generated_Source\PSoC4/Comm_UART.c ****             */
 576:Generated_Source\PSoC4/Comm_UART.c ****             rxData = Comm_RX_FIFO_RD_REG;
 722              		.loc 1 576 0
 723 002e 0B4B     		ldr	r3, .L95+8
 724 0030 1C68     		ldr	r4, [r3]
 725              	.LVL29:
 577:Generated_Source\PSoC4/Comm_UART.c **** 
 578:Generated_Source\PSoC4/Comm_UART.c **** 
 579:Generated_Source\PSoC4/Comm_UART.c ****             /* Enables interrupt to receive more bytes. */
 580:Generated_Source\PSoC4/Comm_UART.c ****             if (Comm_CHECK_RX_SW_BUFFER)
 726              		.loc 1 580 0
 727 0032 2B68     		ldr	r3, [r5]
 728 0034 002B     		cmp	r3, #0
 729 0036 04D0     		beq	.L85
 581:Generated_Source\PSoC4/Comm_UART.c ****             {
 582:Generated_Source\PSoC4/Comm_UART.c **** 
 583:Generated_Source\PSoC4/Comm_UART.c ****                 /* The byte has been read from RX FIFO. Clear RX interrupt to
 584:Generated_Source\PSoC4/Comm_UART.c ****                 * not involve interrupt handler when RX FIFO is empty.
 585:Generated_Source\PSoC4/Comm_UART.c ****                 */
 586:Generated_Source\PSoC4/Comm_UART.c ****                 Comm_ClearRxInterruptSource(Comm_INTR_RX_NOT_EMPTY);
 730              		.loc 1 586 0
 731 0038 0423     		mov	r3, #4
 587:Generated_Source\PSoC4/Comm_UART.c **** 
 588:Generated_Source\PSoC4/Comm_UART.c ****                 Comm_EnableInt();
 732              		.loc 1 588 0
 733 003a 0A20     		mov	r0, #10
 586:Generated_Source\PSoC4/Comm_UART.c **** 
 734              		.loc 1 586 0
 735 003c 3360     		str	r3, [r6]
ARM GAS  C:\Users\TECHCO~1\AppData\Local\Temp\ccHwiEe3.s 			page 25


 736              		.loc 1 588 0
 737 003e FFF7FEFF 		bl	CyIntEnable
 738              	.LVL30:
 739              	.L85:
 589:Generated_Source\PSoC4/Comm_UART.c ****             }
 590:Generated_Source\PSoC4/Comm_UART.c ****             
 591:Generated_Source\PSoC4/Comm_UART.c ****         }
 592:Generated_Source\PSoC4/Comm_UART.c **** 
 593:Generated_Source\PSoC4/Comm_UART.c ****         /* Get and clear RX error mask */
 594:Generated_Source\PSoC4/Comm_UART.c ****         tmpStatus = (Comm_GetRxInterruptSource() & Comm_INTR_RX_ERR);
 595:Generated_Source\PSoC4/Comm_UART.c ****         Comm_ClearRxInterruptSource(Comm_INTR_RX_ERR);
 740              		.loc 1 595 0
 741 0042 D823     		mov	r3, #216
 594:Generated_Source\PSoC4/Comm_UART.c ****         Comm_ClearRxInterruptSource(Comm_INTR_RX_ERR);
 742              		.loc 1 594 0
 743 0044 3068     		ldr	r0, [r6]
 744              	.LVL31:
 745              		.loc 1 595 0
 746 0046 9B00     		lsl	r3, r3, #2
 594:Generated_Source\PSoC4/Comm_UART.c ****         Comm_ClearRxInterruptSource(Comm_INTR_RX_ERR);
 747              		.loc 1 594 0
 748 0048 1840     		and	r0, r3
 749              	.LVL32:
 596:Generated_Source\PSoC4/Comm_UART.c **** 
 597:Generated_Source\PSoC4/Comm_UART.c ****         /* Puts together data and error status:
 598:Generated_Source\PSoC4/Comm_UART.c ****         * MP mode and accept address: 9th bit is set to notify mark.
 599:Generated_Source\PSoC4/Comm_UART.c ****         */
 600:Generated_Source\PSoC4/Comm_UART.c ****         rxData |= ((uint32) (tmpStatus << 8u));
 750              		.loc 1 600 0
 751 004a 0002     		lsl	r0, r0, #8
 595:Generated_Source\PSoC4/Comm_UART.c **** 
 752              		.loc 1 595 0
 753 004c 3360     		str	r3, [r6]
 754              	.LVL33:
 755              		.loc 1 600 0
 756 004e 2043     		orr	r0, r4
 601:Generated_Source\PSoC4/Comm_UART.c **** 
 602:Generated_Source\PSoC4/Comm_UART.c ****         return (rxData);
 603:Generated_Source\PSoC4/Comm_UART.c ****     }
 757              		.loc 1 603 0
 758              		@ sp needed
 759 0050 70BD     		pop	{r4, r5, r6, pc}
 760              	.L96:
 761 0052 C046     		.align	2
 762              	.L95:
 763 0054 00000000 		.word	Comm_rxBuffer
 764 0058 C00F0640 		.word	1074139072
 765 005c 40030640 		.word	1074135872
 766              		.cfi_endproc
 767              	.LFE6:
 768              		.size	Comm_UartGetByte, .-Comm_UartGetByte
 769              		.section	.text.Comm_UartPutString,"ax",%progbits
 770              		.align	1
 771              		.global	Comm_UartPutString
 772              		.code	16
 773              		.thumb_func
 774              		.type	Comm_UartPutString, %function
ARM GAS  C:\Users\TECHCO~1\AppData\Local\Temp\ccHwiEe3.s 			page 26


 775              	Comm_UartPutString:
 776              	.LFB7:
 604:Generated_Source\PSoC4/Comm_UART.c **** 
 605:Generated_Source\PSoC4/Comm_UART.c **** 
 606:Generated_Source\PSoC4/Comm_UART.c ****     #if !(Comm_CY_SCBIP_V0 || Comm_CY_SCBIP_V1)
 607:Generated_Source\PSoC4/Comm_UART.c ****         /*******************************************************************************
 608:Generated_Source\PSoC4/Comm_UART.c ****         * Function Name: Comm_UartSetRtsPolarity
 609:Generated_Source\PSoC4/Comm_UART.c ****         ****************************************************************************//**
 610:Generated_Source\PSoC4/Comm_UART.c ****         *
 611:Generated_Source\PSoC4/Comm_UART.c ****         *  Sets active polarity of RTS output signal.
 612:Generated_Source\PSoC4/Comm_UART.c ****         *  Only available for PSoC 4100 BLE / PSoC 4200 BLE / PSoC 4100M / PSoC 4200M /
 613:Generated_Source\PSoC4/Comm_UART.c ****         *  PSoC 4200L / PSoC 4000S / PSoC 4100S / PSoC Analog Coprocessor devices.
 614:Generated_Source\PSoC4/Comm_UART.c ****         *
 615:Generated_Source\PSoC4/Comm_UART.c ****         *  \param polarity: Active polarity of RTS output signal.
 616:Generated_Source\PSoC4/Comm_UART.c ****         *   - Comm_UART_RTS_ACTIVE_LOW  - RTS signal is active low.
 617:Generated_Source\PSoC4/Comm_UART.c ****         *   - Comm_UART_RTS_ACTIVE_HIGH - RTS signal is active high.
 618:Generated_Source\PSoC4/Comm_UART.c ****         *
 619:Generated_Source\PSoC4/Comm_UART.c ****         *******************************************************************************/
 620:Generated_Source\PSoC4/Comm_UART.c ****         void Comm_UartSetRtsPolarity(uint32 polarity)
 621:Generated_Source\PSoC4/Comm_UART.c ****         {
 622:Generated_Source\PSoC4/Comm_UART.c ****             if(0u != polarity)
 623:Generated_Source\PSoC4/Comm_UART.c ****             {
 624:Generated_Source\PSoC4/Comm_UART.c ****                 Comm_UART_FLOW_CTRL_REG |= (uint32)  Comm_UART_FLOW_CTRL_RTS_POLARITY;
 625:Generated_Source\PSoC4/Comm_UART.c ****             }
 626:Generated_Source\PSoC4/Comm_UART.c ****             else
 627:Generated_Source\PSoC4/Comm_UART.c ****             {
 628:Generated_Source\PSoC4/Comm_UART.c ****                 Comm_UART_FLOW_CTRL_REG &= (uint32) ~Comm_UART_FLOW_CTRL_RTS_POLARITY;
 629:Generated_Source\PSoC4/Comm_UART.c ****             }
 630:Generated_Source\PSoC4/Comm_UART.c ****         }
 631:Generated_Source\PSoC4/Comm_UART.c **** 
 632:Generated_Source\PSoC4/Comm_UART.c **** 
 633:Generated_Source\PSoC4/Comm_UART.c ****         /*******************************************************************************
 634:Generated_Source\PSoC4/Comm_UART.c ****         * Function Name: Comm_UartSetRtsFifoLevel
 635:Generated_Source\PSoC4/Comm_UART.c ****         ****************************************************************************//**
 636:Generated_Source\PSoC4/Comm_UART.c ****         *
 637:Generated_Source\PSoC4/Comm_UART.c ****         *  Sets level in the RX FIFO for RTS signal activation.
 638:Generated_Source\PSoC4/Comm_UART.c ****         *  While the RX FIFO has fewer entries than the RX FIFO level the RTS signal
 639:Generated_Source\PSoC4/Comm_UART.c ****         *  remains active, otherwise the RTS signal becomes inactive.
 640:Generated_Source\PSoC4/Comm_UART.c ****         *  Only available for PSoC 4100 BLE / PSoC 4200 BLE / PSoC 4100M / PSoC 4200M /
 641:Generated_Source\PSoC4/Comm_UART.c ****         *  PSoC 4200L / PSoC 4000S / PSoC 4100S / PSoC Analog Coprocessor devices.
 642:Generated_Source\PSoC4/Comm_UART.c ****         *
 643:Generated_Source\PSoC4/Comm_UART.c ****         *  \param level: Level in the RX FIFO for RTS signal activation.
 644:Generated_Source\PSoC4/Comm_UART.c ****         *   The range of valid level values is between 0 and RX FIFO depth - 1.
 645:Generated_Source\PSoC4/Comm_UART.c ****         *   Setting level value to 0 disables RTS signal activation.
 646:Generated_Source\PSoC4/Comm_UART.c ****         *
 647:Generated_Source\PSoC4/Comm_UART.c ****         *******************************************************************************/
 648:Generated_Source\PSoC4/Comm_UART.c ****         void Comm_UartSetRtsFifoLevel(uint32 level)
 649:Generated_Source\PSoC4/Comm_UART.c ****         {
 650:Generated_Source\PSoC4/Comm_UART.c ****             uint32 uartFlowCtrl;
 651:Generated_Source\PSoC4/Comm_UART.c **** 
 652:Generated_Source\PSoC4/Comm_UART.c ****             uartFlowCtrl = Comm_UART_FLOW_CTRL_REG;
 653:Generated_Source\PSoC4/Comm_UART.c **** 
 654:Generated_Source\PSoC4/Comm_UART.c ****             uartFlowCtrl &= ((uint32) ~Comm_UART_FLOW_CTRL_TRIGGER_LEVEL_MASK); /* Clear level mask
 655:Generated_Source\PSoC4/Comm_UART.c ****             uartFlowCtrl |= ((uint32) (Comm_UART_FLOW_CTRL_TRIGGER_LEVEL_MASK & level));
 656:Generated_Source\PSoC4/Comm_UART.c **** 
 657:Generated_Source\PSoC4/Comm_UART.c ****             Comm_UART_FLOW_CTRL_REG = uartFlowCtrl;
 658:Generated_Source\PSoC4/Comm_UART.c ****         }
ARM GAS  C:\Users\TECHCO~1\AppData\Local\Temp\ccHwiEe3.s 			page 27


 659:Generated_Source\PSoC4/Comm_UART.c ****     #endif /* !(Comm_CY_SCBIP_V0 || Comm_CY_SCBIP_V1) */
 660:Generated_Source\PSoC4/Comm_UART.c **** 
 661:Generated_Source\PSoC4/Comm_UART.c **** #endif /* (Comm_UART_RX_DIRECTION) */
 662:Generated_Source\PSoC4/Comm_UART.c **** 
 663:Generated_Source\PSoC4/Comm_UART.c **** 
 664:Generated_Source\PSoC4/Comm_UART.c **** #if(Comm_UART_TX_DIRECTION)
 665:Generated_Source\PSoC4/Comm_UART.c ****     /*******************************************************************************
 666:Generated_Source\PSoC4/Comm_UART.c ****     * Function Name: Comm_UartPutString
 667:Generated_Source\PSoC4/Comm_UART.c ****     ****************************************************************************//**
 668:Generated_Source\PSoC4/Comm_UART.c ****     *
 669:Generated_Source\PSoC4/Comm_UART.c ****     *  Places a NULL terminated string in the transmit buffer to be sent at the
 670:Generated_Source\PSoC4/Comm_UART.c ****     *  next available bus time.
 671:Generated_Source\PSoC4/Comm_UART.c ****     *  This function is blocking and waits until there is a space available to put
 672:Generated_Source\PSoC4/Comm_UART.c ****     *  requested data in transmit buffer.
 673:Generated_Source\PSoC4/Comm_UART.c ****     *
 674:Generated_Source\PSoC4/Comm_UART.c ****     *  \param string: pointer to the null terminated string array to be placed in the
 675:Generated_Source\PSoC4/Comm_UART.c ****     *   transmit buffer.
 676:Generated_Source\PSoC4/Comm_UART.c ****     *
 677:Generated_Source\PSoC4/Comm_UART.c ****     *******************************************************************************/
 678:Generated_Source\PSoC4/Comm_UART.c ****     void Comm_UartPutString(const char8 string[])
 679:Generated_Source\PSoC4/Comm_UART.c ****     {
 777              		.loc 1 679 0
 778              		.cfi_startproc
 779              	.LVL34:
 780 0000 10B5     		push	{r4, lr}
 781              		.cfi_def_cfa_offset 8
 782              		.cfi_offset 4, -8
 783              		.cfi_offset 14, -4
 784 0002 041C     		mov	r4, r0
 785              	.LVL35:
 786              	.L98:
 787 0004 0134     		add	r4, r4, #1
 788              	.LVL36:
 789 0006 631E     		sub	r3, r4, #1
 680:Generated_Source\PSoC4/Comm_UART.c ****         uint32 bufIndex;
 681:Generated_Source\PSoC4/Comm_UART.c **** 
 682:Generated_Source\PSoC4/Comm_UART.c ****         bufIndex = 0u;
 683:Generated_Source\PSoC4/Comm_UART.c **** 
 684:Generated_Source\PSoC4/Comm_UART.c ****         /* Blocks the control flow until all data has been sent */
 685:Generated_Source\PSoC4/Comm_UART.c ****         while(string[bufIndex] != ((char8) 0))
 790              		.loc 1 685 0
 791 0008 1878     		ldrb	r0, [r3]
 792 000a 0028     		cmp	r0, #0
 793 000c 02D0     		beq	.L100
 686:Generated_Source\PSoC4/Comm_UART.c ****         {
 687:Generated_Source\PSoC4/Comm_UART.c ****             Comm_UartPutChar((uint32) string[bufIndex]);
 794              		.loc 1 687 0
 795 000e FFF7FEFF 		bl	Comm_SpiUartWriteTxData
 796              	.LVL37:
 797 0012 F7E7     		b	.L98
 798              	.LVL38:
 799              	.L100:
 688:Generated_Source\PSoC4/Comm_UART.c ****             bufIndex++;
 689:Generated_Source\PSoC4/Comm_UART.c ****         }
 690:Generated_Source\PSoC4/Comm_UART.c ****     }
 800              		.loc 1 690 0
 801              		@ sp needed
ARM GAS  C:\Users\TECHCO~1\AppData\Local\Temp\ccHwiEe3.s 			page 28


 802              	.LVL39:
 803 0014 10BD     		pop	{r4, pc}
 804              		.cfi_endproc
 805              	.LFE7:
 806              		.size	Comm_UartPutString, .-Comm_UartPutString
 807              		.section	.text.Comm_UartPutCRLF,"ax",%progbits
 808              		.align	1
 809              		.global	Comm_UartPutCRLF
 810              		.code	16
 811              		.thumb_func
 812              		.type	Comm_UartPutCRLF, %function
 813              	Comm_UartPutCRLF:
 814              	.LFB8:
 691:Generated_Source\PSoC4/Comm_UART.c **** 
 692:Generated_Source\PSoC4/Comm_UART.c **** 
 693:Generated_Source\PSoC4/Comm_UART.c ****     /*******************************************************************************
 694:Generated_Source\PSoC4/Comm_UART.c ****     * Function Name: Comm_UartPutCRLF
 695:Generated_Source\PSoC4/Comm_UART.c ****     ****************************************************************************//**
 696:Generated_Source\PSoC4/Comm_UART.c ****     *
 697:Generated_Source\PSoC4/Comm_UART.c ****     *  Places byte of data followed by a carriage return (0x0D) and line feed
 698:Generated_Source\PSoC4/Comm_UART.c ****     *  (0x0A) in the transmit buffer.
 699:Generated_Source\PSoC4/Comm_UART.c ****     *  This function is blocking and waits until there is a space available to put
 700:Generated_Source\PSoC4/Comm_UART.c ****     *  all requested data in transmit buffer.
 701:Generated_Source\PSoC4/Comm_UART.c ****     *
 702:Generated_Source\PSoC4/Comm_UART.c ****     *  \param txDataByte: the data to be transmitted.
 703:Generated_Source\PSoC4/Comm_UART.c ****     *
 704:Generated_Source\PSoC4/Comm_UART.c ****     *******************************************************************************/
 705:Generated_Source\PSoC4/Comm_UART.c ****     void Comm_UartPutCRLF(uint32 txDataByte)
 706:Generated_Source\PSoC4/Comm_UART.c ****     {
 815              		.loc 1 706 0
 816              		.cfi_startproc
 817              	.LVL40:
 818 0000 08B5     		push	{r3, lr}
 819              		.cfi_def_cfa_offset 8
 820              		.cfi_offset 3, -8
 821              		.cfi_offset 14, -4
 707:Generated_Source\PSoC4/Comm_UART.c ****         Comm_UartPutChar(txDataByte);  /* Blocks control flow until all data has been sent */
 822              		.loc 1 707 0
 823 0002 FFF7FEFF 		bl	Comm_SpiUartWriteTxData
 824              	.LVL41:
 708:Generated_Source\PSoC4/Comm_UART.c ****         Comm_UartPutChar(0x0Du);       /* Blocks control flow until all data has been sent */
 825              		.loc 1 708 0
 826 0006 0D20     		mov	r0, #13
 827 0008 FFF7FEFF 		bl	Comm_SpiUartWriteTxData
 828              	.LVL42:
 709:Generated_Source\PSoC4/Comm_UART.c ****         Comm_UartPutChar(0x0Au);       /* Blocks control flow until all data has been sent */
 829              		.loc 1 709 0
 830 000c 0A20     		mov	r0, #10
 831 000e FFF7FEFF 		bl	Comm_SpiUartWriteTxData
 832              	.LVL43:
 710:Generated_Source\PSoC4/Comm_UART.c ****     }
 833              		.loc 1 710 0
 834              		@ sp needed
 835 0012 08BD     		pop	{r3, pc}
 836              		.cfi_endproc
 837              	.LFE8:
 838              		.size	Comm_UartPutCRLF, .-Comm_UartPutCRLF
ARM GAS  C:\Users\TECHCO~1\AppData\Local\Temp\ccHwiEe3.s 			page 29


 839              		.section	.text.Comm_UartSaveConfig,"ax",%progbits
 840              		.align	1
 841              		.global	Comm_UartSaveConfig
 842              		.code	16
 843              		.thumb_func
 844              		.type	Comm_UartSaveConfig, %function
 845              	Comm_UartSaveConfig:
 846              	.LFB9:
 711:Generated_Source\PSoC4/Comm_UART.c **** 
 712:Generated_Source\PSoC4/Comm_UART.c **** 
 713:Generated_Source\PSoC4/Comm_UART.c ****     #if !(Comm_CY_SCBIP_V0 || Comm_CY_SCBIP_V1)
 714:Generated_Source\PSoC4/Comm_UART.c ****         /*******************************************************************************
 715:Generated_Source\PSoC4/Comm_UART.c ****         * Function Name: CommSCB_UartEnableCts
 716:Generated_Source\PSoC4/Comm_UART.c ****         ****************************************************************************//**
 717:Generated_Source\PSoC4/Comm_UART.c ****         *
 718:Generated_Source\PSoC4/Comm_UART.c ****         *  Enables usage of CTS input signal by the UART transmitter.
 719:Generated_Source\PSoC4/Comm_UART.c ****         *  Only available for PSoC 4100 BLE / PSoC 4200 BLE / PSoC 4100M / PSoC 4200M /
 720:Generated_Source\PSoC4/Comm_UART.c ****         *  PSoC 4200L / PSoC 4000S / PSoC 4100S / PSoC Analog Coprocessor devices.
 721:Generated_Source\PSoC4/Comm_UART.c ****         *
 722:Generated_Source\PSoC4/Comm_UART.c ****         *******************************************************************************/
 723:Generated_Source\PSoC4/Comm_UART.c ****         void Comm_UartEnableCts(void)
 724:Generated_Source\PSoC4/Comm_UART.c ****         {
 725:Generated_Source\PSoC4/Comm_UART.c ****             Comm_UART_FLOW_CTRL_REG |= (uint32)  Comm_UART_FLOW_CTRL_CTS_ENABLE;
 726:Generated_Source\PSoC4/Comm_UART.c ****         }
 727:Generated_Source\PSoC4/Comm_UART.c **** 
 728:Generated_Source\PSoC4/Comm_UART.c **** 
 729:Generated_Source\PSoC4/Comm_UART.c ****         /*******************************************************************************
 730:Generated_Source\PSoC4/Comm_UART.c ****         * Function Name: Comm_UartDisableCts
 731:Generated_Source\PSoC4/Comm_UART.c ****         ****************************************************************************//**
 732:Generated_Source\PSoC4/Comm_UART.c ****         *
 733:Generated_Source\PSoC4/Comm_UART.c ****         *  Disables usage of CTS input signal by the UART transmitter.
 734:Generated_Source\PSoC4/Comm_UART.c ****         *  Only available for PSoC 4100 BLE / PSoC 4200 BLE / PSoC 4100M / PSoC 4200M /
 735:Generated_Source\PSoC4/Comm_UART.c ****         *  PSoC 4200L / PSoC 4000S / PSoC 4100S / PSoC Analog Coprocessor devices.
 736:Generated_Source\PSoC4/Comm_UART.c ****         *
 737:Generated_Source\PSoC4/Comm_UART.c ****         *******************************************************************************/
 738:Generated_Source\PSoC4/Comm_UART.c ****         void Comm_UartDisableCts(void)
 739:Generated_Source\PSoC4/Comm_UART.c ****         {
 740:Generated_Source\PSoC4/Comm_UART.c ****             Comm_UART_FLOW_CTRL_REG &= (uint32) ~Comm_UART_FLOW_CTRL_CTS_ENABLE;
 741:Generated_Source\PSoC4/Comm_UART.c ****         }
 742:Generated_Source\PSoC4/Comm_UART.c **** 
 743:Generated_Source\PSoC4/Comm_UART.c **** 
 744:Generated_Source\PSoC4/Comm_UART.c ****         /*******************************************************************************
 745:Generated_Source\PSoC4/Comm_UART.c ****         * Function Name: Comm_UartSetCtsPolarity
 746:Generated_Source\PSoC4/Comm_UART.c ****         ****************************************************************************//**
 747:Generated_Source\PSoC4/Comm_UART.c ****         *
 748:Generated_Source\PSoC4/Comm_UART.c ****         *  Sets active polarity of CTS input signal.
 749:Generated_Source\PSoC4/Comm_UART.c ****         *  Only available for PSoC 4100 BLE / PSoC 4200 BLE / PSoC 4100M / PSoC 4200M /
 750:Generated_Source\PSoC4/Comm_UART.c ****         *  PSoC 4200L / PSoC 4000S / PSoC 4100S / PSoC Analog Coprocessor devices.
 751:Generated_Source\PSoC4/Comm_UART.c ****         *
 752:Generated_Source\PSoC4/Comm_UART.c ****         *  \param polarity: Active polarity of CTS output signal.
 753:Generated_Source\PSoC4/Comm_UART.c ****         *   - Comm_UART_CTS_ACTIVE_LOW  - CTS signal is active low.
 754:Generated_Source\PSoC4/Comm_UART.c ****         *   - Comm_UART_CTS_ACTIVE_HIGH - CTS signal is active high.
 755:Generated_Source\PSoC4/Comm_UART.c ****         *
 756:Generated_Source\PSoC4/Comm_UART.c ****         *******************************************************************************/
 757:Generated_Source\PSoC4/Comm_UART.c ****         void Comm_UartSetCtsPolarity(uint32 polarity)
 758:Generated_Source\PSoC4/Comm_UART.c ****         {
 759:Generated_Source\PSoC4/Comm_UART.c ****             if (0u != polarity)
ARM GAS  C:\Users\TECHCO~1\AppData\Local\Temp\ccHwiEe3.s 			page 30


 760:Generated_Source\PSoC4/Comm_UART.c ****             {
 761:Generated_Source\PSoC4/Comm_UART.c ****                 Comm_UART_FLOW_CTRL_REG |= (uint32)  Comm_UART_FLOW_CTRL_CTS_POLARITY;
 762:Generated_Source\PSoC4/Comm_UART.c ****             }
 763:Generated_Source\PSoC4/Comm_UART.c ****             else
 764:Generated_Source\PSoC4/Comm_UART.c ****             {
 765:Generated_Source\PSoC4/Comm_UART.c ****                 Comm_UART_FLOW_CTRL_REG &= (uint32) ~Comm_UART_FLOW_CTRL_CTS_POLARITY;
 766:Generated_Source\PSoC4/Comm_UART.c ****             }
 767:Generated_Source\PSoC4/Comm_UART.c ****         }
 768:Generated_Source\PSoC4/Comm_UART.c ****     #endif /* !(Comm_CY_SCBIP_V0 || Comm_CY_SCBIP_V1) */
 769:Generated_Source\PSoC4/Comm_UART.c **** 
 770:Generated_Source\PSoC4/Comm_UART.c **** #endif /* (Comm_UART_TX_DIRECTION) */
 771:Generated_Source\PSoC4/Comm_UART.c **** 
 772:Generated_Source\PSoC4/Comm_UART.c **** 
 773:Generated_Source\PSoC4/Comm_UART.c **** #if (Comm_UART_WAKE_ENABLE_CONST)
 774:Generated_Source\PSoC4/Comm_UART.c ****     /*******************************************************************************
 775:Generated_Source\PSoC4/Comm_UART.c ****     * Function Name: Comm_UartSaveConfig
 776:Generated_Source\PSoC4/Comm_UART.c ****     ****************************************************************************//**
 777:Generated_Source\PSoC4/Comm_UART.c ****     *
 778:Generated_Source\PSoC4/Comm_UART.c ****     *  Clears and enables an interrupt on a falling edge of the Rx input. The GPIO
 779:Generated_Source\PSoC4/Comm_UART.c ****     *  interrupt does not track in the active mode, therefore requires to be 
 780:Generated_Source\PSoC4/Comm_UART.c ****     *  cleared by this API.
 781:Generated_Source\PSoC4/Comm_UART.c ****     *
 782:Generated_Source\PSoC4/Comm_UART.c ****     *******************************************************************************/
 783:Generated_Source\PSoC4/Comm_UART.c ****     void Comm_UartSaveConfig(void)
 784:Generated_Source\PSoC4/Comm_UART.c ****     {
 847              		.loc 1 784 0
 848              		.cfi_startproc
 785:Generated_Source\PSoC4/Comm_UART.c ****     #if (Comm_UART_RX_WAKEUP_IRQ)
 786:Generated_Source\PSoC4/Comm_UART.c ****         /* Set SKIP_START if requested (set by default). */
 787:Generated_Source\PSoC4/Comm_UART.c ****         if (0u != Comm_skipStart)
 788:Generated_Source\PSoC4/Comm_UART.c ****         {
 789:Generated_Source\PSoC4/Comm_UART.c ****             Comm_UART_RX_CTRL_REG |= (uint32)  Comm_UART_RX_CTRL_SKIP_START;
 790:Generated_Source\PSoC4/Comm_UART.c ****         }
 791:Generated_Source\PSoC4/Comm_UART.c ****         else
 792:Generated_Source\PSoC4/Comm_UART.c ****         {
 793:Generated_Source\PSoC4/Comm_UART.c ****             Comm_UART_RX_CTRL_REG &= (uint32) ~Comm_UART_RX_CTRL_SKIP_START;
 794:Generated_Source\PSoC4/Comm_UART.c ****         }
 795:Generated_Source\PSoC4/Comm_UART.c ****         
 796:Generated_Source\PSoC4/Comm_UART.c ****         /* Clear RX GPIO interrupt status and pending interrupt in NVIC because
 797:Generated_Source\PSoC4/Comm_UART.c ****         * falling edge on RX line occurs while UART communication in active mode.
 798:Generated_Source\PSoC4/Comm_UART.c ****         * Enable interrupt: next interrupt trigger should wakeup device.
 799:Generated_Source\PSoC4/Comm_UART.c ****         */
 800:Generated_Source\PSoC4/Comm_UART.c ****         Comm_CLEAR_UART_RX_WAKE_INTR;
 801:Generated_Source\PSoC4/Comm_UART.c ****         Comm_RxWakeClearPendingInt();
 802:Generated_Source\PSoC4/Comm_UART.c ****         Comm_RxWakeEnableInt();
 803:Generated_Source\PSoC4/Comm_UART.c ****     #endif /* (Comm_UART_RX_WAKEUP_IRQ) */
 804:Generated_Source\PSoC4/Comm_UART.c ****     }
 849              		.loc 1 804 0
 850              		@ sp needed
 851 0000 7047     		bx	lr
 852              		.cfi_endproc
 853              	.LFE9:
 854              		.size	Comm_UartSaveConfig, .-Comm_UartSaveConfig
 855              		.section	.text.Comm_UartRestoreConfig,"ax",%progbits
 856              		.align	1
 857              		.global	Comm_UartRestoreConfig
 858              		.code	16
ARM GAS  C:\Users\TECHCO~1\AppData\Local\Temp\ccHwiEe3.s 			page 31


 859              		.thumb_func
 860              		.type	Comm_UartRestoreConfig, %function
 861              	Comm_UartRestoreConfig:
 862              	.LFB10:
 805:Generated_Source\PSoC4/Comm_UART.c **** 
 806:Generated_Source\PSoC4/Comm_UART.c **** 
 807:Generated_Source\PSoC4/Comm_UART.c ****     /*******************************************************************************
 808:Generated_Source\PSoC4/Comm_UART.c ****     * Function Name: Comm_UartRestoreConfig
 809:Generated_Source\PSoC4/Comm_UART.c ****     ****************************************************************************//**
 810:Generated_Source\PSoC4/Comm_UART.c ****     *
 811:Generated_Source\PSoC4/Comm_UART.c ****     *  Disables the RX GPIO interrupt. Until this function is called the interrupt
 812:Generated_Source\PSoC4/Comm_UART.c ****     *  remains active and triggers on every falling edge of the UART RX line.
 813:Generated_Source\PSoC4/Comm_UART.c ****     *
 814:Generated_Source\PSoC4/Comm_UART.c ****     *******************************************************************************/
 815:Generated_Source\PSoC4/Comm_UART.c ****     void Comm_UartRestoreConfig(void)
 816:Generated_Source\PSoC4/Comm_UART.c ****     {
 863              		.loc 1 816 0
 864              		.cfi_startproc
 817:Generated_Source\PSoC4/Comm_UART.c ****     #if (Comm_UART_RX_WAKEUP_IRQ)
 818:Generated_Source\PSoC4/Comm_UART.c ****         /* Disable interrupt: no more triggers in active mode */
 819:Generated_Source\PSoC4/Comm_UART.c ****         Comm_RxWakeDisableInt();
 820:Generated_Source\PSoC4/Comm_UART.c ****     #endif /* (Comm_UART_RX_WAKEUP_IRQ) */
 821:Generated_Source\PSoC4/Comm_UART.c ****     }
 865              		.loc 1 821 0
 866              		@ sp needed
 867 0000 7047     		bx	lr
 868              		.cfi_endproc
 869              	.LFE10:
 870              		.size	Comm_UartRestoreConfig, .-Comm_UartRestoreConfig
 871              		.global	Comm_configUart
 872              		.section	.rodata
 873              		.align	2
 874              		.type	Comm_configUart, %object
 875              		.size	Comm_configUart, 112
 876              	Comm_configUart:
 877 0000 00000000 		.word	0
 878 0004 03000000 		.word	3
 879 0008 08000000 		.word	8
 880 000c 02000000 		.word	2
 881 0010 02000000 		.word	2
 882 0014 10000000 		.word	16
 883 0018 00000000 		.word	0
 884 001c 00000000 		.word	0
 885 0020 00000000 		.word	0
 886 0024 00000000 		.word	0
 887 0028 00000000 		.word	0
 888 002c 00000000 		.word	0
 889 0030 00000000 		.word	0
 890 0034 00000000 		.word	0
 891 0038 00000000 		.word	0
 892 003c 00000000 		.word	0
 893 0040 00000000 		.word	0
 894 0044 00000000 		.word	0
 895 0048 00000000 		.word	0
 896 004c 02000000 		.word	2
 897 0050 FF000000 		.word	255
 898 0054 01000000 		.word	1
ARM GAS  C:\Users\TECHCO~1\AppData\Local\Temp\ccHwiEe3.s 			page 32


 899 0058 00000000 		.word	0
 900 005c 07000000 		.word	7
 901 0060 00000000 		.word	0
 902 0064 00000000 		.word	0
 903 0068 00       		.byte	0
 904 0069 00       		.byte	0
 905 006a 00       		.byte	0
 906 006b 00       		.byte	0
 907 006c 04       		.byte	4
 908 006d 000000   		.space	3
 909              		.text
 910              	.Letext0:
 911              		.file 2 "Generated_Source\\PSoC4/cytypes.h"
 912              		.file 3 "Generated_Source\\PSoC4\\Comm_SPI_UART.h"
 913              		.file 4 "Generated_Source\\PSoC4\\Comm_PVT.h"
 914              		.file 5 "Generated_Source\\PSoC4\\Comm_SPI_UART_PVT.h"
 915              		.file 6 "Generated_Source\\PSoC4/CyLib.h"