ARM GAS  C:\Users\TECHCO~1\AppData\Local\Temp\cch0eQun.s 			page 1


   1              		.cpu cortex-m0
   2              		.fpu softvfp
   3              		.eabi_attribute 20, 1
   4              		.eabi_attribute 21, 1
   5              		.eabi_attribute 23, 3
   6              		.eabi_attribute 24, 1
   7              		.eabi_attribute 25, 1
   8              		.eabi_attribute 26, 1
   9              		.eabi_attribute 30, 4
  10              		.eabi_attribute 34, 0
  11              		.eabi_attribute 18, 4
  12              		.code	16
  13              		.file	"Comm_SPI.c"
  14              		.text
  15              	.Ltext0:
  16              		.cfi_sections	.debug_frame
  17              		.section	.text.Comm_SpiPostEnable,"ax",%progbits
  18              		.align	1
  19              		.global	Comm_SpiPostEnable
  20              		.code	16
  21              		.thumb_func
  22              		.type	Comm_SpiPostEnable, %function
  23              	Comm_SpiPostEnable:
  24              	.LFB1:
  25              		.file 1 "Generated_Source\\PSoC4\\Comm_SPI.c"
   1:Generated_Source\PSoC4/Comm_SPI.c **** /***************************************************************************//**
   2:Generated_Source\PSoC4/Comm_SPI.c **** * \file Comm_SPI.c
   3:Generated_Source\PSoC4/Comm_SPI.c **** * \version 3.20
   4:Generated_Source\PSoC4/Comm_SPI.c **** *
   5:Generated_Source\PSoC4/Comm_SPI.c **** * \brief
   6:Generated_Source\PSoC4/Comm_SPI.c **** *  This file provides the source code to the API for the SCB Component in
   7:Generated_Source\PSoC4/Comm_SPI.c **** *  SPI mode.
   8:Generated_Source\PSoC4/Comm_SPI.c **** *
   9:Generated_Source\PSoC4/Comm_SPI.c **** * Note:
  10:Generated_Source\PSoC4/Comm_SPI.c **** *
  11:Generated_Source\PSoC4/Comm_SPI.c **** *******************************************************************************
  12:Generated_Source\PSoC4/Comm_SPI.c **** * \copyright
  13:Generated_Source\PSoC4/Comm_SPI.c **** * Copyright 2013-2016, Cypress Semiconductor Corporation.  All rights reserved.
  14:Generated_Source\PSoC4/Comm_SPI.c **** * You may use this file only in accordance with the license, terms, conditions,
  15:Generated_Source\PSoC4/Comm_SPI.c **** * disclaimers, and limitations in the end user license agreement accompanying
  16:Generated_Source\PSoC4/Comm_SPI.c **** * the software package with which this file was provided.
  17:Generated_Source\PSoC4/Comm_SPI.c **** *******************************************************************************/
  18:Generated_Source\PSoC4/Comm_SPI.c **** 
  19:Generated_Source\PSoC4/Comm_SPI.c **** #include "Comm_PVT.h"
  20:Generated_Source\PSoC4/Comm_SPI.c **** #include "Comm_SPI_UART_PVT.h"
  21:Generated_Source\PSoC4/Comm_SPI.c **** 
  22:Generated_Source\PSoC4/Comm_SPI.c **** #if(Comm_SCB_MODE_UNCONFIG_CONST_CFG)
  23:Generated_Source\PSoC4/Comm_SPI.c **** 
  24:Generated_Source\PSoC4/Comm_SPI.c ****     /***************************************
  25:Generated_Source\PSoC4/Comm_SPI.c ****     *  Configuration Structure Initialization
  26:Generated_Source\PSoC4/Comm_SPI.c ****     ***************************************/
  27:Generated_Source\PSoC4/Comm_SPI.c **** 
  28:Generated_Source\PSoC4/Comm_SPI.c ****     const Comm_SPI_INIT_STRUCT Comm_configSpi =
  29:Generated_Source\PSoC4/Comm_SPI.c ****     {
  30:Generated_Source\PSoC4/Comm_SPI.c ****         Comm_SPI_MODE,
  31:Generated_Source\PSoC4/Comm_SPI.c ****         Comm_SPI_SUB_MODE,
  32:Generated_Source\PSoC4/Comm_SPI.c ****         Comm_SPI_CLOCK_MODE,
ARM GAS  C:\Users\TECHCO~1\AppData\Local\Temp\cch0eQun.s 			page 2


  33:Generated_Source\PSoC4/Comm_SPI.c ****         Comm_SPI_OVS_FACTOR,
  34:Generated_Source\PSoC4/Comm_SPI.c ****         Comm_SPI_MEDIAN_FILTER_ENABLE,
  35:Generated_Source\PSoC4/Comm_SPI.c ****         Comm_SPI_LATE_MISO_SAMPLE_ENABLE,
  36:Generated_Source\PSoC4/Comm_SPI.c ****         Comm_SPI_WAKE_ENABLE,
  37:Generated_Source\PSoC4/Comm_SPI.c ****         Comm_SPI_RX_DATA_BITS_NUM,
  38:Generated_Source\PSoC4/Comm_SPI.c ****         Comm_SPI_TX_DATA_BITS_NUM,
  39:Generated_Source\PSoC4/Comm_SPI.c ****         Comm_SPI_BITS_ORDER,
  40:Generated_Source\PSoC4/Comm_SPI.c ****         Comm_SPI_TRANSFER_SEPARATION,
  41:Generated_Source\PSoC4/Comm_SPI.c ****         0u,
  42:Generated_Source\PSoC4/Comm_SPI.c ****         NULL,
  43:Generated_Source\PSoC4/Comm_SPI.c ****         0u,
  44:Generated_Source\PSoC4/Comm_SPI.c ****         NULL,
  45:Generated_Source\PSoC4/Comm_SPI.c ****         (uint32) Comm_SCB_IRQ_INTERNAL,
  46:Generated_Source\PSoC4/Comm_SPI.c ****         Comm_SPI_INTR_RX_MASK,
  47:Generated_Source\PSoC4/Comm_SPI.c ****         Comm_SPI_RX_TRIGGER_LEVEL,
  48:Generated_Source\PSoC4/Comm_SPI.c ****         Comm_SPI_INTR_TX_MASK,
  49:Generated_Source\PSoC4/Comm_SPI.c ****         Comm_SPI_TX_TRIGGER_LEVEL,
  50:Generated_Source\PSoC4/Comm_SPI.c ****         (uint8) Comm_SPI_BYTE_MODE_ENABLE,
  51:Generated_Source\PSoC4/Comm_SPI.c ****         (uint8) Comm_SPI_FREE_RUN_SCLK_ENABLE,
  52:Generated_Source\PSoC4/Comm_SPI.c ****         (uint8) Comm_SPI_SS_POLARITY
  53:Generated_Source\PSoC4/Comm_SPI.c ****     };
  54:Generated_Source\PSoC4/Comm_SPI.c **** 
  55:Generated_Source\PSoC4/Comm_SPI.c **** 
  56:Generated_Source\PSoC4/Comm_SPI.c ****     /*******************************************************************************
  57:Generated_Source\PSoC4/Comm_SPI.c ****     * Function Name: Comm_SpiInit
  58:Generated_Source\PSoC4/Comm_SPI.c ****     ****************************************************************************//**
  59:Generated_Source\PSoC4/Comm_SPI.c ****     *
  60:Generated_Source\PSoC4/Comm_SPI.c ****     *  Configures the Comm for SPI operation.
  61:Generated_Source\PSoC4/Comm_SPI.c ****     *
  62:Generated_Source\PSoC4/Comm_SPI.c ****     *  This function is intended specifically to be used when the Comm 
  63:Generated_Source\PSoC4/Comm_SPI.c ****     *  configuration is set to “Unconfigured Comm” in the customizer. 
  64:Generated_Source\PSoC4/Comm_SPI.c ****     *  After initializing the Comm in SPI mode using this function, 
  65:Generated_Source\PSoC4/Comm_SPI.c ****     *  the component can be enabled using the Comm_Start() or 
  66:Generated_Source\PSoC4/Comm_SPI.c ****     * Comm_Enable() function.
  67:Generated_Source\PSoC4/Comm_SPI.c ****     *  This function uses a pointer to a structure that provides the configuration 
  68:Generated_Source\PSoC4/Comm_SPI.c ****     *  settings. This structure contains the same information that would otherwise 
  69:Generated_Source\PSoC4/Comm_SPI.c ****     *  be provided by the customizer settings.
  70:Generated_Source\PSoC4/Comm_SPI.c ****     *
  71:Generated_Source\PSoC4/Comm_SPI.c ****     *  \param config: pointer to a structure that contains the following list of 
  72:Generated_Source\PSoC4/Comm_SPI.c ****     *   fields. These fields match the selections available in the customizer. 
  73:Generated_Source\PSoC4/Comm_SPI.c ****     *   Refer to the customizer for further description of the settings.
  74:Generated_Source\PSoC4/Comm_SPI.c ****     *
  75:Generated_Source\PSoC4/Comm_SPI.c ****     *******************************************************************************/
  76:Generated_Source\PSoC4/Comm_SPI.c ****     void Comm_SpiInit(const Comm_SPI_INIT_STRUCT *config)
  77:Generated_Source\PSoC4/Comm_SPI.c ****     {
  78:Generated_Source\PSoC4/Comm_SPI.c ****         if(NULL == config)
  79:Generated_Source\PSoC4/Comm_SPI.c ****         {
  80:Generated_Source\PSoC4/Comm_SPI.c ****             CYASSERT(0u != 0u); /* Halt execution due to bad function parameter */
  81:Generated_Source\PSoC4/Comm_SPI.c ****         }
  82:Generated_Source\PSoC4/Comm_SPI.c ****         else
  83:Generated_Source\PSoC4/Comm_SPI.c ****         {
  84:Generated_Source\PSoC4/Comm_SPI.c ****             /* Configure pins */
  85:Generated_Source\PSoC4/Comm_SPI.c ****             Comm_SetPins(Comm_SCB_MODE_SPI, config->mode, Comm_DUMMY_PARAM);
  86:Generated_Source\PSoC4/Comm_SPI.c **** 
  87:Generated_Source\PSoC4/Comm_SPI.c ****             /* Store internal configuration */
  88:Generated_Source\PSoC4/Comm_SPI.c ****             Comm_scbMode       = (uint8) Comm_SCB_MODE_SPI;
  89:Generated_Source\PSoC4/Comm_SPI.c ****             Comm_scbEnableWake = (uint8) config->enableWake;
ARM GAS  C:\Users\TECHCO~1\AppData\Local\Temp\cch0eQun.s 			page 3


  90:Generated_Source\PSoC4/Comm_SPI.c ****             Comm_scbEnableIntr = (uint8) config->enableInterrupt;
  91:Generated_Source\PSoC4/Comm_SPI.c **** 
  92:Generated_Source\PSoC4/Comm_SPI.c ****             /* Set RX direction internal variables */
  93:Generated_Source\PSoC4/Comm_SPI.c ****             Comm_rxBuffer      =         config->rxBuffer;
  94:Generated_Source\PSoC4/Comm_SPI.c ****             Comm_rxDataBits    = (uint8) config->rxDataBits;
  95:Generated_Source\PSoC4/Comm_SPI.c ****             Comm_rxBufferSize  = (uint8) config->rxBufferSize;
  96:Generated_Source\PSoC4/Comm_SPI.c **** 
  97:Generated_Source\PSoC4/Comm_SPI.c ****             /* Set TX direction internal variables */
  98:Generated_Source\PSoC4/Comm_SPI.c ****             Comm_txBuffer      =         config->txBuffer;
  99:Generated_Source\PSoC4/Comm_SPI.c ****             Comm_txDataBits    = (uint8) config->txDataBits;
 100:Generated_Source\PSoC4/Comm_SPI.c ****             Comm_txBufferSize  = (uint8) config->txBufferSize;
 101:Generated_Source\PSoC4/Comm_SPI.c **** 
 102:Generated_Source\PSoC4/Comm_SPI.c ****             /* Configure SPI interface */
 103:Generated_Source\PSoC4/Comm_SPI.c ****             Comm_CTRL_REG     = Comm_GET_CTRL_OVS(config->oversample)           |
 104:Generated_Source\PSoC4/Comm_SPI.c ****                                             Comm_GET_CTRL_BYTE_MODE(config->enableByteMode) |
 105:Generated_Source\PSoC4/Comm_SPI.c ****                                             Comm_GET_CTRL_EC_AM_MODE(config->enableWake)    |
 106:Generated_Source\PSoC4/Comm_SPI.c ****                                             Comm_CTRL_SPI;
 107:Generated_Source\PSoC4/Comm_SPI.c **** 
 108:Generated_Source\PSoC4/Comm_SPI.c ****             Comm_SPI_CTRL_REG = Comm_GET_SPI_CTRL_CONTINUOUS    (config->transferSeperation)  |
 109:Generated_Source\PSoC4/Comm_SPI.c ****                                             Comm_GET_SPI_CTRL_SELECT_PRECEDE(config->submode &
 110:Generated_Source\PSoC4/Comm_SPI.c ****                                                                           Comm_SPI_MODE_TI_PRECEDES
 111:Generated_Source\PSoC4/Comm_SPI.c ****                                             Comm_GET_SPI_CTRL_SCLK_MODE     (config->sclkMode)     
 112:Generated_Source\PSoC4/Comm_SPI.c ****                                             Comm_GET_SPI_CTRL_LATE_MISO_SAMPLE(config->enableLateSa
 113:Generated_Source\PSoC4/Comm_SPI.c ****                                             Comm_GET_SPI_CTRL_SCLK_CONTINUOUS(config->enableFreeRun
 114:Generated_Source\PSoC4/Comm_SPI.c ****                                             Comm_GET_SPI_CTRL_SSEL_POLARITY (config->polaritySs)   
 115:Generated_Source\PSoC4/Comm_SPI.c ****                                             Comm_GET_SPI_CTRL_SUB_MODE      (config->submode)      
 116:Generated_Source\PSoC4/Comm_SPI.c ****                                             Comm_GET_SPI_CTRL_MASTER_MODE   (config->mode);
 117:Generated_Source\PSoC4/Comm_SPI.c **** 
 118:Generated_Source\PSoC4/Comm_SPI.c ****             /* Configure RX direction */
 119:Generated_Source\PSoC4/Comm_SPI.c ****             Comm_RX_CTRL_REG     =  Comm_GET_RX_CTRL_DATA_WIDTH(config->rxDataBits)         |
 120:Generated_Source\PSoC4/Comm_SPI.c ****                                                 Comm_GET_RX_CTRL_BIT_ORDER (config->bitOrder)      
 121:Generated_Source\PSoC4/Comm_SPI.c ****                                                 Comm_GET_RX_CTRL_MEDIAN    (config->enableMedianFil
 122:Generated_Source\PSoC4/Comm_SPI.c ****                                                 Comm_SPI_RX_CTRL;
 123:Generated_Source\PSoC4/Comm_SPI.c **** 
 124:Generated_Source\PSoC4/Comm_SPI.c ****             Comm_RX_FIFO_CTRL_REG = Comm_GET_RX_FIFO_CTRL_TRIGGER_LEVEL(config->rxTriggerLevel);
 125:Generated_Source\PSoC4/Comm_SPI.c **** 
 126:Generated_Source\PSoC4/Comm_SPI.c ****             /* Configure TX direction */
 127:Generated_Source\PSoC4/Comm_SPI.c ****             Comm_TX_CTRL_REG      = Comm_GET_TX_CTRL_DATA_WIDTH(config->txDataBits) |
 128:Generated_Source\PSoC4/Comm_SPI.c ****                                                 Comm_GET_TX_CTRL_BIT_ORDER (config->bitOrder)   |
 129:Generated_Source\PSoC4/Comm_SPI.c ****                                                 Comm_SPI_TX_CTRL;
 130:Generated_Source\PSoC4/Comm_SPI.c **** 
 131:Generated_Source\PSoC4/Comm_SPI.c ****             Comm_TX_FIFO_CTRL_REG = Comm_GET_TX_FIFO_CTRL_TRIGGER_LEVEL(config->txTriggerLevel);
 132:Generated_Source\PSoC4/Comm_SPI.c **** 
 133:Generated_Source\PSoC4/Comm_SPI.c ****             /* Configure interrupt with SPI handler but do not enable it */
 134:Generated_Source\PSoC4/Comm_SPI.c ****             CyIntDisable    (Comm_ISR_NUMBER);
 135:Generated_Source\PSoC4/Comm_SPI.c ****             CyIntSetPriority(Comm_ISR_NUMBER, Comm_ISR_PRIORITY);
 136:Generated_Source\PSoC4/Comm_SPI.c ****             (void) CyIntSetVector(Comm_ISR_NUMBER, &Comm_SPI_UART_ISR);
 137:Generated_Source\PSoC4/Comm_SPI.c **** 
 138:Generated_Source\PSoC4/Comm_SPI.c ****             /* Configure interrupt sources */
 139:Generated_Source\PSoC4/Comm_SPI.c ****             Comm_INTR_I2C_EC_MASK_REG = Comm_NO_INTR_SOURCES;
 140:Generated_Source\PSoC4/Comm_SPI.c ****             Comm_INTR_SPI_EC_MASK_REG = Comm_NO_INTR_SOURCES;
 141:Generated_Source\PSoC4/Comm_SPI.c ****             Comm_INTR_SLAVE_MASK_REG  = Comm_GET_SPI_INTR_SLAVE_MASK(config->rxInterruptMask);
 142:Generated_Source\PSoC4/Comm_SPI.c ****             Comm_INTR_MASTER_MASK_REG = Comm_GET_SPI_INTR_MASTER_MASK(config->txInterruptMask);
 143:Generated_Source\PSoC4/Comm_SPI.c ****             Comm_INTR_RX_MASK_REG     = Comm_GET_SPI_INTR_RX_MASK(config->rxInterruptMask);
 144:Generated_Source\PSoC4/Comm_SPI.c ****             Comm_INTR_TX_MASK_REG     = Comm_GET_SPI_INTR_TX_MASK(config->txInterruptMask);
 145:Generated_Source\PSoC4/Comm_SPI.c ****             
 146:Generated_Source\PSoC4/Comm_SPI.c ****             /* Configure TX interrupt sources to restore. */
ARM GAS  C:\Users\TECHCO~1\AppData\Local\Temp\cch0eQun.s 			page 4


 147:Generated_Source\PSoC4/Comm_SPI.c ****             Comm_IntrTxMask = LO16(Comm_INTR_TX_MASK_REG);
 148:Generated_Source\PSoC4/Comm_SPI.c **** 
 149:Generated_Source\PSoC4/Comm_SPI.c ****             /* Set active SS0 */
 150:Generated_Source\PSoC4/Comm_SPI.c ****             Comm_SpiSetActiveSlaveSelect(Comm_SPI_SLAVE_SELECT0);
 151:Generated_Source\PSoC4/Comm_SPI.c **** 
 152:Generated_Source\PSoC4/Comm_SPI.c ****             /* Clear RX buffer indexes */
 153:Generated_Source\PSoC4/Comm_SPI.c ****             Comm_rxBufferHead     = 0u;
 154:Generated_Source\PSoC4/Comm_SPI.c ****             Comm_rxBufferTail     = 0u;
 155:Generated_Source\PSoC4/Comm_SPI.c ****             Comm_rxBufferOverflow = 0u;
 156:Generated_Source\PSoC4/Comm_SPI.c **** 
 157:Generated_Source\PSoC4/Comm_SPI.c ****             /* Clear TX buffer indexes */
 158:Generated_Source\PSoC4/Comm_SPI.c ****             Comm_txBufferHead = 0u;
 159:Generated_Source\PSoC4/Comm_SPI.c ****             Comm_txBufferTail = 0u;
 160:Generated_Source\PSoC4/Comm_SPI.c ****         }
 161:Generated_Source\PSoC4/Comm_SPI.c ****     }
 162:Generated_Source\PSoC4/Comm_SPI.c **** 
 163:Generated_Source\PSoC4/Comm_SPI.c **** #else
 164:Generated_Source\PSoC4/Comm_SPI.c **** 
 165:Generated_Source\PSoC4/Comm_SPI.c ****     /*******************************************************************************
 166:Generated_Source\PSoC4/Comm_SPI.c ****     * Function Name: Comm_SpiInit
 167:Generated_Source\PSoC4/Comm_SPI.c ****     ****************************************************************************//**
 168:Generated_Source\PSoC4/Comm_SPI.c ****     *
 169:Generated_Source\PSoC4/Comm_SPI.c ****     *  Configures the SCB for the SPI operation.
 170:Generated_Source\PSoC4/Comm_SPI.c ****     *
 171:Generated_Source\PSoC4/Comm_SPI.c ****     *******************************************************************************/
 172:Generated_Source\PSoC4/Comm_SPI.c ****     void Comm_SpiInit(void)
 173:Generated_Source\PSoC4/Comm_SPI.c ****     {
 174:Generated_Source\PSoC4/Comm_SPI.c ****         /* Configure SPI interface */
 175:Generated_Source\PSoC4/Comm_SPI.c ****         Comm_CTRL_REG     = Comm_SPI_DEFAULT_CTRL;
 176:Generated_Source\PSoC4/Comm_SPI.c ****         Comm_SPI_CTRL_REG = Comm_SPI_DEFAULT_SPI_CTRL;
 177:Generated_Source\PSoC4/Comm_SPI.c **** 
 178:Generated_Source\PSoC4/Comm_SPI.c ****         /* Configure TX and RX direction */
 179:Generated_Source\PSoC4/Comm_SPI.c ****         Comm_RX_CTRL_REG      = Comm_SPI_DEFAULT_RX_CTRL;
 180:Generated_Source\PSoC4/Comm_SPI.c ****         Comm_RX_FIFO_CTRL_REG = Comm_SPI_DEFAULT_RX_FIFO_CTRL;
 181:Generated_Source\PSoC4/Comm_SPI.c **** 
 182:Generated_Source\PSoC4/Comm_SPI.c ****         /* Configure TX and RX direction */
 183:Generated_Source\PSoC4/Comm_SPI.c ****         Comm_TX_CTRL_REG      = Comm_SPI_DEFAULT_TX_CTRL;
 184:Generated_Source\PSoC4/Comm_SPI.c ****         Comm_TX_FIFO_CTRL_REG = Comm_SPI_DEFAULT_TX_FIFO_CTRL;
 185:Generated_Source\PSoC4/Comm_SPI.c **** 
 186:Generated_Source\PSoC4/Comm_SPI.c ****         /* Configure interrupt with SPI handler but do not enable it */
 187:Generated_Source\PSoC4/Comm_SPI.c ****     #if(Comm_SCB_IRQ_INTERNAL)
 188:Generated_Source\PSoC4/Comm_SPI.c ****             CyIntDisable    (Comm_ISR_NUMBER);
 189:Generated_Source\PSoC4/Comm_SPI.c ****             CyIntSetPriority(Comm_ISR_NUMBER, Comm_ISR_PRIORITY);
 190:Generated_Source\PSoC4/Comm_SPI.c ****             (void) CyIntSetVector(Comm_ISR_NUMBER, &Comm_SPI_UART_ISR);
 191:Generated_Source\PSoC4/Comm_SPI.c ****     #endif /* (Comm_SCB_IRQ_INTERNAL) */
 192:Generated_Source\PSoC4/Comm_SPI.c **** 
 193:Generated_Source\PSoC4/Comm_SPI.c ****         /* Configure interrupt sources */
 194:Generated_Source\PSoC4/Comm_SPI.c ****         Comm_INTR_I2C_EC_MASK_REG = Comm_SPI_DEFAULT_INTR_I2C_EC_MASK;
 195:Generated_Source\PSoC4/Comm_SPI.c ****         Comm_INTR_SPI_EC_MASK_REG = Comm_SPI_DEFAULT_INTR_SPI_EC_MASK;
 196:Generated_Source\PSoC4/Comm_SPI.c ****         Comm_INTR_SLAVE_MASK_REG  = Comm_SPI_DEFAULT_INTR_SLAVE_MASK;
 197:Generated_Source\PSoC4/Comm_SPI.c ****         Comm_INTR_MASTER_MASK_REG = Comm_SPI_DEFAULT_INTR_MASTER_MASK;
 198:Generated_Source\PSoC4/Comm_SPI.c ****         Comm_INTR_RX_MASK_REG     = Comm_SPI_DEFAULT_INTR_RX_MASK;
 199:Generated_Source\PSoC4/Comm_SPI.c ****         Comm_INTR_TX_MASK_REG     = Comm_SPI_DEFAULT_INTR_TX_MASK;
 200:Generated_Source\PSoC4/Comm_SPI.c **** 
 201:Generated_Source\PSoC4/Comm_SPI.c ****         /* Configure TX interrupt sources to restore. */
 202:Generated_Source\PSoC4/Comm_SPI.c ****         Comm_IntrTxMask = LO16(Comm_INTR_TX_MASK_REG);
 203:Generated_Source\PSoC4/Comm_SPI.c ****             
ARM GAS  C:\Users\TECHCO~1\AppData\Local\Temp\cch0eQun.s 			page 5


 204:Generated_Source\PSoC4/Comm_SPI.c ****         /* Set active SS0 for master */
 205:Generated_Source\PSoC4/Comm_SPI.c ****     #if (Comm_SPI_MASTER_CONST)
 206:Generated_Source\PSoC4/Comm_SPI.c ****         Comm_SpiSetActiveSlaveSelect(Comm_SPI_SLAVE_SELECT0);
 207:Generated_Source\PSoC4/Comm_SPI.c ****     #endif /* (Comm_SPI_MASTER_CONST) */
 208:Generated_Source\PSoC4/Comm_SPI.c **** 
 209:Generated_Source\PSoC4/Comm_SPI.c ****     #if(Comm_INTERNAL_RX_SW_BUFFER_CONST)
 210:Generated_Source\PSoC4/Comm_SPI.c ****         Comm_rxBufferHead     = 0u;
 211:Generated_Source\PSoC4/Comm_SPI.c ****         Comm_rxBufferTail     = 0u;
 212:Generated_Source\PSoC4/Comm_SPI.c ****         Comm_rxBufferOverflow = 0u;
 213:Generated_Source\PSoC4/Comm_SPI.c ****     #endif /* (Comm_INTERNAL_RX_SW_BUFFER_CONST) */
 214:Generated_Source\PSoC4/Comm_SPI.c **** 
 215:Generated_Source\PSoC4/Comm_SPI.c ****     #if(Comm_INTERNAL_TX_SW_BUFFER_CONST)
 216:Generated_Source\PSoC4/Comm_SPI.c ****         Comm_txBufferHead = 0u;
 217:Generated_Source\PSoC4/Comm_SPI.c ****         Comm_txBufferTail = 0u;
 218:Generated_Source\PSoC4/Comm_SPI.c ****     #endif /* (Comm_INTERNAL_TX_SW_BUFFER_CONST) */
 219:Generated_Source\PSoC4/Comm_SPI.c ****     }
 220:Generated_Source\PSoC4/Comm_SPI.c **** #endif /* (Comm_SCB_MODE_UNCONFIG_CONST_CFG) */
 221:Generated_Source\PSoC4/Comm_SPI.c **** 
 222:Generated_Source\PSoC4/Comm_SPI.c **** 
 223:Generated_Source\PSoC4/Comm_SPI.c **** /*******************************************************************************
 224:Generated_Source\PSoC4/Comm_SPI.c **** * Function Name: Comm_SpiPostEnable
 225:Generated_Source\PSoC4/Comm_SPI.c **** ****************************************************************************//**
 226:Generated_Source\PSoC4/Comm_SPI.c **** *
 227:Generated_Source\PSoC4/Comm_SPI.c **** *  Restores HSIOM settings for the SPI master output pins (SCLK and/or SS0-SS3) 
 228:Generated_Source\PSoC4/Comm_SPI.c **** *  to be controlled by the SCB SPI.
 229:Generated_Source\PSoC4/Comm_SPI.c **** *
 230:Generated_Source\PSoC4/Comm_SPI.c **** *******************************************************************************/
 231:Generated_Source\PSoC4/Comm_SPI.c **** void Comm_SpiPostEnable(void)
 232:Generated_Source\PSoC4/Comm_SPI.c **** {
  26              		.loc 1 232 0
  27              		.cfi_startproc
 233:Generated_Source\PSoC4/Comm_SPI.c **** #if(Comm_SCB_MODE_UNCONFIG_CONST_CFG)
 234:Generated_Source\PSoC4/Comm_SPI.c **** 
 235:Generated_Source\PSoC4/Comm_SPI.c ****     if (Comm_CHECK_SPI_MASTER)
  28              		.loc 1 235 0
  29 0000 034B     		ldr	r3, .L2
 236:Generated_Source\PSoC4/Comm_SPI.c ****     {
 237:Generated_Source\PSoC4/Comm_SPI.c ****     #if (Comm_SCLK_PIN)
 238:Generated_Source\PSoC4/Comm_SPI.c ****         /* Set SCB SPI to drive output pin */
 239:Generated_Source\PSoC4/Comm_SPI.c ****         Comm_SET_HSIOM_SEL(Comm_SCLK_HSIOM_REG, Comm_SCLK_HSIOM_MASK,
 240:Generated_Source\PSoC4/Comm_SPI.c ****                                        Comm_SCLK_HSIOM_POS, Comm_SCLK_HSIOM_SEL_SPI);
 241:Generated_Source\PSoC4/Comm_SPI.c ****     #endif /* (Comm_SCLK_PIN) */
 242:Generated_Source\PSoC4/Comm_SPI.c **** 
 243:Generated_Source\PSoC4/Comm_SPI.c ****     #if (Comm_SS0_PIN)
 244:Generated_Source\PSoC4/Comm_SPI.c ****         /* Set SCB SPI to drive output pin */
 245:Generated_Source\PSoC4/Comm_SPI.c ****         Comm_SET_HSIOM_SEL(Comm_SS0_HSIOM_REG, Comm_SS0_HSIOM_MASK,
 246:Generated_Source\PSoC4/Comm_SPI.c ****                                        Comm_SS0_HSIOM_POS, Comm_SS0_HSIOM_SEL_SPI);
 247:Generated_Source\PSoC4/Comm_SPI.c ****     #endif /* (Comm_SS0_PIN) */
 248:Generated_Source\PSoC4/Comm_SPI.c **** 
 249:Generated_Source\PSoC4/Comm_SPI.c ****     #if (Comm_SS1_PIN)
 250:Generated_Source\PSoC4/Comm_SPI.c ****         /* Set SCB SPI to drive output pin */
 251:Generated_Source\PSoC4/Comm_SPI.c ****         Comm_SET_HSIOM_SEL(Comm_SS1_HSIOM_REG, Comm_SS1_HSIOM_MASK,
 252:Generated_Source\PSoC4/Comm_SPI.c ****                                        Comm_SS1_HSIOM_POS, Comm_SS1_HSIOM_SEL_SPI);
 253:Generated_Source\PSoC4/Comm_SPI.c ****     #endif /* (Comm_SS1_PIN) */
 254:Generated_Source\PSoC4/Comm_SPI.c **** 
 255:Generated_Source\PSoC4/Comm_SPI.c ****     #if (Comm_SS2_PIN)
 256:Generated_Source\PSoC4/Comm_SPI.c ****         /* Set SCB SPI to drive output pin */
ARM GAS  C:\Users\TECHCO~1\AppData\Local\Temp\cch0eQun.s 			page 6


 257:Generated_Source\PSoC4/Comm_SPI.c ****         Comm_SET_HSIOM_SEL(Comm_SS2_HSIOM_REG, Comm_SS2_HSIOM_MASK,
 258:Generated_Source\PSoC4/Comm_SPI.c ****                                        Comm_SS2_HSIOM_POS, Comm_SS2_HSIOM_SEL_SPI);
 259:Generated_Source\PSoC4/Comm_SPI.c ****     #endif /* (Comm_SS2_PIN) */
 260:Generated_Source\PSoC4/Comm_SPI.c **** 
 261:Generated_Source\PSoC4/Comm_SPI.c ****     #if (Comm_SS3_PIN)
 262:Generated_Source\PSoC4/Comm_SPI.c ****         /* Set SCB SPI to drive output pin */
 263:Generated_Source\PSoC4/Comm_SPI.c ****         Comm_SET_HSIOM_SEL(Comm_SS3_HSIOM_REG, Comm_SS3_HSIOM_MASK,
 264:Generated_Source\PSoC4/Comm_SPI.c ****                                        Comm_SS3_HSIOM_POS, Comm_SS3_HSIOM_SEL_SPI);
 265:Generated_Source\PSoC4/Comm_SPI.c ****     #endif /* (Comm_SS3_PIN) */
 266:Generated_Source\PSoC4/Comm_SPI.c ****     }
 267:Generated_Source\PSoC4/Comm_SPI.c **** 
 268:Generated_Source\PSoC4/Comm_SPI.c **** #else
 269:Generated_Source\PSoC4/Comm_SPI.c **** 
 270:Generated_Source\PSoC4/Comm_SPI.c ****     #if (Comm_SPI_MASTER_SCLK_PIN)
 271:Generated_Source\PSoC4/Comm_SPI.c ****         /* Set SCB SPI to drive output pin */
 272:Generated_Source\PSoC4/Comm_SPI.c ****         Comm_SET_HSIOM_SEL(Comm_SCLK_M_HSIOM_REG, Comm_SCLK_M_HSIOM_MASK,
 273:Generated_Source\PSoC4/Comm_SPI.c ****                                        Comm_SCLK_M_HSIOM_POS, Comm_SCLK_M_HSIOM_SEL_SPI);
 274:Generated_Source\PSoC4/Comm_SPI.c ****     #endif /* (Comm_MISO_SDA_TX_PIN_PIN) */
 275:Generated_Source\PSoC4/Comm_SPI.c **** 
 276:Generated_Source\PSoC4/Comm_SPI.c ****     #if (Comm_SPI_MASTER_SS0_PIN)
 277:Generated_Source\PSoC4/Comm_SPI.c ****         /* Set SCB SPI to drive output pin */
 278:Generated_Source\PSoC4/Comm_SPI.c ****         Comm_SET_HSIOM_SEL(Comm_SS0_M_HSIOM_REG, Comm_SS0_M_HSIOM_MASK,
 279:Generated_Source\PSoC4/Comm_SPI.c ****                                        Comm_SS0_M_HSIOM_POS, Comm_SS0_M_HSIOM_SEL_SPI);
 280:Generated_Source\PSoC4/Comm_SPI.c ****     #endif /* (Comm_SPI_MASTER_SS0_PIN) */
 281:Generated_Source\PSoC4/Comm_SPI.c **** 
 282:Generated_Source\PSoC4/Comm_SPI.c ****     #if (Comm_SPI_MASTER_SS1_PIN)
 283:Generated_Source\PSoC4/Comm_SPI.c ****         /* Set SCB SPI to drive output pin */
 284:Generated_Source\PSoC4/Comm_SPI.c ****         Comm_SET_HSIOM_SEL(Comm_SS1_M_HSIOM_REG, Comm_SS1_M_HSIOM_MASK,
 285:Generated_Source\PSoC4/Comm_SPI.c ****                                        Comm_SS1_M_HSIOM_POS, Comm_SS1_M_HSIOM_SEL_SPI);
 286:Generated_Source\PSoC4/Comm_SPI.c ****     #endif /* (Comm_SPI_MASTER_SS1_PIN) */
 287:Generated_Source\PSoC4/Comm_SPI.c **** 
 288:Generated_Source\PSoC4/Comm_SPI.c ****     #if (Comm_SPI_MASTER_SS2_PIN)
 289:Generated_Source\PSoC4/Comm_SPI.c ****         /* Set SCB SPI to drive output pin */
 290:Generated_Source\PSoC4/Comm_SPI.c ****         Comm_SET_HSIOM_SEL(Comm_SS2_M_HSIOM_REG, Comm_SS2_M_HSIOM_MASK,
 291:Generated_Source\PSoC4/Comm_SPI.c ****                                        Comm_SS2_M_HSIOM_POS, Comm_SS2_M_HSIOM_SEL_SPI);
 292:Generated_Source\PSoC4/Comm_SPI.c ****     #endif /* (Comm_SPI_MASTER_SS2_PIN) */
 293:Generated_Source\PSoC4/Comm_SPI.c **** 
 294:Generated_Source\PSoC4/Comm_SPI.c ****     #if (Comm_SPI_MASTER_SS3_PIN)
 295:Generated_Source\PSoC4/Comm_SPI.c ****         /* Set SCB SPI to drive output pin */
 296:Generated_Source\PSoC4/Comm_SPI.c ****         Comm_SET_HSIOM_SEL(Comm_SS3_M_HSIOM_REG, Comm_SS3_M_HSIOM_MASK,
 297:Generated_Source\PSoC4/Comm_SPI.c ****                                        Comm_SS3_M_HSIOM_POS, Comm_SS3_M_HSIOM_SEL_SPI);
 298:Generated_Source\PSoC4/Comm_SPI.c ****     #endif /* (Comm_SPI_MASTER_SS3_PIN) */
 299:Generated_Source\PSoC4/Comm_SPI.c **** 
 300:Generated_Source\PSoC4/Comm_SPI.c **** #endif /* (Comm_SCB_MODE_UNCONFIG_CONST_CFG) */
 301:Generated_Source\PSoC4/Comm_SPI.c **** 
 302:Generated_Source\PSoC4/Comm_SPI.c ****     /* Restore TX interrupt sources. */
 303:Generated_Source\PSoC4/Comm_SPI.c ****     Comm_SetTxInterruptMode(Comm_IntrTxMask);
 304:Generated_Source\PSoC4/Comm_SPI.c **** }
  30              		.loc 1 304 0
  31              		@ sp needed
 235:Generated_Source\PSoC4/Comm_SPI.c ****     {
  32              		.loc 1 235 0
  33 0002 1B68     		ldr	r3, [r3]
 303:Generated_Source\PSoC4/Comm_SPI.c **** }
  34              		.loc 1 303 0
  35 0004 034B     		ldr	r3, .L2+4
  36 0006 1A88     		ldrh	r2, [r3]
ARM GAS  C:\Users\TECHCO~1\AppData\Local\Temp\cch0eQun.s 			page 7


  37 0008 034B     		ldr	r3, .L2+8
  38 000a 1A60     		str	r2, [r3]
  39              		.loc 1 304 0
  40 000c 7047     		bx	lr
  41              	.L3:
  42 000e C046     		.align	2
  43              	.L2:
  44 0010 20000640 		.word	1074135072
  45 0014 00000000 		.word	Comm_IntrTxMask
  46 0018 880F0640 		.word	1074139016
  47              		.cfi_endproc
  48              	.LFE1:
  49              		.size	Comm_SpiPostEnable, .-Comm_SpiPostEnable
  50              		.section	.text.Comm_SpiStop,"ax",%progbits
  51              		.align	1
  52              		.global	Comm_SpiStop
  53              		.code	16
  54              		.thumb_func
  55              		.type	Comm_SpiStop, %function
  56              	Comm_SpiStop:
  57              	.LFB2:
 305:Generated_Source\PSoC4/Comm_SPI.c **** 
 306:Generated_Source\PSoC4/Comm_SPI.c **** 
 307:Generated_Source\PSoC4/Comm_SPI.c **** /*******************************************************************************
 308:Generated_Source\PSoC4/Comm_SPI.c **** * Function Name: Comm_SpiStop
 309:Generated_Source\PSoC4/Comm_SPI.c **** ****************************************************************************//**
 310:Generated_Source\PSoC4/Comm_SPI.c **** *
 311:Generated_Source\PSoC4/Comm_SPI.c **** *  Changes the HSIOM settings for the SPI master output pins 
 312:Generated_Source\PSoC4/Comm_SPI.c **** *  (SCLK and/or SS0-SS3) to keep them inactive after the block is disabled. 
 313:Generated_Source\PSoC4/Comm_SPI.c **** *  The output pins are controlled by the GPIO data register.
 314:Generated_Source\PSoC4/Comm_SPI.c **** *
 315:Generated_Source\PSoC4/Comm_SPI.c **** *******************************************************************************/
 316:Generated_Source\PSoC4/Comm_SPI.c **** void Comm_SpiStop(void)
 317:Generated_Source\PSoC4/Comm_SPI.c **** {
  58              		.loc 1 317 0
  59              		.cfi_startproc
 318:Generated_Source\PSoC4/Comm_SPI.c **** #if(Comm_SCB_MODE_UNCONFIG_CONST_CFG)
 319:Generated_Source\PSoC4/Comm_SPI.c **** 
 320:Generated_Source\PSoC4/Comm_SPI.c ****     if (Comm_CHECK_SPI_MASTER)
  60              		.loc 1 320 0
  61 0000 064B     		ldr	r3, .L9
  62 0002 074A     		ldr	r2, .L9+4
  63 0004 1968     		ldr	r1, [r3]
  64 0006 074B     		ldr	r3, .L9+8
  65 0008 0029     		cmp	r1, #0
  66 000a 02DA     		bge	.L5
 321:Generated_Source\PSoC4/Comm_SPI.c ****     {
 322:Generated_Source\PSoC4/Comm_SPI.c ****     #if (Comm_SCLK_PIN)
 323:Generated_Source\PSoC4/Comm_SPI.c ****         /* Set output pin state after block is disabled */
 324:Generated_Source\PSoC4/Comm_SPI.c ****         Comm_spi_sclk_Write(Comm_GET_SPI_SCLK_INACTIVE);
 325:Generated_Source\PSoC4/Comm_SPI.c **** 
 326:Generated_Source\PSoC4/Comm_SPI.c ****         /* Set GPIO to drive output pin */
 327:Generated_Source\PSoC4/Comm_SPI.c ****         Comm_SET_HSIOM_SEL(Comm_SCLK_HSIOM_REG, Comm_SCLK_HSIOM_MASK,
 328:Generated_Source\PSoC4/Comm_SPI.c ****                                        Comm_SCLK_HSIOM_POS, Comm_SCLK_HSIOM_SEL_GPIO);
 329:Generated_Source\PSoC4/Comm_SPI.c ****     #endif /* (Comm_spi_sclk_PIN) */
 330:Generated_Source\PSoC4/Comm_SPI.c **** 
 331:Generated_Source\PSoC4/Comm_SPI.c ****     #if (Comm_SS0_PIN)
ARM GAS  C:\Users\TECHCO~1\AppData\Local\Temp\cch0eQun.s 			page 8


 332:Generated_Source\PSoC4/Comm_SPI.c ****         /* Set output pin state after block is disabled */
 333:Generated_Source\PSoC4/Comm_SPI.c ****         Comm_spi_ss0_Write(Comm_GET_SPI_SS0_INACTIVE);
 334:Generated_Source\PSoC4/Comm_SPI.c **** 
 335:Generated_Source\PSoC4/Comm_SPI.c ****         /* Set GPIO to drive output pin */
 336:Generated_Source\PSoC4/Comm_SPI.c ****         Comm_SET_HSIOM_SEL(Comm_SS0_HSIOM_REG, Comm_SS0_HSIOM_MASK,
 337:Generated_Source\PSoC4/Comm_SPI.c ****                                        Comm_SS0_HSIOM_POS, Comm_SS0_HSIOM_SEL_GPIO);
 338:Generated_Source\PSoC4/Comm_SPI.c ****     #endif /* (Comm_spi_ss0_PIN) */
 339:Generated_Source\PSoC4/Comm_SPI.c **** 
 340:Generated_Source\PSoC4/Comm_SPI.c ****     #if (Comm_SS1_PIN)
 341:Generated_Source\PSoC4/Comm_SPI.c ****         /* Set output pin state after block is disabled */
 342:Generated_Source\PSoC4/Comm_SPI.c ****         Comm_spi_ss1_Write(Comm_GET_SPI_SS1_INACTIVE);
 343:Generated_Source\PSoC4/Comm_SPI.c **** 
 344:Generated_Source\PSoC4/Comm_SPI.c ****         /* Set GPIO to drive output pin */
 345:Generated_Source\PSoC4/Comm_SPI.c ****         Comm_SET_HSIOM_SEL(Comm_SS1_HSIOM_REG, Comm_SS1_HSIOM_MASK,
 346:Generated_Source\PSoC4/Comm_SPI.c ****                                        Comm_SS1_HSIOM_POS, Comm_SS1_HSIOM_SEL_GPIO);
 347:Generated_Source\PSoC4/Comm_SPI.c ****     #endif /* (Comm_SS1_PIN) */
 348:Generated_Source\PSoC4/Comm_SPI.c **** 
 349:Generated_Source\PSoC4/Comm_SPI.c ****     #if (Comm_SS2_PIN)
 350:Generated_Source\PSoC4/Comm_SPI.c ****         /* Set output pin state after block is disabled */
 351:Generated_Source\PSoC4/Comm_SPI.c ****         Comm_spi_ss2_Write(Comm_GET_SPI_SS2_INACTIVE);
 352:Generated_Source\PSoC4/Comm_SPI.c **** 
 353:Generated_Source\PSoC4/Comm_SPI.c ****         /* Set GPIO to drive output pin */
 354:Generated_Source\PSoC4/Comm_SPI.c ****         Comm_SET_HSIOM_SEL(Comm_SS2_HSIOM_REG, Comm_SS2_HSIOM_MASK,
 355:Generated_Source\PSoC4/Comm_SPI.c ****                                        Comm_SS2_HSIOM_POS, Comm_SS2_HSIOM_SEL_GPIO);
 356:Generated_Source\PSoC4/Comm_SPI.c ****     #endif /* (Comm_SS2_PIN) */
 357:Generated_Source\PSoC4/Comm_SPI.c **** 
 358:Generated_Source\PSoC4/Comm_SPI.c ****     #if (Comm_SS3_PIN)
 359:Generated_Source\PSoC4/Comm_SPI.c ****         /* Set output pin state after block is disabled */
 360:Generated_Source\PSoC4/Comm_SPI.c ****         Comm_spi_ss3_Write(Comm_GET_SPI_SS3_INACTIVE);
 361:Generated_Source\PSoC4/Comm_SPI.c **** 
 362:Generated_Source\PSoC4/Comm_SPI.c ****         /* Set GPIO to drive output pin */
 363:Generated_Source\PSoC4/Comm_SPI.c ****         Comm_SET_HSIOM_SEL(Comm_SS3_HSIOM_REG, Comm_SS3_HSIOM_MASK,
 364:Generated_Source\PSoC4/Comm_SPI.c ****                                        Comm_SS3_HSIOM_POS, Comm_SS3_HSIOM_SEL_GPIO);
 365:Generated_Source\PSoC4/Comm_SPI.c ****     #endif /* (Comm_SS3_PIN) */
 366:Generated_Source\PSoC4/Comm_SPI.c ****     
 367:Generated_Source\PSoC4/Comm_SPI.c ****         /* Store TX interrupt sources (exclude level triggered) for master. */
 368:Generated_Source\PSoC4/Comm_SPI.c ****         Comm_IntrTxMask = LO16(Comm_GetTxInterruptMode() & Comm_INTR_SPIM_TX_RESTORE);
  67              		.loc 1 368 0
  68 000c 1968     		ldr	r1, [r3]
  69 000e 2023     		mov	r3, #32
  70 0010 01E0     		b	.L7
  71              	.L5:
 369:Generated_Source\PSoC4/Comm_SPI.c ****     }
 370:Generated_Source\PSoC4/Comm_SPI.c ****     else
 371:Generated_Source\PSoC4/Comm_SPI.c ****     {
 372:Generated_Source\PSoC4/Comm_SPI.c ****         /* Store TX interrupt sources (exclude level triggered) for slave. */
 373:Generated_Source\PSoC4/Comm_SPI.c ****         Comm_IntrTxMask = LO16(Comm_GetTxInterruptMode() & Comm_INTR_SPIS_TX_RESTORE);
  72              		.loc 1 373 0
  73 0012 1968     		ldr	r1, [r3]
  74 0014 6023     		mov	r3, #96
  75              	.L7:
  76 0016 0B40     		and	r3, r1
  77 0018 1380     		strh	r3, [r2]
 374:Generated_Source\PSoC4/Comm_SPI.c ****     }
 375:Generated_Source\PSoC4/Comm_SPI.c **** 
 376:Generated_Source\PSoC4/Comm_SPI.c **** #else
 377:Generated_Source\PSoC4/Comm_SPI.c **** 
ARM GAS  C:\Users\TECHCO~1\AppData\Local\Temp\cch0eQun.s 			page 9


 378:Generated_Source\PSoC4/Comm_SPI.c **** #if (Comm_SPI_MASTER_SCLK_PIN)
 379:Generated_Source\PSoC4/Comm_SPI.c ****     /* Set output pin state after block is disabled */
 380:Generated_Source\PSoC4/Comm_SPI.c ****     Comm_sclk_m_Write(Comm_GET_SPI_SCLK_INACTIVE);
 381:Generated_Source\PSoC4/Comm_SPI.c **** 
 382:Generated_Source\PSoC4/Comm_SPI.c ****     /* Set GPIO to drive output pin */
 383:Generated_Source\PSoC4/Comm_SPI.c ****     Comm_SET_HSIOM_SEL(Comm_SCLK_M_HSIOM_REG, Comm_SCLK_M_HSIOM_MASK,
 384:Generated_Source\PSoC4/Comm_SPI.c ****                                    Comm_SCLK_M_HSIOM_POS, Comm_SCLK_M_HSIOM_SEL_GPIO);
 385:Generated_Source\PSoC4/Comm_SPI.c **** #endif /* (Comm_MISO_SDA_TX_PIN_PIN) */
 386:Generated_Source\PSoC4/Comm_SPI.c **** 
 387:Generated_Source\PSoC4/Comm_SPI.c **** #if (Comm_SPI_MASTER_SS0_PIN)
 388:Generated_Source\PSoC4/Comm_SPI.c ****     /* Set output pin state after block is disabled */
 389:Generated_Source\PSoC4/Comm_SPI.c ****     Comm_ss0_m_Write(Comm_GET_SPI_SS0_INACTIVE);
 390:Generated_Source\PSoC4/Comm_SPI.c **** 
 391:Generated_Source\PSoC4/Comm_SPI.c ****     /* Set GPIO to drive output pin */
 392:Generated_Source\PSoC4/Comm_SPI.c ****     Comm_SET_HSIOM_SEL(Comm_SS0_M_HSIOM_REG, Comm_SS0_M_HSIOM_MASK,
 393:Generated_Source\PSoC4/Comm_SPI.c ****                                    Comm_SS0_M_HSIOM_POS, Comm_SS0_M_HSIOM_SEL_GPIO);
 394:Generated_Source\PSoC4/Comm_SPI.c **** #endif /* (Comm_SPI_MASTER_SS0_PIN) */
 395:Generated_Source\PSoC4/Comm_SPI.c **** 
 396:Generated_Source\PSoC4/Comm_SPI.c **** #if (Comm_SPI_MASTER_SS1_PIN)
 397:Generated_Source\PSoC4/Comm_SPI.c ****     /* Set output pin state after block is disabled */
 398:Generated_Source\PSoC4/Comm_SPI.c ****     Comm_ss1_m_Write(Comm_GET_SPI_SS1_INACTIVE);
 399:Generated_Source\PSoC4/Comm_SPI.c **** 
 400:Generated_Source\PSoC4/Comm_SPI.c ****     /* Set GPIO to drive output pin */
 401:Generated_Source\PSoC4/Comm_SPI.c ****     Comm_SET_HSIOM_SEL(Comm_SS1_M_HSIOM_REG, Comm_SS1_M_HSIOM_MASK,
 402:Generated_Source\PSoC4/Comm_SPI.c ****                                    Comm_SS1_M_HSIOM_POS, Comm_SS1_M_HSIOM_SEL_GPIO);
 403:Generated_Source\PSoC4/Comm_SPI.c **** #endif /* (Comm_SPI_MASTER_SS1_PIN) */
 404:Generated_Source\PSoC4/Comm_SPI.c **** 
 405:Generated_Source\PSoC4/Comm_SPI.c **** #if (Comm_SPI_MASTER_SS2_PIN)
 406:Generated_Source\PSoC4/Comm_SPI.c ****     /* Set output pin state after block is disabled */
 407:Generated_Source\PSoC4/Comm_SPI.c ****     Comm_ss2_m_Write(Comm_GET_SPI_SS2_INACTIVE);
 408:Generated_Source\PSoC4/Comm_SPI.c **** 
 409:Generated_Source\PSoC4/Comm_SPI.c ****     /* Set GPIO to drive output pin */
 410:Generated_Source\PSoC4/Comm_SPI.c ****     Comm_SET_HSIOM_SEL(Comm_SS2_M_HSIOM_REG, Comm_SS2_M_HSIOM_MASK,
 411:Generated_Source\PSoC4/Comm_SPI.c ****                                    Comm_SS2_M_HSIOM_POS, Comm_SS2_M_HSIOM_SEL_GPIO);
 412:Generated_Source\PSoC4/Comm_SPI.c **** #endif /* (Comm_SPI_MASTER_SS2_PIN) */
 413:Generated_Source\PSoC4/Comm_SPI.c **** 
 414:Generated_Source\PSoC4/Comm_SPI.c **** #if (Comm_SPI_MASTER_SS3_PIN)
 415:Generated_Source\PSoC4/Comm_SPI.c ****     /* Set output pin state after block is disabled */
 416:Generated_Source\PSoC4/Comm_SPI.c ****     Comm_ss3_m_Write(Comm_GET_SPI_SS3_INACTIVE);
 417:Generated_Source\PSoC4/Comm_SPI.c **** 
 418:Generated_Source\PSoC4/Comm_SPI.c ****     /* Set GPIO to drive output pin */
 419:Generated_Source\PSoC4/Comm_SPI.c ****     Comm_SET_HSIOM_SEL(Comm_SS3_M_HSIOM_REG, Comm_SS3_M_HSIOM_MASK,
 420:Generated_Source\PSoC4/Comm_SPI.c ****                                    Comm_SS3_M_HSIOM_POS, Comm_SS3_M_HSIOM_SEL_GPIO);
 421:Generated_Source\PSoC4/Comm_SPI.c **** #endif /* (Comm_SPI_MASTER_SS3_PIN) */
 422:Generated_Source\PSoC4/Comm_SPI.c **** 
 423:Generated_Source\PSoC4/Comm_SPI.c ****     #if (Comm_SPI_MASTER_CONST)
 424:Generated_Source\PSoC4/Comm_SPI.c ****         /* Store TX interrupt sources (exclude level triggered). */
 425:Generated_Source\PSoC4/Comm_SPI.c ****         Comm_IntrTxMask = LO16(Comm_GetTxInterruptMode() & Comm_INTR_SPIM_TX_RESTORE);
 426:Generated_Source\PSoC4/Comm_SPI.c ****     #else
 427:Generated_Source\PSoC4/Comm_SPI.c ****         /* Store TX interrupt sources (exclude level triggered). */
 428:Generated_Source\PSoC4/Comm_SPI.c ****         Comm_IntrTxMask = LO16(Comm_GetTxInterruptMode() & Comm_INTR_SPIS_TX_RESTORE);
 429:Generated_Source\PSoC4/Comm_SPI.c ****     #endif /* (Comm_SPI_MASTER_CONST) */
 430:Generated_Source\PSoC4/Comm_SPI.c **** 
 431:Generated_Source\PSoC4/Comm_SPI.c **** #endif /* (Comm_SCB_MODE_UNCONFIG_CONST_CFG) */
 432:Generated_Source\PSoC4/Comm_SPI.c **** }
  78              		.loc 1 432 0
  79              		@ sp needed
ARM GAS  C:\Users\TECHCO~1\AppData\Local\Temp\cch0eQun.s 			page 10


  80 001a 7047     		bx	lr
  81              	.L10:
  82              		.align	2
  83              	.L9:
  84 001c 20000640 		.word	1074135072
  85 0020 00000000 		.word	Comm_IntrTxMask
  86 0024 880F0640 		.word	1074139016
  87              		.cfi_endproc
  88              	.LFE2:
  89              		.size	Comm_SpiStop, .-Comm_SpiStop
  90              		.section	.text.Comm_SpiSetActiveSlaveSelect,"ax",%progbits
  91              		.align	1
  92              		.global	Comm_SpiSetActiveSlaveSelect
  93              		.code	16
  94              		.thumb_func
  95              		.type	Comm_SpiSetActiveSlaveSelect, %function
  96              	Comm_SpiSetActiveSlaveSelect:
  97              	.LFB3:
 433:Generated_Source\PSoC4/Comm_SPI.c **** 
 434:Generated_Source\PSoC4/Comm_SPI.c **** 
 435:Generated_Source\PSoC4/Comm_SPI.c **** #if (Comm_SPI_MASTER_CONST)
 436:Generated_Source\PSoC4/Comm_SPI.c ****     /*******************************************************************************
 437:Generated_Source\PSoC4/Comm_SPI.c ****     * Function Name: Comm_SetActiveSlaveSelect
 438:Generated_Source\PSoC4/Comm_SPI.c ****     ****************************************************************************//**
 439:Generated_Source\PSoC4/Comm_SPI.c ****     *
 440:Generated_Source\PSoC4/Comm_SPI.c ****     *  Selects one of the four slave select lines to be active during the transfer.
 441:Generated_Source\PSoC4/Comm_SPI.c ****     *  After initialization the active slave select line is 0.
 442:Generated_Source\PSoC4/Comm_SPI.c ****     *  The component should be in one of the following states to change the active
 443:Generated_Source\PSoC4/Comm_SPI.c ****     *  slave select signal source correctly:
 444:Generated_Source\PSoC4/Comm_SPI.c ****     *   - The component is disabled.
 445:Generated_Source\PSoC4/Comm_SPI.c ****     *   - The component has completed transfer (TX FIFO is empty and the
 446:Generated_Source\PSoC4/Comm_SPI.c ****     *     SCB_INTR_MASTER_SPI_DONE status is set).
 447:Generated_Source\PSoC4/Comm_SPI.c ****     *
 448:Generated_Source\PSoC4/Comm_SPI.c ****     *  This function does not check that these conditions are met.
 449:Generated_Source\PSoC4/Comm_SPI.c ****     *  This function is only applicable to SPI Master mode of operation.
 450:Generated_Source\PSoC4/Comm_SPI.c ****     *
 451:Generated_Source\PSoC4/Comm_SPI.c ****     *  \param slaveSelect: slave select line which will be active while the following
 452:Generated_Source\PSoC4/Comm_SPI.c ****     *   transfer.
 453:Generated_Source\PSoC4/Comm_SPI.c ****     *   - Comm_SPI_SLAVE_SELECT0 - Slave select 0.
 454:Generated_Source\PSoC4/Comm_SPI.c ****     *   - Comm_SPI_SLAVE_SELECT1 - Slave select 1.
 455:Generated_Source\PSoC4/Comm_SPI.c ****     *   - Comm_SPI_SLAVE_SELECT2 - Slave select 2.
 456:Generated_Source\PSoC4/Comm_SPI.c ****     *   - Comm_SPI_SLAVE_SELECT3 - Slave select 3.
 457:Generated_Source\PSoC4/Comm_SPI.c ****     *
 458:Generated_Source\PSoC4/Comm_SPI.c ****     *******************************************************************************/
 459:Generated_Source\PSoC4/Comm_SPI.c ****     void Comm_SpiSetActiveSlaveSelect(uint32 slaveSelect)
 460:Generated_Source\PSoC4/Comm_SPI.c ****     {
  98              		.loc 1 460 0
  99              		.cfi_startproc
 100              	.LVL0:
 461:Generated_Source\PSoC4/Comm_SPI.c ****         uint32 spiCtrl;
 462:Generated_Source\PSoC4/Comm_SPI.c **** 
 463:Generated_Source\PSoC4/Comm_SPI.c ****         spiCtrl = Comm_SPI_CTRL_REG;
 101              		.loc 1 463 0
 102 0000 0549     		ldr	r1, .L12
 464:Generated_Source\PSoC4/Comm_SPI.c **** 
 465:Generated_Source\PSoC4/Comm_SPI.c ****         spiCtrl &= (uint32) ~Comm_SPI_CTRL_SLAVE_SELECT_MASK;
 103              		.loc 1 465 0
ARM GAS  C:\Users\TECHCO~1\AppData\Local\Temp\cch0eQun.s 			page 11


 104 0002 064B     		ldr	r3, .L12+4
 463:Generated_Source\PSoC4/Comm_SPI.c **** 
 105              		.loc 1 463 0
 106 0004 0A68     		ldr	r2, [r1]
 107              	.LVL1:
 466:Generated_Source\PSoC4/Comm_SPI.c ****         spiCtrl |= (uint32)  Comm_GET_SPI_CTRL_SS(slaveSelect);
 108              		.loc 1 466 0
 109 0006 8006     		lsl	r0, r0, #26
 110              	.LVL2:
 465:Generated_Source\PSoC4/Comm_SPI.c ****         spiCtrl |= (uint32)  Comm_GET_SPI_CTRL_SS(slaveSelect);
 111              		.loc 1 465 0
 112 0008 1340     		and	r3, r2
 113              	.LVL3:
 114              		.loc 1 466 0
 115 000a C022     		mov	r2, #192
 116 000c 1205     		lsl	r2, r2, #20
 117 000e 1040     		and	r0, r2
 118 0010 1843     		orr	r0, r3
 119              	.LVL4:
 467:Generated_Source\PSoC4/Comm_SPI.c **** 
 468:Generated_Source\PSoC4/Comm_SPI.c ****         Comm_SPI_CTRL_REG = spiCtrl;
 120              		.loc 1 468 0
 121 0012 0860     		str	r0, [r1]
 469:Generated_Source\PSoC4/Comm_SPI.c ****     }
 122              		.loc 1 469 0
 123              		@ sp needed
 124 0014 7047     		bx	lr
 125              	.L13:
 126 0016 C046     		.align	2
 127              	.L12:
 128 0018 20000640 		.word	1074135072
 129 001c FFFFFFF3 		.word	-201326593
 130              		.cfi_endproc
 131              	.LFE3:
 132              		.size	Comm_SpiSetActiveSlaveSelect, .-Comm_SpiSetActiveSlaveSelect
 133              		.section	.text.Comm_SpiInit,"ax",%progbits
 134              		.align	1
 135              		.global	Comm_SpiInit
 136              		.code	16
 137              		.thumb_func
 138              		.type	Comm_SpiInit, %function
 139              	Comm_SpiInit:
 140              	.LFB0:
  77:Generated_Source\PSoC4/Comm_SPI.c ****         if(NULL == config)
 141              		.loc 1 77 0
 142              		.cfi_startproc
 143              	.LVL5:
 144 0000 38B5     		push	{r3, r4, r5, lr}
 145              		.cfi_def_cfa_offset 16
 146              		.cfi_offset 3, -16
 147              		.cfi_offset 4, -12
 148              		.cfi_offset 5, -8
 149              		.cfi_offset 14, -4
  78:Generated_Source\PSoC4/Comm_SPI.c ****         {
 150              		.loc 1 78 0
 151 0002 0028     		cmp	r0, #0
 152 0004 00D1     		bne	.LCB104
ARM GAS  C:\Users\TECHCO~1\AppData\Local\Temp\cch0eQun.s 			page 12


 153 0006 B5E0     		b	.L14	@long jump
 154              	.LCB104:
 155 0008 041C     		mov	r4, r0
  85:Generated_Source\PSoC4/Comm_SPI.c **** 
 156              		.loc 1 85 0
 157 000a 0022     		mov	r2, #0
 158 000c 0220     		mov	r0, #2
 159              	.LVL6:
 160 000e 2168     		ldr	r1, [r4]
 161 0010 FFF7FEFF 		bl	Comm_SetPins
 162              	.LVL7:
  88:Generated_Source\PSoC4/Comm_SPI.c ****             Comm_scbEnableWake = (uint8) config->enableWake;
 163              		.loc 1 88 0
 164 0014 0222     		mov	r2, #2
 165 0016 584B     		ldr	r3, .L33
  90:Generated_Source\PSoC4/Comm_SPI.c **** 
 166              		.loc 1 90 0
 167 0018 E16B     		ldr	r1, [r4, #60]
  88:Generated_Source\PSoC4/Comm_SPI.c ****             Comm_scbEnableWake = (uint8) config->enableWake;
 168              		.loc 1 88 0
 169 001a 1A70     		strb	r2, [r3]
  89:Generated_Source\PSoC4/Comm_SPI.c ****             Comm_scbEnableIntr = (uint8) config->enableInterrupt;
 170              		.loc 1 89 0
 171 001c 574A     		ldr	r2, .L33+4
 172 001e A369     		ldr	r3, [r4, #24]
  95:Generated_Source\PSoC4/Comm_SPI.c **** 
 173              		.loc 1 95 0
 174 0020 5748     		ldr	r0, .L33+8
  89:Generated_Source\PSoC4/Comm_SPI.c ****             Comm_scbEnableIntr = (uint8) config->enableInterrupt;
 175              		.loc 1 89 0
 176 0022 1370     		strb	r3, [r2]
  90:Generated_Source\PSoC4/Comm_SPI.c **** 
 177              		.loc 1 90 0
 178 0024 574A     		ldr	r2, .L33+12
 179 0026 1170     		strb	r1, [r2]
  93:Generated_Source\PSoC4/Comm_SPI.c ****             Comm_rxDataBits    = (uint8) config->rxDataBits;
 180              		.loc 1 93 0
 181 0028 574A     		ldr	r2, .L33+16
 182 002a 216B     		ldr	r1, [r4, #48]
 183 002c 1160     		str	r1, [r2]
  94:Generated_Source\PSoC4/Comm_SPI.c ****             Comm_rxBufferSize  = (uint8) config->rxBufferSize;
 184              		.loc 1 94 0
 185 002e 574A     		ldr	r2, .L33+20
 186 0030 217F     		ldrb	r1, [r4, #28]
 187 0032 1170     		strb	r1, [r2]
  95:Generated_Source\PSoC4/Comm_SPI.c **** 
 188              		.loc 1 95 0
 189 0034 FF22     		mov	r2, #255
 190 0036 E16A     		ldr	r1, [r4, #44]
 191 0038 1140     		and	r1, r2
 192 003a 0160     		str	r1, [r0]
  98:Generated_Source\PSoC4/Comm_SPI.c ****             Comm_txDataBits    = (uint8) config->txDataBits;
 193              		.loc 1 98 0
 194 003c 5449     		ldr	r1, .L33+24
 195 003e A06B     		ldr	r0, [r4, #56]
 196 0040 0860     		str	r0, [r1]
  99:Generated_Source\PSoC4/Comm_SPI.c ****             Comm_txBufferSize  = (uint8) config->txBufferSize;
ARM GAS  C:\Users\TECHCO~1\AppData\Local\Temp\cch0eQun.s 			page 13


 197              		.loc 1 99 0
 198 0042 5449     		ldr	r1, .L33+28
 199 0044 206A     		ldr	r0, [r4, #32]
 200 0046 0870     		strb	r0, [r1]
 100:Generated_Source\PSoC4/Comm_SPI.c **** 
 201              		.loc 1 100 0
 202 0048 616B     		ldr	r1, [r4, #52]
 203 004a 0A40     		and	r2, r1
 204 004c 5249     		ldr	r1, .L33+32
 205 004e 0A60     		str	r2, [r1]
 103:Generated_Source\PSoC4/Comm_SPI.c ****                                             Comm_GET_CTRL_BYTE_MODE(config->enableByteMode) |
 206              		.loc 1 103 0
 207 0050 E268     		ldr	r2, [r4, #12]
 208 0052 511E     		sub	r1, r2, #1
 209 0054 0F22     		mov	r2, #15
 210 0056 0A40     		and	r2, r1
 105:Generated_Source\PSoC4/Comm_SPI.c ****                                             Comm_CTRL_SPI;
 211              		.loc 1 105 0
 212 0058 002B     		cmp	r3, #0
 213 005a 01D0     		beq	.L16
 214 005c 8023     		mov	r3, #128
 215 005e 5B00     		lsl	r3, r3, #1
 216              	.L16:
 217 0060 8021     		mov	r1, #128
 218 0062 4904     		lsl	r1, r1, #17
 219 0064 0A43     		orr	r2, r1
 220 0066 1343     		orr	r3, r2
 103:Generated_Source\PSoC4/Comm_SPI.c ****                                             Comm_GET_CTRL_BYTE_MODE(config->enableByteMode) |
 221              		.loc 1 103 0
 222 0068 4C4A     		ldr	r2, .L33+36
 223 006a 1360     		str	r3, [r2]
 108:Generated_Source\PSoC4/Comm_SPI.c ****                                             Comm_GET_SPI_CTRL_SELECT_PRECEDE(config->submode &
 224              		.loc 1 108 0
 225 006c A56A     		ldr	r5, [r4, #40]
 109:Generated_Source\PSoC4/Comm_SPI.c ****                                                                           Comm_SPI_MODE_TI_PRECEDES
 226              		.loc 1 109 0
 227 006e 6068     		ldr	r0, [r4, #4]
 108:Generated_Source\PSoC4/Comm_SPI.c ****                                             Comm_GET_SPI_CTRL_SELECT_PRECEDE(config->submode &
 228              		.loc 1 108 0
 229 0070 6B1E     		sub	r3, r5, #1
 230 0072 9D41     		sbc	r5, r5, r3
 109:Generated_Source\PSoC4/Comm_SPI.c ****                                                                           Comm_SPI_MODE_TI_PRECEDES
 231              		.loc 1 109 0
 232 0074 1023     		mov	r3, #16
 233 0076 0340     		and	r3, r0
 234 0078 00D0     		beq	.L17
 235 007a 0223     		mov	r3, #2
 236              	.L17:
 111:Generated_Source\PSoC4/Comm_SPI.c ****                                             Comm_GET_SPI_CTRL_LATE_MISO_SAMPLE(config->enableLateSa
 237              		.loc 1 111 0
 238 007c A268     		ldr	r2, [r4, #8]
 239 007e 9100     		lsl	r1, r2, #2
 240 0080 0C22     		mov	r2, #12
 241 0082 0A40     		and	r2, r1
 112:Generated_Source\PSoC4/Comm_SPI.c ****                                             Comm_GET_SPI_CTRL_SCLK_CONTINUOUS(config->enableFreeRun
 242              		.loc 1 112 0
 243 0084 6169     		ldr	r1, [r4, #20]
ARM GAS  C:\Users\TECHCO~1\AppData\Local\Temp\cch0eQun.s 			page 14


 244 0086 2A43     		orr	r2, r5
 245 0088 0029     		cmp	r1, #0
 246 008a 00D0     		beq	.L18
 247 008c 1021     		mov	r1, #16
 248              	.L18:
 115:Generated_Source\PSoC4/Comm_SPI.c ****                                             Comm_GET_SPI_CTRL_MASTER_MODE   (config->mode);
 249              		.loc 1 115 0
 250 008e C025     		mov	r5, #192
 251 0090 0006     		lsl	r0, r0, #24
 252 0092 AD04     		lsl	r5, r5, #18
 253 0094 2840     		and	r0, r5
 254 0096 0243     		orr	r2, r0
 255 0098 1A43     		orr	r2, r3
 114:Generated_Source\PSoC4/Comm_SPI.c ****                                             Comm_GET_SPI_CTRL_SUB_MODE      (config->submode)      
 256              		.loc 1 114 0
 257 009a 1143     		orr	r1, r2
 116:Generated_Source\PSoC4/Comm_SPI.c **** 
 258              		.loc 1 116 0
 259 009c 2268     		ldr	r2, [r4]
 260 009e 002A     		cmp	r2, #0
 261 00a0 01D0     		beq	.L19
 262 00a2 8022     		mov	r2, #128
 263 00a4 1206     		lsl	r2, r2, #24
 264              	.L19:
 108:Generated_Source\PSoC4/Comm_SPI.c ****                                             Comm_GET_SPI_CTRL_SELECT_PRECEDE(config->submode &
 265              		.loc 1 108 0
 266 00a6 3E4B     		ldr	r3, .L33+40
 115:Generated_Source\PSoC4/Comm_SPI.c ****                                             Comm_GET_SPI_CTRL_MASTER_MODE   (config->mode);
 267              		.loc 1 115 0
 268 00a8 0A43     		orr	r2, r1
 108:Generated_Source\PSoC4/Comm_SPI.c ****                                             Comm_GET_SPI_CTRL_SELECT_PRECEDE(config->submode &
 269              		.loc 1 108 0
 270 00aa 1A60     		str	r2, [r3]
 119:Generated_Source\PSoC4/Comm_SPI.c ****                                                 Comm_GET_RX_CTRL_BIT_ORDER (config->bitOrder)      
 271              		.loc 1 119 0
 272 00ac E369     		ldr	r3, [r4, #28]
 120:Generated_Source\PSoC4/Comm_SPI.c ****                                                 Comm_GET_RX_CTRL_MEDIAN    (config->enableMedianFil
 273              		.loc 1 120 0
 274 00ae 626A     		ldr	r2, [r4, #36]
 119:Generated_Source\PSoC4/Comm_SPI.c ****                                                 Comm_GET_RX_CTRL_BIT_ORDER (config->bitOrder)      
 275              		.loc 1 119 0
 276 00b0 591E     		sub	r1, r3, #1
 277 00b2 0F23     		mov	r3, #15
 278 00b4 1940     		and	r1, r3
 120:Generated_Source\PSoC4/Comm_SPI.c ****                                                 Comm_GET_RX_CTRL_MEDIAN    (config->enableMedianFil
 279              		.loc 1 120 0
 280 00b6 002A     		cmp	r2, #0
 281 00b8 01D0     		beq	.L20
 282 00ba 8022     		mov	r2, #128
 283 00bc 5200     		lsl	r2, r2, #1
 284              	.L20:
 285 00be 8023     		mov	r3, #128
 286 00c0 1B06     		lsl	r3, r3, #24
 287 00c2 1943     		orr	r1, r3
 121:Generated_Source\PSoC4/Comm_SPI.c ****                                                 Comm_SPI_RX_CTRL;
 288              		.loc 1 121 0
 289 00c4 2369     		ldr	r3, [r4, #16]
ARM GAS  C:\Users\TECHCO~1\AppData\Local\Temp\cch0eQun.s 			page 15


 290 00c6 002B     		cmp	r3, #0
 291 00c8 01D0     		beq	.L21
 292 00ca 8023     		mov	r3, #128
 293 00cc 9B00     		lsl	r3, r3, #2
 294              	.L21:
 295 00ce 0A43     		orr	r2, r1
 296 00d0 1343     		orr	r3, r2
 119:Generated_Source\PSoC4/Comm_SPI.c ****                                                 Comm_GET_RX_CTRL_BIT_ORDER (config->bitOrder)      
 297              		.loc 1 119 0
 298 00d2 344A     		ldr	r2, .L33+44
 299 00d4 1360     		str	r3, [r2]
 124:Generated_Source\PSoC4/Comm_SPI.c **** 
 300              		.loc 1 124 0
 301 00d6 0723     		mov	r3, #7
 302 00d8 626C     		ldr	r2, [r4, #68]
 303 00da 1340     		and	r3, r2
 304 00dc 324A     		ldr	r2, .L33+48
 305 00de 1360     		str	r3, [r2]
 127:Generated_Source\PSoC4/Comm_SPI.c ****                                                 Comm_GET_TX_CTRL_BIT_ORDER (config->bitOrder)   |
 306              		.loc 1 127 0
 307 00e0 236A     		ldr	r3, [r4, #32]
 308 00e2 5A1E     		sub	r2, r3, #1
 309 00e4 0F23     		mov	r3, #15
 310 00e6 1A40     		and	r2, r3
 128:Generated_Source\PSoC4/Comm_SPI.c ****                                                 Comm_SPI_TX_CTRL;
 311              		.loc 1 128 0
 312 00e8 636A     		ldr	r3, [r4, #36]
 313 00ea 002B     		cmp	r3, #0
 314 00ec 01D0     		beq	.L22
 315 00ee 8023     		mov	r3, #128
 316 00f0 5B00     		lsl	r3, r3, #1
 317              	.L22:
 318 00f2 8021     		mov	r1, #128
 319 00f4 0906     		lsl	r1, r1, #24
 320 00f6 0A43     		orr	r2, r1
 321 00f8 1343     		orr	r3, r2
 127:Generated_Source\PSoC4/Comm_SPI.c ****                                                 Comm_GET_TX_CTRL_BIT_ORDER (config->bitOrder)   |
 322              		.loc 1 127 0
 323 00fa 2C4A     		ldr	r2, .L33+52
 139:Generated_Source\PSoC4/Comm_SPI.c ****             Comm_INTR_SPI_EC_MASK_REG = Comm_NO_INTR_SOURCES;
 324              		.loc 1 139 0
 325 00fc 0025     		mov	r5, #0
 127:Generated_Source\PSoC4/Comm_SPI.c ****                                                 Comm_GET_TX_CTRL_BIT_ORDER (config->bitOrder)   |
 326              		.loc 1 127 0
 327 00fe 1360     		str	r3, [r2]
 131:Generated_Source\PSoC4/Comm_SPI.c **** 
 328              		.loc 1 131 0
 329 0100 0723     		mov	r3, #7
 330 0102 E26C     		ldr	r2, [r4, #76]
 134:Generated_Source\PSoC4/Comm_SPI.c ****             CyIntSetPriority(Comm_ISR_NUMBER, Comm_ISR_PRIORITY);
 331              		.loc 1 134 0
 332 0104 0A20     		mov	r0, #10
 131:Generated_Source\PSoC4/Comm_SPI.c **** 
 333              		.loc 1 131 0
 334 0106 1340     		and	r3, r2
 335 0108 294A     		ldr	r2, .L33+56
 336 010a 1360     		str	r3, [r2]
ARM GAS  C:\Users\TECHCO~1\AppData\Local\Temp\cch0eQun.s 			page 16


 134:Generated_Source\PSoC4/Comm_SPI.c ****             CyIntSetPriority(Comm_ISR_NUMBER, Comm_ISR_PRIORITY);
 337              		.loc 1 134 0
 338 010c FFF7FEFF 		bl	CyIntDisable
 339              	.LVL8:
 135:Generated_Source\PSoC4/Comm_SPI.c ****             (void) CyIntSetVector(Comm_ISR_NUMBER, &Comm_SPI_UART_ISR);
 340              		.loc 1 135 0
 341 0110 0A20     		mov	r0, #10
 342 0112 0321     		mov	r1, #3
 343 0114 FFF7FEFF 		bl	CyIntSetPriority
 344              	.LVL9:
 136:Generated_Source\PSoC4/Comm_SPI.c **** 
 345              		.loc 1 136 0
 346 0118 2649     		ldr	r1, .L33+60
 347 011a 0A20     		mov	r0, #10
 348 011c FFF7FEFF 		bl	CyIntSetVector
 349              	.LVL10:
 139:Generated_Source\PSoC4/Comm_SPI.c ****             Comm_INTR_SPI_EC_MASK_REG = Comm_NO_INTR_SOURCES;
 350              		.loc 1 139 0
 351 0120 254B     		ldr	r3, .L33+64
 150:Generated_Source\PSoC4/Comm_SPI.c **** 
 352              		.loc 1 150 0
 353 0122 281C     		mov	r0, r5
 139:Generated_Source\PSoC4/Comm_SPI.c ****             Comm_INTR_SPI_EC_MASK_REG = Comm_NO_INTR_SOURCES;
 354              		.loc 1 139 0
 355 0124 1D60     		str	r5, [r3]
 140:Generated_Source\PSoC4/Comm_SPI.c ****             Comm_INTR_SLAVE_MASK_REG  = Comm_GET_SPI_INTR_SLAVE_MASK(config->rxInterruptMask);
 356              		.loc 1 140 0
 357 0126 254B     		ldr	r3, .L33+68
 358 0128 1D60     		str	r5, [r3]
 141:Generated_Source\PSoC4/Comm_SPI.c ****             Comm_INTR_MASTER_MASK_REG = Comm_GET_SPI_INTR_MASTER_MASK(config->txInterruptMask);
 359              		.loc 1 141 0
 360 012a 8023     		mov	r3, #128
 361 012c 226C     		ldr	r2, [r4, #64]
 362 012e 1B01     		lsl	r3, r3, #4
 363 0130 1340     		and	r3, r2
 364 0132 234A     		ldr	r2, .L33+72
 365 0134 1360     		str	r3, [r2]
 142:Generated_Source\PSoC4/Comm_SPI.c ****             Comm_INTR_RX_MASK_REG     = Comm_GET_SPI_INTR_RX_MASK(config->rxInterruptMask);
 366              		.loc 1 142 0
 367 0136 8023     		mov	r3, #128
 368 0138 A26C     		ldr	r2, [r4, #72]
 369 013a 9B00     		lsl	r3, r3, #2
 370 013c 1340     		and	r3, r2
 371 013e 214A     		ldr	r2, .L33+76
 372 0140 1360     		str	r3, [r2]
 143:Generated_Source\PSoC4/Comm_SPI.c ****             Comm_INTR_TX_MASK_REG     = Comm_GET_SPI_INTR_TX_MASK(config->txInterruptMask);
 373              		.loc 1 143 0
 374 0142 226C     		ldr	r2, [r4, #64]
 375 0144 204B     		ldr	r3, .L33+80
 376 0146 1340     		and	r3, r2
 377 0148 204A     		ldr	r2, .L33+84
 378 014a 1360     		str	r3, [r2]
 144:Generated_Source\PSoC4/Comm_SPI.c ****             
 379              		.loc 1 144 0
 380 014c A26C     		ldr	r2, [r4, #72]
 381 014e 204B     		ldr	r3, .L33+88
 382 0150 1340     		and	r3, r2
ARM GAS  C:\Users\TECHCO~1\AppData\Local\Temp\cch0eQun.s 			page 17


 383 0152 204A     		ldr	r2, .L33+92
 384 0154 1360     		str	r3, [r2]
 147:Generated_Source\PSoC4/Comm_SPI.c **** 
 385              		.loc 1 147 0
 386 0156 1268     		ldr	r2, [r2]
 387 0158 1F4B     		ldr	r3, .L33+96
 388 015a 1A80     		strh	r2, [r3]
 150:Generated_Source\PSoC4/Comm_SPI.c **** 
 389              		.loc 1 150 0
 390 015c FFF7FEFF 		bl	Comm_SpiSetActiveSlaveSelect
 391              	.LVL11:
 153:Generated_Source\PSoC4/Comm_SPI.c ****             Comm_rxBufferTail     = 0u;
 392              		.loc 1 153 0
 393 0160 1E4B     		ldr	r3, .L33+100
 394 0162 1D60     		str	r5, [r3]
 154:Generated_Source\PSoC4/Comm_SPI.c ****             Comm_rxBufferOverflow = 0u;
 395              		.loc 1 154 0
 396 0164 1E4B     		ldr	r3, .L33+104
 397 0166 1D60     		str	r5, [r3]
 155:Generated_Source\PSoC4/Comm_SPI.c **** 
 398              		.loc 1 155 0
 399 0168 1E4B     		ldr	r3, .L33+108
 400 016a 1D70     		strb	r5, [r3]
 158:Generated_Source\PSoC4/Comm_SPI.c ****             Comm_txBufferTail = 0u;
 401              		.loc 1 158 0
 402 016c 1E4B     		ldr	r3, .L33+112
 403 016e 1D60     		str	r5, [r3]
 159:Generated_Source\PSoC4/Comm_SPI.c ****         }
 404              		.loc 1 159 0
 405 0170 1E4B     		ldr	r3, .L33+116
 406 0172 1D60     		str	r5, [r3]
 407              	.LVL12:
 408              	.L14:
 161:Generated_Source\PSoC4/Comm_SPI.c **** 
 409              		.loc 1 161 0
 410              		@ sp needed
 411 0174 38BD     		pop	{r3, r4, r5, pc}
 412              	.L34:
 413 0176 C046     		.align	2
 414              	.L33:
 415 0178 00000000 		.word	Comm_scbMode
 416 017c 00000000 		.word	Comm_scbEnableWake
 417 0180 00000000 		.word	Comm_rxBufferSize
 418 0184 00000000 		.word	Comm_scbEnableIntr
 419 0188 00000000 		.word	Comm_rxBuffer
 420 018c 00000000 		.word	Comm_rxDataBits
 421 0190 00000000 		.word	Comm_txBuffer
 422 0194 00000000 		.word	Comm_txDataBits
 423 0198 00000000 		.word	Comm_txBufferSize
 424 019c 00000640 		.word	1074135040
 425 01a0 20000640 		.word	1074135072
 426 01a4 00030640 		.word	1074135808
 427 01a8 04030640 		.word	1074135812
 428 01ac 00020640 		.word	1074135552
 429 01b0 04020640 		.word	1074135556
 430 01b4 00000000 		.word	Comm_SPI_UART_ISR
 431 01b8 880E0640 		.word	1074138760
ARM GAS  C:\Users\TECHCO~1\AppData\Local\Temp\cch0eQun.s 			page 18


 432 01bc C80E0640 		.word	1074138824
 433 01c0 480F0640 		.word	1074138952
 434 01c4 080F0640 		.word	1074138888
 435 01c8 FFF7FFFF 		.word	-2049
 436 01cc C80F0640 		.word	1074139080
 437 01d0 FFFDFFFF 		.word	-513
 438 01d4 880F0640 		.word	1074139016
 439 01d8 00000000 		.word	Comm_IntrTxMask
 440 01dc 00000000 		.word	Comm_rxBufferHead
 441 01e0 00000000 		.word	Comm_rxBufferTail
 442 01e4 00000000 		.word	Comm_rxBufferOverflow
 443 01e8 00000000 		.word	Comm_txBufferHead
 444 01ec 00000000 		.word	Comm_txBufferTail
 445              		.cfi_endproc
 446              	.LFE0:
 447              		.size	Comm_SpiInit, .-Comm_SpiInit
 448              		.section	.text.Comm_SpiSaveConfig,"ax",%progbits
 449              		.align	1
 450              		.global	Comm_SpiSaveConfig
 451              		.code	16
 452              		.thumb_func
 453              		.type	Comm_SpiSaveConfig, %function
 454              	Comm_SpiSaveConfig:
 455              	.LFB4:
 470:Generated_Source\PSoC4/Comm_SPI.c **** #endif /* (Comm_SPI_MASTER_CONST) */
 471:Generated_Source\PSoC4/Comm_SPI.c **** 
 472:Generated_Source\PSoC4/Comm_SPI.c **** 
 473:Generated_Source\PSoC4/Comm_SPI.c **** #if !(Comm_CY_SCBIP_V0 || Comm_CY_SCBIP_V1)
 474:Generated_Source\PSoC4/Comm_SPI.c ****     /*******************************************************************************
 475:Generated_Source\PSoC4/Comm_SPI.c ****     * Function Name: Comm_SpiSetSlaveSelectPolarity
 476:Generated_Source\PSoC4/Comm_SPI.c ****     ****************************************************************************//**
 477:Generated_Source\PSoC4/Comm_SPI.c ****     *
 478:Generated_Source\PSoC4/Comm_SPI.c ****     *  Sets active polarity for slave select line.
 479:Generated_Source\PSoC4/Comm_SPI.c ****     *  The component should be in one of the following states to change the active
 480:Generated_Source\PSoC4/Comm_SPI.c ****     *  slave select signal source correctly:
 481:Generated_Source\PSoC4/Comm_SPI.c ****     *   - The component is disabled.
 482:Generated_Source\PSoC4/Comm_SPI.c ****     *   - The component has completed transfer.
 483:Generated_Source\PSoC4/Comm_SPI.c ****     *  
 484:Generated_Source\PSoC4/Comm_SPI.c ****     *  This function does not check that these conditions are met.
 485:Generated_Source\PSoC4/Comm_SPI.c ****     *
 486:Generated_Source\PSoC4/Comm_SPI.c ****     *  \param slaveSelect: slave select line to change active polarity.
 487:Generated_Source\PSoC4/Comm_SPI.c ****     *   - Comm_SPI_SLAVE_SELECT0 - Slave select 0.
 488:Generated_Source\PSoC4/Comm_SPI.c ****     *   - Comm_SPI_SLAVE_SELECT1 - Slave select 1.
 489:Generated_Source\PSoC4/Comm_SPI.c ****     *   - Comm_SPI_SLAVE_SELECT2 - Slave select 2.
 490:Generated_Source\PSoC4/Comm_SPI.c ****     *   - Comm_SPI_SLAVE_SELECT3 - Slave select 3.
 491:Generated_Source\PSoC4/Comm_SPI.c ****     *
 492:Generated_Source\PSoC4/Comm_SPI.c ****     *  \param polarity: active polarity of slave select line.
 493:Generated_Source\PSoC4/Comm_SPI.c ****     *   - Comm_SPI_SS_ACTIVE_LOW  - Slave select is active low.
 494:Generated_Source\PSoC4/Comm_SPI.c ****     *   - Comm_SPI_SS_ACTIVE_HIGH - Slave select is active high.
 495:Generated_Source\PSoC4/Comm_SPI.c ****     *
 496:Generated_Source\PSoC4/Comm_SPI.c ****     *******************************************************************************/
 497:Generated_Source\PSoC4/Comm_SPI.c ****     void Comm_SpiSetSlaveSelectPolarity(uint32 slaveSelect, uint32 polarity)
 498:Generated_Source\PSoC4/Comm_SPI.c ****     {
 499:Generated_Source\PSoC4/Comm_SPI.c ****         uint32 ssPolarity;
 500:Generated_Source\PSoC4/Comm_SPI.c **** 
 501:Generated_Source\PSoC4/Comm_SPI.c ****         /* Get position of the polarity bit associated with slave select line */
 502:Generated_Source\PSoC4/Comm_SPI.c ****         ssPolarity = Comm_GET_SPI_CTRL_SSEL_POLARITY((uint32) 1u << slaveSelect);
ARM GAS  C:\Users\TECHCO~1\AppData\Local\Temp\cch0eQun.s 			page 19


 503:Generated_Source\PSoC4/Comm_SPI.c **** 
 504:Generated_Source\PSoC4/Comm_SPI.c ****         if (0u != polarity)
 505:Generated_Source\PSoC4/Comm_SPI.c ****         {
 506:Generated_Source\PSoC4/Comm_SPI.c ****             Comm_SPI_CTRL_REG |= (uint32)  ssPolarity;
 507:Generated_Source\PSoC4/Comm_SPI.c ****         }
 508:Generated_Source\PSoC4/Comm_SPI.c ****         else
 509:Generated_Source\PSoC4/Comm_SPI.c ****         {
 510:Generated_Source\PSoC4/Comm_SPI.c ****             Comm_SPI_CTRL_REG &= (uint32) ~ssPolarity;
 511:Generated_Source\PSoC4/Comm_SPI.c ****         }
 512:Generated_Source\PSoC4/Comm_SPI.c ****     }
 513:Generated_Source\PSoC4/Comm_SPI.c **** #endif /* !(Comm_CY_SCBIP_V0 || Comm_CY_SCBIP_V1) */
 514:Generated_Source\PSoC4/Comm_SPI.c **** 
 515:Generated_Source\PSoC4/Comm_SPI.c **** 
 516:Generated_Source\PSoC4/Comm_SPI.c **** #if(Comm_SPI_WAKE_ENABLE_CONST)
 517:Generated_Source\PSoC4/Comm_SPI.c ****     /*******************************************************************************
 518:Generated_Source\PSoC4/Comm_SPI.c ****     * Function Name: Comm_SpiSaveConfig
 519:Generated_Source\PSoC4/Comm_SPI.c ****     ****************************************************************************//**
 520:Generated_Source\PSoC4/Comm_SPI.c ****     *
 521:Generated_Source\PSoC4/Comm_SPI.c ****     *  Clears INTR_SPI_EC.WAKE_UP and enables it. This interrupt
 522:Generated_Source\PSoC4/Comm_SPI.c ****     *  source triggers when the master assigns the SS line and wakes up the device.
 523:Generated_Source\PSoC4/Comm_SPI.c ****     *
 524:Generated_Source\PSoC4/Comm_SPI.c ****     *******************************************************************************/
 525:Generated_Source\PSoC4/Comm_SPI.c ****     void Comm_SpiSaveConfig(void)
 526:Generated_Source\PSoC4/Comm_SPI.c ****     {
 456              		.loc 1 526 0
 457              		.cfi_startproc
 527:Generated_Source\PSoC4/Comm_SPI.c ****         /* Clear and enable SPI wakeup interrupt source */
 528:Generated_Source\PSoC4/Comm_SPI.c ****         Comm_ClearSpiExtClkInterruptSource(Comm_INTR_SPI_EC_WAKE_UP);
 458              		.loc 1 528 0
 459 0000 0123     		mov	r3, #1
 460 0002 024A     		ldr	r2, .L36
 529:Generated_Source\PSoC4/Comm_SPI.c ****         Comm_SetSpiExtClkInterruptMode(Comm_INTR_SPI_EC_WAKE_UP);
 530:Generated_Source\PSoC4/Comm_SPI.c ****     }
 461              		.loc 1 530 0
 462              		@ sp needed
 528:Generated_Source\PSoC4/Comm_SPI.c ****         Comm_SetSpiExtClkInterruptMode(Comm_INTR_SPI_EC_WAKE_UP);
 463              		.loc 1 528 0
 464 0004 1360     		str	r3, [r2]
 529:Generated_Source\PSoC4/Comm_SPI.c ****         Comm_SetSpiExtClkInterruptMode(Comm_INTR_SPI_EC_WAKE_UP);
 465              		.loc 1 529 0
 466 0006 024A     		ldr	r2, .L36+4
 467 0008 1360     		str	r3, [r2]
 468              		.loc 1 530 0
 469 000a 7047     		bx	lr
 470              	.L37:
 471              		.align	2
 472              	.L36:
 473 000c C00E0640 		.word	1074138816
 474 0010 C80E0640 		.word	1074138824
 475              		.cfi_endproc
 476              	.LFE4:
 477              		.size	Comm_SpiSaveConfig, .-Comm_SpiSaveConfig
 478              		.section	.text.Comm_SpiRestoreConfig,"ax",%progbits
 479              		.align	1
 480              		.global	Comm_SpiRestoreConfig
 481              		.code	16
 482              		.thumb_func
ARM GAS  C:\Users\TECHCO~1\AppData\Local\Temp\cch0eQun.s 			page 20


 483              		.type	Comm_SpiRestoreConfig, %function
 484              	Comm_SpiRestoreConfig:
 485              	.LFB5:
 531:Generated_Source\PSoC4/Comm_SPI.c **** 
 532:Generated_Source\PSoC4/Comm_SPI.c **** 
 533:Generated_Source\PSoC4/Comm_SPI.c ****     /*******************************************************************************
 534:Generated_Source\PSoC4/Comm_SPI.c ****     * Function Name: Comm_SpiRestoreConfig
 535:Generated_Source\PSoC4/Comm_SPI.c ****     ****************************************************************************//**
 536:Generated_Source\PSoC4/Comm_SPI.c ****     *
 537:Generated_Source\PSoC4/Comm_SPI.c ****     *  Disables the INTR_SPI_EC.WAKE_UP interrupt source. After wakeup
 538:Generated_Source\PSoC4/Comm_SPI.c ****     *  slave does not drive the MISO line and the master receives 0xFF.
 539:Generated_Source\PSoC4/Comm_SPI.c ****     *
 540:Generated_Source\PSoC4/Comm_SPI.c ****     *******************************************************************************/
 541:Generated_Source\PSoC4/Comm_SPI.c ****     void Comm_SpiRestoreConfig(void)
 542:Generated_Source\PSoC4/Comm_SPI.c ****     {
 486              		.loc 1 542 0
 487              		.cfi_startproc
 543:Generated_Source\PSoC4/Comm_SPI.c ****         /* Disable SPI wakeup interrupt source */
 544:Generated_Source\PSoC4/Comm_SPI.c ****         Comm_SetSpiExtClkInterruptMode(Comm_NO_INTR_SOURCES);
 488              		.loc 1 544 0
 489 0000 0022     		mov	r2, #0
 490 0002 014B     		ldr	r3, .L39
 545:Generated_Source\PSoC4/Comm_SPI.c ****     }
 491              		.loc 1 545 0
 492              		@ sp needed
 544:Generated_Source\PSoC4/Comm_SPI.c ****     }
 493              		.loc 1 544 0
 494 0004 1A60     		str	r2, [r3]
 495              		.loc 1 545 0
 496 0006 7047     		bx	lr
 497              	.L40:
 498              		.align	2
 499              	.L39:
 500 0008 C80E0640 		.word	1074138824
 501              		.cfi_endproc
 502              	.LFE5:
 503              		.size	Comm_SpiRestoreConfig, .-Comm_SpiRestoreConfig
 504              		.global	Comm_configSpi
 505              		.section	.rodata
 506              		.align	2
 507              		.type	Comm_configSpi, %object
 508              		.size	Comm_configSpi, 84
 509              	Comm_configSpi:
 510 0000 00000000 		.word	0
 511 0004 00000000 		.word	0
 512 0008 00000000 		.word	0
 513 000c 10000000 		.word	16
 514 0010 00000000 		.word	0
 515 0014 00000000 		.word	0
 516 0018 00000000 		.word	0
 517 001c 08000000 		.word	8
 518 0020 08000000 		.word	8
 519 0024 01000000 		.word	1
 520 0028 01000000 		.word	1
 521 002c 00000000 		.word	0
 522 0030 00000000 		.word	0
 523 0034 00000000 		.word	0
ARM GAS  C:\Users\TECHCO~1\AppData\Local\Temp\cch0eQun.s 			page 21


 524 0038 00000000 		.word	0
 525 003c 01000000 		.word	1
 526 0040 00000000 		.word	0
 527 0044 07000000 		.word	7
 528 0048 00000000 		.word	0
 529 004c 00000000 		.word	0
 530 0050 00       		.byte	0
 531 0051 00       		.byte	0
 532 0052 00       		.byte	0
 533 0053 00       		.space	1
 534              		.text
 535              	.Letext0:
 536              		.file 2 "Generated_Source\\PSoC4/cytypes.h"
 537              		.file 3 "Generated_Source\\PSoC4\\Comm_SPI_UART.h"
 538              		.file 4 "Generated_Source\\PSoC4\\Comm_PVT.h"
 539              		.file 5 "Generated_Source\\PSoC4\\Comm_SPI_UART_PVT.h"
 540              		.file 6 "Generated_Source\\PSoC4/CyLib.h"