ARM GAS  C:\Users\TECHCO~1\AppData\Local\Temp\ccFuWS2o.s 			page 1


   1              		.cpu cortex-m0
   2              		.fpu softvfp
   3              		.eabi_attribute 20, 1
   4              		.eabi_attribute 21, 1
   5              		.eabi_attribute 23, 3
   6              		.eabi_attribute 24, 1
   7              		.eabi_attribute 25, 1
   8              		.eabi_attribute 26, 1
   9              		.eabi_attribute 30, 4
  10              		.eabi_attribute 34, 0
  11              		.eabi_attribute 18, 4
  12              		.code	16
  13              		.file	"Comm_I2C.c"
  14              		.text
  15              	.Ltext0:
  16              		.cfi_sections	.debug_frame
  17              		.section	.text.Comm_I2CInit,"ax",%progbits
  18              		.align	1
  19              		.global	Comm_I2CInit
  20              		.code	16
  21              		.thumb_func
  22              		.type	Comm_I2CInit, %function
  23              	Comm_I2CInit:
  24              	.LFB0:
  25              		.file 1 "Generated_Source\\PSoC4\\Comm_I2C.c"
   1:Generated_Source\PSoC4/Comm_I2C.c **** /***************************************************************************//**
   2:Generated_Source\PSoC4/Comm_I2C.c **** * \file Comm_I2C.c
   3:Generated_Source\PSoC4/Comm_I2C.c **** * \version 3.20
   4:Generated_Source\PSoC4/Comm_I2C.c **** *
   5:Generated_Source\PSoC4/Comm_I2C.c **** * \brief
   6:Generated_Source\PSoC4/Comm_I2C.c **** *  This file provides the source code to the API for the SCB Component in
   7:Generated_Source\PSoC4/Comm_I2C.c **** *  I2C mode.
   8:Generated_Source\PSoC4/Comm_I2C.c **** *
   9:Generated_Source\PSoC4/Comm_I2C.c **** * Note:
  10:Generated_Source\PSoC4/Comm_I2C.c **** *
  11:Generated_Source\PSoC4/Comm_I2C.c **** *******************************************************************************
  12:Generated_Source\PSoC4/Comm_I2C.c **** * \copyright
  13:Generated_Source\PSoC4/Comm_I2C.c **** * Copyright 2013-2016, Cypress Semiconductor Corporation.  All rights reserved.
  14:Generated_Source\PSoC4/Comm_I2C.c **** * You may use this file only in accordance with the license, terms, conditions,
  15:Generated_Source\PSoC4/Comm_I2C.c **** * disclaimers, and limitations in the end user license agreement accompanying
  16:Generated_Source\PSoC4/Comm_I2C.c **** * the software package with which this file was provided.
  17:Generated_Source\PSoC4/Comm_I2C.c **** *******************************************************************************/
  18:Generated_Source\PSoC4/Comm_I2C.c **** 
  19:Generated_Source\PSoC4/Comm_I2C.c **** #include "Comm_PVT.h"
  20:Generated_Source\PSoC4/Comm_I2C.c **** #include "Comm_I2C_PVT.h"
  21:Generated_Source\PSoC4/Comm_I2C.c **** 
  22:Generated_Source\PSoC4/Comm_I2C.c **** 
  23:Generated_Source\PSoC4/Comm_I2C.c **** /***************************************
  24:Generated_Source\PSoC4/Comm_I2C.c **** *      I2C Private Vars
  25:Generated_Source\PSoC4/Comm_I2C.c **** ***************************************/
  26:Generated_Source\PSoC4/Comm_I2C.c **** 
  27:Generated_Source\PSoC4/Comm_I2C.c **** volatile uint8 Comm_state;  /* Current state of I2C FSM */
  28:Generated_Source\PSoC4/Comm_I2C.c **** 
  29:Generated_Source\PSoC4/Comm_I2C.c **** #if(Comm_SCB_MODE_UNCONFIG_CONST_CFG)
  30:Generated_Source\PSoC4/Comm_I2C.c **** 
  31:Generated_Source\PSoC4/Comm_I2C.c ****     /***************************************
  32:Generated_Source\PSoC4/Comm_I2C.c ****     *  Configuration Structure Initialization
ARM GAS  C:\Users\TECHCO~1\AppData\Local\Temp\ccFuWS2o.s 			page 2


  33:Generated_Source\PSoC4/Comm_I2C.c ****     ***************************************/
  34:Generated_Source\PSoC4/Comm_I2C.c **** 
  35:Generated_Source\PSoC4/Comm_I2C.c ****     /* Constant configuration of I2C */
  36:Generated_Source\PSoC4/Comm_I2C.c ****     const Comm_I2C_INIT_STRUCT Comm_configI2C =
  37:Generated_Source\PSoC4/Comm_I2C.c ****     {
  38:Generated_Source\PSoC4/Comm_I2C.c ****         Comm_I2C_MODE,
  39:Generated_Source\PSoC4/Comm_I2C.c ****         Comm_I2C_OVS_FACTOR_LOW,
  40:Generated_Source\PSoC4/Comm_I2C.c ****         Comm_I2C_OVS_FACTOR_HIGH,
  41:Generated_Source\PSoC4/Comm_I2C.c ****         Comm_I2C_MEDIAN_FILTER_ENABLE,
  42:Generated_Source\PSoC4/Comm_I2C.c ****         Comm_I2C_SLAVE_ADDRESS,
  43:Generated_Source\PSoC4/Comm_I2C.c ****         Comm_I2C_SLAVE_ADDRESS_MASK,
  44:Generated_Source\PSoC4/Comm_I2C.c ****         Comm_I2C_ACCEPT_ADDRESS,
  45:Generated_Source\PSoC4/Comm_I2C.c ****         Comm_I2C_WAKE_ENABLE,
  46:Generated_Source\PSoC4/Comm_I2C.c ****         Comm_I2C_BYTE_MODE_ENABLE,
  47:Generated_Source\PSoC4/Comm_I2C.c ****         Comm_I2C_DATA_RATE,
  48:Generated_Source\PSoC4/Comm_I2C.c ****         Comm_I2C_ACCEPT_GENERAL_CALL,
  49:Generated_Source\PSoC4/Comm_I2C.c ****     };
  50:Generated_Source\PSoC4/Comm_I2C.c **** 
  51:Generated_Source\PSoC4/Comm_I2C.c ****     /*******************************************************************************
  52:Generated_Source\PSoC4/Comm_I2C.c ****     * Function Name: Comm_I2CInit
  53:Generated_Source\PSoC4/Comm_I2C.c ****     ****************************************************************************//**
  54:Generated_Source\PSoC4/Comm_I2C.c ****     *
  55:Generated_Source\PSoC4/Comm_I2C.c ****     *
  56:Generated_Source\PSoC4/Comm_I2C.c ****     *  Configures the Comm for I2C operation.
  57:Generated_Source\PSoC4/Comm_I2C.c ****     *
  58:Generated_Source\PSoC4/Comm_I2C.c ****     *  This function is intended specifically to be used when the Comm 
  59:Generated_Source\PSoC4/Comm_I2C.c ****     *  configuration is set to “Unconfigured Comm” in the customizer. 
  60:Generated_Source\PSoC4/Comm_I2C.c ****     *  After initializing the Comm in I2C mode using this function, 
  61:Generated_Source\PSoC4/Comm_I2C.c ****     *  the component can be enabled using the Comm_Start() or 
  62:Generated_Source\PSoC4/Comm_I2C.c ****     * Comm_Enable() function.
  63:Generated_Source\PSoC4/Comm_I2C.c ****     *  This function uses a pointer to a structure that provides the configuration 
  64:Generated_Source\PSoC4/Comm_I2C.c ****     *  settings. This structure contains the same information that would otherwise 
  65:Generated_Source\PSoC4/Comm_I2C.c ****     *  be provided by the customizer settings.
  66:Generated_Source\PSoC4/Comm_I2C.c ****     *
  67:Generated_Source\PSoC4/Comm_I2C.c ****     *  \param config: pointer to a structure that contains the following list of 
  68:Generated_Source\PSoC4/Comm_I2C.c ****     *   fields. These fields match the selections available in the customizer. 
  69:Generated_Source\PSoC4/Comm_I2C.c ****     *   Refer to the customizer for further description of the settings.
  70:Generated_Source\PSoC4/Comm_I2C.c ****     *
  71:Generated_Source\PSoC4/Comm_I2C.c ****     *******************************************************************************/
  72:Generated_Source\PSoC4/Comm_I2C.c ****     void Comm_I2CInit(const Comm_I2C_INIT_STRUCT *config)
  73:Generated_Source\PSoC4/Comm_I2C.c ****     {
  26              		.loc 1 73 0
  27              		.cfi_startproc
  28              	.LVL0:
  29 0000 F7B5     		push	{r0, r1, r2, r4, r5, r6, r7, lr}
  30              		.cfi_def_cfa_offset 32
  31              		.cfi_offset 0, -32
  32              		.cfi_offset 1, -28
  33              		.cfi_offset 2, -24
  34              		.cfi_offset 4, -20
  35              		.cfi_offset 5, -16
  36              		.cfi_offset 6, -12
  37              		.cfi_offset 7, -8
  38              		.cfi_offset 14, -4
  74:Generated_Source\PSoC4/Comm_I2C.c ****         uint32 medianFilter;
  75:Generated_Source\PSoC4/Comm_I2C.c ****         uint32 locEnableWake;
  76:Generated_Source\PSoC4/Comm_I2C.c **** 
ARM GAS  C:\Users\TECHCO~1\AppData\Local\Temp\ccFuWS2o.s 			page 3


  77:Generated_Source\PSoC4/Comm_I2C.c ****         if(NULL == config)
  39              		.loc 1 77 0
  40 0002 0028     		cmp	r0, #0
  41 0004 00D1     		bne	.LCB16
  42 0006 A5E0     		b	.L1	@long jump
  43              	.LCB16:
  78:Generated_Source\PSoC4/Comm_I2C.c ****         {
  79:Generated_Source\PSoC4/Comm_I2C.c ****             CYASSERT(0u != 0u); /* Halt execution due to bad function parameter */
  80:Generated_Source\PSoC4/Comm_I2C.c ****         }
  81:Generated_Source\PSoC4/Comm_I2C.c ****         else
  82:Generated_Source\PSoC4/Comm_I2C.c ****         {
  83:Generated_Source\PSoC4/Comm_I2C.c ****             /* Configure pins */
  84:Generated_Source\PSoC4/Comm_I2C.c ****             Comm_SetPins(Comm_SCB_MODE_I2C, Comm_DUMMY_PARAM,
  44              		.loc 1 84 0
  45 0008 0021     		mov	r1, #0
  46 000a 041C     		mov	r4, r0
  47 000c 0A1C     		mov	r2, r1
  48 000e 0120     		mov	r0, #1
  49              	.LVL1:
  50 0010 FFF7FEFF 		bl	Comm_SetPins
  51              	.LVL2:
  85:Generated_Source\PSoC4/Comm_I2C.c ****                                      Comm_DUMMY_PARAM);
  86:Generated_Source\PSoC4/Comm_I2C.c **** 
  87:Generated_Source\PSoC4/Comm_I2C.c ****             /* Store internal configuration */
  88:Generated_Source\PSoC4/Comm_I2C.c ****             Comm_scbMode       = (uint8) Comm_SCB_MODE_I2C;
  52              		.loc 1 88 0
  53 0014 0122     		mov	r2, #1
  89:Generated_Source\PSoC4/Comm_I2C.c ****             Comm_scbEnableWake = (uint8) config->enableWake;
  90:Generated_Source\PSoC4/Comm_I2C.c ****             Comm_scbEnableIntr = (uint8) Comm_SCB_IRQ_INTERNAL;
  91:Generated_Source\PSoC4/Comm_I2C.c **** 
  92:Generated_Source\PSoC4/Comm_I2C.c ****             Comm_mode          = (uint8) config->mode;
  93:Generated_Source\PSoC4/Comm_I2C.c ****             Comm_acceptAddr    = (uint8) config->acceptAddr;
  94:Generated_Source\PSoC4/Comm_I2C.c **** 
  95:Generated_Source\PSoC4/Comm_I2C.c ****         #if (Comm_CY_SCBIP_V0)
  96:Generated_Source\PSoC4/Comm_I2C.c ****             /* Adjust SDA filter settings. Ticket ID#150521 */
  97:Generated_Source\PSoC4/Comm_I2C.c ****             Comm_SET_I2C_CFG_SDA_FILT_TRIM(Comm_EC_AM_I2C_CFG_SDA_FILT_TRIM);
  54              		.loc 1 97 0
  55 0016 0C25     		mov	r5, #12
  88:Generated_Source\PSoC4/Comm_I2C.c ****             Comm_scbEnableWake = (uint8) config->enableWake;
  56              		.loc 1 88 0
  57 0018 4F4B     		ldr	r3, .L31
  89:Generated_Source\PSoC4/Comm_I2C.c ****             Comm_scbEnableWake = (uint8) config->enableWake;
  58              		.loc 1 89 0
  59 001a 217F     		ldrb	r1, [r4, #28]
  88:Generated_Source\PSoC4/Comm_I2C.c ****             Comm_scbEnableWake = (uint8) config->enableWake;
  60              		.loc 1 88 0
  61 001c 1A70     		strb	r2, [r3]
  89:Generated_Source\PSoC4/Comm_I2C.c ****             Comm_scbEnableWake = (uint8) config->enableWake;
  62              		.loc 1 89 0
  63 001e 4F4B     		ldr	r3, .L31+4
  92:Generated_Source\PSoC4/Comm_I2C.c ****             Comm_acceptAddr    = (uint8) config->acceptAddr;
  64              		.loc 1 92 0
  65 0020 4F4E     		ldr	r6, .L31+8
  89:Generated_Source\PSoC4/Comm_I2C.c ****             Comm_scbEnableWake = (uint8) config->enableWake;
  66              		.loc 1 89 0
  67 0022 1970     		strb	r1, [r3]
  90:Generated_Source\PSoC4/Comm_I2C.c **** 
ARM GAS  C:\Users\TECHCO~1\AppData\Local\Temp\ccFuWS2o.s 			page 4


  68              		.loc 1 90 0
  69 0024 4F4B     		ldr	r3, .L31+12
  93:Generated_Source\PSoC4/Comm_I2C.c **** 
  70              		.loc 1 93 0
  71 0026 217E     		ldrb	r1, [r4, #24]
  90:Generated_Source\PSoC4/Comm_I2C.c **** 
  72              		.loc 1 90 0
  73 0028 1A70     		strb	r2, [r3]
  93:Generated_Source\PSoC4/Comm_I2C.c **** 
  74              		.loc 1 93 0
  75 002a 4F4B     		ldr	r3, .L31+16
  92:Generated_Source\PSoC4/Comm_I2C.c ****             Comm_acceptAddr    = (uint8) config->acceptAddr;
  76              		.loc 1 92 0
  77 002c 2078     		ldrb	r0, [r4]
  93:Generated_Source\PSoC4/Comm_I2C.c **** 
  78              		.loc 1 93 0
  79 002e 1970     		strb	r1, [r3]
  80              		.loc 1 97 0
  81 0030 4E4B     		ldr	r3, .L31+20
  92:Generated_Source\PSoC4/Comm_I2C.c ****             Comm_acceptAddr    = (uint8) config->acceptAddr;
  82              		.loc 1 92 0
  83 0032 3070     		strb	r0, [r6]
  84              		.loc 1 97 0
  85 0034 1968     		ldr	r1, [r3]
  86 0036 2943     		orr	r1, r5
  87 0038 1960     		str	r1, [r3]
  98:Generated_Source\PSoC4/Comm_I2C.c ****         #endif /* (Comm_CY_SCBIP_V0) */
  99:Generated_Source\PSoC4/Comm_I2C.c **** 
 100:Generated_Source\PSoC4/Comm_I2C.c ****             /* Adjust AF and DF filter settings. Ticket ID#176179 */
 101:Generated_Source\PSoC4/Comm_I2C.c ****             if (((Comm_I2C_MODE_SLAVE != config->mode) &&
  88              		.loc 1 101 0
  89 003a 2568     		ldr	r5, [r4]
  90 003c 0196     		str	r6, [sp, #4]
  91 003e 191C     		mov	r1, r3
  92 0040 9542     		cmp	r5, r2
  93 0042 04D0     		beq	.L3
  94              		.loc 1 101 0 is_stmt 0 discriminator 1
  95 0044 C825     		mov	r5, #200
  96 0046 678C     		ldrh	r7, [r4, #34]
  97 0048 6D00     		lsl	r5, r5, #1
  98 004a AF42     		cmp	r7, r5
  99 004c 05D8     		bhi	.L4
 100              	.L3:
 102:Generated_Source\PSoC4/Comm_I2C.c ****                  (config->dataRate <= Comm_I2C_DATA_RATE_FS_MODE_MAX)) ||
 103:Generated_Source\PSoC4/Comm_I2C.c ****                  (Comm_I2C_MODE_SLAVE == config->mode))
 104:Generated_Source\PSoC4/Comm_I2C.c ****             {
 105:Generated_Source\PSoC4/Comm_I2C.c ****                 /* AF = 1, DF = 0 */
 106:Generated_Source\PSoC4/Comm_I2C.c ****                 Comm_I2C_CFG_ANALOG_FITER_ENABLE;
 101              		.loc 1 106 0 is_stmt 1
 102 004e 0B68     		ldr	r3, [r1]
 103 0050 474A     		ldr	r2, .L31+24
 104 0052 1343     		orr	r3, r2
 105 0054 0B60     		str	r3, [r1]
 106              	.LVL3:
 107:Generated_Source\PSoC4/Comm_I2C.c ****                 medianFilter = Comm_DIGITAL_FILTER_DISABLE;
 107              		.loc 1 107 0
 108 0056 0022     		mov	r2, #0
ARM GAS  C:\Users\TECHCO~1\AppData\Local\Temp\ccFuWS2o.s 			page 5


 109 0058 03E0     		b	.L5
 110              	.LVL4:
 111              	.L4:
 108:Generated_Source\PSoC4/Comm_I2C.c ****             }
 109:Generated_Source\PSoC4/Comm_I2C.c ****             else
 110:Generated_Source\PSoC4/Comm_I2C.c ****             {
 111:Generated_Source\PSoC4/Comm_I2C.c ****                 /* AF = 0, DF = 1 */
 112:Generated_Source\PSoC4/Comm_I2C.c ****                 Comm_I2C_CFG_ANALOG_FITER_DISABLE;
 112              		.loc 1 112 0
 113 005a 1D68     		ldr	r5, [r3]
 114 005c 4549     		ldr	r1, .L31+28
 115 005e 2940     		and	r1, r5
 116 0060 1960     		str	r1, [r3]
 117              	.LVL5:
 118              	.L5:
 113:Generated_Source\PSoC4/Comm_I2C.c ****                 medianFilter = Comm_DIGITAL_FILTER_ENABLE;
 114:Generated_Source\PSoC4/Comm_I2C.c ****             }
 115:Generated_Source\PSoC4/Comm_I2C.c **** 
 116:Generated_Source\PSoC4/Comm_I2C.c ****         #if (!Comm_CY_SCBIP_V0)
 117:Generated_Source\PSoC4/Comm_I2C.c ****             locEnableWake = (Comm_I2C_MULTI_MASTER_SLAVE) ? (0u) : (config->enableWake);
 118:Generated_Source\PSoC4/Comm_I2C.c ****         #else
 119:Generated_Source\PSoC4/Comm_I2C.c ****             locEnableWake = config->enableWake;
 120:Generated_Source\PSoC4/Comm_I2C.c ****         #endif /* (!Comm_CY_SCBIP_V0) */
 121:Generated_Source\PSoC4/Comm_I2C.c **** 
 122:Generated_Source\PSoC4/Comm_I2C.c ****             /* Configure I2C interface */
 123:Generated_Source\PSoC4/Comm_I2C.c ****             Comm_CTRL_REG     = Comm_GET_CTRL_BYTE_MODE  (config->enableByteMode) |
 124:Generated_Source\PSoC4/Comm_I2C.c ****                                             Comm_GET_CTRL_ADDR_ACCEPT(config->acceptAddr)     |
 119              		.loc 1 124 0
 120 0062 A369     		ldr	r3, [r4, #24]
 119:Generated_Source\PSoC4/Comm_I2C.c ****         #endif /* (!Comm_CY_SCBIP_V0) */
 121              		.loc 1 119 0
 122 0064 E169     		ldr	r1, [r4, #28]
 123              	.LVL6:
 123:Generated_Source\PSoC4/Comm_I2C.c ****                                             Comm_GET_CTRL_ADDR_ACCEPT(config->acceptAddr)     |
 124              		.loc 1 123 0
 125 0066 002B     		cmp	r3, #0
 126 0068 01D0     		beq	.L6
 127 006a 8023     		mov	r3, #128
 128 006c 5B02     		lsl	r3, r3, #9
 129              	.L6:
 125:Generated_Source\PSoC4/Comm_I2C.c ****                                             Comm_GET_CTRL_EC_AM_MODE (locEnableWake);
 130              		.loc 1 125 0
 131 006e 4D1E     		sub	r5, r1, #1
 132 0070 A941     		sbc	r1, r1, r5
 133              	.LVL7:
 126:Generated_Source\PSoC4/Comm_I2C.c **** 
 127:Generated_Source\PSoC4/Comm_I2C.c ****             Comm_I2C_CTRL_REG = Comm_GET_I2C_CTRL_HIGH_PHASE_OVS(config->oversampleHigh) |
 134              		.loc 1 127 0
 135 0072 0F27     		mov	r7, #15
 125:Generated_Source\PSoC4/Comm_I2C.c ****                                             Comm_GET_CTRL_EC_AM_MODE (locEnableWake);
 136              		.loc 1 125 0
 137 0074 0902     		lsl	r1, r1, #8
 124:Generated_Source\PSoC4/Comm_I2C.c ****                                             Comm_GET_CTRL_EC_AM_MODE (locEnableWake);
 138              		.loc 1 124 0
 139 0076 0B43     		orr	r3, r1
 123:Generated_Source\PSoC4/Comm_I2C.c ****                                             Comm_GET_CTRL_ADDR_ACCEPT(config->acceptAddr)     |
 140              		.loc 1 123 0
ARM GAS  C:\Users\TECHCO~1\AppData\Local\Temp\ccFuWS2o.s 			page 6


 141 0078 3F49     		ldr	r1, .L31+32
 128:Generated_Source\PSoC4/Comm_I2C.c ****                     Comm_GET_I2C_CTRL_LOW_PHASE_OVS (config->oversampleLow)                        
 129:Generated_Source\PSoC4/Comm_I2C.c ****                     Comm_GET_I2C_CTRL_S_GENERAL_IGNORE((uint32)(0u == config->acceptGeneralAddr))  
 142              		.loc 1 129 0
 143 007a 651D     		add	r5, r4, #5
 123:Generated_Source\PSoC4/Comm_I2C.c ****                                             Comm_GET_CTRL_ADDR_ACCEPT(config->acceptAddr)     |
 144              		.loc 1 123 0
 145 007c 0B60     		str	r3, [r1]
 146              	.LVL8:
 127:Generated_Source\PSoC4/Comm_I2C.c ****                     Comm_GET_I2C_CTRL_LOW_PHASE_OVS (config->oversampleLow)                        
 147              		.loc 1 127 0
 148 007e A368     		ldr	r3, [r4, #8]
 149              		.loc 1 129 0
 150 0080 EE7F     		ldrb	r6, [r5, #31]
 127:Generated_Source\PSoC4/Comm_I2C.c ****                     Comm_GET_I2C_CTRL_LOW_PHASE_OVS (config->oversampleLow)                        
 151              		.loc 1 127 0
 152 0082 013B     		sub	r3, r3, #1
 153 0084 3B40     		and	r3, r7
 154 0086 9C46     		mov	ip, r3
 128:Generated_Source\PSoC4/Comm_I2C.c ****                     Comm_GET_I2C_CTRL_LOW_PHASE_OVS (config->oversampleLow)                        
 155              		.loc 1 128 0
 156 0088 6368     		ldr	r3, [r4, #4]
 157 008a 591E     		sub	r1, r3, #1
 158 008c FF23     		mov	r3, #255
 159 008e 0901     		lsl	r1, r1, #4
 160 0090 1940     		and	r1, r3
 161              		.loc 1 129 0
 162 0092 7342     		neg	r3, r6
 163 0094 7341     		adc	r3, r3, r6
 164 0096 6646     		mov	r6, ip
 130:Generated_Source\PSoC4/Comm_I2C.c ****                     Comm_GET_I2C_CTRL_SL_MSTR_MODE  (config->mode);
 165              		.loc 1 130 0
 166 0098 2768     		ldr	r7, [r4]
 129:Generated_Source\PSoC4/Comm_I2C.c ****                     Comm_GET_I2C_CTRL_SL_MSTR_MODE  (config->mode);
 167              		.loc 1 129 0
 168 009a DB02     		lsl	r3, r3, #11
 169              		.loc 1 130 0
 170 009c BF07     		lsl	r7, r7, #30
 171 009e 3743     		orr	r7, r6
 172 00a0 3943     		orr	r1, r7
 129:Generated_Source\PSoC4/Comm_I2C.c ****                     Comm_GET_I2C_CTRL_SL_MSTR_MODE  (config->mode);
 173              		.loc 1 129 0
 174 00a2 0B43     		orr	r3, r1
 127:Generated_Source\PSoC4/Comm_I2C.c ****                     Comm_GET_I2C_CTRL_LOW_PHASE_OVS (config->oversampleLow)                        
 175              		.loc 1 127 0
 176 00a4 3549     		ldr	r1, .L31+36
 177 00a6 0B60     		str	r3, [r1]
 178 00a8 3549     		ldr	r1, .L31+40
 131:Generated_Source\PSoC4/Comm_I2C.c **** 
 132:Generated_Source\PSoC4/Comm_I2C.c ****             /* Configure RX direction */
 133:Generated_Source\PSoC4/Comm_I2C.c ****             Comm_RX_CTRL_REG      = Comm_GET_RX_CTRL_MEDIAN(medianFilter) |
 179              		.loc 1 133 0
 180 00aa 0B1C     		mov	r3, r1
 181 00ac 002A     		cmp	r2, #0
 182 00ae 00D0     		beq	.L9
 183 00b0 344B     		ldr	r3, .L31+44
 184              	.L9:
ARM GAS  C:\Users\TECHCO~1\AppData\Local\Temp\ccFuWS2o.s 			page 7


 185              		.loc 1 133 0 is_stmt 0 discriminator 4
 186 00b2 354A     		ldr	r2, .L31+48
 187              	.LVL9:
 188 00b4 1360     		str	r3, [r2]
 134:Generated_Source\PSoC4/Comm_I2C.c ****                                                 Comm_I2C_RX_CTRL;
 135:Generated_Source\PSoC4/Comm_I2C.c ****             Comm_RX_FIFO_CTRL_REG = Comm_CLEAR_REG;
 189              		.loc 1 135 0 is_stmt 1 discriminator 4
 190 00b6 0023     		mov	r3, #0
 191 00b8 344A     		ldr	r2, .L31+52
 192 00ba 1360     		str	r3, [r2]
 136:Generated_Source\PSoC4/Comm_I2C.c **** 
 137:Generated_Source\PSoC4/Comm_I2C.c ****             /* Set default address and mask */
 138:Generated_Source\PSoC4/Comm_I2C.c ****             Comm_RX_MATCH_REG    = ((Comm_I2C_SLAVE) ?
 139:Generated_Source\PSoC4/Comm_I2C.c ****                                                 (Comm_GET_I2C_8BIT_ADDRESS(config->slaveAddr) |
 140:Generated_Source\PSoC4/Comm_I2C.c ****                                                  Comm_GET_RX_MATCH_MASK(config->slaveAddrMask)) :
 193              		.loc 1 140 0 discriminator 4
 194 00bc C207     		lsl	r2, r0, #31
 195 00be 09D5     		bpl	.L10
 196              		.loc 1 140 0 is_stmt 0 discriminator 1
 197 00c0 6369     		ldr	r3, [r4, #20]
 139:Generated_Source\PSoC4/Comm_I2C.c ****                                                  Comm_GET_RX_MATCH_MASK(config->slaveAddrMask)) :
 198              		.loc 1 139 0 is_stmt 1 discriminator 1
 199 00c2 FF22     		mov	r2, #255
 200              		.loc 1 140 0 discriminator 1
 201 00c4 1804     		lsl	r0, r3, #16
 202 00c6 FF23     		mov	r3, #255
 203 00c8 1B04     		lsl	r3, r3, #16
 204 00ca 1840     		and	r0, r3
 139:Generated_Source\PSoC4/Comm_I2C.c ****                                                  Comm_GET_RX_MATCH_MASK(config->slaveAddrMask)) :
 205              		.loc 1 139 0 discriminator 1
 206 00cc 2369     		ldr	r3, [r4, #16]
 207 00ce 5B00     		lsl	r3, r3, #1
 208 00d0 1340     		and	r3, r2
 209              		.loc 1 140 0 discriminator 1
 210 00d2 0343     		orr	r3, r0
 211              	.L10:
 141:Generated_Source\PSoC4/Comm_I2C.c ****                                                 (Comm_CLEAR_REG));
 142:Generated_Source\PSoC4/Comm_I2C.c **** 
 143:Generated_Source\PSoC4/Comm_I2C.c **** 
 144:Generated_Source\PSoC4/Comm_I2C.c ****             /* Configure TX direction */
 145:Generated_Source\PSoC4/Comm_I2C.c ****             Comm_TX_CTRL_REG      = Comm_I2C_TX_CTRL;
 146:Generated_Source\PSoC4/Comm_I2C.c ****             Comm_TX_FIFO_CTRL_REG = Comm_CLEAR_REG;
 212              		.loc 1 146 0
 213 00d4 0024     		mov	r4, #0
 214              	.LVL10:
 138:Generated_Source\PSoC4/Comm_I2C.c ****                                                 (Comm_GET_I2C_8BIT_ADDRESS(config->slaveAddr) |
 215              		.loc 1 138 0
 216 00d6 2E4A     		ldr	r2, .L31+56
 147:Generated_Source\PSoC4/Comm_I2C.c **** 
 148:Generated_Source\PSoC4/Comm_I2C.c ****             /* Configure interrupt with I2C handler but do not enable it */
 149:Generated_Source\PSoC4/Comm_I2C.c ****             CyIntDisable    (Comm_ISR_NUMBER);
 217              		.loc 1 149 0
 218 00d8 0A20     		mov	r0, #10
 138:Generated_Source\PSoC4/Comm_I2C.c ****                                                 (Comm_GET_I2C_8BIT_ADDRESS(config->slaveAddr) |
 219              		.loc 1 138 0
 220 00da 1360     		str	r3, [r2]
 145:Generated_Source\PSoC4/Comm_I2C.c ****             Comm_TX_FIFO_CTRL_REG = Comm_CLEAR_REG;
ARM GAS  C:\Users\TECHCO~1\AppData\Local\Temp\ccFuWS2o.s 			page 8


 221              		.loc 1 145 0
 222 00dc 2D4B     		ldr	r3, .L31+60
 223 00de 1960     		str	r1, [r3]
 146:Generated_Source\PSoC4/Comm_I2C.c **** 
 224              		.loc 1 146 0
 225 00e0 2D4B     		ldr	r3, .L31+64
 226 00e2 1C60     		str	r4, [r3]
 227              		.loc 1 149 0
 228 00e4 FFF7FEFF 		bl	CyIntDisable
 229              	.LVL11:
 150:Generated_Source\PSoC4/Comm_I2C.c ****             CyIntSetPriority(Comm_ISR_NUMBER, Comm_ISR_PRIORITY);
 230              		.loc 1 150 0
 231 00e8 0A20     		mov	r0, #10
 232 00ea 0321     		mov	r1, #3
 233 00ec FFF7FEFF 		bl	CyIntSetPriority
 234              	.LVL12:
 151:Generated_Source\PSoC4/Comm_I2C.c ****             (void) CyIntSetVector(Comm_ISR_NUMBER, &Comm_I2C_ISR);
 235              		.loc 1 151 0
 236 00f0 0A20     		mov	r0, #10
 237 00f2 2A49     		ldr	r1, .L31+68
 238 00f4 FFF7FEFF 		bl	CyIntSetVector
 239              	.LVL13:
 152:Generated_Source\PSoC4/Comm_I2C.c **** 
 153:Generated_Source\PSoC4/Comm_I2C.c ****             /* Configure interrupt sources */
 154:Generated_Source\PSoC4/Comm_I2C.c ****         #if(!Comm_CY_SCBIP_V1)
 155:Generated_Source\PSoC4/Comm_I2C.c ****             Comm_INTR_SPI_EC_MASK_REG = Comm_NO_INTR_SOURCES;
 240              		.loc 1 155 0
 241 00f8 294B     		ldr	r3, .L31+72
 242 00fa 1C60     		str	r4, [r3]
 156:Generated_Source\PSoC4/Comm_I2C.c ****         #endif /* (!Comm_CY_SCBIP_V1) */
 157:Generated_Source\PSoC4/Comm_I2C.c **** 
 158:Generated_Source\PSoC4/Comm_I2C.c ****             Comm_INTR_I2C_EC_MASK_REG = Comm_NO_INTR_SOURCES;
 243              		.loc 1 158 0
 244 00fc 294B     		ldr	r3, .L31+76
 245 00fe 1C60     		str	r4, [r3]
 159:Generated_Source\PSoC4/Comm_I2C.c ****             Comm_INTR_RX_MASK_REG     = Comm_NO_INTR_SOURCES;
 246              		.loc 1 159 0
 247 0100 294B     		ldr	r3, .L31+80
 248 0102 1C60     		str	r4, [r3]
 160:Generated_Source\PSoC4/Comm_I2C.c ****             Comm_INTR_TX_MASK_REG     = Comm_NO_INTR_SOURCES;
 249              		.loc 1 160 0
 250 0104 294B     		ldr	r3, .L31+84
 251 0106 1C60     		str	r4, [r3]
 161:Generated_Source\PSoC4/Comm_I2C.c **** 
 162:Generated_Source\PSoC4/Comm_I2C.c ****             Comm_INTR_SLAVE_MASK_REG  = ((Comm_I2C_SLAVE) ?
 252              		.loc 1 162 0
 253 0108 019B     		ldr	r3, [sp, #4]
 254 010a 1A78     		ldrb	r2, [r3]
 163:Generated_Source\PSoC4/Comm_I2C.c ****                             (Comm_GET_INTR_SLAVE_I2C_GENERAL(config->acceptGeneralAddr) |
 164:Generated_Source\PSoC4/Comm_I2C.c ****                              Comm_I2C_INTR_SLAVE_MASK) : (Comm_CLEAR_REG));
 255              		.loc 1 164 0
 256 010c D307     		lsl	r3, r2, #31
 257 010e 06D5     		bpl	.L11
 163:Generated_Source\PSoC4/Comm_I2C.c ****                             (Comm_GET_INTR_SLAVE_I2C_GENERAL(config->acceptGeneralAddr) |
 258              		.loc 1 163 0
 259 0110 EB7F     		ldrb	r3, [r5, #31]
 260 0112 A342     		cmp	r3, r4
ARM GAS  C:\Users\TECHCO~1\AppData\Local\Temp\ccFuWS2o.s 			page 9


 261 0114 01D1     		bne	.L19
 262 0116 4C24     		mov	r4, #76
 263 0118 00E0     		b	.L29
 264              	.L19:
 265 011a CC24     		mov	r4, #204
 266              	.L29:
 267 011c FF34     		add	r4, r4, #255
 268              	.L11:
 162:Generated_Source\PSoC4/Comm_I2C.c ****                             (Comm_GET_INTR_SLAVE_I2C_GENERAL(config->acceptGeneralAddr) |
 269              		.loc 1 162 0
 270 011e 244B     		ldr	r3, .L31+88
 271 0120 1C60     		str	r4, [r3]
 165:Generated_Source\PSoC4/Comm_I2C.c **** 
 166:Generated_Source\PSoC4/Comm_I2C.c ****             Comm_INTR_MASTER_MASK_REG = ((Comm_I2C_MASTER) ?
 167:Generated_Source\PSoC4/Comm_I2C.c ****                                                      (Comm_I2C_INTR_MASTER_MASK) :
 272              		.loc 1 167 0
 273 0122 0223     		mov	r3, #2
 274 0124 1340     		and	r3, r2
 275 0126 01D0     		beq	.L12
 276 0128 1423     		mov	r3, #20
 277 012a FF33     		add	r3, r3, #255
 278              	.L12:
 166:Generated_Source\PSoC4/Comm_I2C.c ****                                                      (Comm_I2C_INTR_MASTER_MASK) :
 279              		.loc 1 166 0
 280 012c 214A     		ldr	r2, .L31+92
 281 012e 1360     		str	r3, [r2]
 168:Generated_Source\PSoC4/Comm_I2C.c ****                                                      (Comm_CLEAR_REG));
 169:Generated_Source\PSoC4/Comm_I2C.c **** 
 170:Generated_Source\PSoC4/Comm_I2C.c ****             /* Configure global variables */
 171:Generated_Source\PSoC4/Comm_I2C.c ****             Comm_state = Comm_I2C_FSM_IDLE;
 282              		.loc 1 171 0
 283 0130 1022     		mov	r2, #16
 284 0132 214B     		ldr	r3, .L31+96
 285 0134 1A70     		strb	r2, [r3]
 172:Generated_Source\PSoC4/Comm_I2C.c **** 
 173:Generated_Source\PSoC4/Comm_I2C.c ****             /* Internal slave variables */
 174:Generated_Source\PSoC4/Comm_I2C.c ****             Comm_slStatus        = 0u;
 286              		.loc 1 174 0
 287 0136 0023     		mov	r3, #0
 288 0138 204A     		ldr	r2, .L31+100
 289 013a 1370     		strb	r3, [r2]
 175:Generated_Source\PSoC4/Comm_I2C.c ****             Comm_slRdBufIndex    = 0u;
 290              		.loc 1 175 0
 291 013c 204A     		ldr	r2, .L31+104
 292 013e 1360     		str	r3, [r2]
 176:Generated_Source\PSoC4/Comm_I2C.c ****             Comm_slWrBufIndex    = 0u;
 293              		.loc 1 176 0
 294 0140 204A     		ldr	r2, .L31+108
 295 0142 1360     		str	r3, [r2]
 177:Generated_Source\PSoC4/Comm_I2C.c ****             Comm_slOverFlowCount = 0u;
 296              		.loc 1 177 0
 297 0144 204A     		ldr	r2, .L31+112
 298 0146 1370     		strb	r3, [r2]
 178:Generated_Source\PSoC4/Comm_I2C.c **** 
 179:Generated_Source\PSoC4/Comm_I2C.c ****             /* Internal master variables */
 180:Generated_Source\PSoC4/Comm_I2C.c ****             Comm_mstrStatus     = 0u;
 299              		.loc 1 180 0
ARM GAS  C:\Users\TECHCO~1\AppData\Local\Temp\ccFuWS2o.s 			page 10


 300 0148 204A     		ldr	r2, .L31+116
 301 014a 1380     		strh	r3, [r2]
 181:Generated_Source\PSoC4/Comm_I2C.c ****             Comm_mstrRdBufIndex = 0u;
 302              		.loc 1 181 0
 303 014c 204A     		ldr	r2, .L31+120
 304 014e 1360     		str	r3, [r2]
 182:Generated_Source\PSoC4/Comm_I2C.c ****             Comm_mstrWrBufIndex = 0u;
 305              		.loc 1 182 0
 306 0150 204A     		ldr	r2, .L31+124
 307 0152 1360     		str	r3, [r2]
 308              	.LVL14:
 309              	.L1:
 183:Generated_Source\PSoC4/Comm_I2C.c ****         }
 184:Generated_Source\PSoC4/Comm_I2C.c ****     }
 310              		.loc 1 184 0
 311              		@ sp needed
 312 0154 F7BD     		pop	{r0, r1, r2, r4, r5, r6, r7, pc}
 313              	.L32:
 314 0156 C046     		.align	2
 315              	.L31:
 316 0158 00000000 		.word	Comm_scbMode
 317 015c 00000000 		.word	Comm_scbEnableWake
 318 0160 00000000 		.word	Comm_mode
 319 0164 00000000 		.word	Comm_scbEnableIntr
 320 0168 00000000 		.word	Comm_acceptAddr
 321 016c 70000640 		.word	1074135152
 322 0170 00000202 		.word	33685504
 323 0174 FFFFFDFD 		.word	-33685505
 324 0178 00000640 		.word	1074135040
 325 017c 60000640 		.word	1074135136
 326 0180 07010080 		.word	-2147483385
 327 0184 07030080 		.word	-2147482873
 328 0188 00030640 		.word	1074135808
 329 018c 04030640 		.word	1074135812
 330 0190 10030640 		.word	1074135824
 331 0194 00020640 		.word	1074135552
 332 0198 04020640 		.word	1074135556
 333 019c 00000000 		.word	Comm_I2C_ISR
 334 01a0 C80E0640 		.word	1074138824
 335 01a4 880E0640 		.word	1074138760
 336 01a8 C80F0640 		.word	1074139080
 337 01ac 880F0640 		.word	1074139016
 338 01b0 480F0640 		.word	1074138952
 339 01b4 080F0640 		.word	1074138888
 340 01b8 00000000 		.word	Comm_state
 341 01bc 00000000 		.word	Comm_slStatus
 342 01c0 00000000 		.word	Comm_slRdBufIndex
 343 01c4 00000000 		.word	Comm_slWrBufIndex
 344 01c8 00000000 		.word	Comm_slOverFlowCount
 345 01cc 00000000 		.word	Comm_mstrStatus
 346 01d0 00000000 		.word	Comm_mstrRdBufIndex
 347 01d4 00000000 		.word	Comm_mstrWrBufIndex
 348              		.cfi_endproc
 349              	.LFE0:
 350              		.size	Comm_I2CInit, .-Comm_I2CInit
 351              		.section	.text.Comm_I2CStop,"ax",%progbits
 352              		.align	1
ARM GAS  C:\Users\TECHCO~1\AppData\Local\Temp\ccFuWS2o.s 			page 11


 353              		.global	Comm_I2CStop
 354              		.code	16
 355              		.thumb_func
 356              		.type	Comm_I2CStop, %function
 357              	Comm_I2CStop:
 358              	.LFB1:
 185:Generated_Source\PSoC4/Comm_I2C.c **** 
 186:Generated_Source\PSoC4/Comm_I2C.c **** #else
 187:Generated_Source\PSoC4/Comm_I2C.c **** 
 188:Generated_Source\PSoC4/Comm_I2C.c ****     /*******************************************************************************
 189:Generated_Source\PSoC4/Comm_I2C.c ****     * Function Name: Comm_I2CInit
 190:Generated_Source\PSoC4/Comm_I2C.c ****     ****************************************************************************//**
 191:Generated_Source\PSoC4/Comm_I2C.c ****     *
 192:Generated_Source\PSoC4/Comm_I2C.c ****     *  Configures the SCB for the I2C operation.
 193:Generated_Source\PSoC4/Comm_I2C.c ****     *
 194:Generated_Source\PSoC4/Comm_I2C.c ****     *******************************************************************************/
 195:Generated_Source\PSoC4/Comm_I2C.c ****     void Comm_I2CInit(void)
 196:Generated_Source\PSoC4/Comm_I2C.c ****     {
 197:Generated_Source\PSoC4/Comm_I2C.c ****     #if(Comm_CY_SCBIP_V0)
 198:Generated_Source\PSoC4/Comm_I2C.c ****         /* Adjust SDA filter settings. Ticket ID#150521 */
 199:Generated_Source\PSoC4/Comm_I2C.c ****         Comm_SET_I2C_CFG_SDA_FILT_TRIM(Comm_EC_AM_I2C_CFG_SDA_FILT_TRIM);
 200:Generated_Source\PSoC4/Comm_I2C.c ****     #endif /* (Comm_CY_SCBIP_V0) */
 201:Generated_Source\PSoC4/Comm_I2C.c **** 
 202:Generated_Source\PSoC4/Comm_I2C.c ****         /* Adjust AF and DF filter settings. Ticket ID#176179 */
 203:Generated_Source\PSoC4/Comm_I2C.c ****         Comm_I2C_CFG_ANALOG_FITER_ENABLE_ADJ;
 204:Generated_Source\PSoC4/Comm_I2C.c **** 
 205:Generated_Source\PSoC4/Comm_I2C.c ****         /* Configure I2C interface */
 206:Generated_Source\PSoC4/Comm_I2C.c ****         Comm_CTRL_REG     = Comm_I2C_DEFAULT_CTRL;
 207:Generated_Source\PSoC4/Comm_I2C.c ****         Comm_I2C_CTRL_REG = Comm_I2C_DEFAULT_I2C_CTRL;
 208:Generated_Source\PSoC4/Comm_I2C.c **** 
 209:Generated_Source\PSoC4/Comm_I2C.c ****         /* Configure RX direction */
 210:Generated_Source\PSoC4/Comm_I2C.c ****         Comm_RX_CTRL_REG      = Comm_I2C_DEFAULT_RX_CTRL;
 211:Generated_Source\PSoC4/Comm_I2C.c ****         Comm_RX_FIFO_CTRL_REG = Comm_I2C_DEFAULT_RX_FIFO_CTRL;
 212:Generated_Source\PSoC4/Comm_I2C.c **** 
 213:Generated_Source\PSoC4/Comm_I2C.c ****         /* Set default address and mask */
 214:Generated_Source\PSoC4/Comm_I2C.c ****         Comm_RX_MATCH_REG     = Comm_I2C_DEFAULT_RX_MATCH;
 215:Generated_Source\PSoC4/Comm_I2C.c **** 
 216:Generated_Source\PSoC4/Comm_I2C.c ****         /* Configure TX direction */
 217:Generated_Source\PSoC4/Comm_I2C.c ****         Comm_TX_CTRL_REG      = Comm_I2C_DEFAULT_TX_CTRL;
 218:Generated_Source\PSoC4/Comm_I2C.c ****         Comm_TX_FIFO_CTRL_REG = Comm_I2C_DEFAULT_TX_FIFO_CTRL;
 219:Generated_Source\PSoC4/Comm_I2C.c **** 
 220:Generated_Source\PSoC4/Comm_I2C.c ****         /* Configure interrupt with I2C handler but do not enable it */
 221:Generated_Source\PSoC4/Comm_I2C.c ****         CyIntDisable    (Comm_ISR_NUMBER);
 222:Generated_Source\PSoC4/Comm_I2C.c ****         CyIntSetPriority(Comm_ISR_NUMBER, Comm_ISR_PRIORITY);
 223:Generated_Source\PSoC4/Comm_I2C.c ****     #if(!Comm_I2C_EXTERN_INTR_HANDLER)
 224:Generated_Source\PSoC4/Comm_I2C.c ****         (void) CyIntSetVector(Comm_ISR_NUMBER, &Comm_I2C_ISR);
 225:Generated_Source\PSoC4/Comm_I2C.c ****     #endif /* (Comm_I2C_EXTERN_INTR_HANDLER) */
 226:Generated_Source\PSoC4/Comm_I2C.c **** 
 227:Generated_Source\PSoC4/Comm_I2C.c ****         /* Configure interrupt sources */
 228:Generated_Source\PSoC4/Comm_I2C.c ****     #if(!Comm_CY_SCBIP_V1)
 229:Generated_Source\PSoC4/Comm_I2C.c ****         Comm_INTR_SPI_EC_MASK_REG = Comm_I2C_DEFAULT_INTR_SPI_EC_MASK;
 230:Generated_Source\PSoC4/Comm_I2C.c ****     #endif /* (!Comm_CY_SCBIP_V1) */
 231:Generated_Source\PSoC4/Comm_I2C.c **** 
 232:Generated_Source\PSoC4/Comm_I2C.c ****         Comm_INTR_I2C_EC_MASK_REG = Comm_I2C_DEFAULT_INTR_I2C_EC_MASK;
 233:Generated_Source\PSoC4/Comm_I2C.c ****         Comm_INTR_SLAVE_MASK_REG  = Comm_I2C_DEFAULT_INTR_SLAVE_MASK;
 234:Generated_Source\PSoC4/Comm_I2C.c ****         Comm_INTR_MASTER_MASK_REG = Comm_I2C_DEFAULT_INTR_MASTER_MASK;
 235:Generated_Source\PSoC4/Comm_I2C.c ****         Comm_INTR_RX_MASK_REG     = Comm_I2C_DEFAULT_INTR_RX_MASK;
ARM GAS  C:\Users\TECHCO~1\AppData\Local\Temp\ccFuWS2o.s 			page 12


 236:Generated_Source\PSoC4/Comm_I2C.c ****         Comm_INTR_TX_MASK_REG     = Comm_I2C_DEFAULT_INTR_TX_MASK;
 237:Generated_Source\PSoC4/Comm_I2C.c **** 
 238:Generated_Source\PSoC4/Comm_I2C.c ****         /* Configure global variables */
 239:Generated_Source\PSoC4/Comm_I2C.c ****         Comm_state = Comm_I2C_FSM_IDLE;
 240:Generated_Source\PSoC4/Comm_I2C.c **** 
 241:Generated_Source\PSoC4/Comm_I2C.c ****     #if(Comm_I2C_SLAVE)
 242:Generated_Source\PSoC4/Comm_I2C.c ****         /* Internal slave variable */
 243:Generated_Source\PSoC4/Comm_I2C.c ****         Comm_slStatus        = 0u;
 244:Generated_Source\PSoC4/Comm_I2C.c ****         Comm_slRdBufIndex    = 0u;
 245:Generated_Source\PSoC4/Comm_I2C.c ****         Comm_slWrBufIndex    = 0u;
 246:Generated_Source\PSoC4/Comm_I2C.c ****         Comm_slOverFlowCount = 0u;
 247:Generated_Source\PSoC4/Comm_I2C.c ****     #endif /* (Comm_I2C_SLAVE) */
 248:Generated_Source\PSoC4/Comm_I2C.c **** 
 249:Generated_Source\PSoC4/Comm_I2C.c ****     #if(Comm_I2C_MASTER)
 250:Generated_Source\PSoC4/Comm_I2C.c ****     /* Internal master variable */
 251:Generated_Source\PSoC4/Comm_I2C.c ****         Comm_mstrStatus     = 0u;
 252:Generated_Source\PSoC4/Comm_I2C.c ****         Comm_mstrRdBufIndex = 0u;
 253:Generated_Source\PSoC4/Comm_I2C.c ****         Comm_mstrWrBufIndex = 0u;
 254:Generated_Source\PSoC4/Comm_I2C.c ****     #endif /* (Comm_I2C_MASTER) */
 255:Generated_Source\PSoC4/Comm_I2C.c ****     }
 256:Generated_Source\PSoC4/Comm_I2C.c **** #endif /* (Comm_SCB_MODE_UNCONFIG_CONST_CFG) */
 257:Generated_Source\PSoC4/Comm_I2C.c **** 
 258:Generated_Source\PSoC4/Comm_I2C.c **** 
 259:Generated_Source\PSoC4/Comm_I2C.c **** /*******************************************************************************
 260:Generated_Source\PSoC4/Comm_I2C.c **** * Function Name: Comm_I2CStop
 261:Generated_Source\PSoC4/Comm_I2C.c **** ****************************************************************************//**
 262:Generated_Source\PSoC4/Comm_I2C.c **** *
 263:Generated_Source\PSoC4/Comm_I2C.c **** *  Resets the I2C FSM into the default state.
 264:Generated_Source\PSoC4/Comm_I2C.c **** *
 265:Generated_Source\PSoC4/Comm_I2C.c **** *******************************************************************************/
 266:Generated_Source\PSoC4/Comm_I2C.c **** void Comm_I2CStop(void)
 267:Generated_Source\PSoC4/Comm_I2C.c **** {
 359              		.loc 1 267 0
 360              		.cfi_startproc
 268:Generated_Source\PSoC4/Comm_I2C.c ****     Comm_state = Comm_I2C_FSM_IDLE;
 361              		.loc 1 268 0
 362 0000 1022     		mov	r2, #16
 363 0002 014B     		ldr	r3, .L34
 269:Generated_Source\PSoC4/Comm_I2C.c **** }
 364              		.loc 1 269 0
 365              		@ sp needed
 268:Generated_Source\PSoC4/Comm_I2C.c ****     Comm_state = Comm_I2C_FSM_IDLE;
 366              		.loc 1 268 0
 367 0004 1A70     		strb	r2, [r3]
 368              		.loc 1 269 0
 369 0006 7047     		bx	lr
 370              	.L35:
 371              		.align	2
 372              	.L34:
 373 0008 00000000 		.word	Comm_state
 374              		.cfi_endproc
 375              	.LFE1:
 376              		.size	Comm_I2CStop, .-Comm_I2CStop
 377              		.section	.text.Comm_I2CSaveConfig,"ax",%progbits
 378              		.align	1
 379              		.global	Comm_I2CSaveConfig
 380              		.code	16
ARM GAS  C:\Users\TECHCO~1\AppData\Local\Temp\ccFuWS2o.s 			page 13


 381              		.thumb_func
 382              		.type	Comm_I2CSaveConfig, %function
 383              	Comm_I2CSaveConfig:
 384              	.LFB2:
 270:Generated_Source\PSoC4/Comm_I2C.c **** 
 271:Generated_Source\PSoC4/Comm_I2C.c **** 
 272:Generated_Source\PSoC4/Comm_I2C.c **** #if(Comm_I2C_WAKE_ENABLE_CONST)
 273:Generated_Source\PSoC4/Comm_I2C.c ****     /*******************************************************************************
 274:Generated_Source\PSoC4/Comm_I2C.c ****     * Function Name: Comm_I2CSaveConfig
 275:Generated_Source\PSoC4/Comm_I2C.c ****     ****************************************************************************//**
 276:Generated_Source\PSoC4/Comm_I2C.c ****     *
 277:Generated_Source\PSoC4/Comm_I2C.c ****     *  Enables Comm_INTR_I2C_EC_WAKE_UP interrupt source. This interrupt
 278:Generated_Source\PSoC4/Comm_I2C.c ****     *  triggers on address match and wakes up device.
 279:Generated_Source\PSoC4/Comm_I2C.c ****     *
 280:Generated_Source\PSoC4/Comm_I2C.c ****     *******************************************************************************/
 281:Generated_Source\PSoC4/Comm_I2C.c ****     void Comm_I2CSaveConfig(void)
 282:Generated_Source\PSoC4/Comm_I2C.c ****     {
 385              		.loc 1 282 0
 386              		.cfi_startproc
 283:Generated_Source\PSoC4/Comm_I2C.c ****     #if (!Comm_CY_SCBIP_V0)
 284:Generated_Source\PSoC4/Comm_I2C.c ****         #if (Comm_I2C_MULTI_MASTER_SLAVE_CONST && Comm_I2C_WAKE_ENABLE_CONST)
 285:Generated_Source\PSoC4/Comm_I2C.c ****             /* Enable externally clocked address match if it was not enabled before.
 286:Generated_Source\PSoC4/Comm_I2C.c ****             * This applicable only for Multi-Master-Slave. Ticket ID#192742 */
 287:Generated_Source\PSoC4/Comm_I2C.c ****             if (0u == (Comm_CTRL_REG & Comm_CTRL_EC_AM_MODE))
 288:Generated_Source\PSoC4/Comm_I2C.c ****             {
 289:Generated_Source\PSoC4/Comm_I2C.c ****                 /* Enable external address match logic */
 290:Generated_Source\PSoC4/Comm_I2C.c ****                 Comm_Stop();
 291:Generated_Source\PSoC4/Comm_I2C.c ****                 Comm_CTRL_REG |= Comm_CTRL_EC_AM_MODE;
 292:Generated_Source\PSoC4/Comm_I2C.c ****                 Comm_Enable();
 293:Generated_Source\PSoC4/Comm_I2C.c ****             }
 294:Generated_Source\PSoC4/Comm_I2C.c ****         #endif /* (Comm_I2C_MULTI_MASTER_SLAVE_CONST) */
 295:Generated_Source\PSoC4/Comm_I2C.c **** 
 296:Generated_Source\PSoC4/Comm_I2C.c ****         #if (Comm_SCB_CLK_INTERNAL)
 297:Generated_Source\PSoC4/Comm_I2C.c ****             /* Disable clock to internal address match logic. Ticket ID#187931 */
 298:Generated_Source\PSoC4/Comm_I2C.c ****             Comm_SCBCLK_Stop();
 299:Generated_Source\PSoC4/Comm_I2C.c ****         #endif /* (Comm_SCB_CLK_INTERNAL) */
 300:Generated_Source\PSoC4/Comm_I2C.c ****     #endif /* (!Comm_CY_SCBIP_V0) */
 301:Generated_Source\PSoC4/Comm_I2C.c **** 
 302:Generated_Source\PSoC4/Comm_I2C.c ****         Comm_SetI2CExtClkInterruptMode(Comm_INTR_I2C_EC_WAKE_UP);
 387              		.loc 1 302 0
 388 0000 0122     		mov	r2, #1
 389 0002 014B     		ldr	r3, .L37
 303:Generated_Source\PSoC4/Comm_I2C.c ****     }
 390              		.loc 1 303 0
 391              		@ sp needed
 302:Generated_Source\PSoC4/Comm_I2C.c ****     }
 392              		.loc 1 302 0
 393 0004 1A60     		str	r2, [r3]
 394              		.loc 1 303 0
 395 0006 7047     		bx	lr
 396              	.L38:
 397              		.align	2
 398              	.L37:
 399 0008 880E0640 		.word	1074138760
 400              		.cfi_endproc
 401              	.LFE2:
 402              		.size	Comm_I2CSaveConfig, .-Comm_I2CSaveConfig
ARM GAS  C:\Users\TECHCO~1\AppData\Local\Temp\ccFuWS2o.s 			page 14


 403              		.section	.text.Comm_I2CRestoreConfig,"ax",%progbits
 404              		.align	1
 405              		.global	Comm_I2CRestoreConfig
 406              		.code	16
 407              		.thumb_func
 408              		.type	Comm_I2CRestoreConfig, %function
 409              	Comm_I2CRestoreConfig:
 410              	.LFB3:
 304:Generated_Source\PSoC4/Comm_I2C.c **** 
 305:Generated_Source\PSoC4/Comm_I2C.c **** 
 306:Generated_Source\PSoC4/Comm_I2C.c ****     /*******************************************************************************
 307:Generated_Source\PSoC4/Comm_I2C.c ****     * Function Name: Comm_I2CRestoreConfig
 308:Generated_Source\PSoC4/Comm_I2C.c ****     ****************************************************************************//**
 309:Generated_Source\PSoC4/Comm_I2C.c ****     *
 310:Generated_Source\PSoC4/Comm_I2C.c ****     *  Disables Comm_INTR_I2C_EC_WAKE_UP interrupt source. This interrupt
 311:Generated_Source\PSoC4/Comm_I2C.c ****     *  triggers on address match and wakes up device.
 312:Generated_Source\PSoC4/Comm_I2C.c ****     *
 313:Generated_Source\PSoC4/Comm_I2C.c ****     *******************************************************************************/
 314:Generated_Source\PSoC4/Comm_I2C.c ****     void Comm_I2CRestoreConfig(void)
 315:Generated_Source\PSoC4/Comm_I2C.c ****     {
 411              		.loc 1 315 0
 412              		.cfi_startproc
 316:Generated_Source\PSoC4/Comm_I2C.c ****         /* Disable wakeup interrupt on address match */
 317:Generated_Source\PSoC4/Comm_I2C.c ****         Comm_SetI2CExtClkInterruptMode(Comm_NO_INTR_SOURCES);
 413              		.loc 1 317 0
 414 0000 0022     		mov	r2, #0
 415 0002 014B     		ldr	r3, .L40
 318:Generated_Source\PSoC4/Comm_I2C.c **** 
 319:Generated_Source\PSoC4/Comm_I2C.c ****     #if (!Comm_CY_SCBIP_V0)
 320:Generated_Source\PSoC4/Comm_I2C.c ****         #if (Comm_SCB_CLK_INTERNAL)
 321:Generated_Source\PSoC4/Comm_I2C.c ****             /* Enable clock to internal address match logic. Ticket ID#187931 */
 322:Generated_Source\PSoC4/Comm_I2C.c ****             Comm_SCBCLK_Start();
 323:Generated_Source\PSoC4/Comm_I2C.c ****         #endif /* (Comm_SCB_CLK_INTERNAL) */
 324:Generated_Source\PSoC4/Comm_I2C.c ****     #endif /* (!Comm_CY_SCBIP_V0) */
 325:Generated_Source\PSoC4/Comm_I2C.c ****     }
 416              		.loc 1 325 0
 417              		@ sp needed
 317:Generated_Source\PSoC4/Comm_I2C.c **** 
 418              		.loc 1 317 0
 419 0004 1A60     		str	r2, [r3]
 420              		.loc 1 325 0
 421 0006 7047     		bx	lr
 422              	.L41:
 423              		.align	2
 424              	.L40:
 425 0008 880E0640 		.word	1074138760
 426              		.cfi_endproc
 427              	.LFE3:
 428              		.size	Comm_I2CRestoreConfig, .-Comm_I2CRestoreConfig
 429              		.global	Comm_configI2C
 430              		.comm	Comm_state,1,1
 431              		.section	.rodata
 432              		.align	2
 433              		.type	Comm_configI2C, %object
 434              		.size	Comm_configI2C, 40
 435              	Comm_configI2C:
 436 0000 01000000 		.word	1
ARM GAS  C:\Users\TECHCO~1\AppData\Local\Temp\ccFuWS2o.s 			page 15


 437 0004 08000000 		.word	8
 438 0008 08000000 		.word	8
 439 000c 01000000 		.word	1
 440 0010 08000000 		.word	8
 441 0014 FE000000 		.word	254
 442 0018 00000000 		.word	0
 443 001c 00000000 		.word	0
 444 0020 00       		.byte	0
 445 0021 00       		.space	1
 446 0022 6400     		.short	100
 447 0024 00       		.byte	0
 448 0025 000000   		.space	3
 449              		.text
 450              	.Letext0:
 451              		.file 2 "Generated_Source\\PSoC4/cytypes.h"
 452              		.file 3 "Generated_Source\\PSoC4\\Comm_I2C.h"
 453              		.file 4 "Generated_Source\\PSoC4\\Comm_PVT.h"
 454              		.file 5 "Generated_Source\\PSoC4\\Comm_I2C_PVT.h"
 455              		.file 6 "Generated_Source\\PSoC4/CyLib.h"