ARM GAS  C:\Users\TECHCO~1\AppData\Local\Temp\ccMNJAoI.s 			page 1


   1              		.cpu cortex-m0
   2              		.fpu softvfp
   3              		.eabi_attribute 20, 1
   4              		.eabi_attribute 21, 1
   5              		.eabi_attribute 23, 3
   6              		.eabi_attribute 24, 1
   7              		.eabi_attribute 25, 1
   8              		.eabi_attribute 26, 1
   9              		.eabi_attribute 30, 4
  10              		.eabi_attribute 34, 0
  11              		.eabi_attribute 18, 4
  12              		.code	16
  13              		.file	"cyfitter_cfg.c"
  14              		.text
  15              	.Ltext0:
  16              		.cfi_sections	.debug_frame
  17              		.section	.psocinit,"ax",%progbits
  18              		.align	1
  19              		.global	cyfitter_cfg
  20              		.code	16
  21              		.thumb_func
  22              		.type	cyfitter_cfg, %function
  23              	cyfitter_cfg:
  24              	.LFB6:
  25              		.file 1 "Generated_Source\\PSoC4\\cyfitter_cfg.c"
   1:Generated_Source\PSoC4/cyfitter_cfg.c **** /*******************************************************************************
   2:Generated_Source\PSoC4/cyfitter_cfg.c **** * File Name: cyfitter_cfg.c
   3:Generated_Source\PSoC4/cyfitter_cfg.c **** * 
   4:Generated_Source\PSoC4/cyfitter_cfg.c **** * PSoC Creator  4.0
   5:Generated_Source\PSoC4/cyfitter_cfg.c **** *
   6:Generated_Source\PSoC4/cyfitter_cfg.c **** * Description:
   7:Generated_Source\PSoC4/cyfitter_cfg.c **** * This file contains device initialization code.
   8:Generated_Source\PSoC4/cyfitter_cfg.c **** * Except for the user defined sections in CyClockStartupError(), this file should not be modified.
   9:Generated_Source\PSoC4/cyfitter_cfg.c **** * This file is automatically generated by PSoC Creator.
  10:Generated_Source\PSoC4/cyfitter_cfg.c **** *
  11:Generated_Source\PSoC4/cyfitter_cfg.c **** ********************************************************************************
  12:Generated_Source\PSoC4/cyfitter_cfg.c **** * Copyright (c) 2007-2016 Cypress Semiconductor.  All rights reserved.
  13:Generated_Source\PSoC4/cyfitter_cfg.c **** * You may use this file only in accordance with the license, terms, conditions, 
  14:Generated_Source\PSoC4/cyfitter_cfg.c **** * disclaimers, and limitations in the end user license agreement accompanying 
  15:Generated_Source\PSoC4/cyfitter_cfg.c **** * the software package with which this file was provided.
  16:Generated_Source\PSoC4/cyfitter_cfg.c **** ********************************************************************************/
  17:Generated_Source\PSoC4/cyfitter_cfg.c **** 
  18:Generated_Source\PSoC4/cyfitter_cfg.c **** #include <string.h>
  19:Generated_Source\PSoC4/cyfitter_cfg.c **** #include "cytypes.h"
  20:Generated_Source\PSoC4/cyfitter_cfg.c **** #include "cydevice_trm.h"
  21:Generated_Source\PSoC4/cyfitter_cfg.c **** #include "cyfitter.h"
  22:Generated_Source\PSoC4/cyfitter_cfg.c **** #include "CyLib.h"
  23:Generated_Source\PSoC4/cyfitter_cfg.c **** #include "cyfitter_cfg.h"
  24:Generated_Source\PSoC4/cyfitter_cfg.c **** 
  25:Generated_Source\PSoC4/cyfitter_cfg.c **** 
  26:Generated_Source\PSoC4/cyfitter_cfg.c **** #if defined(__GNUC__) || defined(__ARMCC_VERSION)
  27:Generated_Source\PSoC4/cyfitter_cfg.c ****     #define CYPACKED 
  28:Generated_Source\PSoC4/cyfitter_cfg.c ****     #define CYPACKED_ATTR __attribute__ ((packed))
  29:Generated_Source\PSoC4/cyfitter_cfg.c ****     #define CYALIGNED __attribute__ ((aligned))
  30:Generated_Source\PSoC4/cyfitter_cfg.c ****     #define CY_CFG_UNUSED __attribute__ ((unused))
  31:Generated_Source\PSoC4/cyfitter_cfg.c ****     #ifndef CY_CFG_SECTION
  32:Generated_Source\PSoC4/cyfitter_cfg.c ****         #define CY_CFG_SECTION __attribute__ ((section(".psocinit")))
ARM GAS  C:\Users\TECHCO~1\AppData\Local\Temp\ccMNJAoI.s 			page 2


  33:Generated_Source\PSoC4/cyfitter_cfg.c ****     #endif
  34:Generated_Source\PSoC4/cyfitter_cfg.c ****     
  35:Generated_Source\PSoC4/cyfitter_cfg.c ****     #if defined(__ARMCC_VERSION)
  36:Generated_Source\PSoC4/cyfitter_cfg.c ****         #define CY_CFG_MEMORY_BARRIER() __memory_changed()
  37:Generated_Source\PSoC4/cyfitter_cfg.c ****     #else
  38:Generated_Source\PSoC4/cyfitter_cfg.c ****         #define CY_CFG_MEMORY_BARRIER() __sync_synchronize()
  39:Generated_Source\PSoC4/cyfitter_cfg.c ****     #endif
  40:Generated_Source\PSoC4/cyfitter_cfg.c ****     
  41:Generated_Source\PSoC4/cyfitter_cfg.c **** #elif defined(__ICCARM__)
  42:Generated_Source\PSoC4/cyfitter_cfg.c ****     #include <intrinsics.h>
  43:Generated_Source\PSoC4/cyfitter_cfg.c **** 
  44:Generated_Source\PSoC4/cyfitter_cfg.c ****     #define CYPACKED __packed
  45:Generated_Source\PSoC4/cyfitter_cfg.c ****     #define CYPACKED_ATTR 
  46:Generated_Source\PSoC4/cyfitter_cfg.c ****     #define CYALIGNED _Pragma("data_alignment=4")
  47:Generated_Source\PSoC4/cyfitter_cfg.c ****     #define CY_CFG_UNUSED _Pragma("diag_suppress=Pe177")
  48:Generated_Source\PSoC4/cyfitter_cfg.c ****     #define CY_CFG_SECTION _Pragma("location=\".psocinit\"")
  49:Generated_Source\PSoC4/cyfitter_cfg.c ****     
  50:Generated_Source\PSoC4/cyfitter_cfg.c ****     #define CY_CFG_MEMORY_BARRIER() __DMB()
  51:Generated_Source\PSoC4/cyfitter_cfg.c ****     
  52:Generated_Source\PSoC4/cyfitter_cfg.c **** #else
  53:Generated_Source\PSoC4/cyfitter_cfg.c ****     #error Unsupported toolchain
  54:Generated_Source\PSoC4/cyfitter_cfg.c **** #endif
  55:Generated_Source\PSoC4/cyfitter_cfg.c **** 
  56:Generated_Source\PSoC4/cyfitter_cfg.c **** 
  57:Generated_Source\PSoC4/cyfitter_cfg.c **** CY_CFG_UNUSED
  58:Generated_Source\PSoC4/cyfitter_cfg.c **** static void CYMEMZERO(void *s, size_t n);
  59:Generated_Source\PSoC4/cyfitter_cfg.c **** CY_CFG_UNUSED
  60:Generated_Source\PSoC4/cyfitter_cfg.c **** static void CYMEMZERO(void *s, size_t n)
  61:Generated_Source\PSoC4/cyfitter_cfg.c **** {
  62:Generated_Source\PSoC4/cyfitter_cfg.c **** 	(void)memset(s, 0, n);
  63:Generated_Source\PSoC4/cyfitter_cfg.c **** }
  64:Generated_Source\PSoC4/cyfitter_cfg.c **** CY_CFG_UNUSED
  65:Generated_Source\PSoC4/cyfitter_cfg.c **** static void CYCONFIGCPY(void *dest, const void *src, size_t n);
  66:Generated_Source\PSoC4/cyfitter_cfg.c **** CY_CFG_UNUSED
  67:Generated_Source\PSoC4/cyfitter_cfg.c **** static void CYCONFIGCPY(void *dest, const void *src, size_t n)
  68:Generated_Source\PSoC4/cyfitter_cfg.c **** {
  69:Generated_Source\PSoC4/cyfitter_cfg.c **** 	(void)memcpy(dest, src, n);
  70:Generated_Source\PSoC4/cyfitter_cfg.c **** }
  71:Generated_Source\PSoC4/cyfitter_cfg.c **** CY_CFG_UNUSED
  72:Generated_Source\PSoC4/cyfitter_cfg.c **** static void CYCONFIGCPYCODE(void *dest, const void *src, size_t n);
  73:Generated_Source\PSoC4/cyfitter_cfg.c **** CY_CFG_UNUSED
  74:Generated_Source\PSoC4/cyfitter_cfg.c **** static void CYCONFIGCPYCODE(void *dest, const void *src, size_t n)
  75:Generated_Source\PSoC4/cyfitter_cfg.c **** {
  76:Generated_Source\PSoC4/cyfitter_cfg.c **** 	(void)memcpy(dest, src, n);
  77:Generated_Source\PSoC4/cyfitter_cfg.c **** }
  78:Generated_Source\PSoC4/cyfitter_cfg.c **** 
  79:Generated_Source\PSoC4/cyfitter_cfg.c **** 
  80:Generated_Source\PSoC4/cyfitter_cfg.c **** 
  81:Generated_Source\PSoC4/cyfitter_cfg.c **** 
  82:Generated_Source\PSoC4/cyfitter_cfg.c **** /* Clock startup error codes                                                   */
  83:Generated_Source\PSoC4/cyfitter_cfg.c **** #define CYCLOCKSTART_NO_ERROR    0u
  84:Generated_Source\PSoC4/cyfitter_cfg.c **** #define CYCLOCKSTART_XTAL_ERROR  1u
  85:Generated_Source\PSoC4/cyfitter_cfg.c **** #define CYCLOCKSTART_32KHZ_ERROR 2u
  86:Generated_Source\PSoC4/cyfitter_cfg.c **** #define CYCLOCKSTART_PLL_ERROR   3u
  87:Generated_Source\PSoC4/cyfitter_cfg.c **** 
  88:Generated_Source\PSoC4/cyfitter_cfg.c **** 
  89:Generated_Source\PSoC4/cyfitter_cfg.c **** #ifdef CY_NEED_CYCLOCKSTARTUPERROR
ARM GAS  C:\Users\TECHCO~1\AppData\Local\Temp\ccMNJAoI.s 			page 3


  90:Generated_Source\PSoC4/cyfitter_cfg.c **** /*******************************************************************************
  91:Generated_Source\PSoC4/cyfitter_cfg.c **** * Function Name: CyClockStartupError
  92:Generated_Source\PSoC4/cyfitter_cfg.c **** ********************************************************************************
  93:Generated_Source\PSoC4/cyfitter_cfg.c **** * Summary:
  94:Generated_Source\PSoC4/cyfitter_cfg.c **** *  If an error is encountered during clock configuration (crystal startup error,
  95:Generated_Source\PSoC4/cyfitter_cfg.c **** *  PLL lock error, etc.), the system will end up here.  Unless reimplemented by
  96:Generated_Source\PSoC4/cyfitter_cfg.c **** *  the customer, this function will stop in an infinite loop.
  97:Generated_Source\PSoC4/cyfitter_cfg.c **** *
  98:Generated_Source\PSoC4/cyfitter_cfg.c **** * Parameters:
  99:Generated_Source\PSoC4/cyfitter_cfg.c **** *   void
 100:Generated_Source\PSoC4/cyfitter_cfg.c **** *
 101:Generated_Source\PSoC4/cyfitter_cfg.c **** * Return:
 102:Generated_Source\PSoC4/cyfitter_cfg.c **** *   void
 103:Generated_Source\PSoC4/cyfitter_cfg.c **** *
 104:Generated_Source\PSoC4/cyfitter_cfg.c **** *******************************************************************************/
 105:Generated_Source\PSoC4/cyfitter_cfg.c **** CY_CFG_UNUSED
 106:Generated_Source\PSoC4/cyfitter_cfg.c **** static void CyClockStartupError(uint8 errorCode);
 107:Generated_Source\PSoC4/cyfitter_cfg.c **** CY_CFG_UNUSED
 108:Generated_Source\PSoC4/cyfitter_cfg.c **** static void CyClockStartupError(uint8 errorCode)
 109:Generated_Source\PSoC4/cyfitter_cfg.c **** {
 110:Generated_Source\PSoC4/cyfitter_cfg.c ****     /* To remove the compiler warning if errorCode not used.                */
 111:Generated_Source\PSoC4/cyfitter_cfg.c ****     errorCode = errorCode;
 112:Generated_Source\PSoC4/cyfitter_cfg.c **** 
 113:Generated_Source\PSoC4/cyfitter_cfg.c ****     /* If we have a clock startup error (bad MHz crystal, PLL lock, etc.),  */
 114:Generated_Source\PSoC4/cyfitter_cfg.c ****     /* we will end up here to allow the customer to implement something to  */
 115:Generated_Source\PSoC4/cyfitter_cfg.c ****     /* deal with the clock condition.                                       */
 116:Generated_Source\PSoC4/cyfitter_cfg.c **** 
 117:Generated_Source\PSoC4/cyfitter_cfg.c **** #ifdef CY_CFG_CLOCK_STARTUP_ERROR_CALLBACK
 118:Generated_Source\PSoC4/cyfitter_cfg.c **** 	CY_CFG_Clock_Startup_ErrorCallback();
 119:Generated_Source\PSoC4/cyfitter_cfg.c **** #else
 120:Generated_Source\PSoC4/cyfitter_cfg.c **** 	/*  If not using CY_CFG_CLOCK_STARTUP_ERROR_CALLBACK, place your clock startup code here. */
 121:Generated_Source\PSoC4/cyfitter_cfg.c ****     /* `#START CyClockStartupError` */
 122:Generated_Source\PSoC4/cyfitter_cfg.c **** 
 123:Generated_Source\PSoC4/cyfitter_cfg.c ****     /* If we have a clock startup error (bad MHz crystal, PLL lock, etc.),  */
 124:Generated_Source\PSoC4/cyfitter_cfg.c ****     /* we will end up here to allow the customer to implement something to  */
 125:Generated_Source\PSoC4/cyfitter_cfg.c ****     /* deal with the clock condition.                                       */
 126:Generated_Source\PSoC4/cyfitter_cfg.c **** 
 127:Generated_Source\PSoC4/cyfitter_cfg.c ****     /* `#END` */
 128:Generated_Source\PSoC4/cyfitter_cfg.c **** 
 129:Generated_Source\PSoC4/cyfitter_cfg.c ****     /* If nothing else, stop here since the clocks have not started         */
 130:Generated_Source\PSoC4/cyfitter_cfg.c ****     /* correctly.                                                           */
 131:Generated_Source\PSoC4/cyfitter_cfg.c ****     while(1) {}
 132:Generated_Source\PSoC4/cyfitter_cfg.c **** #endif /* CY_CFG_CLOCK_STARTUP_ERROR_CALLBACK */ 
 133:Generated_Source\PSoC4/cyfitter_cfg.c **** }
 134:Generated_Source\PSoC4/cyfitter_cfg.c **** #endif
 135:Generated_Source\PSoC4/cyfitter_cfg.c **** 
 136:Generated_Source\PSoC4/cyfitter_cfg.c **** #define CY_CFG_BASE_ADDR_COUNT 10u
 137:Generated_Source\PSoC4/cyfitter_cfg.c **** CYPACKED typedef struct
 138:Generated_Source\PSoC4/cyfitter_cfg.c **** {
 139:Generated_Source\PSoC4/cyfitter_cfg.c **** 	uint8 offset;
 140:Generated_Source\PSoC4/cyfitter_cfg.c **** 	uint8 value;
 141:Generated_Source\PSoC4/cyfitter_cfg.c **** } CYPACKED_ATTR cy_cfg_addrvalue_t;
 142:Generated_Source\PSoC4/cyfitter_cfg.c **** 
 143:Generated_Source\PSoC4/cyfitter_cfg.c **** 
 144:Generated_Source\PSoC4/cyfitter_cfg.c **** 
 145:Generated_Source\PSoC4/cyfitter_cfg.c **** /*******************************************************************************
 146:Generated_Source\PSoC4/cyfitter_cfg.c **** * Function Name: cfg_write_bytes32
ARM GAS  C:\Users\TECHCO~1\AppData\Local\Temp\ccMNJAoI.s 			page 4


 147:Generated_Source\PSoC4/cyfitter_cfg.c **** ********************************************************************************
 148:Generated_Source\PSoC4/cyfitter_cfg.c **** * Summary:
 149:Generated_Source\PSoC4/cyfitter_cfg.c **** *  This function is used for setting up the chip configuration areas that
 150:Generated_Source\PSoC4/cyfitter_cfg.c **** *  contain relatively sparse data.
 151:Generated_Source\PSoC4/cyfitter_cfg.c **** *
 152:Generated_Source\PSoC4/cyfitter_cfg.c **** * Parameters:
 153:Generated_Source\PSoC4/cyfitter_cfg.c **** *   void
 154:Generated_Source\PSoC4/cyfitter_cfg.c **** *
 155:Generated_Source\PSoC4/cyfitter_cfg.c **** * Return:
 156:Generated_Source\PSoC4/cyfitter_cfg.c **** *   void
 157:Generated_Source\PSoC4/cyfitter_cfg.c **** *
 158:Generated_Source\PSoC4/cyfitter_cfg.c **** *******************************************************************************/
 159:Generated_Source\PSoC4/cyfitter_cfg.c **** static void cfg_write_bytes32(const uint32 addr_table[], const cy_cfg_addrvalue_t data_table[]);
 160:Generated_Source\PSoC4/cyfitter_cfg.c **** static void cfg_write_bytes32(const uint32 addr_table[], const cy_cfg_addrvalue_t data_table[])
 161:Generated_Source\PSoC4/cyfitter_cfg.c **** {
 162:Generated_Source\PSoC4/cyfitter_cfg.c **** 	/* For 32-bit little-endian architectures */
 163:Generated_Source\PSoC4/cyfitter_cfg.c **** 	uint32 i, j = 0u;
 164:Generated_Source\PSoC4/cyfitter_cfg.c **** 	for (i = 0u; i < CY_CFG_BASE_ADDR_COUNT; i++)
 165:Generated_Source\PSoC4/cyfitter_cfg.c **** 	{
 166:Generated_Source\PSoC4/cyfitter_cfg.c **** 		uint32 baseAddr = addr_table[i];
 167:Generated_Source\PSoC4/cyfitter_cfg.c **** 		uint8 count = (uint8)baseAddr;
 168:Generated_Source\PSoC4/cyfitter_cfg.c **** 		baseAddr &= 0xFFFFFF00u;
 169:Generated_Source\PSoC4/cyfitter_cfg.c **** 		while (count != 0u)
 170:Generated_Source\PSoC4/cyfitter_cfg.c **** 		{
 171:Generated_Source\PSoC4/cyfitter_cfg.c **** 			CY_SET_XTND_REG8((void CYFAR *)(baseAddr + data_table[j].offset), data_table[j].value);
 172:Generated_Source\PSoC4/cyfitter_cfg.c **** 			j++;
 173:Generated_Source\PSoC4/cyfitter_cfg.c **** 			count--;
 174:Generated_Source\PSoC4/cyfitter_cfg.c **** 		}
 175:Generated_Source\PSoC4/cyfitter_cfg.c **** 	}
 176:Generated_Source\PSoC4/cyfitter_cfg.c **** }
 177:Generated_Source\PSoC4/cyfitter_cfg.c **** 
 178:Generated_Source\PSoC4/cyfitter_cfg.c **** 
 179:Generated_Source\PSoC4/cyfitter_cfg.c **** /*******************************************************************************
 180:Generated_Source\PSoC4/cyfitter_cfg.c **** * Function Name: ClockSetup
 181:Generated_Source\PSoC4/cyfitter_cfg.c **** ********************************************************************************
 182:Generated_Source\PSoC4/cyfitter_cfg.c **** *
 183:Generated_Source\PSoC4/cyfitter_cfg.c **** * Summary:
 184:Generated_Source\PSoC4/cyfitter_cfg.c **** *   Performs the initialization of all of the clocks in the device based on the
 185:Generated_Source\PSoC4/cyfitter_cfg.c **** *   settings in the Clock tab of the DWR.  This includes enabling the requested
 186:Generated_Source\PSoC4/cyfitter_cfg.c **** *   clocks and setting the necessary dividers to produce the desired frequency. 
 187:Generated_Source\PSoC4/cyfitter_cfg.c **** *
 188:Generated_Source\PSoC4/cyfitter_cfg.c **** * Parameters:
 189:Generated_Source\PSoC4/cyfitter_cfg.c **** *   void
 190:Generated_Source\PSoC4/cyfitter_cfg.c **** *
 191:Generated_Source\PSoC4/cyfitter_cfg.c **** * Return:
 192:Generated_Source\PSoC4/cyfitter_cfg.c **** *   void
 193:Generated_Source\PSoC4/cyfitter_cfg.c **** *
 194:Generated_Source\PSoC4/cyfitter_cfg.c **** *******************************************************************************/
 195:Generated_Source\PSoC4/cyfitter_cfg.c **** static void ClockSetup(void);
 196:Generated_Source\PSoC4/cyfitter_cfg.c **** CY_CFG_SECTION
 197:Generated_Source\PSoC4/cyfitter_cfg.c **** static void ClockSetup(void)
 198:Generated_Source\PSoC4/cyfitter_cfg.c **** {
 199:Generated_Source\PSoC4/cyfitter_cfg.c **** 	/* Enable HALF_EN before trimming for the flash accelerator. */
 200:Generated_Source\PSoC4/cyfitter_cfg.c **** 	CY_SET_REG32((void CYXDATA *)(CYREG_CLK_SELECT), (CY_GET_REG32((void *)CYREG_CLK_SELECT) | 0x00040
 201:Generated_Source\PSoC4/cyfitter_cfg.c **** 
 202:Generated_Source\PSoC4/cyfitter_cfg.c **** 	/* Setup and trim IMO based on desired frequency. */
 203:Generated_Source\PSoC4/cyfitter_cfg.c **** 	CySysClkWriteImoFreq(24u);
ARM GAS  C:\Users\TECHCO~1\AppData\Local\Temp\ccMNJAoI.s 			page 5


 204:Generated_Source\PSoC4/cyfitter_cfg.c **** 
 205:Generated_Source\PSoC4/cyfitter_cfg.c **** 	/* Disable HALF_EN since it is not required at this IMO frequency. */
 206:Generated_Source\PSoC4/cyfitter_cfg.c **** 	CY_SET_REG32((void CYXDATA *)(CYREG_CLK_SELECT), (CY_GET_REG32((void *)CYREG_CLK_SELECT) & 0xFFFBF
 207:Generated_Source\PSoC4/cyfitter_cfg.c **** 	/* CYDEV_CLK_ILO_CONFIG Starting address: CYDEV_CLK_ILO_CONFIG */
 208:Generated_Source\PSoC4/cyfitter_cfg.c **** 	CY_SET_XTND_REG32((void CYFAR *)(CYREG_CLK_ILO_CONFIG), 0x80000006u);
 209:Generated_Source\PSoC4/cyfitter_cfg.c **** 
 210:Generated_Source\PSoC4/cyfitter_cfg.c **** 
 211:Generated_Source\PSoC4/cyfitter_cfg.c **** 	/* CYDEV_CLK_SELECT00 Starting address: CYDEV_CLK_SELECT00 */
 212:Generated_Source\PSoC4/cyfitter_cfg.c **** 	CY_SET_XTND_REG32((void CYFAR *)(CYREG_CLK_SELECT02), 0x00000010u);
 213:Generated_Source\PSoC4/cyfitter_cfg.c **** 	CY_SET_XTND_REG32((void CYFAR *)(CYREG_CLK_SELECT08), 0x00000030u);
 214:Generated_Source\PSoC4/cyfitter_cfg.c **** 	CY_SET_XTND_REG32((void CYFAR *)(CYREG_CLK_SELECT09), 0x00000030u);
 215:Generated_Source\PSoC4/cyfitter_cfg.c **** 	CY_SET_XTND_REG32((void CYFAR *)(CYREG_CLK_SELECT10), 0x00000020u);
 216:Generated_Source\PSoC4/cyfitter_cfg.c **** 	CY_SET_XTND_REG32((void CYFAR *)(CYREG_CLK_SELECT11), 0x00000020u);
 217:Generated_Source\PSoC4/cyfitter_cfg.c **** 	CY_SET_XTND_REG32((void CYFAR *)(CYREG_CLK_SELECT13), 0x00000020u);
 218:Generated_Source\PSoC4/cyfitter_cfg.c **** 	CY_SET_XTND_REG32((void CYFAR *)(CYREG_CLK_SELECT15), 0x00000030u);
 219:Generated_Source\PSoC4/cyfitter_cfg.c **** 
 220:Generated_Source\PSoC4/cyfitter_cfg.c **** 	/* CYDEV_CLK_IMO_CONFIG Starting address: CYDEV_CLK_IMO_CONFIG */
 221:Generated_Source\PSoC4/cyfitter_cfg.c **** 	CY_SET_XTND_REG32((void CYFAR *)(CYREG_CLK_IMO_CONFIG), 0x80000000u);
 222:Generated_Source\PSoC4/cyfitter_cfg.c **** 
 223:Generated_Source\PSoC4/cyfitter_cfg.c **** 	/* CYDEV_CLK_SELECT Starting address: CYDEV_CLK_SELECT */
 224:Generated_Source\PSoC4/cyfitter_cfg.c **** 	CY_SET_XTND_REG32((void CYFAR *)(CYREG_CLK_SELECT), 0x00000000u);
 225:Generated_Source\PSoC4/cyfitter_cfg.c **** 
 226:Generated_Source\PSoC4/cyfitter_cfg.c **** 	/* CYDEV_CLK_DIVIDER_A00 Starting address: CYDEV_CLK_DIVIDER_A00 */
 227:Generated_Source\PSoC4/cyfitter_cfg.c **** 	CY_SET_XTND_REG32((void CYFAR *)(CYREG_CLK_DIVIDER_A00), 0x80000000u);
 228:Generated_Source\PSoC4/cyfitter_cfg.c **** 
 229:Generated_Source\PSoC4/cyfitter_cfg.c **** 	/* CYDEV_CLK_DIVIDER_B00 Starting address: CYDEV_CLK_DIVIDER_B00 */
 230:Generated_Source\PSoC4/cyfitter_cfg.c **** 	CY_SET_XTND_REG32((void CYFAR *)(CYREG_CLK_DIVIDER_B00), 0x80000002u);
 231:Generated_Source\PSoC4/cyfitter_cfg.c **** 
 232:Generated_Source\PSoC4/cyfitter_cfg.c **** 	/* CYDEV_CLK_DIVIDER_C00 Starting address: CYDEV_CLK_DIVIDER_C00 */
 233:Generated_Source\PSoC4/cyfitter_cfg.c **** 	CY_SET_XTND_REG32((void CYFAR *)(CYREG_CLK_DIVIDER_C00), 0x80000002u);
 234:Generated_Source\PSoC4/cyfitter_cfg.c **** 
 235:Generated_Source\PSoC4/cyfitter_cfg.c **** 	CY_SET_XTND_REG32((void CYFAR *)(CYREG_WDT_CONFIG), 0x00000000u);
 236:Generated_Source\PSoC4/cyfitter_cfg.c **** }
 237:Generated_Source\PSoC4/cyfitter_cfg.c **** 
 238:Generated_Source\PSoC4/cyfitter_cfg.c **** 
 239:Generated_Source\PSoC4/cyfitter_cfg.c **** /* Analog API Functions */
 240:Generated_Source\PSoC4/cyfitter_cfg.c **** 
 241:Generated_Source\PSoC4/cyfitter_cfg.c **** 
 242:Generated_Source\PSoC4/cyfitter_cfg.c **** /*******************************************************************************
 243:Generated_Source\PSoC4/cyfitter_cfg.c **** * Function Name: AnalogSetDefault
 244:Generated_Source\PSoC4/cyfitter_cfg.c **** ********************************************************************************
 245:Generated_Source\PSoC4/cyfitter_cfg.c **** *
 246:Generated_Source\PSoC4/cyfitter_cfg.c **** * Summary:
 247:Generated_Source\PSoC4/cyfitter_cfg.c **** *  Sets up the analog portions of the chip to default values based on chip
 248:Generated_Source\PSoC4/cyfitter_cfg.c **** *  configuration options from the project.
 249:Generated_Source\PSoC4/cyfitter_cfg.c **** *
 250:Generated_Source\PSoC4/cyfitter_cfg.c **** * Parameters:
 251:Generated_Source\PSoC4/cyfitter_cfg.c **** *  void
 252:Generated_Source\PSoC4/cyfitter_cfg.c **** *
 253:Generated_Source\PSoC4/cyfitter_cfg.c **** * Return:
 254:Generated_Source\PSoC4/cyfitter_cfg.c **** *  void
 255:Generated_Source\PSoC4/cyfitter_cfg.c **** *
 256:Generated_Source\PSoC4/cyfitter_cfg.c **** *******************************************************************************/
 257:Generated_Source\PSoC4/cyfitter_cfg.c **** static void AnalogSetDefault(void);
 258:Generated_Source\PSoC4/cyfitter_cfg.c **** static void AnalogSetDefault(void)
 259:Generated_Source\PSoC4/cyfitter_cfg.c **** {
 260:Generated_Source\PSoC4/cyfitter_cfg.c **** }
ARM GAS  C:\Users\TECHCO~1\AppData\Local\Temp\ccMNJAoI.s 			page 6


 261:Generated_Source\PSoC4/cyfitter_cfg.c **** 
 262:Generated_Source\PSoC4/cyfitter_cfg.c **** #define CY_AMUX_UNUSED CYREG_CM0_ROM_DWT
 263:Generated_Source\PSoC4/cyfitter_cfg.c **** 
 264:Generated_Source\PSoC4/cyfitter_cfg.c **** 
 265:Generated_Source\PSoC4/cyfitter_cfg.c **** /*******************************************************************************
 266:Generated_Source\PSoC4/cyfitter_cfg.c **** * Function Name: cyfitter_cfg
 267:Generated_Source\PSoC4/cyfitter_cfg.c **** ********************************************************************************
 268:Generated_Source\PSoC4/cyfitter_cfg.c **** * Summary:
 269:Generated_Source\PSoC4/cyfitter_cfg.c **** *  This function is called by the start-up code for the selected device. It
 270:Generated_Source\PSoC4/cyfitter_cfg.c **** *  performs all of the necessary device configuration based on the design
 271:Generated_Source\PSoC4/cyfitter_cfg.c **** *  settings.  This includes settings from the Design Wide Resources (DWR) such
 272:Generated_Source\PSoC4/cyfitter_cfg.c **** *  as Clocks and Pins as well as any component configuration that is necessary.
 273:Generated_Source\PSoC4/cyfitter_cfg.c **** *
 274:Generated_Source\PSoC4/cyfitter_cfg.c **** * Parameters:  
 275:Generated_Source\PSoC4/cyfitter_cfg.c **** *   void
 276:Generated_Source\PSoC4/cyfitter_cfg.c **** *
 277:Generated_Source\PSoC4/cyfitter_cfg.c **** * Return:
 278:Generated_Source\PSoC4/cyfitter_cfg.c **** *   void
 279:Generated_Source\PSoC4/cyfitter_cfg.c **** *
 280:Generated_Source\PSoC4/cyfitter_cfg.c **** *******************************************************************************/
 281:Generated_Source\PSoC4/cyfitter_cfg.c **** CY_CFG_SECTION
 282:Generated_Source\PSoC4/cyfitter_cfg.c **** void cyfitter_cfg(void)
 283:Generated_Source\PSoC4/cyfitter_cfg.c **** {
  26              		.loc 1 283 0
  27              		.cfi_startproc
  28 0000 F8B5     		push	{r3, r4, r5, r6, r7, lr}
  29              		.cfi_def_cfa_offset 24
  30              		.cfi_offset 3, -24
  31              		.cfi_offset 4, -20
  32              		.cfi_offset 5, -16
  33              		.cfi_offset 6, -12
  34              		.cfi_offset 7, -8
  35              		.cfi_offset 14, -4
 284:Generated_Source\PSoC4/cyfitter_cfg.c **** 	/* Disable interrupts by default. Let user enable if/when they want. */
 285:Generated_Source\PSoC4/cyfitter_cfg.c **** 	CyGlobalIntDisable;
  36              		.loc 1 285 0
  37              	@ 285 "Generated_Source\PSoC4\cyfitter_cfg.c" 1
  38 0002 72B6     		CPSID   i
  39              	@ 0 "" 2
  40              	.LVL0:
  41              		.code	16
  42              	.LBB16:
  43              	.LBB17:
  44              	.LBB18:
  45              	.LBB19:
  62:Generated_Source\PSoC4/cyfitter_cfg.c **** }
  46              		.loc 1 62 0
  47 0004 8022     		mov	r2, #128
  48 0006 0021     		mov	r1, #0
  49 0008 D200     		lsl	r2, r2, #3
  50 000a 5748     		ldr	r0, .L7
  51 000c FFF7FEFF 		bl	memset
  52              	.LVL1:
  53 0010 8022     		mov	r2, #128
  54 0012 5648     		ldr	r0, .L7+4
  55 0014 D200     		lsl	r2, r2, #3
  56 0016 0021     		mov	r1, #0
ARM GAS  C:\Users\TECHCO~1\AppData\Local\Temp\ccMNJAoI.s 			page 7


  57 0018 FFF7FEFF 		bl	memset
  58              	.LVL2:
  59 001c 0022     		mov	r2, #0
  60 001e 141C     		mov	r4, r2
  61              	.LVL3:
  62              	.L4:
  63              	.LBE19:
  64              	.LBE18:
  65              	.LBE17:
  66              	.LBB20:
  67              	.LBB21:
  68              	.LBB22:
 166:Generated_Source\PSoC4/cyfitter_cfg.c **** 		uint8 count = (uint8)baseAddr;
  69              		.loc 1 166 0
  70 0020 5349     		ldr	r1, .L7+8
 168:Generated_Source\PSoC4/cyfitter_cfg.c **** 		while (count != 0u)
  71              		.loc 1 168 0
  72 0022 FF25     		mov	r5, #255
 166:Generated_Source\PSoC4/cyfitter_cfg.c **** 		uint8 count = (uint8)baseAddr;
  73              		.loc 1 166 0
  74 0024 5758     		ldr	r7, [r2, r1]
  75              	.LVL4:
  76 0026 2831     		add	r1, r1, #40
 168:Generated_Source\PSoC4/cyfitter_cfg.c **** 		while (count != 0u)
  77              		.loc 1 168 0
  78 0028 3E1C     		mov	r6, r7
  79 002a 081C     		mov	r0, r1
  80 002c 6300     		lsl	r3, r4, #1
  81 002e AE43     		bic	r6, r5
  82              	.LVL5:
  83 0030 3D40     		and	r5, r7
  84 0032 0133     		add	r3, r3, #1
  85 0034 6419     		add	r4, r4, r5
  86              	.LVL6:
  87 0036 CB18     		add	r3, r1, r3
  88 0038 6100     		lsl	r1, r4, #1
  89 003a 0131     		add	r1, r1, #1
  90 003c 4118     		add	r1, r0, r1
  91              	.LVL7:
  92              	.L2:
 169:Generated_Source\PSoC4/cyfitter_cfg.c **** 		{
  93              		.loc 1 169 0
  94 003e 8B42     		cmp	r3, r1
  95 0040 06D0     		beq	.L6
  96 0042 581E     		sub	r0, r3, #1
 171:Generated_Source\PSoC4/cyfitter_cfg.c **** 			j++;
  97              		.loc 1 171 0
  98 0044 0078     		ldrb	r0, [r0]
  99 0046 1D78     		ldrb	r5, [r3]
 100 0048 8019     		add	r0, r0, r6
 101 004a 0570     		strb	r5, [r0]
 102 004c 0233     		add	r3, r3, #2
 103 004e F6E7     		b	.L2
 104              	.L6:
 105              	.LVL8:
 106 0050 0432     		add	r2, r2, #4
 107              	.LBE22:
ARM GAS  C:\Users\TECHCO~1\AppData\Local\Temp\ccMNJAoI.s 			page 8


 164:Generated_Source\PSoC4/cyfitter_cfg.c **** 	{
 108              		.loc 1 164 0
 109 0052 282A     		cmp	r2, #40
 110 0054 E4D1     		bne	.L4
 111              	.LBE21:
 112              	.LBE20:
 286:Generated_Source\PSoC4/cyfitter_cfg.c **** 
 287:Generated_Source\PSoC4/cyfitter_cfg.c **** 	{
 288:Generated_Source\PSoC4/cyfitter_cfg.c **** 		static const uint32 CYCODE cy_cfg_addr_table[] = {
 289:Generated_Source\PSoC4/cyfitter_cfg.c **** 			0x400F0001u, /* Base address: 0x400F0000 Count: 1 */
 290:Generated_Source\PSoC4/cyfitter_cfg.c **** 			0x400F3036u, /* Base address: 0x400F3000 Count: 54 */
 291:Generated_Source\PSoC4/cyfitter_cfg.c **** 			0x400F3115u, /* Base address: 0x400F3100 Count: 21 */
 292:Generated_Source\PSoC4/cyfitter_cfg.c **** 			0x400F323Fu, /* Base address: 0x400F3200 Count: 63 */
 293:Generated_Source\PSoC4/cyfitter_cfg.c **** 			0x400F3324u, /* Base address: 0x400F3300 Count: 36 */
 294:Generated_Source\PSoC4/cyfitter_cfg.c **** 			0x400F4009u, /* Base address: 0x400F4000 Count: 9 */
 295:Generated_Source\PSoC4/cyfitter_cfg.c **** 			0x400F4107u, /* Base address: 0x400F4100 Count: 7 */
 296:Generated_Source\PSoC4/cyfitter_cfg.c **** 			0x400F4202u, /* Base address: 0x400F4200 Count: 2 */
 297:Generated_Source\PSoC4/cyfitter_cfg.c **** 			0x400F4311u, /* Base address: 0x400F4300 Count: 17 */
 298:Generated_Source\PSoC4/cyfitter_cfg.c **** 			0x400F6002u, /* Base address: 0x400F6000 Count: 2 */
 299:Generated_Source\PSoC4/cyfitter_cfg.c **** 		};
 300:Generated_Source\PSoC4/cyfitter_cfg.c **** 
 301:Generated_Source\PSoC4/cyfitter_cfg.c **** 		static const cy_cfg_addrvalue_t CYCODE cy_cfg_data_table[] = {
 302:Generated_Source\PSoC4/cyfitter_cfg.c **** 			{0x83u, 0x0Du},
 303:Generated_Source\PSoC4/cyfitter_cfg.c **** 			{0x40u, 0x20u},
 304:Generated_Source\PSoC4/cyfitter_cfg.c **** 			{0x41u, 0x03u},
 305:Generated_Source\PSoC4/cyfitter_cfg.c **** 			{0x49u, 0xFFu},
 306:Generated_Source\PSoC4/cyfitter_cfg.c **** 			{0x4Au, 0xFFu},
 307:Generated_Source\PSoC4/cyfitter_cfg.c **** 			{0x4Bu, 0xFFu},
 308:Generated_Source\PSoC4/cyfitter_cfg.c **** 			{0x4Du, 0xA0u},
 309:Generated_Source\PSoC4/cyfitter_cfg.c **** 			{0x4Fu, 0x04u},
 310:Generated_Source\PSoC4/cyfitter_cfg.c **** 			{0x50u, 0x18u},
 311:Generated_Source\PSoC4/cyfitter_cfg.c **** 			{0x5Au, 0x04u},
 312:Generated_Source\PSoC4/cyfitter_cfg.c **** 			{0x5Bu, 0x04u},
 313:Generated_Source\PSoC4/cyfitter_cfg.c **** 			{0x5Du, 0x03u},
 314:Generated_Source\PSoC4/cyfitter_cfg.c **** 			{0x5Fu, 0x01u},
 315:Generated_Source\PSoC4/cyfitter_cfg.c **** 			{0x60u, 0x40u},
 316:Generated_Source\PSoC4/cyfitter_cfg.c **** 			{0x62u, 0xC0u},
 317:Generated_Source\PSoC4/cyfitter_cfg.c **** 			{0x64u, 0x40u},
 318:Generated_Source\PSoC4/cyfitter_cfg.c **** 			{0x65u, 0x40u},
 319:Generated_Source\PSoC4/cyfitter_cfg.c **** 			{0x66u, 0xC0u},
 320:Generated_Source\PSoC4/cyfitter_cfg.c **** 			{0x68u, 0xC0u},
 321:Generated_Source\PSoC4/cyfitter_cfg.c **** 			{0x6Au, 0xC0u},
 322:Generated_Source\PSoC4/cyfitter_cfg.c **** 			{0x6Cu, 0xC0u},
 323:Generated_Source\PSoC4/cyfitter_cfg.c **** 			{0x6Eu, 0xC0u},
 324:Generated_Source\PSoC4/cyfitter_cfg.c **** 			{0x86u, 0x02u},
 325:Generated_Source\PSoC4/cyfitter_cfg.c **** 			{0x9Au, 0x02u},
 326:Generated_Source\PSoC4/cyfitter_cfg.c **** 			{0xAEu, 0x01u},
 327:Generated_Source\PSoC4/cyfitter_cfg.c **** 			{0xB0u, 0x02u},
 328:Generated_Source\PSoC4/cyfitter_cfg.c **** 			{0xB4u, 0x01u},
 329:Generated_Source\PSoC4/cyfitter_cfg.c **** 			{0xC0u, 0x20u},
 330:Generated_Source\PSoC4/cyfitter_cfg.c **** 			{0xC1u, 0x03u},
 331:Generated_Source\PSoC4/cyfitter_cfg.c **** 			{0xC5u, 0x01u},
 332:Generated_Source\PSoC4/cyfitter_cfg.c **** 			{0xC6u, 0x20u},
 333:Generated_Source\PSoC4/cyfitter_cfg.c **** 			{0xC8u, 0x09u},
 334:Generated_Source\PSoC4/cyfitter_cfg.c **** 			{0xC9u, 0xFFu},
 335:Generated_Source\PSoC4/cyfitter_cfg.c **** 			{0xCAu, 0xFFu},
 336:Generated_Source\PSoC4/cyfitter_cfg.c **** 			{0xCBu, 0xFFu},
ARM GAS  C:\Users\TECHCO~1\AppData\Local\Temp\ccMNJAoI.s 			page 9


 337:Generated_Source\PSoC4/cyfitter_cfg.c **** 			{0xCDu, 0xAFu},
 338:Generated_Source\PSoC4/cyfitter_cfg.c **** 			{0xCEu, 0x0Fu},
 339:Generated_Source\PSoC4/cyfitter_cfg.c **** 			{0xCFu, 0x04u},
 340:Generated_Source\PSoC4/cyfitter_cfg.c **** 			{0xD0u, 0x18u},
 341:Generated_Source\PSoC4/cyfitter_cfg.c **** 			{0xD2u, 0x80u},
 342:Generated_Source\PSoC4/cyfitter_cfg.c **** 			{0xD8u, 0x04u},
 343:Generated_Source\PSoC4/cyfitter_cfg.c **** 			{0xDAu, 0x04u},
 344:Generated_Source\PSoC4/cyfitter_cfg.c **** 			{0xDBu, 0x04u},
 345:Generated_Source\PSoC4/cyfitter_cfg.c **** 			{0xDCu, 0x03u},
 346:Generated_Source\PSoC4/cyfitter_cfg.c **** 			{0xDDu, 0x33u},
 347:Generated_Source\PSoC4/cyfitter_cfg.c **** 			{0xDFu, 0x01u},
 348:Generated_Source\PSoC4/cyfitter_cfg.c **** 			{0xE0u, 0x40u},
 349:Generated_Source\PSoC4/cyfitter_cfg.c **** 			{0xE2u, 0xC0u},
 350:Generated_Source\PSoC4/cyfitter_cfg.c **** 			{0xE4u, 0x40u},
 351:Generated_Source\PSoC4/cyfitter_cfg.c **** 			{0xE5u, 0x40u},
 352:Generated_Source\PSoC4/cyfitter_cfg.c **** 			{0xE6u, 0xC0u},
 353:Generated_Source\PSoC4/cyfitter_cfg.c **** 			{0xE8u, 0xC0u},
 354:Generated_Source\PSoC4/cyfitter_cfg.c **** 			{0xEAu, 0xC0u},
 355:Generated_Source\PSoC4/cyfitter_cfg.c **** 			{0xECu, 0xC0u},
 356:Generated_Source\PSoC4/cyfitter_cfg.c **** 			{0xEEu, 0xC0u},
 357:Generated_Source\PSoC4/cyfitter_cfg.c **** 			{0x04u, 0x04u},
 358:Generated_Source\PSoC4/cyfitter_cfg.c **** 			{0x0Fu, 0x08u},
 359:Generated_Source\PSoC4/cyfitter_cfg.c **** 			{0x17u, 0x80u},
 360:Generated_Source\PSoC4/cyfitter_cfg.c **** 			{0x1Cu, 0x04u},
 361:Generated_Source\PSoC4/cyfitter_cfg.c **** 			{0x1Du, 0x20u},
 362:Generated_Source\PSoC4/cyfitter_cfg.c **** 			{0x1Eu, 0x80u},
 363:Generated_Source\PSoC4/cyfitter_cfg.c **** 			{0x40u, 0x04u},
 364:Generated_Source\PSoC4/cyfitter_cfg.c **** 			{0x42u, 0x20u},
 365:Generated_Source\PSoC4/cyfitter_cfg.c **** 			{0x45u, 0x20u},
 366:Generated_Source\PSoC4/cyfitter_cfg.c **** 			{0x46u, 0x20u},
 367:Generated_Source\PSoC4/cyfitter_cfg.c **** 			{0x4Fu, 0x08u},
 368:Generated_Source\PSoC4/cyfitter_cfg.c **** 			{0x56u, 0x20u},
 369:Generated_Source\PSoC4/cyfitter_cfg.c **** 			{0x68u, 0x04u},
 370:Generated_Source\PSoC4/cyfitter_cfg.c **** 			{0x6Au, 0x40u},
 371:Generated_Source\PSoC4/cyfitter_cfg.c **** 			{0x77u, 0x80u},
 372:Generated_Source\PSoC4/cyfitter_cfg.c **** 			{0x82u, 0x40u},
 373:Generated_Source\PSoC4/cyfitter_cfg.c **** 			{0x88u, 0x04u},
 374:Generated_Source\PSoC4/cyfitter_cfg.c **** 			{0xC0u, 0x20u},
 375:Generated_Source\PSoC4/cyfitter_cfg.c **** 			{0xC2u, 0x40u},
 376:Generated_Source\PSoC4/cyfitter_cfg.c **** 			{0xC4u, 0x80u},
 377:Generated_Source\PSoC4/cyfitter_cfg.c **** 			{0xD0u, 0x66u},
 378:Generated_Source\PSoC4/cyfitter_cfg.c **** 			{0x40u, 0x60u},
 379:Generated_Source\PSoC4/cyfitter_cfg.c **** 			{0x41u, 0x05u},
 380:Generated_Source\PSoC4/cyfitter_cfg.c **** 			{0x49u, 0xFFu},
 381:Generated_Source\PSoC4/cyfitter_cfg.c **** 			{0x4Au, 0xFFu},
 382:Generated_Source\PSoC4/cyfitter_cfg.c **** 			{0x4Bu, 0xFFu},
 383:Generated_Source\PSoC4/cyfitter_cfg.c **** 			{0x4Du, 0xA0u},
 384:Generated_Source\PSoC4/cyfitter_cfg.c **** 			{0x4Fu, 0x04u},
 385:Generated_Source\PSoC4/cyfitter_cfg.c **** 			{0x50u, 0x18u},
 386:Generated_Source\PSoC4/cyfitter_cfg.c **** 			{0x5Au, 0x04u},
 387:Generated_Source\PSoC4/cyfitter_cfg.c **** 			{0x5Bu, 0x04u},
 388:Generated_Source\PSoC4/cyfitter_cfg.c **** 			{0x5Du, 0x01u},
 389:Generated_Source\PSoC4/cyfitter_cfg.c **** 			{0x5Fu, 0x01u},
 390:Generated_Source\PSoC4/cyfitter_cfg.c **** 			{0x60u, 0x40u},
 391:Generated_Source\PSoC4/cyfitter_cfg.c **** 			{0x62u, 0xC0u},
 392:Generated_Source\PSoC4/cyfitter_cfg.c **** 			{0x64u, 0x40u},
 393:Generated_Source\PSoC4/cyfitter_cfg.c **** 			{0x65u, 0x40u},
ARM GAS  C:\Users\TECHCO~1\AppData\Local\Temp\ccMNJAoI.s 			page 10


 394:Generated_Source\PSoC4/cyfitter_cfg.c **** 			{0x66u, 0xC0u},
 395:Generated_Source\PSoC4/cyfitter_cfg.c **** 			{0x68u, 0xC0u},
 396:Generated_Source\PSoC4/cyfitter_cfg.c **** 			{0x6Au, 0xC0u},
 397:Generated_Source\PSoC4/cyfitter_cfg.c **** 			{0x6Cu, 0xC0u},
 398:Generated_Source\PSoC4/cyfitter_cfg.c **** 			{0x6Eu, 0xC0u},
 399:Generated_Source\PSoC4/cyfitter_cfg.c **** 			{0x86u, 0x06u},
 400:Generated_Source\PSoC4/cyfitter_cfg.c **** 			{0x8Eu, 0x02u},
 401:Generated_Source\PSoC4/cyfitter_cfg.c **** 			{0x92u, 0x01u},
 402:Generated_Source\PSoC4/cyfitter_cfg.c **** 			{0x9Bu, 0x01u},
 403:Generated_Source\PSoC4/cyfitter_cfg.c **** 			{0xA6u, 0x0Cu},
 404:Generated_Source\PSoC4/cyfitter_cfg.c **** 			{0xADu, 0x01u},
 405:Generated_Source\PSoC4/cyfitter_cfg.c **** 			{0xB0u, 0x04u},
 406:Generated_Source\PSoC4/cyfitter_cfg.c **** 			{0xB2u, 0x02u},
 407:Generated_Source\PSoC4/cyfitter_cfg.c **** 			{0xB4u, 0x01u},
 408:Generated_Source\PSoC4/cyfitter_cfg.c **** 			{0xB6u, 0x08u},
 409:Generated_Source\PSoC4/cyfitter_cfg.c **** 			{0xB7u, 0x01u},
 410:Generated_Source\PSoC4/cyfitter_cfg.c **** 			{0xBEu, 0x04u},
 411:Generated_Source\PSoC4/cyfitter_cfg.c **** 			{0xC0u, 0x20u},
 412:Generated_Source\PSoC4/cyfitter_cfg.c **** 			{0xC1u, 0x05u},
 413:Generated_Source\PSoC4/cyfitter_cfg.c **** 			{0xC5u, 0xD1u},
 414:Generated_Source\PSoC4/cyfitter_cfg.c **** 			{0xC7u, 0x20u},
 415:Generated_Source\PSoC4/cyfitter_cfg.c **** 			{0xC8u, 0x23u},
 416:Generated_Source\PSoC4/cyfitter_cfg.c **** 			{0xC9u, 0xFFu},
 417:Generated_Source\PSoC4/cyfitter_cfg.c **** 			{0xCAu, 0xFFu},
 418:Generated_Source\PSoC4/cyfitter_cfg.c **** 			{0xCBu, 0xFFu},
 419:Generated_Source\PSoC4/cyfitter_cfg.c **** 			{0xCDu, 0xAFu},
 420:Generated_Source\PSoC4/cyfitter_cfg.c **** 			{0xCEu, 0x0Fu},
 421:Generated_Source\PSoC4/cyfitter_cfg.c **** 			{0xCFu, 0x04u},
 422:Generated_Source\PSoC4/cyfitter_cfg.c **** 			{0xD0u, 0x18u},
 423:Generated_Source\PSoC4/cyfitter_cfg.c **** 			{0xD2u, 0x80u},
 424:Generated_Source\PSoC4/cyfitter_cfg.c **** 			{0xD4u, 0x05u},
 425:Generated_Source\PSoC4/cyfitter_cfg.c **** 			{0xD8u, 0x04u},
 426:Generated_Source\PSoC4/cyfitter_cfg.c **** 			{0xD9u, 0x04u},
 427:Generated_Source\PSoC4/cyfitter_cfg.c **** 			{0xDAu, 0x04u},
 428:Generated_Source\PSoC4/cyfitter_cfg.c **** 			{0xDBu, 0x04u},
 429:Generated_Source\PSoC4/cyfitter_cfg.c **** 			{0xDCu, 0x11u},
 430:Generated_Source\PSoC4/cyfitter_cfg.c **** 			{0xDDu, 0x11u},
 431:Generated_Source\PSoC4/cyfitter_cfg.c **** 			{0xDFu, 0x01u},
 432:Generated_Source\PSoC4/cyfitter_cfg.c **** 			{0xE0u, 0x40u},
 433:Generated_Source\PSoC4/cyfitter_cfg.c **** 			{0xE2u, 0xC0u},
 434:Generated_Source\PSoC4/cyfitter_cfg.c **** 			{0xE4u, 0x40u},
 435:Generated_Source\PSoC4/cyfitter_cfg.c **** 			{0xE5u, 0x40u},
 436:Generated_Source\PSoC4/cyfitter_cfg.c **** 			{0xE6u, 0xC0u},
 437:Generated_Source\PSoC4/cyfitter_cfg.c **** 			{0xE8u, 0xC0u},
 438:Generated_Source\PSoC4/cyfitter_cfg.c **** 			{0xEAu, 0xC0u},
 439:Generated_Source\PSoC4/cyfitter_cfg.c **** 			{0xECu, 0xC0u},
 440:Generated_Source\PSoC4/cyfitter_cfg.c **** 			{0xEEu, 0xC0u},
 441:Generated_Source\PSoC4/cyfitter_cfg.c **** 			{0x00u, 0x04u},
 442:Generated_Source\PSoC4/cyfitter_cfg.c **** 			{0x02u, 0x02u},
 443:Generated_Source\PSoC4/cyfitter_cfg.c **** 			{0x09u, 0x02u},
 444:Generated_Source\PSoC4/cyfitter_cfg.c **** 			{0x10u, 0x20u},
 445:Generated_Source\PSoC4/cyfitter_cfg.c **** 			{0x18u, 0x04u},
 446:Generated_Source\PSoC4/cyfitter_cfg.c **** 			{0x19u, 0x44u},
 447:Generated_Source\PSoC4/cyfitter_cfg.c **** 			{0x1Au, 0x40u},
 448:Generated_Source\PSoC4/cyfitter_cfg.c **** 			{0x1Bu, 0x10u},
 449:Generated_Source\PSoC4/cyfitter_cfg.c **** 			{0x22u, 0x40u},
 450:Generated_Source\PSoC4/cyfitter_cfg.c **** 			{0x29u, 0x40u},
ARM GAS  C:\Users\TECHCO~1\AppData\Local\Temp\ccMNJAoI.s 			page 11


 451:Generated_Source\PSoC4/cyfitter_cfg.c **** 			{0x30u, 0x20u},
 452:Generated_Source\PSoC4/cyfitter_cfg.c **** 			{0x40u, 0x04u},
 453:Generated_Source\PSoC4/cyfitter_cfg.c **** 			{0x48u, 0x20u},
 454:Generated_Source\PSoC4/cyfitter_cfg.c **** 			{0x49u, 0x01u},
 455:Generated_Source\PSoC4/cyfitter_cfg.c **** 			{0x4Au, 0x02u},
 456:Generated_Source\PSoC4/cyfitter_cfg.c **** 			{0x4Eu, 0x02u},
 457:Generated_Source\PSoC4/cyfitter_cfg.c **** 			{0x4Fu, 0x20u},
 458:Generated_Source\PSoC4/cyfitter_cfg.c **** 			{0x52u, 0x02u},
 459:Generated_Source\PSoC4/cyfitter_cfg.c **** 			{0x59u, 0x05u},
 460:Generated_Source\PSoC4/cyfitter_cfg.c **** 			{0x5Au, 0x80u},
 461:Generated_Source\PSoC4/cyfitter_cfg.c **** 			{0x6Eu, 0x80u},
 462:Generated_Source\PSoC4/cyfitter_cfg.c **** 			{0x6Fu, 0x08u},
 463:Generated_Source\PSoC4/cyfitter_cfg.c **** 			{0x71u, 0x02u},
 464:Generated_Source\PSoC4/cyfitter_cfg.c **** 			{0x86u, 0x40u},
 465:Generated_Source\PSoC4/cyfitter_cfg.c **** 			{0x8Eu, 0x40u},
 466:Generated_Source\PSoC4/cyfitter_cfg.c **** 			{0x8Fu, 0x08u},
 467:Generated_Source\PSoC4/cyfitter_cfg.c **** 			{0xAEu, 0x40u},
 468:Generated_Source\PSoC4/cyfitter_cfg.c **** 			{0xC0u, 0x05u},
 469:Generated_Source\PSoC4/cyfitter_cfg.c **** 			{0xC2u, 0x08u},
 470:Generated_Source\PSoC4/cyfitter_cfg.c **** 			{0xC4u, 0x04u},
 471:Generated_Source\PSoC4/cyfitter_cfg.c **** 			{0xCAu, 0x08u},
 472:Generated_Source\PSoC4/cyfitter_cfg.c **** 			{0xCCu, 0x04u},
 473:Generated_Source\PSoC4/cyfitter_cfg.c **** 			{0xD0u, 0x04u},
 474:Generated_Source\PSoC4/cyfitter_cfg.c **** 			{0xD2u, 0x38u},
 475:Generated_Source\PSoC4/cyfitter_cfg.c **** 			{0xD6u, 0x0Bu},
 476:Generated_Source\PSoC4/cyfitter_cfg.c **** 			{0xE6u, 0x40u},
 477:Generated_Source\PSoC4/cyfitter_cfg.c **** 			{0x57u, 0x08u},
 478:Generated_Source\PSoC4/cyfitter_cfg.c **** 			{0x63u, 0x80u},
 479:Generated_Source\PSoC4/cyfitter_cfg.c **** 			{0x64u, 0x10u},
 480:Generated_Source\PSoC4/cyfitter_cfg.c **** 			{0x65u, 0x80u},
 481:Generated_Source\PSoC4/cyfitter_cfg.c **** 			{0x83u, 0x40u},
 482:Generated_Source\PSoC4/cyfitter_cfg.c **** 			{0xD4u, 0x40u},
 483:Generated_Source\PSoC4/cyfitter_cfg.c **** 			{0xD6u, 0x80u},
 484:Generated_Source\PSoC4/cyfitter_cfg.c **** 			{0xD8u, 0xC0u},
 485:Generated_Source\PSoC4/cyfitter_cfg.c **** 			{0xE2u, 0x20u},
 486:Generated_Source\PSoC4/cyfitter_cfg.c **** 			{0x87u, 0x08u},
 487:Generated_Source\PSoC4/cyfitter_cfg.c **** 			{0x8Du, 0x80u},
 488:Generated_Source\PSoC4/cyfitter_cfg.c **** 			{0x9Du, 0x80u},
 489:Generated_Source\PSoC4/cyfitter_cfg.c **** 			{0xA7u, 0x08u},
 490:Generated_Source\PSoC4/cyfitter_cfg.c **** 			{0xACu, 0x10u},
 491:Generated_Source\PSoC4/cyfitter_cfg.c **** 			{0xE6u, 0x40u},
 492:Generated_Source\PSoC4/cyfitter_cfg.c **** 			{0xEEu, 0x40u},
 493:Generated_Source\PSoC4/cyfitter_cfg.c **** 			{0x88u, 0x10u},
 494:Generated_Source\PSoC4/cyfitter_cfg.c **** 			{0xE0u, 0x04u},
 495:Generated_Source\PSoC4/cyfitter_cfg.c **** 			{0x18u, 0x08u},
 496:Generated_Source\PSoC4/cyfitter_cfg.c **** 			{0x19u, 0x01u},
 497:Generated_Source\PSoC4/cyfitter_cfg.c **** 			{0x1Cu, 0x01u},
 498:Generated_Source\PSoC4/cyfitter_cfg.c **** 			{0x1Fu, 0x01u},
 499:Generated_Source\PSoC4/cyfitter_cfg.c **** 			{0x50u, 0x04u},
 500:Generated_Source\PSoC4/cyfitter_cfg.c **** 			{0x58u, 0x10u},
 501:Generated_Source\PSoC4/cyfitter_cfg.c **** 			{0x60u, 0x01u},
 502:Generated_Source\PSoC4/cyfitter_cfg.c **** 			{0x63u, 0x20u},
 503:Generated_Source\PSoC4/cyfitter_cfg.c **** 			{0x65u, 0x01u},
 504:Generated_Source\PSoC4/cyfitter_cfg.c **** 			{0x67u, 0x02u},
 505:Generated_Source\PSoC4/cyfitter_cfg.c **** 			{0x8Fu, 0x10u},
 506:Generated_Source\PSoC4/cyfitter_cfg.c **** 			{0x98u, 0x10u},
 507:Generated_Source\PSoC4/cyfitter_cfg.c **** 			{0xC6u, 0x0Fu},
ARM GAS  C:\Users\TECHCO~1\AppData\Local\Temp\ccMNJAoI.s 			page 12


 508:Generated_Source\PSoC4/cyfitter_cfg.c **** 			{0xD4u, 0x05u},
 509:Generated_Source\PSoC4/cyfitter_cfg.c **** 			{0xD6u, 0x03u},
 510:Generated_Source\PSoC4/cyfitter_cfg.c **** 			{0xD8u, 0x03u},
 511:Generated_Source\PSoC4/cyfitter_cfg.c **** 			{0xE0u, 0x08u},
 512:Generated_Source\PSoC4/cyfitter_cfg.c **** 			{0x10u, 0x0Au},
 513:Generated_Source\PSoC4/cyfitter_cfg.c **** 			{0x11u, 0x01u},
 514:Generated_Source\PSoC4/cyfitter_cfg.c **** 		};
 515:Generated_Source\PSoC4/cyfitter_cfg.c **** 
 516:Generated_Source\PSoC4/cyfitter_cfg.c **** 
 517:Generated_Source\PSoC4/cyfitter_cfg.c **** 
 518:Generated_Source\PSoC4/cyfitter_cfg.c **** 		CYPACKED typedef struct {
 519:Generated_Source\PSoC4/cyfitter_cfg.c **** 			void CYFAR *address;
 520:Generated_Source\PSoC4/cyfitter_cfg.c **** 			uint16 size;
 521:Generated_Source\PSoC4/cyfitter_cfg.c **** 		} CYPACKED_ATTR cfg_memset_t;
 522:Generated_Source\PSoC4/cyfitter_cfg.c **** 
 523:Generated_Source\PSoC4/cyfitter_cfg.c **** 		static const cfg_memset_t CYCODE cfg_memset_list [] = {
 524:Generated_Source\PSoC4/cyfitter_cfg.c **** 			/* address, size */
 525:Generated_Source\PSoC4/cyfitter_cfg.c **** 			{(void CYFAR *)(CYDEV_UDB_P0_U0_BASE), 1024u},
 526:Generated_Source\PSoC4/cyfitter_cfg.c **** 			{(void CYFAR *)(CYDEV_UDB_DSI0_BASE), 1024u},
 527:Generated_Source\PSoC4/cyfitter_cfg.c **** 		};
 528:Generated_Source\PSoC4/cyfitter_cfg.c **** 
 529:Generated_Source\PSoC4/cyfitter_cfg.c **** 		uint8 CYDATA i;
 530:Generated_Source\PSoC4/cyfitter_cfg.c **** 
 531:Generated_Source\PSoC4/cyfitter_cfg.c **** 		/* Zero out critical memory blocks before beginning configuration */
 532:Generated_Source\PSoC4/cyfitter_cfg.c **** 		for (i = 0u; i < (sizeof(cfg_memset_list)/sizeof(cfg_memset_list[0])); i++)
 533:Generated_Source\PSoC4/cyfitter_cfg.c **** 		{
 534:Generated_Source\PSoC4/cyfitter_cfg.c **** 			const cfg_memset_t CYCODE * CYDATA ms = &cfg_memset_list[i];
 535:Generated_Source\PSoC4/cyfitter_cfg.c **** 			CYMEMZERO(ms->address, (size_t)(uint32)(ms->size));
 536:Generated_Source\PSoC4/cyfitter_cfg.c **** 		}
 537:Generated_Source\PSoC4/cyfitter_cfg.c **** 
 538:Generated_Source\PSoC4/cyfitter_cfg.c **** 		cfg_write_bytes32(cy_cfg_addr_table, cy_cfg_data_table);
 539:Generated_Source\PSoC4/cyfitter_cfg.c **** 
 540:Generated_Source\PSoC4/cyfitter_cfg.c **** 		/* Perform normal device configuration. Order is not critical for these items. */
 541:Generated_Source\PSoC4/cyfitter_cfg.c **** 		CY_SET_XTND_REG16((void CYFAR *)(CYREG_UDB_BCTL0_DRV), 0x0A00u);
 113              		.loc 1 541 0
 114 0056 A022     		mov	r2, #160
 115 0058 464B     		ldr	r3, .L7+12
 116 005a 1201     		lsl	r2, r2, #4
 117 005c 1A80     		strh	r2, [r3]
 542:Generated_Source\PSoC4/cyfitter_cfg.c **** 		CY_SET_XTND_REG8((void CYFAR *)(CYREG_UDB_BCTL0_DRV + 0x2u), 0x01u);
 118              		.loc 1 542 0
 119 005e 0122     		mov	r2, #1
 120 0060 454B     		ldr	r3, .L7+16
 543:Generated_Source\PSoC4/cyfitter_cfg.c **** 
 544:Generated_Source\PSoC4/cyfitter_cfg.c **** 		/* HSIOM Starting address: CYDEV_HSIOM_BASE */
 545:Generated_Source\PSoC4/cyfitter_cfg.c **** 		CY_SET_XTND_REG32((void CYFAR *)(CYDEV_HSIOM_BASE), 0x03330003u);
 546:Generated_Source\PSoC4/cyfitter_cfg.c **** 		CY_SET_XTND_REG32((void CYFAR *)(CYREG_HSIOM_PORT_SEL3), 0x3333EE33u);
 547:Generated_Source\PSoC4/cyfitter_cfg.c **** 		CY_SET_XTND_REG32((void CYFAR *)(CYREG_HSIOM_PORT_SEL4), 0x000000EEu);
 548:Generated_Source\PSoC4/cyfitter_cfg.c **** 
 549:Generated_Source\PSoC4/cyfitter_cfg.c **** 		/* UDB_PA_0 Starting address: CYDEV_UDB_PA0_BASE */
 550:Generated_Source\PSoC4/cyfitter_cfg.c **** 		CY_SET_XTND_REG32((void CYFAR *)(CYDEV_UDB_PA0_BASE), 0x00990000u);
 551:Generated_Source\PSoC4/cyfitter_cfg.c **** 		CY_SET_XTND_REG32((void CYFAR *)(CYREG_UDB_PA0_CFG4), 0x80A80000u);
 121              		.loc 1 551 0
 122 0062 4649     		ldr	r1, .L7+20
 542:Generated_Source\PSoC4/cyfitter_cfg.c **** 		CY_SET_XTND_REG8((void CYFAR *)(CYREG_UDB_BCTL0_DRV + 0x2u), 0x01u);
 123              		.loc 1 542 0
 124 0064 1A70     		strb	r2, [r3]
ARM GAS  C:\Users\TECHCO~1\AppData\Local\Temp\ccMNJAoI.s 			page 13


 545:Generated_Source\PSoC4/cyfitter_cfg.c **** 		CY_SET_XTND_REG32((void CYFAR *)(CYREG_HSIOM_PORT_SEL3), 0x3333EE33u);
 125              		.loc 1 545 0
 126 0066 464A     		ldr	r2, .L7+24
 127 0068 464B     		ldr	r3, .L7+28
 552:Generated_Source\PSoC4/cyfitter_cfg.c **** 		CY_SET_XTND_REG32((void CYFAR *)(CYREG_UDB_PA0_CFG8), 0x2D010000u);
 553:Generated_Source\PSoC4/cyfitter_cfg.c **** 
 554:Generated_Source\PSoC4/cyfitter_cfg.c **** 		/* UDB_PA_1 Starting address: CYDEV_UDB_PA1_BASE */
 555:Generated_Source\PSoC4/cyfitter_cfg.c **** 		CY_SET_XTND_REG32((void CYFAR *)(CYDEV_UDB_PA1_BASE), 0x00990000u);
 556:Generated_Source\PSoC4/cyfitter_cfg.c **** 		CY_SET_XTND_REG32((void CYFAR *)(CYREG_UDB_PA1_CFG4), 0xAA000000u);
 557:Generated_Source\PSoC4/cyfitter_cfg.c **** 
 558:Generated_Source\PSoC4/cyfitter_cfg.c **** 		/* UDB_PA_2 Starting address: CYDEV_UDB_PA2_BASE */
 559:Generated_Source\PSoC4/cyfitter_cfg.c **** 		CY_SET_XTND_REG32((void CYFAR *)(CYDEV_UDB_PA2_BASE), 0x00990000u);
 560:Generated_Source\PSoC4/cyfitter_cfg.c **** 
 561:Generated_Source\PSoC4/cyfitter_cfg.c **** 		/* UDB_PA_3 Starting address: CYDEV_UDB_PA3_BASE */
 562:Generated_Source\PSoC4/cyfitter_cfg.c **** 		CY_SET_XTND_REG32((void CYFAR *)(CYDEV_UDB_PA3_BASE), 0x00990000u);
 563:Generated_Source\PSoC4/cyfitter_cfg.c **** 		CY_SET_XTND_REG32((void CYFAR *)(CYREG_UDB_PA3_CFG8), 0x2D580000u);
 564:Generated_Source\PSoC4/cyfitter_cfg.c **** 
 565:Generated_Source\PSoC4/cyfitter_cfg.c **** 		/* Enable digital routing */
 566:Generated_Source\PSoC4/cyfitter_cfg.c **** 		CY_SET_XTND_REG8((void *)CYREG_UDB_UDBIF_BANK_CTL, CY_GET_XTND_REG8((void *)CYREG_UDB_UDBIF_BANK_
 567:Generated_Source\PSoC4/cyfitter_cfg.c **** 
 568:Generated_Source\PSoC4/cyfitter_cfg.c **** 		/* Enable UDB array */
 569:Generated_Source\PSoC4/cyfitter_cfg.c **** 		CY_SET_XTND_REG8((void *)CYREG_UDB_UDBIF_WAIT_CFG, (uint8)((CY_GET_XTND_REG8((void *)CYREG_UDB_UD
 128              		.loc 1 569 0
 129 006a 3C20     		mov	r0, #60
 545:Generated_Source\PSoC4/cyfitter_cfg.c **** 		CY_SET_XTND_REG32((void CYFAR *)(CYREG_HSIOM_PORT_SEL3), 0x3333EE33u);
 130              		.loc 1 545 0
 131 006c 1A60     		str	r2, [r3]
 546:Generated_Source\PSoC4/cyfitter_cfg.c **** 		CY_SET_XTND_REG32((void CYFAR *)(CYREG_HSIOM_PORT_SEL4), 0x000000EEu);
 132              		.loc 1 546 0
 133 006e 464A     		ldr	r2, .L7+32
 134 0070 464B     		ldr	r3, .L7+36
 135              	.LBE16:
 136              	.LBB23:
 137              	.LBB24:
 200:Generated_Source\PSoC4/cyfitter_cfg.c **** 
 138              		.loc 1 200 0
 139 0072 474C     		ldr	r4, .L7+40
 140              	.LVL9:
 141              	.LBE24:
 142              	.LBE23:
 143              	.LBB27:
 546:Generated_Source\PSoC4/cyfitter_cfg.c **** 		CY_SET_XTND_REG32((void CYFAR *)(CYREG_HSIOM_PORT_SEL4), 0x000000EEu);
 144              		.loc 1 546 0
 145 0074 1A60     		str	r2, [r3]
 547:Generated_Source\PSoC4/cyfitter_cfg.c **** 
 146              		.loc 1 547 0
 147 0076 EE22     		mov	r2, #238
 148 0078 464B     		ldr	r3, .L7+44
 149              	.LBE27:
 570:Generated_Source\PSoC4/cyfitter_cfg.c **** 		CY_SET_XTND_REG8((void *)CYREG_UDB_UDBIF_BANK_CTL, (uint8)(CY_GET_XTND_REG8((void *)CYREG_UDB_UDB
 571:Generated_Source\PSoC4/cyfitter_cfg.c **** 	}
 572:Generated_Source\PSoC4/cyfitter_cfg.c **** 
 573:Generated_Source\PSoC4/cyfitter_cfg.c **** 	/* Perform second pass device configuration. These items must be configured in specific order afte
 574:Generated_Source\PSoC4/cyfitter_cfg.c **** 	/* IOPINS0_0 Starting address: CYDEV_PRT0_BASE */
 575:Generated_Source\PSoC4/cyfitter_cfg.c **** 	CY_SET_XTND_REG32((void CYFAR *)(CYDEV_PRT0_BASE), 0x000000FFu);
 576:Generated_Source\PSoC4/cyfitter_cfg.c **** 	CY_SET_XTND_REG32((void CYFAR *)(CYREG_PRT0_PC), 0x005B6496u);
 577:Generated_Source\PSoC4/cyfitter_cfg.c **** 
ARM GAS  C:\Users\TECHCO~1\AppData\Local\Temp\ccMNJAoI.s 			page 14


 578:Generated_Source\PSoC4/cyfitter_cfg.c **** 	/* IOPINS0_1 Starting address: CYDEV_PRT1_BASE */
 579:Generated_Source\PSoC4/cyfitter_cfg.c **** 	CY_SET_XTND_REG32((void CYFAR *)(CYDEV_PRT1_BASE), 0x000000F3u);
 580:Generated_Source\PSoC4/cyfitter_cfg.c **** 	CY_SET_XTND_REG32((void CYFAR *)(CYREG_PRT1_PC), 0x00492D92u);
 581:Generated_Source\PSoC4/cyfitter_cfg.c **** 	CY_SET_XTND_REG32((void CYFAR *)(CYREG_PRT1_INTCFG), 0x0000000Au);
 582:Generated_Source\PSoC4/cyfitter_cfg.c **** 
 583:Generated_Source\PSoC4/cyfitter_cfg.c **** 	/* IOPINS0_2 Starting address: CYDEV_PRT2_BASE */
 584:Generated_Source\PSoC4/cyfitter_cfg.c **** 	CY_SET_XTND_REG32((void CYFAR *)(CYDEV_PRT2_BASE), 0x0000003Fu);
 585:Generated_Source\PSoC4/cyfitter_cfg.c **** 	CY_SET_XTND_REG32((void CYFAR *)(CYREG_PRT2_PC), 0x00012492u);
 586:Generated_Source\PSoC4/cyfitter_cfg.c **** 
 587:Generated_Source\PSoC4/cyfitter_cfg.c **** 	/* IOPINS0_3 Starting address: CYDEV_PRT3_BASE */
 588:Generated_Source\PSoC4/cyfitter_cfg.c **** 	CY_SET_XTND_REG32((void CYFAR *)(CYDEV_PRT3_BASE), 0x000000F3u);
 589:Generated_Source\PSoC4/cyfitter_cfg.c **** 	CY_SET_XTND_REG32((void CYFAR *)(CYREG_PRT3_PC), 0x00DB6DB6u);
 590:Generated_Source\PSoC4/cyfitter_cfg.c **** 
 591:Generated_Source\PSoC4/cyfitter_cfg.c **** 	/* IOPINS0_4 Starting address: CYDEV_PRT4_BASE */
 592:Generated_Source\PSoC4/cyfitter_cfg.c **** 	CY_SET_XTND_REG32((void CYFAR *)(CYDEV_PRT4_BASE), 0x00000003u);
 593:Generated_Source\PSoC4/cyfitter_cfg.c **** 	CY_SET_XTND_REG32((void CYFAR *)(CYREG_PRT4_PC), 0x00000024u);
 594:Generated_Source\PSoC4/cyfitter_cfg.c **** 
 595:Generated_Source\PSoC4/cyfitter_cfg.c **** 
 596:Generated_Source\PSoC4/cyfitter_cfg.c **** 	/* Setup clocks based on selections from Clock DWR */
 597:Generated_Source\PSoC4/cyfitter_cfg.c **** 	ClockSetup();
 598:Generated_Source\PSoC4/cyfitter_cfg.c **** 
 599:Generated_Source\PSoC4/cyfitter_cfg.c **** 	/* Perform basic analog initialization to defaults */
 600:Generated_Source\PSoC4/cyfitter_cfg.c **** 	AnalogSetDefault();
 601:Generated_Source\PSoC4/cyfitter_cfg.c **** 
 602:Generated_Source\PSoC4/cyfitter_cfg.c **** }
 150              		.loc 1 602 0
 151              		@ sp needed
 152              	.LBB28:
 547:Generated_Source\PSoC4/cyfitter_cfg.c **** 
 153              		.loc 1 547 0
 154 007a 1A60     		str	r2, [r3]
 550:Generated_Source\PSoC4/cyfitter_cfg.c **** 		CY_SET_XTND_REG32((void CYFAR *)(CYREG_UDB_PA0_CFG4), 0x80A80000u);
 155              		.loc 1 550 0
 156 007c 9923     		mov	r3, #153
 157 007e 464A     		ldr	r2, .L7+48
 158 0080 1B04     		lsl	r3, r3, #16
 159 0082 1360     		str	r3, [r2]
 551:Generated_Source\PSoC4/cyfitter_cfg.c **** 		CY_SET_XTND_REG32((void CYFAR *)(CYREG_UDB_PA0_CFG8), 0x2D010000u);
 160              		.loc 1 551 0
 161 0084 454A     		ldr	r2, .L7+52
 162 0086 1160     		str	r1, [r2]
 552:Generated_Source\PSoC4/cyfitter_cfg.c **** 
 163              		.loc 1 552 0
 164 0088 4549     		ldr	r1, .L7+56
 165 008a 464A     		ldr	r2, .L7+60
 166 008c 1160     		str	r1, [r2]
 556:Generated_Source\PSoC4/cyfitter_cfg.c **** 
 167              		.loc 1 556 0
 168 008e AA21     		mov	r1, #170
 555:Generated_Source\PSoC4/cyfitter_cfg.c **** 		CY_SET_XTND_REG32((void CYFAR *)(CYREG_UDB_PA1_CFG4), 0xAA000000u);
 169              		.loc 1 555 0
 170 0090 454A     		ldr	r2, .L7+64
 556:Generated_Source\PSoC4/cyfitter_cfg.c **** 
 171              		.loc 1 556 0
 172 0092 0906     		lsl	r1, r1, #24
 555:Generated_Source\PSoC4/cyfitter_cfg.c **** 		CY_SET_XTND_REG32((void CYFAR *)(CYREG_UDB_PA1_CFG4), 0xAA000000u);
 173              		.loc 1 555 0
ARM GAS  C:\Users\TECHCO~1\AppData\Local\Temp\ccMNJAoI.s 			page 15


 174 0094 1360     		str	r3, [r2]
 556:Generated_Source\PSoC4/cyfitter_cfg.c **** 
 175              		.loc 1 556 0
 176 0096 454A     		ldr	r2, .L7+68
 177 0098 1160     		str	r1, [r2]
 566:Generated_Source\PSoC4/cyfitter_cfg.c **** 
 178              		.loc 1 566 0
 179 009a 0221     		mov	r1, #2
 559:Generated_Source\PSoC4/cyfitter_cfg.c **** 
 180              		.loc 1 559 0
 181 009c 444A     		ldr	r2, .L7+72
 182 009e 1360     		str	r3, [r2]
 562:Generated_Source\PSoC4/cyfitter_cfg.c **** 		CY_SET_XTND_REG32((void CYFAR *)(CYREG_UDB_PA3_CFG8), 0x2D580000u);
 183              		.loc 1 562 0
 184 00a0 444A     		ldr	r2, .L7+76
 185 00a2 1360     		str	r3, [r2]
 563:Generated_Source\PSoC4/cyfitter_cfg.c **** 
 186              		.loc 1 563 0
 187 00a4 444A     		ldr	r2, .L7+80
 188 00a6 454B     		ldr	r3, .L7+84
 189 00a8 1A60     		str	r2, [r3]
 566:Generated_Source\PSoC4/cyfitter_cfg.c **** 
 190              		.loc 1 566 0
 191 00aa 454A     		ldr	r2, .L7+88
 192 00ac 1378     		ldrb	r3, [r2]
 193 00ae 0B43     		orr	r3, r1
 569:Generated_Source\PSoC4/cyfitter_cfg.c **** 		CY_SET_XTND_REG8((void *)CYREG_UDB_UDBIF_BANK_CTL, (uint8)(CY_GET_XTND_REG8((void *)CYREG_UDB_UDB
 194              		.loc 1 569 0
 195 00b0 4449     		ldr	r1, .L7+92
 566:Generated_Source\PSoC4/cyfitter_cfg.c **** 
 196              		.loc 1 566 0
 197 00b2 1370     		strb	r3, [r2]
 569:Generated_Source\PSoC4/cyfitter_cfg.c **** 		CY_SET_XTND_REG8((void *)CYREG_UDB_UDBIF_BANK_CTL, (uint8)(CY_GET_XTND_REG8((void *)CYREG_UDB_UDB
 198              		.loc 1 569 0
 199 00b4 0B78     		ldrb	r3, [r1]
 200 00b6 8343     		bic	r3, r0
 201 00b8 2838     		sub	r0, r0, #40
 202 00ba 0343     		orr	r3, r0
 203 00bc 0B70     		strb	r3, [r1]
 570:Generated_Source\PSoC4/cyfitter_cfg.c **** 	}
 204              		.loc 1 570 0
 205 00be 1621     		mov	r1, #22
 206 00c0 1378     		ldrb	r3, [r2]
 207              	.LBE28:
 208              	.LBB29:
 209              	.LBB25:
 203:Generated_Source\PSoC4/cyfitter_cfg.c **** 
 210              		.loc 1 203 0
 211 00c2 0430     		add	r0, r0, #4
 212              	.LBE25:
 213              	.LBE29:
 214              	.LBB30:
 570:Generated_Source\PSoC4/cyfitter_cfg.c **** 	}
 215              		.loc 1 570 0
 216 00c4 0B43     		orr	r3, r1
 217 00c6 1370     		strb	r3, [r2]
 218              	.LBE30:
ARM GAS  C:\Users\TECHCO~1\AppData\Local\Temp\ccMNJAoI.s 			page 16


 575:Generated_Source\PSoC4/cyfitter_cfg.c **** 	CY_SET_XTND_REG32((void CYFAR *)(CYREG_PRT0_PC), 0x005B6496u);
 219              		.loc 1 575 0
 220 00c8 FF22     		mov	r2, #255
 221 00ca 3F4B     		ldr	r3, .L7+96
 580:Generated_Source\PSoC4/cyfitter_cfg.c **** 	CY_SET_XTND_REG32((void CYFAR *)(CYREG_PRT1_INTCFG), 0x0000000Au);
 222              		.loc 1 580 0
 223 00cc 3F49     		ldr	r1, .L7+100
 575:Generated_Source\PSoC4/cyfitter_cfg.c **** 	CY_SET_XTND_REG32((void CYFAR *)(CYREG_PRT0_PC), 0x005B6496u);
 224              		.loc 1 575 0
 225 00ce 1A60     		str	r2, [r3]
 576:Generated_Source\PSoC4/cyfitter_cfg.c **** 
 226              		.loc 1 576 0
 227 00d0 3F4A     		ldr	r2, .L7+104
 228 00d2 404B     		ldr	r3, .L7+108
 229 00d4 1A60     		str	r2, [r3]
 579:Generated_Source\PSoC4/cyfitter_cfg.c **** 	CY_SET_XTND_REG32((void CYFAR *)(CYREG_PRT1_PC), 0x00492D92u);
 230              		.loc 1 579 0
 231 00d6 F323     		mov	r3, #243
 232 00d8 3F4A     		ldr	r2, .L7+112
 233 00da 1360     		str	r3, [r2]
 580:Generated_Source\PSoC4/cyfitter_cfg.c **** 	CY_SET_XTND_REG32((void CYFAR *)(CYREG_PRT1_INTCFG), 0x0000000Au);
 234              		.loc 1 580 0
 235 00dc 3F4A     		ldr	r2, .L7+116
 236 00de 1160     		str	r1, [r2]
 581:Generated_Source\PSoC4/cyfitter_cfg.c **** 
 237              		.loc 1 581 0
 238 00e0 0A21     		mov	r1, #10
 239 00e2 3F4A     		ldr	r2, .L7+120
 240 00e4 1160     		str	r1, [r2]
 584:Generated_Source\PSoC4/cyfitter_cfg.c **** 	CY_SET_XTND_REG32((void CYFAR *)(CYREG_PRT2_PC), 0x00012492u);
 241              		.loc 1 584 0
 242 00e6 3F4A     		ldr	r2, .L7+124
 243 00e8 3531     		add	r1, r1, #53
 244 00ea 1160     		str	r1, [r2]
 585:Generated_Source\PSoC4/cyfitter_cfg.c **** 
 245              		.loc 1 585 0
 246 00ec 3E49     		ldr	r1, .L7+128
 247 00ee 3F4A     		ldr	r2, .L7+132
 248 00f0 1160     		str	r1, [r2]
 588:Generated_Source\PSoC4/cyfitter_cfg.c **** 	CY_SET_XTND_REG32((void CYFAR *)(CYREG_PRT3_PC), 0x00DB6DB6u);
 249              		.loc 1 588 0
 250 00f2 3F4A     		ldr	r2, .L7+136
 251 00f4 1360     		str	r3, [r2]
 589:Generated_Source\PSoC4/cyfitter_cfg.c **** 
 252              		.loc 1 589 0
 253 00f6 3F4A     		ldr	r2, .L7+140
 254 00f8 3F4B     		ldr	r3, .L7+144
 255 00fa 1A60     		str	r2, [r3]
 592:Generated_Source\PSoC4/cyfitter_cfg.c **** 	CY_SET_XTND_REG32((void CYFAR *)(CYREG_PRT4_PC), 0x00000024u);
 256              		.loc 1 592 0
 257 00fc 0322     		mov	r2, #3
 258 00fe 3F4B     		ldr	r3, .L7+148
 259 0100 1A60     		str	r2, [r3]
 593:Generated_Source\PSoC4/cyfitter_cfg.c **** 
 260              		.loc 1 593 0
 261 0102 3F4B     		ldr	r3, .L7+152
 262 0104 2132     		add	r2, r2, #33
ARM GAS  C:\Users\TECHCO~1\AppData\Local\Temp\ccMNJAoI.s 			page 17


 263 0106 1A60     		str	r2, [r3]
 264              	.LBB31:
 265              	.LBB26:
 200:Generated_Source\PSoC4/cyfitter_cfg.c **** 
 266              		.loc 1 200 0
 267 0108 8022     		mov	r2, #128
 268 010a 2368     		ldr	r3, [r4]
 269 010c D202     		lsl	r2, r2, #11
 270 010e 1343     		orr	r3, r2
 271 0110 2360     		str	r3, [r4]
 203:Generated_Source\PSoC4/cyfitter_cfg.c **** 
 272              		.loc 1 203 0
 273 0112 FFF7FEFF 		bl	CySysClkWriteImoFreq
 274              	.LVL10:
 206:Generated_Source\PSoC4/cyfitter_cfg.c **** 	/* CYDEV_CLK_ILO_CONFIG Starting address: CYDEV_CLK_ILO_CONFIG */
 275              		.loc 1 206 0
 276 0116 2268     		ldr	r2, [r4]
 277 0118 3A4B     		ldr	r3, .L7+156
 215:Generated_Source\PSoC4/cyfitter_cfg.c **** 	CY_SET_XTND_REG32((void CYFAR *)(CYREG_CLK_SELECT11), 0x00000020u);
 278              		.loc 1 215 0
 279 011a 3B49     		ldr	r1, .L7+160
 206:Generated_Source\PSoC4/cyfitter_cfg.c **** 	/* CYDEV_CLK_ILO_CONFIG Starting address: CYDEV_CLK_ILO_CONFIG */
 280              		.loc 1 206 0
 281 011c 1340     		and	r3, r2
 282 011e 2360     		str	r3, [r4]
 208:Generated_Source\PSoC4/cyfitter_cfg.c **** 
 283              		.loc 1 208 0
 284 0120 3A4A     		ldr	r2, .L7+164
 285 0122 3B4B     		ldr	r3, .L7+168
 286 0124 1A60     		str	r2, [r3]
 212:Generated_Source\PSoC4/cyfitter_cfg.c **** 	CY_SET_XTND_REG32((void CYFAR *)(CYREG_CLK_SELECT08), 0x00000030u);
 287              		.loc 1 212 0
 288 0126 1022     		mov	r2, #16
 289 0128 3A4B     		ldr	r3, .L7+172
 290 012a 1A60     		str	r2, [r3]
 213:Generated_Source\PSoC4/cyfitter_cfg.c **** 	CY_SET_XTND_REG32((void CYFAR *)(CYREG_CLK_SELECT09), 0x00000030u);
 291              		.loc 1 213 0
 292 012c 3023     		mov	r3, #48
 293 012e 3A4A     		ldr	r2, .L7+176
 294 0130 1360     		str	r3, [r2]
 214:Generated_Source\PSoC4/cyfitter_cfg.c **** 	CY_SET_XTND_REG32((void CYFAR *)(CYREG_CLK_SELECT10), 0x00000020u);
 295              		.loc 1 214 0
 296 0132 3A4A     		ldr	r2, .L7+180
 297 0134 1360     		str	r3, [r2]
 215:Generated_Source\PSoC4/cyfitter_cfg.c **** 	CY_SET_XTND_REG32((void CYFAR *)(CYREG_CLK_SELECT11), 0x00000020u);
 298              		.loc 1 215 0
 299 0136 2022     		mov	r2, #32
 300 0138 0A60     		str	r2, [r1]
 216:Generated_Source\PSoC4/cyfitter_cfg.c **** 	CY_SET_XTND_REG32((void CYFAR *)(CYREG_CLK_SELECT13), 0x00000020u);
 301              		.loc 1 216 0
 302 013a 3949     		ldr	r1, .L7+184
 303 013c 0A60     		str	r2, [r1]
 217:Generated_Source\PSoC4/cyfitter_cfg.c **** 	CY_SET_XTND_REG32((void CYFAR *)(CYREG_CLK_SELECT15), 0x00000030u);
 304              		.loc 1 217 0
 305 013e 3949     		ldr	r1, .L7+188
 306 0140 0A60     		str	r2, [r1]
 218:Generated_Source\PSoC4/cyfitter_cfg.c **** 
ARM GAS  C:\Users\TECHCO~1\AppData\Local\Temp\ccMNJAoI.s 			page 18


 307              		.loc 1 218 0
 308 0142 394A     		ldr	r2, .L7+192
 227:Generated_Source\PSoC4/cyfitter_cfg.c **** 
 309              		.loc 1 227 0
 310 0144 3949     		ldr	r1, .L7+196
 218:Generated_Source\PSoC4/cyfitter_cfg.c **** 
 311              		.loc 1 218 0
 312 0146 1360     		str	r3, [r2]
 221:Generated_Source\PSoC4/cyfitter_cfg.c **** 
 313              		.loc 1 221 0
 314 0148 8022     		mov	r2, #128
 315 014a 394B     		ldr	r3, .L7+200
 316 014c 1206     		lsl	r2, r2, #24
 317 014e 1A60     		str	r2, [r3]
 224:Generated_Source\PSoC4/cyfitter_cfg.c **** 
 318              		.loc 1 224 0
 319 0150 0023     		mov	r3, #0
 320 0152 2360     		str	r3, [r4]
 227:Generated_Source\PSoC4/cyfitter_cfg.c **** 
 321              		.loc 1 227 0
 322 0154 0A60     		str	r2, [r1]
 230:Generated_Source\PSoC4/cyfitter_cfg.c **** 
 323              		.loc 1 230 0
 324 0156 374A     		ldr	r2, .L7+204
 325 0158 3749     		ldr	r1, .L7+208
 326 015a 0A60     		str	r2, [r1]
 233:Generated_Source\PSoC4/cyfitter_cfg.c **** 
 327              		.loc 1 233 0
 328 015c 3749     		ldr	r1, .L7+212
 329 015e 0A60     		str	r2, [r1]
 235:Generated_Source\PSoC4/cyfitter_cfg.c **** }
 330              		.loc 1 235 0
 331 0160 374A     		ldr	r2, .L7+216
 332 0162 1360     		str	r3, [r2]
 333              	.LVL11:
 334              	.LVL12:
 335              	.LBE26:
 336              	.LBE31:
 337              		.loc 1 602 0
 338 0164 F8BD     		pop	{r3, r4, r5, r6, r7, pc}
 339              	.L8:
 340 0166 C046     		.align	2
 341              	.L7:
 342 0168 00300F40 		.word	1074737152
 343 016c 00400F40 		.word	1074741248
 344 0170 00000000 		.word	.LANCHOR0
 345 0174 00600F40 		.word	1074749440
 346 0178 02600F40 		.word	1074749442
 347 017c 0000A880 		.word	-2136473600
 348 0180 03003303 		.word	53673987
 349 0184 00000140 		.word	1073807360
 350 0188 33EE3333 		.word	859041331
 351 018c 0C000140 		.word	1073807372
 352 0190 00010B40 		.word	1074462976
 353 0194 10000140 		.word	1073807376
 354 0198 00500F40 		.word	1074745344
 355 019c 04500F40 		.word	1074745348
ARM GAS  C:\Users\TECHCO~1\AppData\Local\Temp\ccMNJAoI.s 			page 19


 356 01a0 0000012D 		.word	755040256
 357 01a4 08500F40 		.word	1074745352
 358 01a8 10500F40 		.word	1074745360
 359 01ac 14500F40 		.word	1074745364
 360 01b0 20500F40 		.word	1074745376
 361 01b4 30500F40 		.word	1074745392
 362 01b8 0000582D 		.word	760741888
 363 01bc 38500F40 		.word	1074745400
 364 01c0 00700F40 		.word	1074753536
 365 01c4 01700F40 		.word	1074753537
 366 01c8 00000440 		.word	1074003968
 367 01cc 922D4900 		.word	4795794
 368 01d0 96645B00 		.word	5989526
 369 01d4 08000440 		.word	1074003976
 370 01d8 00010440 		.word	1074004224
 371 01dc 08010440 		.word	1074004232
 372 01e0 0C010440 		.word	1074004236
 373 01e4 00020440 		.word	1074004480
 374 01e8 92240100 		.word	74898
 375 01ec 08020440 		.word	1074004488
 376 01f0 00030440 		.word	1074004736
 377 01f4 B66DDB00 		.word	14380470
 378 01f8 08030440 		.word	1074004744
 379 01fc 00040440 		.word	1074004992
 380 0200 08040440 		.word	1074005000
 381 0204 FFFFFBFF 		.word	-262145
 382 0208 28020240 		.word	1073873448
 383 020c 06000080 		.word	-2147483642
 384 0210 04010B40 		.word	1074462980
 385 0214 08020240 		.word	1073873416
 386 0218 20020240 		.word	1073873440
 387 021c 24020240 		.word	1073873444
 388 0220 2C020240 		.word	1073873452
 389 0224 34020240 		.word	1073873460
 390 0228 3C020240 		.word	1073873468
 391 022c 00000240 		.word	1073872896
 392 0230 08010B40 		.word	1074462984
 393 0234 02000080 		.word	-2147483646
 394 0238 40000240 		.word	1073872960
 395 023c 80000240 		.word	1073873024
 396 0240 0C020B40 		.word	1074463244
 397              		.cfi_endproc
 398              	.LFE6:
 399              		.size	cyfitter_cfg, .-cyfitter_cfg
 400              		.section	.rodata
 401              		.align	2
 402              		.set	.LANCHOR0,. + 0
 403              		.type	cy_cfg_addr_table.4742, %object
 404              		.size	cy_cfg_addr_table.4742, 40
 405              	cy_cfg_addr_table.4742:
 406 0000 01000F40 		.word	1074724865
 407 0004 36300F40 		.word	1074737206
 408 0008 15310F40 		.word	1074737429
 409 000c 3F320F40 		.word	1074737727
 410 0010 24330F40 		.word	1074737956
 411 0014 09400F40 		.word	1074741257
 412 0018 07410F40 		.word	1074741511
ARM GAS  C:\Users\TECHCO~1\AppData\Local\Temp\ccMNJAoI.s 			page 20


 413 001c 02420F40 		.word	1074741762
 414 0020 11430F40 		.word	1074742033
 415 0024 02600F40 		.word	1074749442
 416              		.type	cy_cfg_data_table.4743, %object
 417              		.size	cy_cfg_data_table.4743, 424
 418              	cy_cfg_data_table.4743:
 419 0028 83       		.byte	-125
 420 0029 0D       		.byte	13
 421 002a 40       		.byte	64
 422 002b 20       		.byte	32
 423 002c 41       		.byte	65
 424 002d 03       		.byte	3
 425 002e 49       		.byte	73
 426 002f FF       		.byte	-1
 427 0030 4A       		.byte	74
 428 0031 FF       		.byte	-1
 429 0032 4B       		.byte	75
 430 0033 FF       		.byte	-1
 431 0034 4D       		.byte	77
 432 0035 A0       		.byte	-96
 433 0036 4F       		.byte	79
 434 0037 04       		.byte	4
 435 0038 50       		.byte	80
 436 0039 18       		.byte	24
 437 003a 5A       		.byte	90
 438 003b 04       		.byte	4
 439 003c 5B       		.byte	91
 440 003d 04       		.byte	4
 441 003e 5D       		.byte	93
 442 003f 03       		.byte	3
 443 0040 5F       		.byte	95
 444 0041 01       		.byte	1
 445 0042 60       		.byte	96
 446 0043 40       		.byte	64
 447 0044 62       		.byte	98
 448 0045 C0       		.byte	-64
 449 0046 64       		.byte	100
 450 0047 40       		.byte	64
 451 0048 65       		.byte	101
 452 0049 40       		.byte	64
 453 004a 66       		.byte	102
 454 004b C0       		.byte	-64
 455 004c 68       		.byte	104
 456 004d C0       		.byte	-64
 457 004e 6A       		.byte	106
 458 004f C0       		.byte	-64
 459 0050 6C       		.byte	108
 460 0051 C0       		.byte	-64
 461 0052 6E       		.byte	110
 462 0053 C0       		.byte	-64
 463 0054 86       		.byte	-122
 464 0055 02       		.byte	2
 465 0056 9A       		.byte	-102
 466 0057 02       		.byte	2
 467 0058 AE       		.byte	-82
 468 0059 01       		.byte	1
 469 005a B0       		.byte	-80
ARM GAS  C:\Users\TECHCO~1\AppData\Local\Temp\ccMNJAoI.s 			page 21


 470 005b 02       		.byte	2
 471 005c B4       		.byte	-76
 472 005d 01       		.byte	1
 473 005e C0       		.byte	-64
 474 005f 20       		.byte	32
 475 0060 C1       		.byte	-63
 476 0061 03       		.byte	3
 477 0062 C5       		.byte	-59
 478 0063 01       		.byte	1
 479 0064 C6       		.byte	-58
 480 0065 20       		.byte	32
 481 0066 C8       		.byte	-56
 482 0067 09       		.byte	9
 483 0068 C9       		.byte	-55
 484 0069 FF       		.byte	-1
 485 006a CA       		.byte	-54
 486 006b FF       		.byte	-1
 487 006c CB       		.byte	-53
 488 006d FF       		.byte	-1
 489 006e CD       		.byte	-51
 490 006f AF       		.byte	-81
 491 0070 CE       		.byte	-50
 492 0071 0F       		.byte	15
 493 0072 CF       		.byte	-49
 494 0073 04       		.byte	4
 495 0074 D0       		.byte	-48
 496 0075 18       		.byte	24
 497 0076 D2       		.byte	-46
 498 0077 80       		.byte	-128
 499 0078 D8       		.byte	-40
 500 0079 04       		.byte	4
 501 007a DA       		.byte	-38
 502 007b 04       		.byte	4
 503 007c DB       		.byte	-37
 504 007d 04       		.byte	4
 505 007e DC       		.byte	-36
 506 007f 03       		.byte	3
 507 0080 DD       		.byte	-35
 508 0081 33       		.byte	51
 509 0082 DF       		.byte	-33
 510 0083 01       		.byte	1
 511 0084 E0       		.byte	-32
 512 0085 40       		.byte	64
 513 0086 E2       		.byte	-30
 514 0087 C0       		.byte	-64
 515 0088 E4       		.byte	-28
 516 0089 40       		.byte	64
 517 008a E5       		.byte	-27
 518 008b 40       		.byte	64
 519 008c E6       		.byte	-26
 520 008d C0       		.byte	-64
 521 008e E8       		.byte	-24
 522 008f C0       		.byte	-64
 523 0090 EA       		.byte	-22
 524 0091 C0       		.byte	-64
 525 0092 EC       		.byte	-20
 526 0093 C0       		.byte	-64
ARM GAS  C:\Users\TECHCO~1\AppData\Local\Temp\ccMNJAoI.s 			page 22


 527 0094 EE       		.byte	-18
 528 0095 C0       		.byte	-64
 529 0096 04       		.byte	4
 530 0097 04       		.byte	4
 531 0098 0F       		.byte	15
 532 0099 08       		.byte	8
 533 009a 17       		.byte	23
 534 009b 80       		.byte	-128
 535 009c 1C       		.byte	28
 536 009d 04       		.byte	4
 537 009e 1D       		.byte	29
 538 009f 20       		.byte	32
 539 00a0 1E       		.byte	30
 540 00a1 80       		.byte	-128
 541 00a2 40       		.byte	64
 542 00a3 04       		.byte	4
 543 00a4 42       		.byte	66
 544 00a5 20       		.byte	32
 545 00a6 45       		.byte	69
 546 00a7 20       		.byte	32
 547 00a8 46       		.byte	70
 548 00a9 20       		.byte	32
 549 00aa 4F       		.byte	79
 550 00ab 08       		.byte	8
 551 00ac 56       		.byte	86
 552 00ad 20       		.byte	32
 553 00ae 68       		.byte	104
 554 00af 04       		.byte	4
 555 00b0 6A       		.byte	106
 556 00b1 40       		.byte	64
 557 00b2 77       		.byte	119
 558 00b3 80       		.byte	-128
 559 00b4 82       		.byte	-126
 560 00b5 40       		.byte	64
 561 00b6 88       		.byte	-120
 562 00b7 04       		.byte	4
 563 00b8 C0       		.byte	-64
 564 00b9 20       		.byte	32
 565 00ba C2       		.byte	-62
 566 00bb 40       		.byte	64
 567 00bc C4       		.byte	-60
 568 00bd 80       		.byte	-128
 569 00be D0       		.byte	-48
 570 00bf 66       		.byte	102
 571 00c0 40       		.byte	64
 572 00c1 60       		.byte	96
 573 00c2 41       		.byte	65
 574 00c3 05       		.byte	5
 575 00c4 49       		.byte	73
 576 00c5 FF       		.byte	-1
 577 00c6 4A       		.byte	74
 578 00c7 FF       		.byte	-1
 579 00c8 4B       		.byte	75
 580 00c9 FF       		.byte	-1
 581 00ca 4D       		.byte	77
 582 00cb A0       		.byte	-96
 583 00cc 4F       		.byte	79
ARM GAS  C:\Users\TECHCO~1\AppData\Local\Temp\ccMNJAoI.s 			page 23


 584 00cd 04       		.byte	4
 585 00ce 50       		.byte	80
 586 00cf 18       		.byte	24
 587 00d0 5A       		.byte	90
 588 00d1 04       		.byte	4
 589 00d2 5B       		.byte	91
 590 00d3 04       		.byte	4
 591 00d4 5D       		.byte	93
 592 00d5 01       		.byte	1
 593 00d6 5F       		.byte	95
 594 00d7 01       		.byte	1
 595 00d8 60       		.byte	96
 596 00d9 40       		.byte	64
 597 00da 62       		.byte	98
 598 00db C0       		.byte	-64
 599 00dc 64       		.byte	100
 600 00dd 40       		.byte	64
 601 00de 65       		.byte	101
 602 00df 40       		.byte	64
 603 00e0 66       		.byte	102
 604 00e1 C0       		.byte	-64
 605 00e2 68       		.byte	104
 606 00e3 C0       		.byte	-64
 607 00e4 6A       		.byte	106
 608 00e5 C0       		.byte	-64
 609 00e6 6C       		.byte	108
 610 00e7 C0       		.byte	-64
 611 00e8 6E       		.byte	110
 612 00e9 C0       		.byte	-64
 613 00ea 86       		.byte	-122
 614 00eb 06       		.byte	6
 615 00ec 8E       		.byte	-114
 616 00ed 02       		.byte	2
 617 00ee 92       		.byte	-110
 618 00ef 01       		.byte	1
 619 00f0 9B       		.byte	-101
 620 00f1 01       		.byte	1
 621 00f2 A6       		.byte	-90
 622 00f3 0C       		.byte	12
 623 00f4 AD       		.byte	-83
 624 00f5 01       		.byte	1
 625 00f6 B0       		.byte	-80
 626 00f7 04       		.byte	4
 627 00f8 B2       		.byte	-78
 628 00f9 02       		.byte	2
 629 00fa B4       		.byte	-76
 630 00fb 01       		.byte	1
 631 00fc B6       		.byte	-74
 632 00fd 08       		.byte	8
 633 00fe B7       		.byte	-73
 634 00ff 01       		.byte	1
 635 0100 BE       		.byte	-66
 636 0101 04       		.byte	4
 637 0102 C0       		.byte	-64
 638 0103 20       		.byte	32
 639 0104 C1       		.byte	-63
 640 0105 05       		.byte	5
ARM GAS  C:\Users\TECHCO~1\AppData\Local\Temp\ccMNJAoI.s 			page 24


 641 0106 C5       		.byte	-59
 642 0107 D1       		.byte	-47
 643 0108 C7       		.byte	-57
 644 0109 20       		.byte	32
 645 010a C8       		.byte	-56
 646 010b 23       		.byte	35
 647 010c C9       		.byte	-55
 648 010d FF       		.byte	-1
 649 010e CA       		.byte	-54
 650 010f FF       		.byte	-1
 651 0110 CB       		.byte	-53
 652 0111 FF       		.byte	-1
 653 0112 CD       		.byte	-51
 654 0113 AF       		.byte	-81
 655 0114 CE       		.byte	-50
 656 0115 0F       		.byte	15
 657 0116 CF       		.byte	-49
 658 0117 04       		.byte	4
 659 0118 D0       		.byte	-48
 660 0119 18       		.byte	24
 661 011a D2       		.byte	-46
 662 011b 80       		.byte	-128
 663 011c D4       		.byte	-44
 664 011d 05       		.byte	5
 665 011e D8       		.byte	-40
 666 011f 04       		.byte	4
 667 0120 D9       		.byte	-39
 668 0121 04       		.byte	4
 669 0122 DA       		.byte	-38
 670 0123 04       		.byte	4
 671 0124 DB       		.byte	-37
 672 0125 04       		.byte	4
 673 0126 DC       		.byte	-36
 674 0127 11       		.byte	17
 675 0128 DD       		.byte	-35
 676 0129 11       		.byte	17
 677 012a DF       		.byte	-33
 678 012b 01       		.byte	1
 679 012c E0       		.byte	-32
 680 012d 40       		.byte	64
 681 012e E2       		.byte	-30
 682 012f C0       		.byte	-64
 683 0130 E4       		.byte	-28
 684 0131 40       		.byte	64
 685 0132 E5       		.byte	-27
 686 0133 40       		.byte	64
 687 0134 E6       		.byte	-26
 688 0135 C0       		.byte	-64
 689 0136 E8       		.byte	-24
 690 0137 C0       		.byte	-64
 691 0138 EA       		.byte	-22
 692 0139 C0       		.byte	-64
 693 013a EC       		.byte	-20
 694 013b C0       		.byte	-64
 695 013c EE       		.byte	-18
 696 013d C0       		.byte	-64
 697 013e 00       		.byte	0
ARM GAS  C:\Users\TECHCO~1\AppData\Local\Temp\ccMNJAoI.s 			page 25


 698 013f 04       		.byte	4
 699 0140 02       		.byte	2
 700 0141 02       		.byte	2
 701 0142 09       		.byte	9
 702 0143 02       		.byte	2
 703 0144 10       		.byte	16
 704 0145 20       		.byte	32
 705 0146 18       		.byte	24
 706 0147 04       		.byte	4
 707 0148 19       		.byte	25
 708 0149 44       		.byte	68
 709 014a 1A       		.byte	26
 710 014b 40       		.byte	64
 711 014c 1B       		.byte	27
 712 014d 10       		.byte	16
 713 014e 22       		.byte	34
 714 014f 40       		.byte	64
 715 0150 29       		.byte	41
 716 0151 40       		.byte	64
 717 0152 30       		.byte	48
 718 0153 20       		.byte	32
 719 0154 40       		.byte	64
 720 0155 04       		.byte	4
 721 0156 48       		.byte	72
 722 0157 20       		.byte	32
 723 0158 49       		.byte	73
 724 0159 01       		.byte	1
 725 015a 4A       		.byte	74
 726 015b 02       		.byte	2
 727 015c 4E       		.byte	78
 728 015d 02       		.byte	2
 729 015e 4F       		.byte	79
 730 015f 20       		.byte	32
 731 0160 52       		.byte	82
 732 0161 02       		.byte	2
 733 0162 59       		.byte	89
 734 0163 05       		.byte	5
 735 0164 5A       		.byte	90
 736 0165 80       		.byte	-128
 737 0166 6E       		.byte	110
 738 0167 80       		.byte	-128
 739 0168 6F       		.byte	111
 740 0169 08       		.byte	8
 741 016a 71       		.byte	113
 742 016b 02       		.byte	2
 743 016c 86       		.byte	-122
 744 016d 40       		.byte	64
 745 016e 8E       		.byte	-114
 746 016f 40       		.byte	64
 747 0170 8F       		.byte	-113
 748 0171 08       		.byte	8
 749 0172 AE       		.byte	-82
 750 0173 40       		.byte	64
 751 0174 C0       		.byte	-64
 752 0175 05       		.byte	5
 753 0176 C2       		.byte	-62
 754 0177 08       		.byte	8
ARM GAS  C:\Users\TECHCO~1\AppData\Local\Temp\ccMNJAoI.s 			page 26


 755 0178 C4       		.byte	-60
 756 0179 04       		.byte	4
 757 017a CA       		.byte	-54
 758 017b 08       		.byte	8
 759 017c CC       		.byte	-52
 760 017d 04       		.byte	4
 761 017e D0       		.byte	-48
 762 017f 04       		.byte	4
 763 0180 D2       		.byte	-46
 764 0181 38       		.byte	56
 765 0182 D6       		.byte	-42
 766 0183 0B       		.byte	11
 767 0184 E6       		.byte	-26
 768 0185 40       		.byte	64
 769 0186 57       		.byte	87
 770 0187 08       		.byte	8
 771 0188 63       		.byte	99
 772 0189 80       		.byte	-128
 773 018a 64       		.byte	100
 774 018b 10       		.byte	16
 775 018c 65       		.byte	101
 776 018d 80       		.byte	-128
 777 018e 83       		.byte	-125
 778 018f 40       		.byte	64
 779 0190 D4       		.byte	-44
 780 0191 40       		.byte	64
 781 0192 D6       		.byte	-42
 782 0193 80       		.byte	-128
 783 0194 D8       		.byte	-40
 784 0195 C0       		.byte	-64
 785 0196 E2       		.byte	-30
 786 0197 20       		.byte	32
 787 0198 87       		.byte	-121
 788 0199 08       		.byte	8
 789 019a 8D       		.byte	-115
 790 019b 80       		.byte	-128
 791 019c 9D       		.byte	-99
 792 019d 80       		.byte	-128
 793 019e A7       		.byte	-89
 794 019f 08       		.byte	8
 795 01a0 AC       		.byte	-84
 796 01a1 10       		.byte	16
 797 01a2 E6       		.byte	-26
 798 01a3 40       		.byte	64
 799 01a4 EE       		.byte	-18
 800 01a5 40       		.byte	64
 801 01a6 88       		.byte	-120
 802 01a7 10       		.byte	16
 803 01a8 E0       		.byte	-32
 804 01a9 04       		.byte	4
 805 01aa 18       		.byte	24
 806 01ab 08       		.byte	8
 807 01ac 19       		.byte	25
 808 01ad 01       		.byte	1
 809 01ae 1C       		.byte	28
 810 01af 01       		.byte	1
 811 01b0 1F       		.byte	31
ARM GAS  C:\Users\TECHCO~1\AppData\Local\Temp\ccMNJAoI.s 			page 27


 812 01b1 01       		.byte	1
 813 01b2 50       		.byte	80
 814 01b3 04       		.byte	4
 815 01b4 58       		.byte	88
 816 01b5 10       		.byte	16
 817 01b6 60       		.byte	96
 818 01b7 01       		.byte	1
 819 01b8 63       		.byte	99
 820 01b9 20       		.byte	32
 821 01ba 65       		.byte	101
 822 01bb 01       		.byte	1
 823 01bc 67       		.byte	103
 824 01bd 02       		.byte	2
 825 01be 8F       		.byte	-113
 826 01bf 10       		.byte	16
 827 01c0 98       		.byte	-104
 828 01c1 10       		.byte	16
 829 01c2 C6       		.byte	-58
 830 01c3 0F       		.byte	15
 831 01c4 D4       		.byte	-44
 832 01c5 05       		.byte	5
 833 01c6 D6       		.byte	-42
 834 01c7 03       		.byte	3
 835 01c8 D8       		.byte	-40
 836 01c9 03       		.byte	3
 837 01ca E0       		.byte	-32
 838 01cb 08       		.byte	8
 839 01cc 10       		.byte	16
 840 01cd 0A       		.byte	10
 841 01ce 11       		.byte	17
 842 01cf 01       		.byte	1
 843              		.text
 844              	.Letext0:
 845              		.file 2 "c:\\program files\\cypress\\psoc creator\\4.0\\psoc creator\\import\\gnu\\arm\\4.9.3\\lib
 846              		.file 3 "Generated_Source\\PSoC4\\cytypes.h"
 847              		.file 4 "Generated_Source\\PSoC4\\CyLib.h"