ARM GAS  C:\Users\TECHCO~1\AppData\Local\Temp\cccFDmlC.s 			page 1


   1              		.cpu cortex-m0
   2              		.fpu softvfp
   3              		.eabi_attribute 20, 1
   4              		.eabi_attribute 21, 1
   5              		.eabi_attribute 23, 3
   6              		.eabi_attribute 24, 1
   7              		.eabi_attribute 25, 1
   8              		.eabi_attribute 26, 1
   9              		.eabi_attribute 30, 4
  10              		.eabi_attribute 34, 0
  11              		.eabi_attribute 18, 4
  12              		.code	16
  13              		.file	"INTERNAL_STEP_2_PM.c"
  14              		.text
  15              	.Ltext0:
  16              		.cfi_sections	.debug_frame
  17              		.section	.text.INTERNAL_STEP_2_SaveConfig,"ax",%progbits
  18              		.align	1
  19              		.global	INTERNAL_STEP_2_SaveConfig
  20              		.code	16
  21              		.thumb_func
  22              		.type	INTERNAL_STEP_2_SaveConfig, %function
  23              	INTERNAL_STEP_2_SaveConfig:
  24              	.LFB0:
  25              		.file 1 "Generated_Source\\PSoC4\\INTERNAL_STEP_2_PM.c"
   1:Generated_Source\PSoC4/INTERNAL_STEP_2_PM.c **** /*******************************************************************************
   2:Generated_Source\PSoC4/INTERNAL_STEP_2_PM.c **** * File Name: INTERNAL_STEP_2_PM.c
   3:Generated_Source\PSoC4/INTERNAL_STEP_2_PM.c **** * Version 3.30
   4:Generated_Source\PSoC4/INTERNAL_STEP_2_PM.c **** *
   5:Generated_Source\PSoC4/INTERNAL_STEP_2_PM.c **** * Description:
   6:Generated_Source\PSoC4/INTERNAL_STEP_2_PM.c **** *  This file provides the power management source code to API for the
   7:Generated_Source\PSoC4/INTERNAL_STEP_2_PM.c **** *  PWM.
   8:Generated_Source\PSoC4/INTERNAL_STEP_2_PM.c **** *
   9:Generated_Source\PSoC4/INTERNAL_STEP_2_PM.c **** * Note:
  10:Generated_Source\PSoC4/INTERNAL_STEP_2_PM.c **** *
  11:Generated_Source\PSoC4/INTERNAL_STEP_2_PM.c **** ********************************************************************************
  12:Generated_Source\PSoC4/INTERNAL_STEP_2_PM.c **** * Copyright 2008-2014, Cypress Semiconductor Corporation.  All rights reserved.
  13:Generated_Source\PSoC4/INTERNAL_STEP_2_PM.c **** * You may use this file only in accordance with the license, terms, conditions,
  14:Generated_Source\PSoC4/INTERNAL_STEP_2_PM.c **** * disclaimers, and limitations in the end user license agreement accompanying
  15:Generated_Source\PSoC4/INTERNAL_STEP_2_PM.c **** * the software package with which this file was provided.
  16:Generated_Source\PSoC4/INTERNAL_STEP_2_PM.c **** *******************************************************************************/
  17:Generated_Source\PSoC4/INTERNAL_STEP_2_PM.c **** 
  18:Generated_Source\PSoC4/INTERNAL_STEP_2_PM.c **** #include "INTERNAL_STEP_2.h"
  19:Generated_Source\PSoC4/INTERNAL_STEP_2_PM.c **** 
  20:Generated_Source\PSoC4/INTERNAL_STEP_2_PM.c **** static INTERNAL_STEP_2_backupStruct INTERNAL_STEP_2_backup;
  21:Generated_Source\PSoC4/INTERNAL_STEP_2_PM.c **** 
  22:Generated_Source\PSoC4/INTERNAL_STEP_2_PM.c **** 
  23:Generated_Source\PSoC4/INTERNAL_STEP_2_PM.c **** /*******************************************************************************
  24:Generated_Source\PSoC4/INTERNAL_STEP_2_PM.c **** * Function Name: INTERNAL_STEP_2_SaveConfig
  25:Generated_Source\PSoC4/INTERNAL_STEP_2_PM.c **** ********************************************************************************
  26:Generated_Source\PSoC4/INTERNAL_STEP_2_PM.c **** *
  27:Generated_Source\PSoC4/INTERNAL_STEP_2_PM.c **** * Summary:
  28:Generated_Source\PSoC4/INTERNAL_STEP_2_PM.c **** *  Saves the current user configuration of the component.
  29:Generated_Source\PSoC4/INTERNAL_STEP_2_PM.c **** *
  30:Generated_Source\PSoC4/INTERNAL_STEP_2_PM.c **** * Parameters:
  31:Generated_Source\PSoC4/INTERNAL_STEP_2_PM.c **** *  None
  32:Generated_Source\PSoC4/INTERNAL_STEP_2_PM.c **** *
ARM GAS  C:\Users\TECHCO~1\AppData\Local\Temp\cccFDmlC.s 			page 2


  33:Generated_Source\PSoC4/INTERNAL_STEP_2_PM.c **** * Return:
  34:Generated_Source\PSoC4/INTERNAL_STEP_2_PM.c **** *  None
  35:Generated_Source\PSoC4/INTERNAL_STEP_2_PM.c **** *
  36:Generated_Source\PSoC4/INTERNAL_STEP_2_PM.c **** * Global variables:
  37:Generated_Source\PSoC4/INTERNAL_STEP_2_PM.c **** *  INTERNAL_STEP_2_backup:  Variables of this global structure are modified to
  38:Generated_Source\PSoC4/INTERNAL_STEP_2_PM.c **** *  store the values of non retention configuration registers when Sleep() API is
  39:Generated_Source\PSoC4/INTERNAL_STEP_2_PM.c **** *  called.
  40:Generated_Source\PSoC4/INTERNAL_STEP_2_PM.c **** *
  41:Generated_Source\PSoC4/INTERNAL_STEP_2_PM.c **** *******************************************************************************/
  42:Generated_Source\PSoC4/INTERNAL_STEP_2_PM.c **** void INTERNAL_STEP_2_SaveConfig(void) 
  43:Generated_Source\PSoC4/INTERNAL_STEP_2_PM.c **** {
  26              		.loc 1 43 0
  27              		.cfi_startproc
  28 0000 10B5     		push	{r4, lr}
  29              		.cfi_def_cfa_offset 8
  30              		.cfi_offset 4, -8
  31              		.cfi_offset 14, -4
  44:Generated_Source\PSoC4/INTERNAL_STEP_2_PM.c **** 
  45:Generated_Source\PSoC4/INTERNAL_STEP_2_PM.c ****     #if(!INTERNAL_STEP_2_UsingFixedFunction)
  46:Generated_Source\PSoC4/INTERNAL_STEP_2_PM.c ****         #if(!INTERNAL_STEP_2_PWMModeIsCenterAligned)
  47:Generated_Source\PSoC4/INTERNAL_STEP_2_PM.c ****             INTERNAL_STEP_2_backup.PWMPeriod = INTERNAL_STEP_2_ReadPeriod();
  32              		.loc 1 47 0
  33 0002 FFF7FEFF 		bl	INTERNAL_STEP_2_ReadPeriod
  34              	.LVL0:
  35 0006 044C     		ldr	r4, .L2
  48:Generated_Source\PSoC4/INTERNAL_STEP_2_PM.c ****         #endif /* (!INTERNAL_STEP_2_PWMModeIsCenterAligned) */
  49:Generated_Source\PSoC4/INTERNAL_STEP_2_PM.c ****         INTERNAL_STEP_2_backup.PWMUdb = INTERNAL_STEP_2_ReadCounter();
  50:Generated_Source\PSoC4/INTERNAL_STEP_2_PM.c ****         #if (INTERNAL_STEP_2_UseStatus)
  51:Generated_Source\PSoC4/INTERNAL_STEP_2_PM.c ****             INTERNAL_STEP_2_backup.InterruptMaskValue = INTERNAL_STEP_2_STATUS_MASK;
  52:Generated_Source\PSoC4/INTERNAL_STEP_2_PM.c ****         #endif /* (INTERNAL_STEP_2_UseStatus) */
  53:Generated_Source\PSoC4/INTERNAL_STEP_2_PM.c **** 
  54:Generated_Source\PSoC4/INTERNAL_STEP_2_PM.c ****         #if(INTERNAL_STEP_2_DeadBandMode == INTERNAL_STEP_2__B_PWM__DBM_256_CLOCKS || \
  55:Generated_Source\PSoC4/INTERNAL_STEP_2_PM.c ****             INTERNAL_STEP_2_DeadBandMode == INTERNAL_STEP_2__B_PWM__DBM_2_4_CLOCKS)
  56:Generated_Source\PSoC4/INTERNAL_STEP_2_PM.c ****             INTERNAL_STEP_2_backup.PWMdeadBandValue = INTERNAL_STEP_2_ReadDeadTime();
  57:Generated_Source\PSoC4/INTERNAL_STEP_2_PM.c ****         #endif /*  deadband count is either 2-4 clocks or 256 clocks */
  58:Generated_Source\PSoC4/INTERNAL_STEP_2_PM.c **** 
  59:Generated_Source\PSoC4/INTERNAL_STEP_2_PM.c ****         #if(INTERNAL_STEP_2_KillModeMinTime)
  60:Generated_Source\PSoC4/INTERNAL_STEP_2_PM.c ****              INTERNAL_STEP_2_backup.PWMKillCounterPeriod = INTERNAL_STEP_2_ReadKillTime();
  61:Generated_Source\PSoC4/INTERNAL_STEP_2_PM.c ****         #endif /* (INTERNAL_STEP_2_KillModeMinTime) */
  62:Generated_Source\PSoC4/INTERNAL_STEP_2_PM.c **** 
  63:Generated_Source\PSoC4/INTERNAL_STEP_2_PM.c ****         #if(INTERNAL_STEP_2_UseControl)
  64:Generated_Source\PSoC4/INTERNAL_STEP_2_PM.c ****             INTERNAL_STEP_2_backup.PWMControlRegister = INTERNAL_STEP_2_ReadControlRegister();
  65:Generated_Source\PSoC4/INTERNAL_STEP_2_PM.c ****         #endif /* (INTERNAL_STEP_2_UseControl) */
  66:Generated_Source\PSoC4/INTERNAL_STEP_2_PM.c ****     #endif  /* (!INTERNAL_STEP_2_UsingFixedFunction) */
  67:Generated_Source\PSoC4/INTERNAL_STEP_2_PM.c **** }
  36              		.loc 1 67 0
  37              		@ sp needed
  47:Generated_Source\PSoC4/INTERNAL_STEP_2_PM.c ****         #endif /* (!INTERNAL_STEP_2_PWMModeIsCenterAligned) */
  38              		.loc 1 47 0
  39 0008 A080     		strh	r0, [r4, #4]
  49:Generated_Source\PSoC4/INTERNAL_STEP_2_PM.c ****         #if (INTERNAL_STEP_2_UseStatus)
  40              		.loc 1 49 0
  41 000a FFF7FEFF 		bl	INTERNAL_STEP_2_ReadCounter
  42              	.LVL1:
  43 000e 6080     		strh	r0, [r4, #2]
  64:Generated_Source\PSoC4/INTERNAL_STEP_2_PM.c ****         #endif /* (INTERNAL_STEP_2_UseControl) */
  44              		.loc 1 64 0
ARM GAS  C:\Users\TECHCO~1\AppData\Local\Temp\cccFDmlC.s 			page 3


  45 0010 FFF7FEFF 		bl	INTERNAL_STEP_2_ReadControlRegister
  46              	.LVL2:
  47 0014 A071     		strb	r0, [r4, #6]
  48              		.loc 1 67 0
  49 0016 10BD     		pop	{r4, pc}
  50              	.L3:
  51              		.align	2
  52              	.L2:
  53 0018 00000000 		.word	.LANCHOR0
  54              		.cfi_endproc
  55              	.LFE0:
  56              		.size	INTERNAL_STEP_2_SaveConfig, .-INTERNAL_STEP_2_SaveConfig
  57              		.section	.text.INTERNAL_STEP_2_RestoreConfig,"ax",%progbits
  58              		.align	1
  59              		.global	INTERNAL_STEP_2_RestoreConfig
  60              		.code	16
  61              		.thumb_func
  62              		.type	INTERNAL_STEP_2_RestoreConfig, %function
  63              	INTERNAL_STEP_2_RestoreConfig:
  64              	.LFB1:
  68:Generated_Source\PSoC4/INTERNAL_STEP_2_PM.c **** 
  69:Generated_Source\PSoC4/INTERNAL_STEP_2_PM.c **** 
  70:Generated_Source\PSoC4/INTERNAL_STEP_2_PM.c **** /*******************************************************************************
  71:Generated_Source\PSoC4/INTERNAL_STEP_2_PM.c **** * Function Name: INTERNAL_STEP_2_RestoreConfig
  72:Generated_Source\PSoC4/INTERNAL_STEP_2_PM.c **** ********************************************************************************
  73:Generated_Source\PSoC4/INTERNAL_STEP_2_PM.c **** *
  74:Generated_Source\PSoC4/INTERNAL_STEP_2_PM.c **** * Summary:
  75:Generated_Source\PSoC4/INTERNAL_STEP_2_PM.c **** *  Restores the current user configuration of the component.
  76:Generated_Source\PSoC4/INTERNAL_STEP_2_PM.c **** *
  77:Generated_Source\PSoC4/INTERNAL_STEP_2_PM.c **** * Parameters:
  78:Generated_Source\PSoC4/INTERNAL_STEP_2_PM.c **** *  None
  79:Generated_Source\PSoC4/INTERNAL_STEP_2_PM.c **** *
  80:Generated_Source\PSoC4/INTERNAL_STEP_2_PM.c **** * Return:
  81:Generated_Source\PSoC4/INTERNAL_STEP_2_PM.c **** *  None
  82:Generated_Source\PSoC4/INTERNAL_STEP_2_PM.c **** *
  83:Generated_Source\PSoC4/INTERNAL_STEP_2_PM.c **** * Global variables:
  84:Generated_Source\PSoC4/INTERNAL_STEP_2_PM.c **** *  INTERNAL_STEP_2_backup:  Variables of this global structure are used to
  85:Generated_Source\PSoC4/INTERNAL_STEP_2_PM.c **** *  restore the values of non retention registers on wakeup from sleep mode.
  86:Generated_Source\PSoC4/INTERNAL_STEP_2_PM.c **** *
  87:Generated_Source\PSoC4/INTERNAL_STEP_2_PM.c **** *******************************************************************************/
  88:Generated_Source\PSoC4/INTERNAL_STEP_2_PM.c **** void INTERNAL_STEP_2_RestoreConfig(void) 
  89:Generated_Source\PSoC4/INTERNAL_STEP_2_PM.c **** {
  65              		.loc 1 89 0
  66              		.cfi_startproc
  67 0000 10B5     		push	{r4, lr}
  68              		.cfi_def_cfa_offset 8
  69              		.cfi_offset 4, -8
  70              		.cfi_offset 14, -4
  90:Generated_Source\PSoC4/INTERNAL_STEP_2_PM.c ****         #if(!INTERNAL_STEP_2_UsingFixedFunction)
  91:Generated_Source\PSoC4/INTERNAL_STEP_2_PM.c ****             #if(!INTERNAL_STEP_2_PWMModeIsCenterAligned)
  92:Generated_Source\PSoC4/INTERNAL_STEP_2_PM.c ****                 INTERNAL_STEP_2_WritePeriod(INTERNAL_STEP_2_backup.PWMPeriod);
  71              		.loc 1 92 0
  72 0002 054C     		ldr	r4, .L5
  93:Generated_Source\PSoC4/INTERNAL_STEP_2_PM.c ****             #endif /* (!INTERNAL_STEP_2_PWMModeIsCenterAligned) */
  94:Generated_Source\PSoC4/INTERNAL_STEP_2_PM.c **** 
  95:Generated_Source\PSoC4/INTERNAL_STEP_2_PM.c ****             INTERNAL_STEP_2_WriteCounter(INTERNAL_STEP_2_backup.PWMUdb);
  96:Generated_Source\PSoC4/INTERNAL_STEP_2_PM.c **** 
ARM GAS  C:\Users\TECHCO~1\AppData\Local\Temp\cccFDmlC.s 			page 4


  97:Generated_Source\PSoC4/INTERNAL_STEP_2_PM.c ****             #if (INTERNAL_STEP_2_UseStatus)
  98:Generated_Source\PSoC4/INTERNAL_STEP_2_PM.c ****                 INTERNAL_STEP_2_STATUS_MASK = INTERNAL_STEP_2_backup.InterruptMaskValue;
  99:Generated_Source\PSoC4/INTERNAL_STEP_2_PM.c ****             #endif /* (INTERNAL_STEP_2_UseStatus) */
 100:Generated_Source\PSoC4/INTERNAL_STEP_2_PM.c **** 
 101:Generated_Source\PSoC4/INTERNAL_STEP_2_PM.c ****             #if(INTERNAL_STEP_2_DeadBandMode == INTERNAL_STEP_2__B_PWM__DBM_256_CLOCKS || \
 102:Generated_Source\PSoC4/INTERNAL_STEP_2_PM.c ****                 INTERNAL_STEP_2_DeadBandMode == INTERNAL_STEP_2__B_PWM__DBM_2_4_CLOCKS)
 103:Generated_Source\PSoC4/INTERNAL_STEP_2_PM.c ****                 INTERNAL_STEP_2_WriteDeadTime(INTERNAL_STEP_2_backup.PWMdeadBandValue);
 104:Generated_Source\PSoC4/INTERNAL_STEP_2_PM.c ****             #endif /* deadband count is either 2-4 clocks or 256 clocks */
 105:Generated_Source\PSoC4/INTERNAL_STEP_2_PM.c **** 
 106:Generated_Source\PSoC4/INTERNAL_STEP_2_PM.c ****             #if(INTERNAL_STEP_2_KillModeMinTime)
 107:Generated_Source\PSoC4/INTERNAL_STEP_2_PM.c ****                 INTERNAL_STEP_2_WriteKillTime(INTERNAL_STEP_2_backup.PWMKillCounterPeriod);
 108:Generated_Source\PSoC4/INTERNAL_STEP_2_PM.c ****             #endif /* (INTERNAL_STEP_2_KillModeMinTime) */
 109:Generated_Source\PSoC4/INTERNAL_STEP_2_PM.c **** 
 110:Generated_Source\PSoC4/INTERNAL_STEP_2_PM.c ****             #if(INTERNAL_STEP_2_UseControl)
 111:Generated_Source\PSoC4/INTERNAL_STEP_2_PM.c ****                 INTERNAL_STEP_2_WriteControlRegister(INTERNAL_STEP_2_backup.PWMControlRegister);
 112:Generated_Source\PSoC4/INTERNAL_STEP_2_PM.c ****             #endif /* (INTERNAL_STEP_2_UseControl) */
 113:Generated_Source\PSoC4/INTERNAL_STEP_2_PM.c ****         #endif  /* (!INTERNAL_STEP_2_UsingFixedFunction) */
 114:Generated_Source\PSoC4/INTERNAL_STEP_2_PM.c ****     }
  73              		.loc 1 114 0
  74              		@ sp needed
  92:Generated_Source\PSoC4/INTERNAL_STEP_2_PM.c ****             #endif /* (!INTERNAL_STEP_2_PWMModeIsCenterAligned) */
  75              		.loc 1 92 0
  76 0004 A088     		ldrh	r0, [r4, #4]
  77 0006 FFF7FEFF 		bl	INTERNAL_STEP_2_WritePeriod
  78              	.LVL3:
  95:Generated_Source\PSoC4/INTERNAL_STEP_2_PM.c **** 
  79              		.loc 1 95 0
  80 000a 6088     		ldrh	r0, [r4, #2]
  81 000c FFF7FEFF 		bl	INTERNAL_STEP_2_WriteCounter
  82              	.LVL4:
 111:Generated_Source\PSoC4/INTERNAL_STEP_2_PM.c ****             #endif /* (INTERNAL_STEP_2_UseControl) */
  83              		.loc 1 111 0
  84 0010 A079     		ldrb	r0, [r4, #6]
  85 0012 FFF7FEFF 		bl	INTERNAL_STEP_2_WriteControlRegister
  86              	.LVL5:
  87              		.loc 1 114 0
  88 0016 10BD     		pop	{r4, pc}
  89              	.L6:
  90              		.align	2
  91              	.L5:
  92 0018 00000000 		.word	.LANCHOR0
  93              		.cfi_endproc
  94              	.LFE1:
  95              		.size	INTERNAL_STEP_2_RestoreConfig, .-INTERNAL_STEP_2_RestoreConfig
  96              		.section	.text.INTERNAL_STEP_2_Sleep,"ax",%progbits
  97              		.align	1
  98              		.global	INTERNAL_STEP_2_Sleep
  99              		.code	16
 100              		.thumb_func
 101              		.type	INTERNAL_STEP_2_Sleep, %function
 102              	INTERNAL_STEP_2_Sleep:
 103              	.LFB2:
 115:Generated_Source\PSoC4/INTERNAL_STEP_2_PM.c **** 
 116:Generated_Source\PSoC4/INTERNAL_STEP_2_PM.c **** 
 117:Generated_Source\PSoC4/INTERNAL_STEP_2_PM.c **** /*******************************************************************************
 118:Generated_Source\PSoC4/INTERNAL_STEP_2_PM.c **** * Function Name: INTERNAL_STEP_2_Sleep
 119:Generated_Source\PSoC4/INTERNAL_STEP_2_PM.c **** ********************************************************************************
ARM GAS  C:\Users\TECHCO~1\AppData\Local\Temp\cccFDmlC.s 			page 5


 120:Generated_Source\PSoC4/INTERNAL_STEP_2_PM.c **** *
 121:Generated_Source\PSoC4/INTERNAL_STEP_2_PM.c **** * Summary:
 122:Generated_Source\PSoC4/INTERNAL_STEP_2_PM.c **** *  Disables block's operation and saves the user configuration. Should be called
 123:Generated_Source\PSoC4/INTERNAL_STEP_2_PM.c **** *  just prior to entering sleep.
 124:Generated_Source\PSoC4/INTERNAL_STEP_2_PM.c **** *
 125:Generated_Source\PSoC4/INTERNAL_STEP_2_PM.c **** * Parameters:
 126:Generated_Source\PSoC4/INTERNAL_STEP_2_PM.c **** *  None
 127:Generated_Source\PSoC4/INTERNAL_STEP_2_PM.c **** *
 128:Generated_Source\PSoC4/INTERNAL_STEP_2_PM.c **** * Return:
 129:Generated_Source\PSoC4/INTERNAL_STEP_2_PM.c **** *  None
 130:Generated_Source\PSoC4/INTERNAL_STEP_2_PM.c **** *
 131:Generated_Source\PSoC4/INTERNAL_STEP_2_PM.c **** * Global variables:
 132:Generated_Source\PSoC4/INTERNAL_STEP_2_PM.c **** *  INTERNAL_STEP_2_backup.PWMEnableState:  Is modified depending on the enable
 133:Generated_Source\PSoC4/INTERNAL_STEP_2_PM.c **** *  state of the block before entering sleep mode.
 134:Generated_Source\PSoC4/INTERNAL_STEP_2_PM.c **** *
 135:Generated_Source\PSoC4/INTERNAL_STEP_2_PM.c **** *******************************************************************************/
 136:Generated_Source\PSoC4/INTERNAL_STEP_2_PM.c **** void INTERNAL_STEP_2_Sleep(void) 
 137:Generated_Source\PSoC4/INTERNAL_STEP_2_PM.c **** {
 104              		.loc 1 137 0
 105              		.cfi_startproc
 106 0000 08B5     		push	{r3, lr}
 107              		.cfi_def_cfa_offset 8
 108              		.cfi_offset 3, -8
 109              		.cfi_offset 14, -4
 138:Generated_Source\PSoC4/INTERNAL_STEP_2_PM.c ****     #if(INTERNAL_STEP_2_UseControl)
 139:Generated_Source\PSoC4/INTERNAL_STEP_2_PM.c ****         if(INTERNAL_STEP_2_CTRL_ENABLE == (INTERNAL_STEP_2_CONTROL & INTERNAL_STEP_2_CTRL_ENABLE))
 110              		.loc 1 139 0
 111 0002 074B     		ldr	r3, .L12
 112 0004 074A     		ldr	r2, .L12+4
 113 0006 1B78     		ldrb	r3, [r3]
 114 0008 5BB2     		sxtb	r3, r3
 115 000a 002B     		cmp	r3, #0
 116 000c 01DA     		bge	.L8
 140:Generated_Source\PSoC4/INTERNAL_STEP_2_PM.c ****         {
 141:Generated_Source\PSoC4/INTERNAL_STEP_2_PM.c ****             /*Component is enabled */
 142:Generated_Source\PSoC4/INTERNAL_STEP_2_PM.c ****             INTERNAL_STEP_2_backup.PWMEnableState = 1u;
 117              		.loc 1 142 0
 118 000e 0123     		mov	r3, #1
 119 0010 00E0     		b	.L10
 120              	.L8:
 143:Generated_Source\PSoC4/INTERNAL_STEP_2_PM.c ****         }
 144:Generated_Source\PSoC4/INTERNAL_STEP_2_PM.c ****         else
 145:Generated_Source\PSoC4/INTERNAL_STEP_2_PM.c ****         {
 146:Generated_Source\PSoC4/INTERNAL_STEP_2_PM.c ****             /* Component is disabled */
 147:Generated_Source\PSoC4/INTERNAL_STEP_2_PM.c ****             INTERNAL_STEP_2_backup.PWMEnableState = 0u;
 121              		.loc 1 147 0
 122 0012 0023     		mov	r3, #0
 123              	.L10:
 124 0014 1370     		strb	r3, [r2]
 148:Generated_Source\PSoC4/INTERNAL_STEP_2_PM.c ****         }
 149:Generated_Source\PSoC4/INTERNAL_STEP_2_PM.c ****     #endif /* (INTERNAL_STEP_2_UseControl) */
 150:Generated_Source\PSoC4/INTERNAL_STEP_2_PM.c **** 
 151:Generated_Source\PSoC4/INTERNAL_STEP_2_PM.c ****     /* Stop component */
 152:Generated_Source\PSoC4/INTERNAL_STEP_2_PM.c ****     INTERNAL_STEP_2_Stop();
 153:Generated_Source\PSoC4/INTERNAL_STEP_2_PM.c **** 
 154:Generated_Source\PSoC4/INTERNAL_STEP_2_PM.c ****     /* Save registers configuration */
 155:Generated_Source\PSoC4/INTERNAL_STEP_2_PM.c ****     INTERNAL_STEP_2_SaveConfig();
ARM GAS  C:\Users\TECHCO~1\AppData\Local\Temp\cccFDmlC.s 			page 6


 156:Generated_Source\PSoC4/INTERNAL_STEP_2_PM.c **** }
 125              		.loc 1 156 0
 126              		@ sp needed
 152:Generated_Source\PSoC4/INTERNAL_STEP_2_PM.c **** 
 127              		.loc 1 152 0
 128 0016 FFF7FEFF 		bl	INTERNAL_STEP_2_Stop
 129              	.LVL6:
 155:Generated_Source\PSoC4/INTERNAL_STEP_2_PM.c **** }
 130              		.loc 1 155 0
 131 001a FFF7FEFF 		bl	INTERNAL_STEP_2_SaveConfig
 132              	.LVL7:
 133              		.loc 1 156 0
 134 001e 08BD     		pop	{r3, pc}
 135              	.L13:
 136              		.align	2
 137              	.L12:
 138 0020 71000F40 		.word	1074724977
 139 0024 00000000 		.word	.LANCHOR0
 140              		.cfi_endproc
 141              	.LFE2:
 142              		.size	INTERNAL_STEP_2_Sleep, .-INTERNAL_STEP_2_Sleep
 143              		.section	.text.INTERNAL_STEP_2_Wakeup,"ax",%progbits
 144              		.align	1
 145              		.global	INTERNAL_STEP_2_Wakeup
 146              		.code	16
 147              		.thumb_func
 148              		.type	INTERNAL_STEP_2_Wakeup, %function
 149              	INTERNAL_STEP_2_Wakeup:
 150              	.LFB3:
 157:Generated_Source\PSoC4/INTERNAL_STEP_2_PM.c **** 
 158:Generated_Source\PSoC4/INTERNAL_STEP_2_PM.c **** 
 159:Generated_Source\PSoC4/INTERNAL_STEP_2_PM.c **** /*******************************************************************************
 160:Generated_Source\PSoC4/INTERNAL_STEP_2_PM.c **** * Function Name: INTERNAL_STEP_2_Wakeup
 161:Generated_Source\PSoC4/INTERNAL_STEP_2_PM.c **** ********************************************************************************
 162:Generated_Source\PSoC4/INTERNAL_STEP_2_PM.c **** *
 163:Generated_Source\PSoC4/INTERNAL_STEP_2_PM.c **** * Summary:
 164:Generated_Source\PSoC4/INTERNAL_STEP_2_PM.c **** *  Restores and enables the user configuration. Should be called just after
 165:Generated_Source\PSoC4/INTERNAL_STEP_2_PM.c **** *  awaking from sleep.
 166:Generated_Source\PSoC4/INTERNAL_STEP_2_PM.c **** *
 167:Generated_Source\PSoC4/INTERNAL_STEP_2_PM.c **** * Parameters:
 168:Generated_Source\PSoC4/INTERNAL_STEP_2_PM.c **** *  None
 169:Generated_Source\PSoC4/INTERNAL_STEP_2_PM.c **** *
 170:Generated_Source\PSoC4/INTERNAL_STEP_2_PM.c **** * Return:
 171:Generated_Source\PSoC4/INTERNAL_STEP_2_PM.c **** *  None
 172:Generated_Source\PSoC4/INTERNAL_STEP_2_PM.c **** *
 173:Generated_Source\PSoC4/INTERNAL_STEP_2_PM.c **** * Global variables:
 174:Generated_Source\PSoC4/INTERNAL_STEP_2_PM.c **** *  INTERNAL_STEP_2_backup.pwmEnable:  Is used to restore the enable state of
 175:Generated_Source\PSoC4/INTERNAL_STEP_2_PM.c **** *  block on wakeup from sleep mode.
 176:Generated_Source\PSoC4/INTERNAL_STEP_2_PM.c **** *
 177:Generated_Source\PSoC4/INTERNAL_STEP_2_PM.c **** *******************************************************************************/
 178:Generated_Source\PSoC4/INTERNAL_STEP_2_PM.c **** void INTERNAL_STEP_2_Wakeup(void) 
 179:Generated_Source\PSoC4/INTERNAL_STEP_2_PM.c **** {
 151              		.loc 1 179 0
 152              		.cfi_startproc
 153 0000 08B5     		push	{r3, lr}
 154              		.cfi_def_cfa_offset 8
 155              		.cfi_offset 3, -8
ARM GAS  C:\Users\TECHCO~1\AppData\Local\Temp\cccFDmlC.s 			page 7


 156              		.cfi_offset 14, -4
 180:Generated_Source\PSoC4/INTERNAL_STEP_2_PM.c ****      /* Restore registers values */
 181:Generated_Source\PSoC4/INTERNAL_STEP_2_PM.c ****     INTERNAL_STEP_2_RestoreConfig();
 157              		.loc 1 181 0
 158 0002 FFF7FEFF 		bl	INTERNAL_STEP_2_RestoreConfig
 159              	.LVL8:
 182:Generated_Source\PSoC4/INTERNAL_STEP_2_PM.c **** 
 183:Generated_Source\PSoC4/INTERNAL_STEP_2_PM.c ****     if(INTERNAL_STEP_2_backup.PWMEnableState != 0u)
 160              		.loc 1 183 0
 161 0006 034B     		ldr	r3, .L19
 162 0008 1B78     		ldrb	r3, [r3]
 163 000a 002B     		cmp	r3, #0
 164 000c 01D0     		beq	.L14
 184:Generated_Source\PSoC4/INTERNAL_STEP_2_PM.c ****     {
 185:Generated_Source\PSoC4/INTERNAL_STEP_2_PM.c ****         /* Enable component's operation */
 186:Generated_Source\PSoC4/INTERNAL_STEP_2_PM.c ****         INTERNAL_STEP_2_Enable();
 165              		.loc 1 186 0
 166 000e FFF7FEFF 		bl	INTERNAL_STEP_2_Enable
 167              	.LVL9:
 168              	.L14:
 187:Generated_Source\PSoC4/INTERNAL_STEP_2_PM.c ****     } /* Do nothing if component's block was disabled before */
 188:Generated_Source\PSoC4/INTERNAL_STEP_2_PM.c **** 
 189:Generated_Source\PSoC4/INTERNAL_STEP_2_PM.c **** }
 169              		.loc 1 189 0
 170              		@ sp needed
 171 0012 08BD     		pop	{r3, pc}
 172              	.L20:
 173              		.align	2
 174              	.L19:
 175 0014 00000000 		.word	.LANCHOR0
 176              		.cfi_endproc
 177              	.LFE3:
 178              		.size	INTERNAL_STEP_2_Wakeup, .-INTERNAL_STEP_2_Wakeup
 179              		.bss
 180              		.align	1
 181              		.set	.LANCHOR0,. + 0
 182              		.type	INTERNAL_STEP_2_backup, %object
 183              		.size	INTERNAL_STEP_2_backup, 8
 184              	INTERNAL_STEP_2_backup:
 185 0000 00000000 		.space	8
 185      00000000 
 186              		.text
 187              	.Letext0:
 188              		.file 2 "Generated_Source\\PSoC4\\cytypes.h"
 189              		.file 3 "Generated_Source\\PSoC4\\INTERNAL_STEP_2.h"