ARM GAS  C:\Users\TECHCO~1\AppData\Local\Temp\cc1B0tXP.s 			page 1


   1              		.cpu cortex-m0
   2              		.fpu softvfp
   3              		.eabi_attribute 20, 1
   4              		.eabi_attribute 21, 1
   5              		.eabi_attribute 23, 3
   6              		.eabi_attribute 24, 1
   7              		.eabi_attribute 25, 1
   8              		.eabi_attribute 26, 1
   9              		.eabi_attribute 30, 4
  10              		.eabi_attribute 34, 0
  11              		.eabi_attribute 18, 4
  12              		.code	16
  13              		.file	"main.c"
  14              		.text
  15              	.Ltext0:
  16              		.cfi_sections	.debug_frame
  17              		.section	.text.startup.main,"ax",%progbits
  18              		.align	1
  19              		.global	main
  20              		.code	16
  21              		.thumb_func
  22              		.type	main, %function
  23              	main:
  24              	.LFB34:
  25              		.file 1 "main.c"
   1:main.c        **** /* ========================================
   2:main.c        ****  *
   3:main.c        ****  * The following firmware was developed by Cypress Semiconductor
   4:main.c        ****  * This work is licensed under a Creative Commons Attribution 3.0 Unported License.
   5:main.c        ****  * 
   6:main.c        ****  * http://creativecommons.org/licenses/by/3.0/deed.en_US
   7:main.c        ****  * 
   8:main.c        ****  * You are free to:
   9:main.c        ****  * -To Share — to copy, distribute and transmit the work 
  10:main.c        ****  * -To Remix — to adapt the work 
  11:main.c        ****  * -To make commercial use of the work
  12:main.c        ****  *
  13:main.c        **** */
  14:main.c        **** #include <device.h>
  15:main.c        **** #include <global.h>
  16:main.c        **** #include <systemInit.h>
  17:main.c        **** #include <inputScan.h>
  18:main.c        **** #include <Move.h>
  19:main.c        **** #include <INTERNAL_STEP.h>
  20:main.c        **** #include <INTERNAL_STEP_1.h>
  21:main.c        **** #define PH1 3204 //run
  22:main.c        **** #define PH2 4800 //p
  23:main.c        **** #define PH3 8000 //run
  24:main.c        **** #define PH4 9600 //p
  25:main.c        **** #define PH5 16000 //run
  26:main.c        **** #define PH6 17600 //p
  27:main.c        **** #define PH7 24000 //run
  28:main.c        **** #define PH8 27200 //p
  29:main.c        **** #define PH9 28800 //run
  30:main.c        **** #define PH10 32000 //p
  31:main.c        **** #define PH11 33600 //run
  32:main.c        **** #define PH12 36800 //p
ARM GAS  C:\Users\TECHCO~1\AppData\Local\Temp\cc1B0tXP.s 			page 2


  33:main.c        **** 
  34:main.c        **** void main() {
  26              		.loc 1 34 0
  27              		.cfi_startproc
  35:main.c        ****     uint16 i[2];
  36:main.c        **** 
  37:main.c        ****     uint8 l_previousStepPulse;
  38:main.c        ****     uint8 l_stepPulse;
  39:main.c        ****     uint8 jm;
  40:main.c        ****     
  41:main.c        ****     i[0] = 0;
  28              		.loc 1 41 0
  29 0000 0023     		mov	r3, #0
  34:main.c        ****     uint16 i[2];
  30              		.loc 1 34 0
  31 0002 F0B5     		push	{r4, r5, r6, r7, lr}
  32              		.cfi_def_cfa_offset 20
  33              		.cfi_offset 4, -20
  34              		.cfi_offset 5, -16
  35              		.cfi_offset 6, -12
  36              		.cfi_offset 7, -8
  37              		.cfi_offset 14, -4
  38 0004 85B0     		sub	sp, sp, #20
  39              		.cfi_def_cfa_offset 40
  40              		.loc 1 41 0
  41 0006 02AA     		add	r2, sp, #8
  42 0008 9380     		strh	r3, [r2, #4]
  42:main.c        ****     i[1] = 0;
  43              		.loc 1 42 0
  44 000a D380     		strh	r3, [r2, #6]
  43:main.c        ****     
  44:main.c        ****     systemInit();
  45              		.loc 1 44 0
  46 000c FFF7FEFF 		bl	systemInit
  47              	.LVL0:
  48              	.L42:
  45:main.c        **** 
  46:main.c        ****     while(1) {
  47:main.c        **** 
  48:main.c        ****         if(END_STOP_1_Read()) 
  49              		.loc 1 48 0
  50 0010 FFF7FEFF 		bl	END_STOP_1_Read
  51              	.LVL1:
  52 0014 0028     		cmp	r0, #0
  53 0016 01D0     		beq	.L2
  49:main.c        ****             STATUS_LED_1_Write(0x00);
  54              		.loc 1 49 0
  55 0018 0020     		mov	r0, #0
  56 001a 00E0     		b	.L44
  57              	.L2:
  50:main.c        ****         else
  51:main.c        ****             STATUS_LED_1_Write(0x01);
  58              		.loc 1 51 0
  59 001c 0120     		mov	r0, #1
  60              	.L44:
  61 001e FFF7FEFF 		bl	STATUS_LED_1_Write
  62              	.LVL2:
ARM GAS  C:\Users\TECHCO~1\AppData\Local\Temp\cc1B0tXP.s 			page 3


  52:main.c        **** 
  53:main.c        ****         if(END_STOP_2_Read()) 
  63              		.loc 1 53 0
  64 0022 FFF7FEFF 		bl	END_STOP_2_Read
  65              	.LVL3:
  66 0026 0028     		cmp	r0, #0
  67 0028 01D0     		beq	.L4
  54:main.c        ****             STATUS_LED_2_Write(0x00);
  68              		.loc 1 54 0
  69 002a 0020     		mov	r0, #0
  70 002c 00E0     		b	.L45
  71              	.L4:
  55:main.c        ****         else
  56:main.c        ****             STATUS_LED_2_Write(0x01);
  72              		.loc 1 56 0
  73 002e 0120     		mov	r0, #1
  74              	.L45:
  75 0030 0125     		mov	r5, #1
  76 0032 FFF7FEFF 		bl	STATUS_LED_2_Write
  77              	.LVL4:
  57:main.c        ****         
  58:main.c        ****         
  59:main.c        ****         // Loop on two motors
  60:main.c        ****         for(jm = 1; jm <= 2; jm++) {
  61:main.c        ****             // Assign local variables to for the current motor
  62:main.c        ****             if(jm == 1) {
  63:main.c        ****                 l_previousStepPulse = previousStepPulse;
  78              		.loc 1 63 0
  79 0036 5A4B     		ldr	r3, .L59
  80 0038 03AF     		add	r7, sp, #12
  81 003a 1E78     		ldrb	r6, [r3]
  82              	.LVL5:
  64:main.c        ****                 l_stepPulse = stepPulse;
  83              		.loc 1 64 0
  84 003c 594B     		ldr	r3, .L59+4
  85              	.LVL6:
  86              	.L46:
  65:main.c        ****             }
  66:main.c        ****             else {
  67:main.c        ****                 l_previousStepPulse = previousStepPulse1;
  68:main.c        ****                 l_stepPulse = stepPulse1;
  87              		.loc 1 68 0
  88 003e 1B78     		ldrb	r3, [r3]
  69:main.c        ****             }
  70:main.c        **** 
  71:main.c        ****             // Process stepping
  72:main.c        ****             inputScan(jm);
  89              		.loc 1 72 0
  90 0040 281C     		mov	r0, r5
  68:main.c        ****             }
  91              		.loc 1 68 0
  92 0042 0193     		str	r3, [sp, #4]
  93              	.LVL7:
  94              		.loc 1 72 0
  95 0044 FFF7FEFF 		bl	inputScan
  96              	.LVL8:
  73:main.c        ****             
ARM GAS  C:\Users\TECHCO~1\AppData\Local\Temp\cc1B0tXP.s 			page 4


  74:main.c        ****             if (l_previousStepPulse == 0 && l_stepPulse == 1){
  97              		.loc 1 74 0
  98 0048 002E     		cmp	r6, #0
  99 004a 00D0     		beq	.LCB71
 100 004c 9EE0     		b	.L8	@long jump
 101              	.LCB71:
 102              		.loc 1 74 0 is_stmt 0 discriminator 1
 103 004e 019B     		ldr	r3, [sp, #4]
 104 0050 012B     		cmp	r3, #1
 105 0052 00D0     		beq	.LCB75
 106 0054 9AE0     		b	.L8	@long jump
 107              	.LCB75:
  75:main.c        ****       			if (i[jm - 1] < PH1){
 108              		.loc 1 75 0 is_stmt 1
 109 0056 3C88     		ldrh	r4, [r7]
 110 0058 534B     		ldr	r3, .L59+8
 111 005a 9C42     		cmp	r4, r3
 112 005c 05D8     		bhi	.L9
  76:main.c        ****                     if(jm == 1) dirReg = 0; else dirReg1 = 0;
 113              		.loc 1 76 0
 114 005e 534B     		ldr	r3, .L59+12
 115 0060 012D     		cmp	r5, #1
 116 0062 00D0     		beq	.L47
 117              		.loc 1 76 0 is_stmt 0 discriminator 2
 118 0064 524B     		ldr	r3, .L59+16
 119              	.L47:
 120 0066 1E70     		strb	r6, [r3]
 121              	.LVL9:
 122 0068 79E0     		b	.L37
 123              	.LVL10:
 124              	.L9:
  77:main.c        ****               		Move(jm);
  78:main.c        ****               		i[jm - 1]++;
  79:main.c        ****       			} // i < PH1
  80:main.c        ****       			else if (PH1 <= i[jm - 1] && i[jm - 1] < PH2){
 125              		.loc 1 80 0 is_stmt 1
 126 006a 524B     		ldr	r3, .L59+20
 127 006c 524A     		ldr	r2, .L59+24
 128 006e E318     		add	r3, r4, r3
 129 0070 9BB2     		uxth	r3, r3
 130 0072 9342     		cmp	r3, r2
 131 0074 76D9     		bls	.L51
  81:main.c        ****        				i[jm - 1]++;
  82:main.c        ****       			} // PH1 <= i < PH2
  83:main.c        ****       			else if (PH2 <= i[jm - 1] && i[jm - 1] < PH3){
 132              		.loc 1 83 0
 133 0076 514B     		ldr	r3, .L59+28
 134 0078 514A     		ldr	r2, .L59+32
 135 007a E318     		add	r3, r4, r3
 136 007c 9BB2     		uxth	r3, r3
 137 007e 9342     		cmp	r3, r2
 138 0080 05D8     		bhi	.L13
  84:main.c        ****                     if(jm == 1) dirReg = 1; else dirReg1 = 1;
 139              		.loc 1 84 0
 140 0082 012D     		cmp	r5, #1
 141 0084 66D0     		beq	.L53
 142              		.loc 1 84 0 is_stmt 0 discriminator 2
ARM GAS  C:\Users\TECHCO~1\AppData\Local\Temp\cc1B0tXP.s 			page 5


 143 0086 6A46     		mov	r2, sp
 144 0088 494B     		ldr	r3, .L59+16
 145 008a 1279     		ldrb	r2, [r2, #4]
 146 008c 66E0     		b	.L52
 147              	.L13:
  85:main.c        ****        				Move(jm);
  86:main.c        ****        				i[jm - 1]++;
  87:main.c        ****       			} // PH2 <= i < PH3
  88:main.c        ****     			else if (PH3 <= i[jm - 1] && i[jm - 1]< PH4){
 148              		.loc 1 88 0 is_stmt 1
 149 008e 4D4B     		ldr	r3, .L59+36
 150 0090 4D49     		ldr	r1, .L59+40
 151 0092 E318     		add	r3, r4, r3
 152 0094 9BB2     		uxth	r3, r3
 153 0096 8B42     		cmp	r3, r1
 154 0098 64D9     		bls	.L51
  89:main.c        ****     				i[jm - 1]++;
  90:main.c        ****     			} // PH3 <= i < PH4
  91:main.c        ****       			else if (PH4 <= i[jm - 1] && i[jm - 1] < PH5){
 155              		.loc 1 91 0
 156 009a 4C4B     		ldr	r3, .L59+44
 157 009c 4C48     		ldr	r0, .L59+48
 158 009e E318     		add	r3, r4, r3
 159 00a0 9BB2     		uxth	r3, r3
 160 00a2 8342     		cmp	r3, r0
 161 00a4 11D8     		bhi	.L17
  92:main.c        ****     				if (i[jm - 1] == PH4){
 162              		.loc 1 92 0
 163 00a6 9623     		mov	r3, #150
 164 00a8 9B01     		lsl	r3, r3, #6
 165 00aa 9C42     		cmp	r4, r3
 166 00ac 3DD1     		bne	.L29
  93:main.c        ****                         if(jm == 1) {                        
  94:main.c        ****             				INTERNAL_STEP_WritePeriod(2000);
 167              		.loc 1 94 0
 168 00ae FA20     		mov	r0, #250
 169 00b0 C000     		lsl	r0, r0, #3
  93:main.c        ****                         if(jm == 1) {                        
 170              		.loc 1 93 0
 171 00b2 012D     		cmp	r5, #1
 172 00b4 04D1     		bne	.L19
 173              		.loc 1 94 0
 174 00b6 FFF7FEFF 		bl	INTERNAL_STEP_WritePeriod
 175              	.LVL11:
  95:main.c        ****             				INTERNAL_STEP_WriteCompare(1000);
 176              		.loc 1 95 0
 177 00ba FA20     		mov	r0, #250
 178 00bc 8000     		lsl	r0, r0, #2
 179 00be 2AE0     		b	.L55
 180              	.L19:
  96:main.c        ****                         } // motor 1
  97:main.c        ****                         else {
  98:main.c        ****             				INTERNAL_STEP_1_WritePeriod(2000);
 181              		.loc 1 98 0
 182 00c0 FFF7FEFF 		bl	INTERNAL_STEP_1_WritePeriod
 183              	.LVL12:
  99:main.c        ****             				INTERNAL_STEP_1_WriteCompare(1000);
ARM GAS  C:\Users\TECHCO~1\AppData\Local\Temp\cc1B0tXP.s 			page 6


 184              		.loc 1 99 0
 185 00c4 FA20     		mov	r0, #250
 186 00c6 8000     		lsl	r0, r0, #2
 187 00c8 2CE0     		b	.L57
 188              	.L17:
 100:main.c        ****                         } // motor 2
 101:main.c        ****                     } // PH4
 102:main.c        ****                     if(jm == 1) dirReg = 0; else dirReg1 = 0;
 103:main.c        ****        				Move(jm);
 104:main.c        ****        				i[jm - 1]++;
 105:main.c        ****       			} // PH4 <= i < PH5
 106:main.c        ****       			else if (PH5 <= i[jm - 1] && i[jm - 1] < PH6){
 189              		.loc 1 106 0
 190 00ca 424B     		ldr	r3, .L59+52
 191 00cc E318     		add	r3, r4, r3
 192 00ce 9BB2     		uxth	r3, r3
 193 00d0 8B42     		cmp	r3, r1
 194 00d2 47D9     		bls	.L51
 107:main.c        ****        				i[jm - 1]++;
 108:main.c        ****       			} // PH5 <= i < PH6
 109:main.c        ****       			else if (PH6 <= i[jm - 1] && i[jm - 1] < PH7){
 195              		.loc 1 109 0
 196 00d4 404B     		ldr	r3, .L59+56
 197 00d6 E318     		add	r3, r4, r3
 198 00d8 9BB2     		uxth	r3, r3
 199 00da 8342     		cmp	r3, r0
 200 00dc 06D8     		bhi	.L24
 201 00de 019B     		ldr	r3, [sp, #4]
 110:main.c        ****                     if(jm == 1) dirReg = 1; else dirReg1 = 1;
 202              		.loc 1 110 0
 203 00e0 324A     		ldr	r2, .L59+12
 204 00e2 012D     		cmp	r5, #1
 205 00e4 00D0     		beq	.L49
 206              		.loc 1 110 0 is_stmt 0 discriminator 2
 207 00e6 324A     		ldr	r2, .L59+16
 208              	.L49:
 209 00e8 1370     		strb	r3, [r2]
 210              	.LVL13:
 211 00ea 38E0     		b	.L37
 212              	.LVL14:
 213              	.L24:
 111:main.c        ****        				Move(jm);		
 112:main.c        ****        				i[jm - 1]++;
 113:main.c        ****       			} // PH6 <= i < PH7
 114:main.c        ****       			else if (PH7 <= i[jm - 1] && i[jm - 1] < PH8){
 214              		.loc 1 114 0 is_stmt 1
 215 00ec 3B4B     		ldr	r3, .L59+60
 216 00ee E318     		add	r3, r4, r3
 217 00f0 9BB2     		uxth	r3, r3
 218 00f2 9342     		cmp	r3, r2
 219 00f4 36D9     		bls	.L51
 115:main.c        ****        				i[jm - 1]++;
 116:main.c        ****       			} // PH7 <= i < PH8
 117:main.c        ****       			else if (PH8 <= i[jm - 1] && i[jm - 1] < PH9){
 220              		.loc 1 117 0
 221 00f6 3A4B     		ldr	r3, .L59+64
 222 00f8 E318     		add	r3, r4, r3
ARM GAS  C:\Users\TECHCO~1\AppData\Local\Temp\cc1B0tXP.s 			page 7


 223 00fa 9BB2     		uxth	r3, r3
 224 00fc 8B42     		cmp	r3, r1
 225 00fe 1BD8     		bhi	.L28
 118:main.c        ****     				if (i[jm - 1] == PH8){
 226              		.loc 1 118 0
 227 0100 384B     		ldr	r3, .L59+68
 228 0102 9C42     		cmp	r4, r3
 229 0104 11D1     		bne	.L29
 119:main.c        ****                         if(jm == 1) {                        
 120:main.c        ****             				INTERNAL_STEP_WritePeriod(4000);
 230              		.loc 1 120 0
 231 0106 FA20     		mov	r0, #250
 232 0108 0001     		lsl	r0, r0, #4
 119:main.c        ****                         if(jm == 1) {                        
 233              		.loc 1 119 0
 234 010a 012D     		cmp	r5, #1
 235 010c 06D1     		bne	.L30
 236              		.loc 1 120 0
 237 010e FFF7FEFF 		bl	INTERNAL_STEP_WritePeriod
 238              	.LVL15:
 121:main.c        ****             				INTERNAL_STEP_WriteCompare(2000);
 239              		.loc 1 121 0
 240 0112 FA20     		mov	r0, #250
 241 0114 C000     		lsl	r0, r0, #3
 242              	.L55:
 243 0116 FFF7FEFF 		bl	INTERNAL_STEP_WriteCompare
 244              	.LVL16:
 245 011a 08E0     		b	.L31
 246              	.L30:
 122:main.c        ****                         } // motor 1
 123:main.c        ****                         else {
 124:main.c        ****             				INTERNAL_STEP_1_WritePeriod(4000);
 247              		.loc 1 124 0
 248 011c FFF7FEFF 		bl	INTERNAL_STEP_1_WritePeriod
 249              	.LVL17:
 125:main.c        ****             				INTERNAL_STEP_1_WriteCompare(2000);
 250              		.loc 1 125 0
 251 0120 FA20     		mov	r0, #250
 252 0122 C000     		lsl	r0, r0, #3
 253              	.L57:
 254 0124 FFF7FEFF 		bl	INTERNAL_STEP_1_WriteCompare
 255              	.LVL18:
 256 0128 04E0     		b	.L32
 257              	.L29:
 126:main.c        ****                         } // motor 2 
 127:main.c        ****                     } // PH8
 128:main.c        ****                     if(jm == 1) dirReg = 0; else dirReg1 = 0;
 258              		.loc 1 128 0
 259 012a 012D     		cmp	r5, #1
 260 012c 02D1     		bne	.L32
 261              	.L31:
 262              		.loc 1 128 0 is_stmt 0 discriminator 1
 263 012e 0022     		mov	r2, #0
 264 0130 1E4B     		ldr	r3, .L59+12
 265 0132 13E0     		b	.L52
 266              	.L32:
 267              		.loc 1 128 0 discriminator 2
ARM GAS  C:\Users\TECHCO~1\AppData\Local\Temp\cc1B0tXP.s 			page 8


 268 0134 0022     		mov	r2, #0
 269 0136 10E0     		b	.L54
 270              	.L28:
 129:main.c        ****        				Move(jm);
 130:main.c        ****        				i[jm - 1]++;
 131:main.c        ****       			} // PH8 <= i < PH9
 132:main.c        ****       			else if (PH9 <= i[jm - 1] && i[jm - 1] < PH10){
 271              		.loc 1 132 0 is_stmt 1
 272 0138 2B4B     		ldr	r3, .L59+72
 273 013a E318     		add	r3, r4, r3
 274 013c 9BB2     		uxth	r3, r3
 275 013e 9342     		cmp	r3, r2
 276 0140 10D9     		bls	.L51
 133:main.c        ****        				i[jm - 1]++;
 134:main.c        ****       			} // PH9 <= i < PH10
 135:main.c        ****       			else if (PH10 <= i[jm - 1] && i[jm - 1] < PH11){
 277              		.loc 1 135 0
 278 0142 2A4B     		ldr	r3, .L59+76
 279 0144 204A     		ldr	r2, .L59+40
 280 0146 E318     		add	r3, r4, r3
 281 0148 9BB2     		uxth	r3, r3
 282 014a 9342     		cmp	r3, r2
 283 014c 0DD8     		bhi	.L35
 136:main.c        ****                     if(jm == 1) dirReg = 1; else dirReg1 = 1;
 284              		.loc 1 136 0
 285 014e 0122     		mov	r2, #1
 286 0150 012D     		cmp	r5, #1
 287 0152 02D1     		bne	.L54
 288              	.L53:
 289              		.loc 1 136 0 is_stmt 0 discriminator 1
 290 0154 154B     		ldr	r3, .L59+12
 291 0156 1D70     		strb	r5, [r3]
 292 0158 01E0     		b	.L37
 293              	.L54:
 294              		.loc 1 136 0 discriminator 2
 295 015a 154B     		ldr	r3, .L59+16
 296              	.L52:
 297 015c 1A70     		strb	r2, [r3]
 298              	.LVL19:
 299              	.L37:
 137:main.c        ****     				Move(jm);
 300              		.loc 1 137 0 is_stmt 1
 301 015e 281C     		mov	r0, r5
 302 0160 FFF7FEFF 		bl	Move
 303              	.LVL20:
 304              	.L51:
 138:main.c        ****     				i[jm - 1]++;
 305              		.loc 1 138 0
 306 0164 0134     		add	r4, r4, #1
 307 0166 3C80     		strh	r4, [r7]
 308 0168 10E0     		b	.L8
 309              	.LVL21:
 310              	.L35:
 139:main.c        ****       			} // PH10 <= i < PH11
 140:main.c        ****       			else if (PH11 <= i[jm - 1] && i[jm - 1] < PH12){
 311              		.loc 1 140 0
 312 016a 214B     		ldr	r3, .L59+80
ARM GAS  C:\Users\TECHCO~1\AppData\Local\Temp\cc1B0tXP.s 			page 9


 313 016c 144A     		ldr	r2, .L59+32
 314 016e E318     		add	r3, r4, r3
 315 0170 9BB2     		uxth	r3, r3
 316 0172 9342     		cmp	r3, r2
 317 0174 F6D9     		bls	.L51
 141:main.c        ****        				i[jm - 1]++;
 142:main.c        ****       			} // PH11 <= i < PH12
 143:main.c        ****       			else {
 144:main.c        ****                     if(jm == 1) dirReg = 1; else dirReg1 = 1;
 318              		.loc 1 144 0
 319 0176 012D     		cmp	r5, #1
 320 0178 02D1     		bne	.L39
 321              		.loc 1 144 0 is_stmt 0 discriminator 1
 322 017a 0C4B     		ldr	r3, .L59+12
 323 017c 1D70     		strb	r5, [r3]
 324 017e 02E0     		b	.L40
 325              	.L39:
 326              		.loc 1 144 0 discriminator 2
 327 0180 0122     		mov	r2, #1
 328 0182 0B4B     		ldr	r3, .L59+16
 329 0184 1A70     		strb	r2, [r3]
 330              	.L40:
 145:main.c        ****        				Move(jm);
 331              		.loc 1 145 0 is_stmt 1
 332 0186 281C     		mov	r0, r5
 333 0188 FFF7FEFF 		bl	Move
 334              	.LVL22:
 335              	.L8:
 336 018c 0237     		add	r7, r7, #2
  60:main.c        ****             // Assign local variables to for the current motor
 337              		.loc 1 60 0 discriminator 2
 338 018e 022D     		cmp	r5, #2
 339 0190 00D1     		bne	.LCB298
 340 0192 3DE7     		b	.L42	@long jump
 341              	.LCB298:
  67:main.c        ****                 l_stepPulse = stepPulse1;
 342              		.loc 1 67 0
 343 0194 174B     		ldr	r3, .L59+84
 344 0196 0225     		mov	r5, #2
 345              	.LVL23:
 346 0198 1E78     		ldrb	r6, [r3]
 347              	.LVL24:
  68:main.c        ****             }
 348              		.loc 1 68 0
 349 019a 174B     		ldr	r3, .L59+88
 350 019c 4FE7     		b	.L46
 351              	.L60:
 352 019e C046     		.align	2
 353              	.L59:
 354 01a0 00000000 		.word	previousStepPulse
 355 01a4 00000000 		.word	stepPulse
 356 01a8 830C0000 		.word	3203
 357 01ac 00000000 		.word	dirReg
 358 01b0 00000000 		.word	dirReg1
 359 01b4 7CF3FFFF 		.word	-3204
 360 01b8 3B060000 		.word	1595
 361 01bc 40EDFFFF 		.word	-4800
ARM GAS  C:\Users\TECHCO~1\AppData\Local\Temp\cc1B0tXP.s 			page 10


 362 01c0 7F0C0000 		.word	3199
 363 01c4 C0E0FFFF 		.word	-8000
 364 01c8 3F060000 		.word	1599
 365 01cc 80DAFFFF 		.word	-9600
 366 01d0 FF180000 		.word	6399
 367 01d4 80C1FFFF 		.word	-16000
 368 01d8 40BBFFFF 		.word	-17600
 369 01dc 40A2FFFF 		.word	-24000
 370 01e0 C095FFFF 		.word	-27200
 371 01e4 406A0000 		.word	27200
 372 01e8 808FFFFF 		.word	-28800
 373 01ec 0083FFFF 		.word	-32000
 374 01f0 C07C0000 		.word	31936
 375 01f4 00000000 		.word	previousStepPulse1
 376 01f8 00000000 		.word	stepPulse1
 377              		.cfi_endproc
 378              	.LFE34:
 379              		.size	main, .-main
 380              		.global	sineTable
 381              		.comm	pwmB1,1,1
 382              		.comm	pwmA1,1,1
 383              		.comm	pwmB,1,1
 384              		.comm	pwmA,1,1
 385              		.comm	dirReg1,1,1
 386              		.comm	dirReg,1,1
 387              		.comm	previousStepPulse1,1,1
 388              		.comm	previousStepPulse,1,1
 389              		.comm	stepPulse1,1,1
 390              		.comm	stepPulse,1,1
 391              		.comm	phase1,1,1
 392              		.comm	phase,1,1
 393              		.comm	FullScale1,1,1
 394              		.comm	FullScale,1,1
 395              		.comm	previousDivider1,1,1
 396              		.comm	previousDivider,1,1
 397              		.comm	step1,1,1
 398              		.comm	step,1,1
 399              		.comm	divider1,1,1
 400              		.comm	divider,1,1
 401              		.comm	currentStepB1,1,1
 402              		.comm	currentStepA1,1,1
 403              		.comm	currentStepB,1,1
 404              		.comm	currentStepA,1,1
 405              		.section	.rodata
 406              		.type	sineTable, %object
 407              		.size	sineTable, 17
 408              	sineTable:
 409 0000 64       		.byte	100
 410 0001 73       		.byte	115
 411 0002 82       		.byte	-126
 412 0003 91       		.byte	-111
 413 0004 9F       		.byte	-97
 414 0005 AD       		.byte	-83
 415 0006 BA       		.byte	-70
 416 0007 C6       		.byte	-58
 417 0008 D2       		.byte	-46
 418 0009 DC       		.byte	-36
ARM GAS  C:\Users\TECHCO~1\AppData\Local\Temp\cc1B0tXP.s 			page 11


 419 000a E5       		.byte	-27
 420 000b ED       		.byte	-19
 421 000c F3       		.byte	-13
 422 000d F8       		.byte	-8
 423 000e FC       		.byte	-4
 424 000f FE       		.byte	-2
 425 0010 FF       		.byte	-1
 426              		.text
 427              	.Letext0:
 428              		.file 2 "Generated_Source\\PSoC4/cytypes.h"
 429              		.file 3 "./Move.h"
 430              		.file 4 "./inputScan.h"
 431              		.file 5 "./systemInit.h"
 432              		.file 6 "./global.h"
 433              		.file 7 "Generated_Source\\PSoC4/END_STOP_1.h"
 434              		.file 8 "Generated_Source\\PSoC4/END_STOP_2.h"
 435              		.file 9 "Generated_Source\\PSoC4/STATUS_LED_1.h"
 436              		.file 10 "Generated_Source\\PSoC4/STATUS_LED_2.h"
 437              		.file 11 "Generated_Source\\PSoC4/INTERNAL_STEP.h"
 438              		.file 12 "Generated_Source\\PSoC4/INTERNAL_STEP_1.h"