ARM GAS  C:\Users\TECHCO~1\AppData\Local\Temp\ccfFZ1rZ.s 			page 1


   1              		.cpu cortex-m0
   2              		.fpu softvfp
   3              		.eabi_attribute 20, 1
   4              		.eabi_attribute 21, 1
   5              		.eabi_attribute 23, 3
   6              		.eabi_attribute 24, 1
   7              		.eabi_attribute 25, 1
   8              		.eabi_attribute 26, 1
   9              		.eabi_attribute 30, 4
  10              		.eabi_attribute 34, 0
  11              		.eabi_attribute 18, 4
  12              		.code	16
  13              		.file	"PhaseControl.c"
  14              		.text
  15              	.Ltext0:
  16              		.cfi_sections	.debug_frame
  17              		.section	.text.phaseControl,"ax",%progbits
  18              		.align	1
  19              		.global	phaseControl
  20              		.code	16
  21              		.thumb_func
  22              		.type	phaseControl, %function
  23              	phaseControl:
  24              	.LFB0:
  25              		.file 1 "PhaseControl.c"
   1:PhaseControl.c **** /* ========================================
   2:PhaseControl.c ****  *
   3:PhaseControl.c ****  * Copyright YOUR COMPANY, THE YEAR
   4:PhaseControl.c ****  * All Rights Reserved
   5:PhaseControl.c ****  * UNPUBLISHED, LICENSED SOFTWARE.
   6:PhaseControl.c ****  *
   7:PhaseControl.c ****  * CONFIDENTIAL AND PROPRIETARY INFORMATION
   8:PhaseControl.c ****  * WHICH IS THE PROPERTY OF your company.
   9:PhaseControl.c ****  *
  10:PhaseControl.c ****  * ========================================
  11:PhaseControl.c **** */
  12:PhaseControl.c **** 
  13:PhaseControl.c **** /* [] END OF FILE */
  14:PhaseControl.c **** #include <phaseControl.h>
  15:PhaseControl.c **** 
  16:PhaseControl.c **** void phaseControl (uint8 currentphase, uint8 motor){
  26              		.loc 1 16 0
  27              		.cfi_startproc
  28              	.LVL0:
  29 0000 08B5     		push	{r3, lr}
  30              		.cfi_def_cfa_offset 8
  31              		.cfi_offset 3, -8
  32              		.cfi_offset 14, -4
  17:PhaseControl.c ****     
  18:PhaseControl.c ****     if(motor == 1)
  33              		.loc 1 18 0
  34 0002 0129     		cmp	r1, #1
  35 0004 02D1     		bne	.L2
  19:PhaseControl.c ****         DIR_REG_1_Write (currentphase);
  36              		.loc 1 19 0
  37 0006 FFF7FEFF 		bl	DIR_REG_1_Write
  38              	.LVL1:
ARM GAS  C:\Users\TECHCO~1\AppData\Local\Temp\ccfFZ1rZ.s 			page 2


  39 000a 01E0     		b	.L1
  40              	.LVL2:
  41              	.L2:
  20:PhaseControl.c ****     else
  21:PhaseControl.c ****         DIR_REG_2_Write (currentphase);
  42              		.loc 1 21 0
  43 000c FFF7FEFF 		bl	DIR_REG_2_Write
  44              	.LVL3:
  45              	.L1:
  22:PhaseControl.c **** }
  46              		.loc 1 22 0
  47              		@ sp needed
  48 0010 08BD     		pop	{r3, pc}
  49              		.cfi_endproc
  50              	.LFE0:
  51              		.size	phaseControl, .-phaseControl
  52              		.section	.text.phaseMove,"ax",%progbits
  53              		.align	1
  54              		.global	phaseMove
  55              		.code	16
  56              		.thumb_func
  57              		.type	phaseMove, %function
  58              	phaseMove:
  59              	.LFB1:
  23:PhaseControl.c **** 
  24:PhaseControl.c **** void phaseMove(uint8 motor){
  60              		.loc 1 24 0
  61              		.cfi_startproc
  62              	.LVL4:
  63 0000 00B5     		push	{lr}
  64              		.cfi_def_cfa_offset 4
  65              		.cfi_offset 14, -4
  25:PhaseControl.c ****     
  26:PhaseControl.c ****     if(motor == 1) {
  66              		.loc 1 26 0
  67 0002 0128     		cmp	r0, #1
  68 0004 0BD1     		bne	.L6
  27:PhaseControl.c ****         if((currentStepA == 0)||(currentStepB == 0)) {
  69              		.loc 1 27 0
  70 0006 174B     		ldr	r3, .L44
  71 0008 1B78     		ldrb	r3, [r3]
  72 000a 002B     		cmp	r3, #0
  73 000c 03D0     		beq	.L7
  74              		.loc 1 27 0 is_stmt 0 discriminator 1
  75 000e 164B     		ldr	r3, .L44+4
  76 0010 1B78     		ldrb	r3, [r3]
  77 0012 002B     		cmp	r3, #0
  78 0014 25D1     		bne	.L5
  79              	.L7:
  28:PhaseControl.c ****     		if(dirReg == 0) { //Clockwise 
  80              		.loc 1 28 0 is_stmt 1
  81 0016 154B     		ldr	r3, .L44+8
  82 0018 1A78     		ldrb	r2, [r3]
  83 001a 154B     		ldr	r3, .L44+12
  84 001c 0AE0     		b	.L43
  85              	.L6:
  29:PhaseControl.c ****     			switch(phase) {
ARM GAS  C:\Users\TECHCO~1\AppData\Local\Temp\ccfFZ1rZ.s 			page 3


  30:PhaseControl.c ****     				case 0:
  31:PhaseControl.c ****     					phase = 2;
  32:PhaseControl.c ****     				break;
  33:PhaseControl.c ****     				case 1:
  34:PhaseControl.c ****     					phase = 0;
  35:PhaseControl.c ****     				break;
  36:PhaseControl.c ****     				case 2:
  37:PhaseControl.c ****     					phase = 3;
  38:PhaseControl.c ****     				break;
  39:PhaseControl.c ****     				case 3:
  40:PhaseControl.c ****     					phase = 1;
  41:PhaseControl.c ****     				break;
  42:PhaseControl.c ****     				default:
  43:PhaseControl.c ****     				break;
  44:PhaseControl.c ****     			} // Clocwise phase setting
  45:PhaseControl.c ****     		} // direction register = 0
  46:PhaseControl.c ****     		else { // Counterclockwise
  47:PhaseControl.c ****     			switch(phase) {
  48:PhaseControl.c ****     				case 0:
  49:PhaseControl.c ****     					phase = 1;
  50:PhaseControl.c ****     				break;
  51:PhaseControl.c ****     				case 1:
  52:PhaseControl.c ****     					phase = 3;
  53:PhaseControl.c ****     				break;
  54:PhaseControl.c ****     				case 2:
  55:PhaseControl.c ****     					phase = 0;
  56:PhaseControl.c ****     				break;
  57:PhaseControl.c ****     				case 3:
  58:PhaseControl.c ****     					phase = 2;
  59:PhaseControl.c ****     				break;
  60:PhaseControl.c ****     				default:
  61:PhaseControl.c ****     				break;
  62:PhaseControl.c ****     			} // Counterclockwise phase setting
  63:PhaseControl.c ****     		} // direction register not 0
  64:PhaseControl.c ****     	} // Current step A or B = 0
  65:PhaseControl.c ****     } // Motor = 1
  66:PhaseControl.c ****     else {
  67:PhaseControl.c ****         if((currentStepA1 == 0)||(currentStepB1 == 0)) {
  86              		.loc 1 67 0
  87 001e 154B     		ldr	r3, .L44+16
  88 0020 1B78     		ldrb	r3, [r3]
  89 0022 002B     		cmp	r3, #0
  90 0024 03D0     		beq	.L20
  91              		.loc 1 67 0 is_stmt 0 discriminator 1
  92 0026 144B     		ldr	r3, .L44+20
  93 0028 1B78     		ldrb	r3, [r3]
  94 002a 002B     		cmp	r3, #0
  95 002c 19D1     		bne	.L5
  96              	.L20:
  68:PhaseControl.c ****     		if(dirReg1 == 0) { //Clockwise 
  97              		.loc 1 68 0 is_stmt 1
  98 002e 134B     		ldr	r3, .L44+24
  99 0030 1A78     		ldrb	r2, [r3]
 100 0032 134B     		ldr	r3, .L44+28
 101              	.L43:
  69:PhaseControl.c ****     			switch(phase1) {
 102              		.loc 1 69 0
ARM GAS  C:\Users\TECHCO~1\AppData\Local\Temp\ccfFZ1rZ.s 			page 4


 103 0034 1878     		ldrb	r0, [r3]
 104              	.LVL5:
  68:PhaseControl.c ****     		if(dirReg1 == 0) { //Clockwise 
 105              		.loc 1 68 0
 106 0036 002A     		cmp	r2, #0
 107 0038 05D1     		bne	.L21
 108              		.loc 1 69 0
 109 003a 0328     		cmp	r0, #3
 110 003c 11D8     		bhi	.L5
 111 003e FFF7FEFF 		bl	__gnu_thumb1_case_uqi
 112              	.L23:
 113 0042 0E       		.byte	(.L31-.L23)/2
 114 0043 0C       		.byte	(.L30-.L23)/2
 115 0044 0A       		.byte	(.L29-.L23)/2
 116 0045 08       		.byte	(.L27-.L23)/2
 117              		.p2align 1
 118              	.L21:
  70:PhaseControl.c ****     				case 0:
  71:PhaseControl.c ****     					phase1 = 2;
  72:PhaseControl.c ****     				break;
  73:PhaseControl.c ****     				case 1:
  74:PhaseControl.c ****     					phase1 = 0;
  75:PhaseControl.c ****     				break;
  76:PhaseControl.c ****     				case 2:
  77:PhaseControl.c ****     					phase1 = 3;
  78:PhaseControl.c ****     				break;
  79:PhaseControl.c ****     				case 3:
  80:PhaseControl.c ****     					phase1 = 1;
  81:PhaseControl.c ****     				break;
  82:PhaseControl.c ****     				default:
  83:PhaseControl.c ****     				break;
  84:PhaseControl.c ****     			} // Clocwise phase setting
  85:PhaseControl.c ****     		} // direction register = 0
  86:PhaseControl.c ****     		else { // Counterclockwise
  87:PhaseControl.c ****     			switch(phase1) {
 119              		.loc 1 87 0
 120 0046 0328     		cmp	r0, #3
 121 0048 0BD8     		bhi	.L5
 122 004a FFF7FEFF 		bl	__gnu_thumb1_case_uqi
 123              	.L28:
 124 004e 02       		.byte	(.L27-.L28)/2
 125 004f 04       		.byte	(.L29-.L28)/2
 126 0050 06       		.byte	(.L30-.L28)/2
 127 0051 08       		.byte	(.L31-.L28)/2
 128              		.p2align 1
 129              	.L27:
  88:PhaseControl.c ****     				case 0:
  89:PhaseControl.c ****     					phase1 = 1;
 130              		.loc 1 89 0
 131 0052 0122     		mov	r2, #1
 132 0054 04E0     		b	.L38
 133              	.L29:
  90:PhaseControl.c ****     				break;
  91:PhaseControl.c ****     				case 1:
  92:PhaseControl.c ****     					phase1 = 3;
 134              		.loc 1 92 0
 135 0056 0322     		mov	r2, #3
ARM GAS  C:\Users\TECHCO~1\AppData\Local\Temp\ccfFZ1rZ.s 			page 5


 136 0058 02E0     		b	.L38
 137              	.L30:
  93:PhaseControl.c ****     				break;
  94:PhaseControl.c ****     				case 2:
  95:PhaseControl.c ****     					phase1 = 0;
 138              		.loc 1 95 0
 139 005a 0022     		mov	r2, #0
 140 005c 00E0     		b	.L38
 141              	.L31:
  96:PhaseControl.c ****     				break;
  97:PhaseControl.c ****     				case 3:
  98:PhaseControl.c ****     					phase1 = 2;
 142              		.loc 1 98 0
 143 005e 0222     		mov	r2, #2
 144              	.L38:
 145 0060 1A70     		strb	r2, [r3]
 146              	.L5:
  99:PhaseControl.c ****     				break;
 100:PhaseControl.c ****     				default:
 101:PhaseControl.c ****     				break;
 102:PhaseControl.c ****     			} // Counterclockwise phase setting
 103:PhaseControl.c ****     		} // direction register not 0
 104:PhaseControl.c ****     	} // Current step A or B = 0
 105:PhaseControl.c ****     } // Motor = 2
 106:PhaseControl.c **** }...
 147              		.loc 1 106 0
 148              		@ sp needed
 149 0062 00BD     		pop	{pc}
 150              	.L45:
 151              		.align	2
 152              	.L44:
 153 0064 00000000 		.word	currentStepA
 154 0068 00000000 		.word	currentStepB
 155 006c 00000000 		.word	dirReg
 156 0070 00000000 		.word	phase
 157 0074 00000000 		.word	currentStepA1
 158 0078 00000000 		.word	currentStepB1
 159 007c 00000000 		.word	dirReg1
 160 0080 00000000 		.word	phase1
 161              		.cfi_endproc
 162              	.LFE1:
 163              		.size	phaseMove, .-phaseMove
 164              		.text
 165              	.Letext0:
 166              		.file 2 "./phaseControl.h"
 167              		.file 3 "Generated_Source\\PSoC4/cytypes.h"
 168              		.file 4 "Generated_Source\\PSoC4/DIR_REG_1.h"
 169              		.file 5 "Generated_Source\\PSoC4/DIR_REG_2.h"