ARM GAS  C:\Users\TECHCO~1\AppData\Local\Temp\cc9RpRiE.s 			page 1


   1              		.cpu cortex-m0
   2              		.fpu softvfp
   3              		.eabi_attribute 20, 1
   4              		.eabi_attribute 21, 1
   5              		.eabi_attribute 23, 3
   6              		.eabi_attribute 24, 1
   7              		.eabi_attribute 25, 1
   8              		.eabi_attribute 26, 1
   9              		.eabi_attribute 30, 4
  10              		.eabi_attribute 34, 0
  11              		.eabi_attribute 18, 4
  12              		.code	16
  13              		.file	"TCPWM_4.c"
  14              		.text
  15              	.Ltext0:
  16              		.cfi_sections	.debug_frame
  17              		.section	.text.TCPWM_4_Init,"ax",%progbits
  18              		.align	1
  19              		.global	TCPWM_4_Init
  20              		.code	16
  21              		.thumb_func
  22              		.type	TCPWM_4_Init, %function
  23              	TCPWM_4_Init:
  24              	.LFB0:
  25              		.file 1 "Generated_Source\\PSoC4\\TCPWM_4.c"
   1:Generated_Source\PSoC4/TCPWM_4.c **** /*******************************************************************************
   2:Generated_Source\PSoC4/TCPWM_4.c **** * File Name: TCPWM_4.c
   3:Generated_Source\PSoC4/TCPWM_4.c **** * Version 2.10
   4:Generated_Source\PSoC4/TCPWM_4.c **** *
   5:Generated_Source\PSoC4/TCPWM_4.c **** * Description:
   6:Generated_Source\PSoC4/TCPWM_4.c **** *  This file provides the source code to the API for the TCPWM_4
   7:Generated_Source\PSoC4/TCPWM_4.c **** *  component
   8:Generated_Source\PSoC4/TCPWM_4.c **** *
   9:Generated_Source\PSoC4/TCPWM_4.c **** * Note:
  10:Generated_Source\PSoC4/TCPWM_4.c **** *  None
  11:Generated_Source\PSoC4/TCPWM_4.c **** *
  12:Generated_Source\PSoC4/TCPWM_4.c **** ********************************************************************************
  13:Generated_Source\PSoC4/TCPWM_4.c **** * Copyright 2013-2015, Cypress Semiconductor Corporation.  All rights reserved.
  14:Generated_Source\PSoC4/TCPWM_4.c **** * You may use this file only in accordance with the license, terms, conditions,
  15:Generated_Source\PSoC4/TCPWM_4.c **** * disclaimers, and limitations in the end user license agreement accompanying
  16:Generated_Source\PSoC4/TCPWM_4.c **** * the software package with which this file was provided.
  17:Generated_Source\PSoC4/TCPWM_4.c **** *******************************************************************************/
  18:Generated_Source\PSoC4/TCPWM_4.c **** 
  19:Generated_Source\PSoC4/TCPWM_4.c **** #include "TCPWM_4.h"
  20:Generated_Source\PSoC4/TCPWM_4.c **** 
  21:Generated_Source\PSoC4/TCPWM_4.c **** uint8 TCPWM_4_initVar = 0u;
  22:Generated_Source\PSoC4/TCPWM_4.c **** 
  23:Generated_Source\PSoC4/TCPWM_4.c **** 
  24:Generated_Source\PSoC4/TCPWM_4.c **** /*******************************************************************************
  25:Generated_Source\PSoC4/TCPWM_4.c **** * Function Name: TCPWM_4_Init
  26:Generated_Source\PSoC4/TCPWM_4.c **** ********************************************************************************
  27:Generated_Source\PSoC4/TCPWM_4.c **** *
  28:Generated_Source\PSoC4/TCPWM_4.c **** * Summary:
  29:Generated_Source\PSoC4/TCPWM_4.c **** *  Initialize/Restore default TCPWM_4 configuration.
  30:Generated_Source\PSoC4/TCPWM_4.c **** *
  31:Generated_Source\PSoC4/TCPWM_4.c **** * Parameters:
  32:Generated_Source\PSoC4/TCPWM_4.c **** *  None
ARM GAS  C:\Users\TECHCO~1\AppData\Local\Temp\cc9RpRiE.s 			page 2


  33:Generated_Source\PSoC4/TCPWM_4.c **** *
  34:Generated_Source\PSoC4/TCPWM_4.c **** * Return:
  35:Generated_Source\PSoC4/TCPWM_4.c **** *  None
  36:Generated_Source\PSoC4/TCPWM_4.c **** *
  37:Generated_Source\PSoC4/TCPWM_4.c **** *******************************************************************************/
  38:Generated_Source\PSoC4/TCPWM_4.c **** void TCPWM_4_Init(void)
  39:Generated_Source\PSoC4/TCPWM_4.c **** {
  26              		.loc 1 39 0
  27              		.cfi_startproc
  40:Generated_Source\PSoC4/TCPWM_4.c **** 
  41:Generated_Source\PSoC4/TCPWM_4.c ****     /* Set values from customizer to CTRL */
  42:Generated_Source\PSoC4/TCPWM_4.c ****     #if (TCPWM_4__QUAD == TCPWM_4_CONFIG)
  43:Generated_Source\PSoC4/TCPWM_4.c ****         TCPWM_4_CONTROL_REG = TCPWM_4_CTRL_QUAD_BASE_CONFIG;
  44:Generated_Source\PSoC4/TCPWM_4.c ****         
  45:Generated_Source\PSoC4/TCPWM_4.c ****         /* Set values from customizer to CTRL1 */
  46:Generated_Source\PSoC4/TCPWM_4.c ****         TCPWM_4_TRIG_CONTROL1_REG  = TCPWM_4_QUAD_SIGNALS_MODES;
  47:Generated_Source\PSoC4/TCPWM_4.c **** 
  48:Generated_Source\PSoC4/TCPWM_4.c ****         /* Set values from customizer to INTR */
  49:Generated_Source\PSoC4/TCPWM_4.c ****         TCPWM_4_SetInterruptMode(TCPWM_4_QUAD_INTERRUPT_MASK);
  50:Generated_Source\PSoC4/TCPWM_4.c ****         
  51:Generated_Source\PSoC4/TCPWM_4.c ****          /* Set other values */
  52:Generated_Source\PSoC4/TCPWM_4.c ****         TCPWM_4_SetCounterMode(TCPWM_4_COUNT_DOWN);
  53:Generated_Source\PSoC4/TCPWM_4.c ****         TCPWM_4_WritePeriod(TCPWM_4_QUAD_PERIOD_INIT_VALUE);
  54:Generated_Source\PSoC4/TCPWM_4.c ****         TCPWM_4_WriteCounter(TCPWM_4_QUAD_PERIOD_INIT_VALUE);
  55:Generated_Source\PSoC4/TCPWM_4.c ****     #endif  /* (TCPWM_4__QUAD == TCPWM_4_CONFIG) */
  56:Generated_Source\PSoC4/TCPWM_4.c **** 
  57:Generated_Source\PSoC4/TCPWM_4.c ****     #if (TCPWM_4__TIMER == TCPWM_4_CONFIG)
  58:Generated_Source\PSoC4/TCPWM_4.c ****         TCPWM_4_CONTROL_REG = TCPWM_4_CTRL_TIMER_BASE_CONFIG;
  59:Generated_Source\PSoC4/TCPWM_4.c ****         
  60:Generated_Source\PSoC4/TCPWM_4.c ****         /* Set values from customizer to CTRL1 */
  61:Generated_Source\PSoC4/TCPWM_4.c ****         TCPWM_4_TRIG_CONTROL1_REG  = TCPWM_4_TIMER_SIGNALS_MODES;
  62:Generated_Source\PSoC4/TCPWM_4.c ****     
  63:Generated_Source\PSoC4/TCPWM_4.c ****         /* Set values from customizer to INTR */
  64:Generated_Source\PSoC4/TCPWM_4.c ****         TCPWM_4_SetInterruptMode(TCPWM_4_TC_INTERRUPT_MASK);
  65:Generated_Source\PSoC4/TCPWM_4.c ****         
  66:Generated_Source\PSoC4/TCPWM_4.c ****         /* Set other values from customizer */
  67:Generated_Source\PSoC4/TCPWM_4.c ****         TCPWM_4_WritePeriod(TCPWM_4_TC_PERIOD_VALUE );
  68:Generated_Source\PSoC4/TCPWM_4.c **** 
  69:Generated_Source\PSoC4/TCPWM_4.c ****         #if (TCPWM_4__COMPARE == TCPWM_4_TC_COMP_CAP_MODE)
  70:Generated_Source\PSoC4/TCPWM_4.c ****             TCPWM_4_WriteCompare(TCPWM_4_TC_COMPARE_VALUE);
  71:Generated_Source\PSoC4/TCPWM_4.c **** 
  72:Generated_Source\PSoC4/TCPWM_4.c ****             #if (1u == TCPWM_4_TC_COMPARE_SWAP)
  73:Generated_Source\PSoC4/TCPWM_4.c ****                 TCPWM_4_SetCompareSwap(1u);
  74:Generated_Source\PSoC4/TCPWM_4.c ****                 TCPWM_4_WriteCompareBuf(TCPWM_4_TC_COMPARE_BUF_VALUE);
  75:Generated_Source\PSoC4/TCPWM_4.c ****             #endif  /* (1u == TCPWM_4_TC_COMPARE_SWAP) */
  76:Generated_Source\PSoC4/TCPWM_4.c ****         #endif  /* (TCPWM_4__COMPARE == TCPWM_4_TC_COMP_CAP_MODE) */
  77:Generated_Source\PSoC4/TCPWM_4.c **** 
  78:Generated_Source\PSoC4/TCPWM_4.c ****         /* Initialize counter value */
  79:Generated_Source\PSoC4/TCPWM_4.c ****         #if (TCPWM_4_CY_TCPWM_V2 && TCPWM_4_TIMER_UPDOWN_CNT_USED && !TCPWM_4_CY_TCPWM_4000)
  80:Generated_Source\PSoC4/TCPWM_4.c ****             TCPWM_4_WriteCounter(1u);
  81:Generated_Source\PSoC4/TCPWM_4.c ****         #elif(TCPWM_4__COUNT_DOWN == TCPWM_4_TC_COUNTER_MODE)
  82:Generated_Source\PSoC4/TCPWM_4.c ****             TCPWM_4_WriteCounter(TCPWM_4_TC_PERIOD_VALUE);
  83:Generated_Source\PSoC4/TCPWM_4.c ****         #else
  84:Generated_Source\PSoC4/TCPWM_4.c ****             TCPWM_4_WriteCounter(0u);
  85:Generated_Source\PSoC4/TCPWM_4.c ****         #endif /* (TCPWM_4_CY_TCPWM_V2 && TCPWM_4_TIMER_UPDOWN_CNT_USED && !TCPWM_4_CY_TCPWM_4000) 
  86:Generated_Source\PSoC4/TCPWM_4.c ****     #endif  /* (TCPWM_4__TIMER == TCPWM_4_CONFIG) */
  87:Generated_Source\PSoC4/TCPWM_4.c **** 
ARM GAS  C:\Users\TECHCO~1\AppData\Local\Temp\cc9RpRiE.s 			page 3


  88:Generated_Source\PSoC4/TCPWM_4.c ****     #if (TCPWM_4__PWM_SEL == TCPWM_4_CONFIG)
  89:Generated_Source\PSoC4/TCPWM_4.c ****         TCPWM_4_CONTROL_REG = TCPWM_4_CTRL_PWM_BASE_CONFIG;
  28              		.loc 1 89 0
  29 0000 8022     		mov	r2, #128
  30              	.LBB10:
  31              	.LBB11:
  90:Generated_Source\PSoC4/TCPWM_4.c **** 
  91:Generated_Source\PSoC4/TCPWM_4.c ****         #if (TCPWM_4__PWM_PR == TCPWM_4_PWM_MODE)
  92:Generated_Source\PSoC4/TCPWM_4.c ****             TCPWM_4_CONTROL_REG |= TCPWM_4_CTRL_PWM_RUN_MODE;
  93:Generated_Source\PSoC4/TCPWM_4.c ****             TCPWM_4_WriteCounter(TCPWM_4_PWM_PR_INIT_VALUE);
  94:Generated_Source\PSoC4/TCPWM_4.c ****         #else
  95:Generated_Source\PSoC4/TCPWM_4.c ****             TCPWM_4_CONTROL_REG |= TCPWM_4_CTRL_PWM_ALIGN | TCPWM_4_CTRL_PWM_KILL_EVENT;
  96:Generated_Source\PSoC4/TCPWM_4.c ****             
  97:Generated_Source\PSoC4/TCPWM_4.c ****             /* Initialize counter value */
  98:Generated_Source\PSoC4/TCPWM_4.c ****             #if (TCPWM_4_CY_TCPWM_V2 && TCPWM_4_PWM_UPDOWN_CNT_USED && !TCPWM_4_CY_TCPWM_4000)
  99:Generated_Source\PSoC4/TCPWM_4.c ****                 TCPWM_4_WriteCounter(1u);
 100:Generated_Source\PSoC4/TCPWM_4.c ****             #elif (TCPWM_4__RIGHT == TCPWM_4_PWM_ALIGN)
 101:Generated_Source\PSoC4/TCPWM_4.c ****                 TCPWM_4_WriteCounter(TCPWM_4_PWM_PERIOD_VALUE);
 102:Generated_Source\PSoC4/TCPWM_4.c ****             #else 
 103:Generated_Source\PSoC4/TCPWM_4.c ****                 TCPWM_4_WriteCounter(0u);
 104:Generated_Source\PSoC4/TCPWM_4.c ****             #endif  /* (TCPWM_4_CY_TCPWM_V2 && TCPWM_4_PWM_UPDOWN_CNT_USED && !TCPWM_4_CY_TCPWM_400
 105:Generated_Source\PSoC4/TCPWM_4.c ****         #endif  /* (TCPWM_4__PWM_PR == TCPWM_4_PWM_MODE) */
 106:Generated_Source\PSoC4/TCPWM_4.c **** 
 107:Generated_Source\PSoC4/TCPWM_4.c ****         #if (TCPWM_4__PWM_DT == TCPWM_4_PWM_MODE)
 108:Generated_Source\PSoC4/TCPWM_4.c ****             TCPWM_4_CONTROL_REG |= TCPWM_4_CTRL_PWM_DEAD_TIME_CYCLE;
 109:Generated_Source\PSoC4/TCPWM_4.c ****         #endif  /* (TCPWM_4__PWM_DT == TCPWM_4_PWM_MODE) */
 110:Generated_Source\PSoC4/TCPWM_4.c **** 
 111:Generated_Source\PSoC4/TCPWM_4.c ****         #if (TCPWM_4__PWM == TCPWM_4_PWM_MODE)
 112:Generated_Source\PSoC4/TCPWM_4.c ****             TCPWM_4_CONTROL_REG |= TCPWM_4_CTRL_PWM_PRESCALER;
 113:Generated_Source\PSoC4/TCPWM_4.c ****         #endif  /* (TCPWM_4__PWM == TCPWM_4_PWM_MODE) */
 114:Generated_Source\PSoC4/TCPWM_4.c **** 
 115:Generated_Source\PSoC4/TCPWM_4.c ****         /* Set values from customizer to CTRL1 */
 116:Generated_Source\PSoC4/TCPWM_4.c ****         TCPWM_4_TRIG_CONTROL1_REG  = TCPWM_4_PWM_SIGNALS_MODES;
 117:Generated_Source\PSoC4/TCPWM_4.c ****     
 118:Generated_Source\PSoC4/TCPWM_4.c ****         /* Set values from customizer to INTR */
 119:Generated_Source\PSoC4/TCPWM_4.c ****         TCPWM_4_SetInterruptMode(TCPWM_4_PWM_INTERRUPT_MASK);
 120:Generated_Source\PSoC4/TCPWM_4.c **** 
 121:Generated_Source\PSoC4/TCPWM_4.c ****         /* Set values from customizer to CTRL2 */
 122:Generated_Source\PSoC4/TCPWM_4.c ****         #if (TCPWM_4__PWM_PR == TCPWM_4_PWM_MODE)
 123:Generated_Source\PSoC4/TCPWM_4.c ****             TCPWM_4_TRIG_CONTROL2_REG =
 124:Generated_Source\PSoC4/TCPWM_4.c ****                     (TCPWM_4_CC_MATCH_NO_CHANGE    |
 125:Generated_Source\PSoC4/TCPWM_4.c ****                     TCPWM_4_OVERLOW_NO_CHANGE      |
 126:Generated_Source\PSoC4/TCPWM_4.c ****                     TCPWM_4_UNDERFLOW_NO_CHANGE);
 127:Generated_Source\PSoC4/TCPWM_4.c ****         #else
 128:Generated_Source\PSoC4/TCPWM_4.c ****             #if (TCPWM_4__LEFT == TCPWM_4_PWM_ALIGN)
 129:Generated_Source\PSoC4/TCPWM_4.c ****                 TCPWM_4_TRIG_CONTROL2_REG = TCPWM_4_PWM_MODE_LEFT;
 130:Generated_Source\PSoC4/TCPWM_4.c ****             #endif  /* ( TCPWM_4_PWM_LEFT == TCPWM_4_PWM_ALIGN) */
 131:Generated_Source\PSoC4/TCPWM_4.c **** 
 132:Generated_Source\PSoC4/TCPWM_4.c ****             #if (TCPWM_4__RIGHT == TCPWM_4_PWM_ALIGN)
 133:Generated_Source\PSoC4/TCPWM_4.c ****                 TCPWM_4_TRIG_CONTROL2_REG = TCPWM_4_PWM_MODE_RIGHT;
 134:Generated_Source\PSoC4/TCPWM_4.c ****             #endif  /* ( TCPWM_4_PWM_RIGHT == TCPWM_4_PWM_ALIGN) */
 135:Generated_Source\PSoC4/TCPWM_4.c **** 
 136:Generated_Source\PSoC4/TCPWM_4.c ****             #if (TCPWM_4__CENTER == TCPWM_4_PWM_ALIGN)
 137:Generated_Source\PSoC4/TCPWM_4.c ****                 TCPWM_4_TRIG_CONTROL2_REG = TCPWM_4_PWM_MODE_CENTER;
 138:Generated_Source\PSoC4/TCPWM_4.c ****             #endif  /* ( TCPWM_4_PWM_CENTER == TCPWM_4_PWM_ALIGN) */
 139:Generated_Source\PSoC4/TCPWM_4.c **** 
 140:Generated_Source\PSoC4/TCPWM_4.c ****             #if (TCPWM_4__ASYMMETRIC == TCPWM_4_PWM_ALIGN)
ARM GAS  C:\Users\TECHCO~1\AppData\Local\Temp\cc9RpRiE.s 			page 4


 141:Generated_Source\PSoC4/TCPWM_4.c ****                 TCPWM_4_TRIG_CONTROL2_REG = TCPWM_4_PWM_MODE_ASYM;
 142:Generated_Source\PSoC4/TCPWM_4.c ****             #endif  /* (TCPWM_4__ASYMMETRIC == TCPWM_4_PWM_ALIGN) */
 143:Generated_Source\PSoC4/TCPWM_4.c ****         #endif  /* (TCPWM_4__PWM_PR == TCPWM_4_PWM_MODE) */
 144:Generated_Source\PSoC4/TCPWM_4.c **** 
 145:Generated_Source\PSoC4/TCPWM_4.c ****         /* Set other values from customizer */
 146:Generated_Source\PSoC4/TCPWM_4.c ****         TCPWM_4_WritePeriod(TCPWM_4_PWM_PERIOD_VALUE );
 147:Generated_Source\PSoC4/TCPWM_4.c ****         TCPWM_4_WriteCompare(TCPWM_4_PWM_COMPARE_VALUE);
 148:Generated_Source\PSoC4/TCPWM_4.c **** 
 149:Generated_Source\PSoC4/TCPWM_4.c ****         #if (1u == TCPWM_4_PWM_COMPARE_SWAP)
 150:Generated_Source\PSoC4/TCPWM_4.c ****             TCPWM_4_SetCompareSwap(1u);
 151:Generated_Source\PSoC4/TCPWM_4.c ****             TCPWM_4_WriteCompareBuf(TCPWM_4_PWM_COMPARE_BUF_VALUE);
 152:Generated_Source\PSoC4/TCPWM_4.c ****         #endif  /* (1u == TCPWM_4_PWM_COMPARE_SWAP) */
 153:Generated_Source\PSoC4/TCPWM_4.c **** 
 154:Generated_Source\PSoC4/TCPWM_4.c ****         #if (1u == TCPWM_4_PWM_PERIOD_SWAP)
 155:Generated_Source\PSoC4/TCPWM_4.c ****             TCPWM_4_SetPeriodSwap(1u);
 156:Generated_Source\PSoC4/TCPWM_4.c ****             TCPWM_4_WritePeriodBuf(TCPWM_4_PWM_PERIOD_BUF_VALUE);
 157:Generated_Source\PSoC4/TCPWM_4.c ****         #endif  /* (1u == TCPWM_4_PWM_PERIOD_SWAP) */
 158:Generated_Source\PSoC4/TCPWM_4.c ****     #endif  /* (TCPWM_4__PWM_SEL == TCPWM_4_CONFIG) */
 159:Generated_Source\PSoC4/TCPWM_4.c ****     
 160:Generated_Source\PSoC4/TCPWM_4.c **** }
 161:Generated_Source\PSoC4/TCPWM_4.c **** 
 162:Generated_Source\PSoC4/TCPWM_4.c **** 
 163:Generated_Source\PSoC4/TCPWM_4.c **** /*******************************************************************************
 164:Generated_Source\PSoC4/TCPWM_4.c **** * Function Name: TCPWM_4_Enable
 165:Generated_Source\PSoC4/TCPWM_4.c **** ********************************************************************************
 166:Generated_Source\PSoC4/TCPWM_4.c **** *
 167:Generated_Source\PSoC4/TCPWM_4.c **** * Summary:
 168:Generated_Source\PSoC4/TCPWM_4.c **** *  Enables the TCPWM_4.
 169:Generated_Source\PSoC4/TCPWM_4.c **** *
 170:Generated_Source\PSoC4/TCPWM_4.c **** * Parameters:
 171:Generated_Source\PSoC4/TCPWM_4.c **** *  None
 172:Generated_Source\PSoC4/TCPWM_4.c **** *
 173:Generated_Source\PSoC4/TCPWM_4.c **** * Return:
 174:Generated_Source\PSoC4/TCPWM_4.c **** *  None
 175:Generated_Source\PSoC4/TCPWM_4.c **** *
 176:Generated_Source\PSoC4/TCPWM_4.c **** *******************************************************************************/
 177:Generated_Source\PSoC4/TCPWM_4.c **** void TCPWM_4_Enable(void)
 178:Generated_Source\PSoC4/TCPWM_4.c **** {
 179:Generated_Source\PSoC4/TCPWM_4.c ****     uint8 enableInterrupts;
 180:Generated_Source\PSoC4/TCPWM_4.c **** 
 181:Generated_Source\PSoC4/TCPWM_4.c ****     enableInterrupts = CyEnterCriticalSection();
 182:Generated_Source\PSoC4/TCPWM_4.c ****     TCPWM_4_BLOCK_CONTROL_REG |= TCPWM_4_MASK;
 183:Generated_Source\PSoC4/TCPWM_4.c ****     CyExitCriticalSection(enableInterrupts);
 184:Generated_Source\PSoC4/TCPWM_4.c **** 
 185:Generated_Source\PSoC4/TCPWM_4.c ****     /* Start Timer or PWM if start input is absent */
 186:Generated_Source\PSoC4/TCPWM_4.c ****     #if (TCPWM_4__PWM_SEL == TCPWM_4_CONFIG)
 187:Generated_Source\PSoC4/TCPWM_4.c ****         #if (0u == TCPWM_4_PWM_START_SIGNAL_PRESENT)
 188:Generated_Source\PSoC4/TCPWM_4.c ****             TCPWM_4_TriggerCommand(TCPWM_4_MASK, TCPWM_4_CMD_START);
 189:Generated_Source\PSoC4/TCPWM_4.c ****         #endif /* (0u == TCPWM_4_PWM_START_SIGNAL_PRESENT) */
 190:Generated_Source\PSoC4/TCPWM_4.c ****     #endif /* (TCPWM_4__PWM_SEL == TCPWM_4_CONFIG) */
 191:Generated_Source\PSoC4/TCPWM_4.c **** 
 192:Generated_Source\PSoC4/TCPWM_4.c ****     #if (TCPWM_4__TIMER == TCPWM_4_CONFIG)
 193:Generated_Source\PSoC4/TCPWM_4.c ****         #if (0u == TCPWM_4_TC_START_SIGNAL_PRESENT)
 194:Generated_Source\PSoC4/TCPWM_4.c ****             TCPWM_4_TriggerCommand(TCPWM_4_MASK, TCPWM_4_CMD_START);
 195:Generated_Source\PSoC4/TCPWM_4.c ****         #endif /* (0u == TCPWM_4_TC_START_SIGNAL_PRESENT) */
 196:Generated_Source\PSoC4/TCPWM_4.c ****     #endif /* (TCPWM_4__TIMER == TCPWM_4_CONFIG) */
 197:Generated_Source\PSoC4/TCPWM_4.c ****     
ARM GAS  C:\Users\TECHCO~1\AppData\Local\Temp\cc9RpRiE.s 			page 5


 198:Generated_Source\PSoC4/TCPWM_4.c ****     #if (TCPWM_4__QUAD == TCPWM_4_CONFIG)
 199:Generated_Source\PSoC4/TCPWM_4.c ****         #if (0u != TCPWM_4_QUAD_AUTO_START)
 200:Generated_Source\PSoC4/TCPWM_4.c ****             TCPWM_4_TriggerCommand(TCPWM_4_MASK, TCPWM_4_CMD_RELOAD);
 201:Generated_Source\PSoC4/TCPWM_4.c ****         #endif /* (0u != TCPWM_4_QUAD_AUTO_START) */
 202:Generated_Source\PSoC4/TCPWM_4.c ****     #endif  /* (TCPWM_4__QUAD == TCPWM_4_CONFIG) */
 203:Generated_Source\PSoC4/TCPWM_4.c **** }
 204:Generated_Source\PSoC4/TCPWM_4.c **** 
 205:Generated_Source\PSoC4/TCPWM_4.c **** 
 206:Generated_Source\PSoC4/TCPWM_4.c **** /*******************************************************************************
 207:Generated_Source\PSoC4/TCPWM_4.c **** * Function Name: TCPWM_4_Start
 208:Generated_Source\PSoC4/TCPWM_4.c **** ********************************************************************************
 209:Generated_Source\PSoC4/TCPWM_4.c **** *
 210:Generated_Source\PSoC4/TCPWM_4.c **** * Summary:
 211:Generated_Source\PSoC4/TCPWM_4.c **** *  Initializes the TCPWM_4 with default customizer
 212:Generated_Source\PSoC4/TCPWM_4.c **** *  values when called the first time and enables the TCPWM_4.
 213:Generated_Source\PSoC4/TCPWM_4.c **** *  For subsequent calls the configuration is left unchanged and the component is
 214:Generated_Source\PSoC4/TCPWM_4.c **** *  just enabled.
 215:Generated_Source\PSoC4/TCPWM_4.c **** *
 216:Generated_Source\PSoC4/TCPWM_4.c **** * Parameters:
 217:Generated_Source\PSoC4/TCPWM_4.c **** *  None
 218:Generated_Source\PSoC4/TCPWM_4.c **** *
 219:Generated_Source\PSoC4/TCPWM_4.c **** * Return:
 220:Generated_Source\PSoC4/TCPWM_4.c **** *  None
 221:Generated_Source\PSoC4/TCPWM_4.c **** *
 222:Generated_Source\PSoC4/TCPWM_4.c **** * Global variables:
 223:Generated_Source\PSoC4/TCPWM_4.c **** *  TCPWM_4_initVar: global variable is used to indicate initial
 224:Generated_Source\PSoC4/TCPWM_4.c **** *  configuration of this component.  The variable is initialized to zero and set
 225:Generated_Source\PSoC4/TCPWM_4.c **** *  to 1 the first time TCPWM_4_Start() is called. This allows
 226:Generated_Source\PSoC4/TCPWM_4.c **** *  enabling/disabling a component without re-initialization in all subsequent
 227:Generated_Source\PSoC4/TCPWM_4.c **** *  calls to the TCPWM_4_Start() routine.
 228:Generated_Source\PSoC4/TCPWM_4.c **** *
 229:Generated_Source\PSoC4/TCPWM_4.c **** *******************************************************************************/
 230:Generated_Source\PSoC4/TCPWM_4.c **** void TCPWM_4_Start(void)
 231:Generated_Source\PSoC4/TCPWM_4.c **** {
 232:Generated_Source\PSoC4/TCPWM_4.c ****     if (0u == TCPWM_4_initVar)
 233:Generated_Source\PSoC4/TCPWM_4.c ****     {
 234:Generated_Source\PSoC4/TCPWM_4.c ****         TCPWM_4_Init();
 235:Generated_Source\PSoC4/TCPWM_4.c ****         TCPWM_4_initVar = 1u;
 236:Generated_Source\PSoC4/TCPWM_4.c ****     }
 237:Generated_Source\PSoC4/TCPWM_4.c **** 
 238:Generated_Source\PSoC4/TCPWM_4.c ****     TCPWM_4_Enable();
 239:Generated_Source\PSoC4/TCPWM_4.c **** }
 240:Generated_Source\PSoC4/TCPWM_4.c **** 
 241:Generated_Source\PSoC4/TCPWM_4.c **** 
 242:Generated_Source\PSoC4/TCPWM_4.c **** /*******************************************************************************
 243:Generated_Source\PSoC4/TCPWM_4.c **** * Function Name: TCPWM_4_Stop
 244:Generated_Source\PSoC4/TCPWM_4.c **** ********************************************************************************
 245:Generated_Source\PSoC4/TCPWM_4.c **** *
 246:Generated_Source\PSoC4/TCPWM_4.c **** * Summary:
 247:Generated_Source\PSoC4/TCPWM_4.c **** *  Disables the TCPWM_4.
 248:Generated_Source\PSoC4/TCPWM_4.c **** *
 249:Generated_Source\PSoC4/TCPWM_4.c **** * Parameters:
 250:Generated_Source\PSoC4/TCPWM_4.c **** *  None
 251:Generated_Source\PSoC4/TCPWM_4.c **** *
 252:Generated_Source\PSoC4/TCPWM_4.c **** * Return:
 253:Generated_Source\PSoC4/TCPWM_4.c **** *  None
 254:Generated_Source\PSoC4/TCPWM_4.c **** *
ARM GAS  C:\Users\TECHCO~1\AppData\Local\Temp\cc9RpRiE.s 			page 6


 255:Generated_Source\PSoC4/TCPWM_4.c **** *******************************************************************************/
 256:Generated_Source\PSoC4/TCPWM_4.c **** void TCPWM_4_Stop(void)
 257:Generated_Source\PSoC4/TCPWM_4.c **** {
 258:Generated_Source\PSoC4/TCPWM_4.c ****     uint8 enableInterrupts;
 259:Generated_Source\PSoC4/TCPWM_4.c **** 
 260:Generated_Source\PSoC4/TCPWM_4.c ****     enableInterrupts = CyEnterCriticalSection();
 261:Generated_Source\PSoC4/TCPWM_4.c **** 
 262:Generated_Source\PSoC4/TCPWM_4.c ****     TCPWM_4_BLOCK_CONTROL_REG &= (uint32)~TCPWM_4_MASK;
 263:Generated_Source\PSoC4/TCPWM_4.c **** 
 264:Generated_Source\PSoC4/TCPWM_4.c ****     CyExitCriticalSection(enableInterrupts);
 265:Generated_Source\PSoC4/TCPWM_4.c **** }
 266:Generated_Source\PSoC4/TCPWM_4.c **** 
 267:Generated_Source\PSoC4/TCPWM_4.c **** 
 268:Generated_Source\PSoC4/TCPWM_4.c **** /*******************************************************************************
 269:Generated_Source\PSoC4/TCPWM_4.c **** * Function Name: TCPWM_4_SetMode
 270:Generated_Source\PSoC4/TCPWM_4.c **** ********************************************************************************
 271:Generated_Source\PSoC4/TCPWM_4.c **** *
 272:Generated_Source\PSoC4/TCPWM_4.c **** * Summary:
 273:Generated_Source\PSoC4/TCPWM_4.c **** *  Sets the operation mode of the TCPWM_4. This function is used when
 274:Generated_Source\PSoC4/TCPWM_4.c **** *  configured as a generic TCPWM_4 and the actual mode of operation is
 275:Generated_Source\PSoC4/TCPWM_4.c **** *  set at runtime. The mode must be set while the component is disabled.
 276:Generated_Source\PSoC4/TCPWM_4.c **** *
 277:Generated_Source\PSoC4/TCPWM_4.c **** * Parameters:
 278:Generated_Source\PSoC4/TCPWM_4.c **** *  mode: Mode for the TCPWM_4 to operate in
 279:Generated_Source\PSoC4/TCPWM_4.c **** *   Values:
 280:Generated_Source\PSoC4/TCPWM_4.c **** *   - TCPWM_4_MODE_TIMER_COMPARE - Timer / Counter with
 281:Generated_Source\PSoC4/TCPWM_4.c **** *                                                 compare capability
 282:Generated_Source\PSoC4/TCPWM_4.c **** *         - TCPWM_4_MODE_TIMER_CAPTURE - Timer / Counter with
 283:Generated_Source\PSoC4/TCPWM_4.c **** *                                                 capture capability
 284:Generated_Source\PSoC4/TCPWM_4.c **** *         - TCPWM_4_MODE_QUAD - Quadrature decoder
 285:Generated_Source\PSoC4/TCPWM_4.c **** *         - TCPWM_4_MODE_PWM - PWM
 286:Generated_Source\PSoC4/TCPWM_4.c **** *         - TCPWM_4_MODE_PWM_DT - PWM with dead time
 287:Generated_Source\PSoC4/TCPWM_4.c **** *         - TCPWM_4_MODE_PWM_PR - PWM with pseudo random capability
 288:Generated_Source\PSoC4/TCPWM_4.c **** *
 289:Generated_Source\PSoC4/TCPWM_4.c **** * Return:
 290:Generated_Source\PSoC4/TCPWM_4.c **** *  None
 291:Generated_Source\PSoC4/TCPWM_4.c **** *
 292:Generated_Source\PSoC4/TCPWM_4.c **** *******************************************************************************/
 293:Generated_Source\PSoC4/TCPWM_4.c **** void TCPWM_4_SetMode(uint32 mode)
 294:Generated_Source\PSoC4/TCPWM_4.c **** {
 295:Generated_Source\PSoC4/TCPWM_4.c ****     uint8 enableInterrupts;
 296:Generated_Source\PSoC4/TCPWM_4.c **** 
 297:Generated_Source\PSoC4/TCPWM_4.c ****     enableInterrupts = CyEnterCriticalSection();
 298:Generated_Source\PSoC4/TCPWM_4.c **** 
 299:Generated_Source\PSoC4/TCPWM_4.c ****     TCPWM_4_CONTROL_REG &= (uint32)~TCPWM_4_MODE_MASK;
 300:Generated_Source\PSoC4/TCPWM_4.c ****     TCPWM_4_CONTROL_REG |= mode;
 301:Generated_Source\PSoC4/TCPWM_4.c **** 
 302:Generated_Source\PSoC4/TCPWM_4.c ****     CyExitCriticalSection(enableInterrupts);
 303:Generated_Source\PSoC4/TCPWM_4.c **** }
 304:Generated_Source\PSoC4/TCPWM_4.c **** 
 305:Generated_Source\PSoC4/TCPWM_4.c **** 
 306:Generated_Source\PSoC4/TCPWM_4.c **** /*******************************************************************************
 307:Generated_Source\PSoC4/TCPWM_4.c **** * Function Name: TCPWM_4_SetQDMode
 308:Generated_Source\PSoC4/TCPWM_4.c **** ********************************************************************************
 309:Generated_Source\PSoC4/TCPWM_4.c **** *
 310:Generated_Source\PSoC4/TCPWM_4.c **** * Summary:
 311:Generated_Source\PSoC4/TCPWM_4.c **** *  Sets the the Quadrature Decoder to one of the 3 supported modes.
ARM GAS  C:\Users\TECHCO~1\AppData\Local\Temp\cc9RpRiE.s 			page 7


 312:Generated_Source\PSoC4/TCPWM_4.c **** *  Its functionality is only applicable to Quadrature Decoder operation.
 313:Generated_Source\PSoC4/TCPWM_4.c **** *
 314:Generated_Source\PSoC4/TCPWM_4.c **** * Parameters:
 315:Generated_Source\PSoC4/TCPWM_4.c **** *  qdMode: Quadrature Decoder mode
 316:Generated_Source\PSoC4/TCPWM_4.c **** *   Values:
 317:Generated_Source\PSoC4/TCPWM_4.c **** *         - TCPWM_4_MODE_X1 - Counts on phi 1 rising
 318:Generated_Source\PSoC4/TCPWM_4.c **** *         - TCPWM_4_MODE_X2 - Counts on both edges of phi1 (2x faster)
 319:Generated_Source\PSoC4/TCPWM_4.c **** *         - TCPWM_4_MODE_X4 - Counts on both edges of phi1 and phi2
 320:Generated_Source\PSoC4/TCPWM_4.c **** *                                        (4x faster)
 321:Generated_Source\PSoC4/TCPWM_4.c **** *
 322:Generated_Source\PSoC4/TCPWM_4.c **** * Return:
 323:Generated_Source\PSoC4/TCPWM_4.c **** *  None
 324:Generated_Source\PSoC4/TCPWM_4.c **** *
 325:Generated_Source\PSoC4/TCPWM_4.c **** *******************************************************************************/
 326:Generated_Source\PSoC4/TCPWM_4.c **** void TCPWM_4_SetQDMode(uint32 qdMode)
 327:Generated_Source\PSoC4/TCPWM_4.c **** {
 328:Generated_Source\PSoC4/TCPWM_4.c ****     uint8 enableInterrupts;
 329:Generated_Source\PSoC4/TCPWM_4.c **** 
 330:Generated_Source\PSoC4/TCPWM_4.c ****     enableInterrupts = CyEnterCriticalSection();
 331:Generated_Source\PSoC4/TCPWM_4.c **** 
 332:Generated_Source\PSoC4/TCPWM_4.c ****     TCPWM_4_CONTROL_REG &= (uint32)~TCPWM_4_QUAD_MODE_MASK;
 333:Generated_Source\PSoC4/TCPWM_4.c ****     TCPWM_4_CONTROL_REG |= qdMode;
 334:Generated_Source\PSoC4/TCPWM_4.c **** 
 335:Generated_Source\PSoC4/TCPWM_4.c ****     CyExitCriticalSection(enableInterrupts);
 336:Generated_Source\PSoC4/TCPWM_4.c **** }
 337:Generated_Source\PSoC4/TCPWM_4.c **** 
 338:Generated_Source\PSoC4/TCPWM_4.c **** 
 339:Generated_Source\PSoC4/TCPWM_4.c **** /*******************************************************************************
 340:Generated_Source\PSoC4/TCPWM_4.c **** * Function Name: TCPWM_4_SetPrescaler
 341:Generated_Source\PSoC4/TCPWM_4.c **** ********************************************************************************
 342:Generated_Source\PSoC4/TCPWM_4.c **** *
 343:Generated_Source\PSoC4/TCPWM_4.c **** * Summary:
 344:Generated_Source\PSoC4/TCPWM_4.c **** *  Sets the prescaler value that is applied to the clock input.  Not applicable
 345:Generated_Source\PSoC4/TCPWM_4.c **** *  to a PWM with the dead time mode or Quadrature Decoder mode.
 346:Generated_Source\PSoC4/TCPWM_4.c **** *
 347:Generated_Source\PSoC4/TCPWM_4.c **** * Parameters:
 348:Generated_Source\PSoC4/TCPWM_4.c **** *  prescaler: Prescaler divider value
 349:Generated_Source\PSoC4/TCPWM_4.c **** *   Values:
 350:Generated_Source\PSoC4/TCPWM_4.c **** *         - TCPWM_4_PRESCALE_DIVBY1    - Divide by 1 (no prescaling)
 351:Generated_Source\PSoC4/TCPWM_4.c **** *         - TCPWM_4_PRESCALE_DIVBY2    - Divide by 2
 352:Generated_Source\PSoC4/TCPWM_4.c **** *         - TCPWM_4_PRESCALE_DIVBY4    - Divide by 4
 353:Generated_Source\PSoC4/TCPWM_4.c **** *         - TCPWM_4_PRESCALE_DIVBY8    - Divide by 8
 354:Generated_Source\PSoC4/TCPWM_4.c **** *         - TCPWM_4_PRESCALE_DIVBY16   - Divide by 16
 355:Generated_Source\PSoC4/TCPWM_4.c **** *         - TCPWM_4_PRESCALE_DIVBY32   - Divide by 32
 356:Generated_Source\PSoC4/TCPWM_4.c **** *         - TCPWM_4_PRESCALE_DIVBY64   - Divide by 64
 357:Generated_Source\PSoC4/TCPWM_4.c **** *         - TCPWM_4_PRESCALE_DIVBY128  - Divide by 128
 358:Generated_Source\PSoC4/TCPWM_4.c **** *
 359:Generated_Source\PSoC4/TCPWM_4.c **** * Return:
 360:Generated_Source\PSoC4/TCPWM_4.c **** *  None
 361:Generated_Source\PSoC4/TCPWM_4.c **** *
 362:Generated_Source\PSoC4/TCPWM_4.c **** *******************************************************************************/
 363:Generated_Source\PSoC4/TCPWM_4.c **** void TCPWM_4_SetPrescaler(uint32 prescaler)
 364:Generated_Source\PSoC4/TCPWM_4.c **** {
 365:Generated_Source\PSoC4/TCPWM_4.c ****     uint8 enableInterrupts;
 366:Generated_Source\PSoC4/TCPWM_4.c **** 
 367:Generated_Source\PSoC4/TCPWM_4.c ****     enableInterrupts = CyEnterCriticalSection();
 368:Generated_Source\PSoC4/TCPWM_4.c **** 
ARM GAS  C:\Users\TECHCO~1\AppData\Local\Temp\cc9RpRiE.s 			page 8


 369:Generated_Source\PSoC4/TCPWM_4.c ****     TCPWM_4_CONTROL_REG &= (uint32)~TCPWM_4_PRESCALER_MASK;
 370:Generated_Source\PSoC4/TCPWM_4.c ****     TCPWM_4_CONTROL_REG |= prescaler;
 371:Generated_Source\PSoC4/TCPWM_4.c **** 
 372:Generated_Source\PSoC4/TCPWM_4.c ****     CyExitCriticalSection(enableInterrupts);
 373:Generated_Source\PSoC4/TCPWM_4.c **** }
 374:Generated_Source\PSoC4/TCPWM_4.c **** 
 375:Generated_Source\PSoC4/TCPWM_4.c **** 
 376:Generated_Source\PSoC4/TCPWM_4.c **** /*******************************************************************************
 377:Generated_Source\PSoC4/TCPWM_4.c **** * Function Name: TCPWM_4_SetOneShot
 378:Generated_Source\PSoC4/TCPWM_4.c **** ********************************************************************************
 379:Generated_Source\PSoC4/TCPWM_4.c **** *
 380:Generated_Source\PSoC4/TCPWM_4.c **** * Summary:
 381:Generated_Source\PSoC4/TCPWM_4.c **** *  Writes the register that controls whether the TCPWM_4 runs
 382:Generated_Source\PSoC4/TCPWM_4.c **** *  continuously or stops when terminal count is reached.  By default the
 383:Generated_Source\PSoC4/TCPWM_4.c **** *  TCPWM_4 operates in the continuous mode.
 384:Generated_Source\PSoC4/TCPWM_4.c **** *
 385:Generated_Source\PSoC4/TCPWM_4.c **** * Parameters:
 386:Generated_Source\PSoC4/TCPWM_4.c **** *  oneShotEnable
 387:Generated_Source\PSoC4/TCPWM_4.c **** *   Values:
 388:Generated_Source\PSoC4/TCPWM_4.c **** *     - 0 - Continuous
 389:Generated_Source\PSoC4/TCPWM_4.c **** *     - 1 - Enable One Shot
 390:Generated_Source\PSoC4/TCPWM_4.c **** *
 391:Generated_Source\PSoC4/TCPWM_4.c **** * Return:
 392:Generated_Source\PSoC4/TCPWM_4.c **** *  None
 393:Generated_Source\PSoC4/TCPWM_4.c **** *
 394:Generated_Source\PSoC4/TCPWM_4.c **** *******************************************************************************/
 395:Generated_Source\PSoC4/TCPWM_4.c **** void TCPWM_4_SetOneShot(uint32 oneShotEnable)
 396:Generated_Source\PSoC4/TCPWM_4.c **** {
 397:Generated_Source\PSoC4/TCPWM_4.c ****     uint8 enableInterrupts;
 398:Generated_Source\PSoC4/TCPWM_4.c **** 
 399:Generated_Source\PSoC4/TCPWM_4.c ****     enableInterrupts = CyEnterCriticalSection();
 400:Generated_Source\PSoC4/TCPWM_4.c **** 
 401:Generated_Source\PSoC4/TCPWM_4.c ****     TCPWM_4_CONTROL_REG &= (uint32)~TCPWM_4_ONESHOT_MASK;
 402:Generated_Source\PSoC4/TCPWM_4.c ****     TCPWM_4_CONTROL_REG |= ((uint32)((oneShotEnable & TCPWM_4_1BIT_MASK) <<
 403:Generated_Source\PSoC4/TCPWM_4.c ****                                                                TCPWM_4_ONESHOT_SHIFT));
 404:Generated_Source\PSoC4/TCPWM_4.c **** 
 405:Generated_Source\PSoC4/TCPWM_4.c ****     CyExitCriticalSection(enableInterrupts);
 406:Generated_Source\PSoC4/TCPWM_4.c **** }
 407:Generated_Source\PSoC4/TCPWM_4.c **** 
 408:Generated_Source\PSoC4/TCPWM_4.c **** 
 409:Generated_Source\PSoC4/TCPWM_4.c **** /*******************************************************************************
 410:Generated_Source\PSoC4/TCPWM_4.c **** * Function Name: TCPWM_4_SetPWMMode
 411:Generated_Source\PSoC4/TCPWM_4.c **** ********************************************************************************
 412:Generated_Source\PSoC4/TCPWM_4.c **** *
 413:Generated_Source\PSoC4/TCPWM_4.c **** * Summary:
 414:Generated_Source\PSoC4/TCPWM_4.c **** *  Writes the control register that determines what mode of operation the PWM
 415:Generated_Source\PSoC4/TCPWM_4.c **** *  output lines are driven in.  There is a setting for what to do on a
 416:Generated_Source\PSoC4/TCPWM_4.c **** *  comparison match (CC_MATCH), on an overflow (OVERFLOW) and on an underflow
 417:Generated_Source\PSoC4/TCPWM_4.c **** *  (UNDERFLOW).  The value for each of the three must be ORed together to form
 418:Generated_Source\PSoC4/TCPWM_4.c **** *  the mode.
 419:Generated_Source\PSoC4/TCPWM_4.c **** *
 420:Generated_Source\PSoC4/TCPWM_4.c **** * Parameters:
 421:Generated_Source\PSoC4/TCPWM_4.c **** *  modeMask: A combination of three mode settings.  Mask must include a value
 422:Generated_Source\PSoC4/TCPWM_4.c **** *  for each of the three or use one of the preconfigured PWM settings.
 423:Generated_Source\PSoC4/TCPWM_4.c **** *   Values:
 424:Generated_Source\PSoC4/TCPWM_4.c **** *     - CC_MATCH_SET        - Set on comparison match
 425:Generated_Source\PSoC4/TCPWM_4.c **** *     - CC_MATCH_CLEAR      - Clear on comparison match
ARM GAS  C:\Users\TECHCO~1\AppData\Local\Temp\cc9RpRiE.s 			page 9


 426:Generated_Source\PSoC4/TCPWM_4.c **** *     - CC_MATCH_INVERT     - Invert on comparison match
 427:Generated_Source\PSoC4/TCPWM_4.c **** *     - CC_MATCH_NO_CHANGE  - No change on comparison match
 428:Generated_Source\PSoC4/TCPWM_4.c **** *     - OVERLOW_SET         - Set on overflow
 429:Generated_Source\PSoC4/TCPWM_4.c **** *     - OVERLOW_CLEAR       - Clear on  overflow
 430:Generated_Source\PSoC4/TCPWM_4.c **** *     - OVERLOW_INVERT      - Invert on overflow
 431:Generated_Source\PSoC4/TCPWM_4.c **** *     - OVERLOW_NO_CHANGE   - No change on overflow
 432:Generated_Source\PSoC4/TCPWM_4.c **** *     - UNDERFLOW_SET       - Set on underflow
 433:Generated_Source\PSoC4/TCPWM_4.c **** *     - UNDERFLOW_CLEAR     - Clear on underflow
 434:Generated_Source\PSoC4/TCPWM_4.c **** *     - UNDERFLOW_INVERT    - Invert on underflow
 435:Generated_Source\PSoC4/TCPWM_4.c **** *     - UNDERFLOW_NO_CHANGE - No change on underflow
 436:Generated_Source\PSoC4/TCPWM_4.c **** *     - PWM_MODE_LEFT       - Setting for left aligned PWM.  Should be combined
 437:Generated_Source\PSoC4/TCPWM_4.c **** *                             with up counting mode
 438:Generated_Source\PSoC4/TCPWM_4.c **** *     - PWM_MODE_RIGHT      - Setting for right aligned PWM.  Should be combined
 439:Generated_Source\PSoC4/TCPWM_4.c **** *                             with down counting mode
 440:Generated_Source\PSoC4/TCPWM_4.c **** *     - PWM_MODE_CENTER     - Setting for center aligned PWM.  Should be
 441:Generated_Source\PSoC4/TCPWM_4.c **** *                             combined with up/down 0 mode
 442:Generated_Source\PSoC4/TCPWM_4.c **** *     - PWM_MODE_ASYM       - Setting for asymmetric PWM.  Should be combined
 443:Generated_Source\PSoC4/TCPWM_4.c **** *                             with up/down 1 mode
 444:Generated_Source\PSoC4/TCPWM_4.c **** *
 445:Generated_Source\PSoC4/TCPWM_4.c **** * Return:
 446:Generated_Source\PSoC4/TCPWM_4.c **** *  None
 447:Generated_Source\PSoC4/TCPWM_4.c **** *
 448:Generated_Source\PSoC4/TCPWM_4.c **** *******************************************************************************/
 449:Generated_Source\PSoC4/TCPWM_4.c **** void TCPWM_4_SetPWMMode(uint32 modeMask)
 450:Generated_Source\PSoC4/TCPWM_4.c **** {
 451:Generated_Source\PSoC4/TCPWM_4.c ****     TCPWM_4_TRIG_CONTROL2_REG = (modeMask & TCPWM_4_6BIT_MASK);
 452:Generated_Source\PSoC4/TCPWM_4.c **** }
 453:Generated_Source\PSoC4/TCPWM_4.c **** 
 454:Generated_Source\PSoC4/TCPWM_4.c **** 
 455:Generated_Source\PSoC4/TCPWM_4.c **** 
 456:Generated_Source\PSoC4/TCPWM_4.c **** /*******************************************************************************
 457:Generated_Source\PSoC4/TCPWM_4.c **** * Function Name: TCPWM_4_SetPWMSyncKill
 458:Generated_Source\PSoC4/TCPWM_4.c **** ********************************************************************************
 459:Generated_Source\PSoC4/TCPWM_4.c **** *
 460:Generated_Source\PSoC4/TCPWM_4.c **** * Summary:
 461:Generated_Source\PSoC4/TCPWM_4.c **** *  Writes the register that controls whether the PWM kill signal (stop input)
 462:Generated_Source\PSoC4/TCPWM_4.c **** *  causes asynchronous or synchronous kill operation.  By default the kill
 463:Generated_Source\PSoC4/TCPWM_4.c **** *  operation is asynchronous.  This functionality is only applicable to the PWM
 464:Generated_Source\PSoC4/TCPWM_4.c **** *  and PWM with dead time modes.
 465:Generated_Source\PSoC4/TCPWM_4.c **** *
 466:Generated_Source\PSoC4/TCPWM_4.c **** *  For Synchronous mode the kill signal disables both the line and line_n
 467:Generated_Source\PSoC4/TCPWM_4.c **** *  signals until the next terminal count.
 468:Generated_Source\PSoC4/TCPWM_4.c **** *
 469:Generated_Source\PSoC4/TCPWM_4.c **** *  For Asynchronous mode the kill signal disables both the line and line_n
 470:Generated_Source\PSoC4/TCPWM_4.c **** *  signals when the kill signal is present.  This mode should only be used
 471:Generated_Source\PSoC4/TCPWM_4.c **** *  when the kill signal (stop input) is configured in the pass through mode
 472:Generated_Source\PSoC4/TCPWM_4.c **** *  (Level sensitive signal).
 473:Generated_Source\PSoC4/TCPWM_4.c **** 
 474:Generated_Source\PSoC4/TCPWM_4.c **** *
 475:Generated_Source\PSoC4/TCPWM_4.c **** * Parameters:
 476:Generated_Source\PSoC4/TCPWM_4.c **** *  syncKillEnable
 477:Generated_Source\PSoC4/TCPWM_4.c **** *   Values:
 478:Generated_Source\PSoC4/TCPWM_4.c **** *     - 0 - Asynchronous
 479:Generated_Source\PSoC4/TCPWM_4.c **** *     - 1 - Synchronous
 480:Generated_Source\PSoC4/TCPWM_4.c **** *
 481:Generated_Source\PSoC4/TCPWM_4.c **** * Return:
 482:Generated_Source\PSoC4/TCPWM_4.c **** *  None
ARM GAS  C:\Users\TECHCO~1\AppData\Local\Temp\cc9RpRiE.s 			page 10


 483:Generated_Source\PSoC4/TCPWM_4.c **** *
 484:Generated_Source\PSoC4/TCPWM_4.c **** *******************************************************************************/
 485:Generated_Source\PSoC4/TCPWM_4.c **** void TCPWM_4_SetPWMSyncKill(uint32 syncKillEnable)
 486:Generated_Source\PSoC4/TCPWM_4.c **** {
 487:Generated_Source\PSoC4/TCPWM_4.c ****     uint8 enableInterrupts;
 488:Generated_Source\PSoC4/TCPWM_4.c **** 
 489:Generated_Source\PSoC4/TCPWM_4.c ****     enableInterrupts = CyEnterCriticalSection();
 490:Generated_Source\PSoC4/TCPWM_4.c **** 
 491:Generated_Source\PSoC4/TCPWM_4.c ****     TCPWM_4_CONTROL_REG &= (uint32)~TCPWM_4_PWM_SYNC_KILL_MASK;
 492:Generated_Source\PSoC4/TCPWM_4.c ****     TCPWM_4_CONTROL_REG |= ((uint32)((syncKillEnable & TCPWM_4_1BIT_MASK)  <<
 493:Generated_Source\PSoC4/TCPWM_4.c ****                                                TCPWM_4_PWM_SYNC_KILL_SHIFT));
 494:Generated_Source\PSoC4/TCPWM_4.c **** 
 495:Generated_Source\PSoC4/TCPWM_4.c ****     CyExitCriticalSection(enableInterrupts);
 496:Generated_Source\PSoC4/TCPWM_4.c **** }
 497:Generated_Source\PSoC4/TCPWM_4.c **** 
 498:Generated_Source\PSoC4/TCPWM_4.c **** 
 499:Generated_Source\PSoC4/TCPWM_4.c **** /*******************************************************************************
 500:Generated_Source\PSoC4/TCPWM_4.c **** * Function Name: TCPWM_4_SetPWMStopOnKill
 501:Generated_Source\PSoC4/TCPWM_4.c **** ********************************************************************************
 502:Generated_Source\PSoC4/TCPWM_4.c **** *
 503:Generated_Source\PSoC4/TCPWM_4.c **** * Summary:
 504:Generated_Source\PSoC4/TCPWM_4.c **** *  Writes the register that controls whether the PWM kill signal (stop input)
 505:Generated_Source\PSoC4/TCPWM_4.c **** *  causes the PWM counter to stop.  By default the kill operation does not stop
 506:Generated_Source\PSoC4/TCPWM_4.c **** *  the counter.  This functionality is only applicable to the three PWM modes.
 507:Generated_Source\PSoC4/TCPWM_4.c **** *
 508:Generated_Source\PSoC4/TCPWM_4.c **** *
 509:Generated_Source\PSoC4/TCPWM_4.c **** * Parameters:
 510:Generated_Source\PSoC4/TCPWM_4.c **** *  stopOnKillEnable
 511:Generated_Source\PSoC4/TCPWM_4.c **** *   Values:
 512:Generated_Source\PSoC4/TCPWM_4.c **** *     - 0 - Don't stop
 513:Generated_Source\PSoC4/TCPWM_4.c **** *     - 1 - Stop
 514:Generated_Source\PSoC4/TCPWM_4.c **** *
 515:Generated_Source\PSoC4/TCPWM_4.c **** * Return:
 516:Generated_Source\PSoC4/TCPWM_4.c **** *  None
 517:Generated_Source\PSoC4/TCPWM_4.c **** *
 518:Generated_Source\PSoC4/TCPWM_4.c **** *******************************************************************************/
 519:Generated_Source\PSoC4/TCPWM_4.c **** void TCPWM_4_SetPWMStopOnKill(uint32 stopOnKillEnable)
 520:Generated_Source\PSoC4/TCPWM_4.c **** {
 521:Generated_Source\PSoC4/TCPWM_4.c ****     uint8 enableInterrupts;
 522:Generated_Source\PSoC4/TCPWM_4.c **** 
 523:Generated_Source\PSoC4/TCPWM_4.c ****     enableInterrupts = CyEnterCriticalSection();
 524:Generated_Source\PSoC4/TCPWM_4.c **** 
 525:Generated_Source\PSoC4/TCPWM_4.c ****     TCPWM_4_CONTROL_REG &= (uint32)~TCPWM_4_PWM_STOP_KILL_MASK;
 526:Generated_Source\PSoC4/TCPWM_4.c ****     TCPWM_4_CONTROL_REG |= ((uint32)((stopOnKillEnable & TCPWM_4_1BIT_MASK)  <<
 527:Generated_Source\PSoC4/TCPWM_4.c ****                                                          TCPWM_4_PWM_STOP_KILL_SHIFT));
 528:Generated_Source\PSoC4/TCPWM_4.c **** 
 529:Generated_Source\PSoC4/TCPWM_4.c ****     CyExitCriticalSection(enableInterrupts);
 530:Generated_Source\PSoC4/TCPWM_4.c **** }
 531:Generated_Source\PSoC4/TCPWM_4.c **** 
 532:Generated_Source\PSoC4/TCPWM_4.c **** 
 533:Generated_Source\PSoC4/TCPWM_4.c **** /*******************************************************************************
 534:Generated_Source\PSoC4/TCPWM_4.c **** * Function Name: TCPWM_4_SetPWMDeadTime
 535:Generated_Source\PSoC4/TCPWM_4.c **** ********************************************************************************
 536:Generated_Source\PSoC4/TCPWM_4.c **** *
 537:Generated_Source\PSoC4/TCPWM_4.c **** * Summary:
 538:Generated_Source\PSoC4/TCPWM_4.c **** *  Writes the dead time control value.  This value delays the rising edge of
 539:Generated_Source\PSoC4/TCPWM_4.c **** *  both the line and line_n signals the designated number of cycles resulting
ARM GAS  C:\Users\TECHCO~1\AppData\Local\Temp\cc9RpRiE.s 			page 11


 540:Generated_Source\PSoC4/TCPWM_4.c **** *  in both signals being inactive for that many cycles.  This functionality is
 541:Generated_Source\PSoC4/TCPWM_4.c **** *  only applicable to the PWM in the dead time mode.
 542:Generated_Source\PSoC4/TCPWM_4.c **** 
 543:Generated_Source\PSoC4/TCPWM_4.c **** *
 544:Generated_Source\PSoC4/TCPWM_4.c **** * Parameters:
 545:Generated_Source\PSoC4/TCPWM_4.c **** *  Dead time to insert
 546:Generated_Source\PSoC4/TCPWM_4.c **** *   Values: 0 to 255
 547:Generated_Source\PSoC4/TCPWM_4.c **** *
 548:Generated_Source\PSoC4/TCPWM_4.c **** * Return:
 549:Generated_Source\PSoC4/TCPWM_4.c **** *  None
 550:Generated_Source\PSoC4/TCPWM_4.c **** *
 551:Generated_Source\PSoC4/TCPWM_4.c **** *******************************************************************************/
 552:Generated_Source\PSoC4/TCPWM_4.c **** void TCPWM_4_SetPWMDeadTime(uint32 deadTime)
 553:Generated_Source\PSoC4/TCPWM_4.c **** {
 554:Generated_Source\PSoC4/TCPWM_4.c ****     uint8 enableInterrupts;
 555:Generated_Source\PSoC4/TCPWM_4.c **** 
 556:Generated_Source\PSoC4/TCPWM_4.c ****     enableInterrupts = CyEnterCriticalSection();
 557:Generated_Source\PSoC4/TCPWM_4.c **** 
 558:Generated_Source\PSoC4/TCPWM_4.c ****     TCPWM_4_CONTROL_REG &= (uint32)~TCPWM_4_PRESCALER_MASK;
 559:Generated_Source\PSoC4/TCPWM_4.c ****     TCPWM_4_CONTROL_REG |= ((uint32)((deadTime & TCPWM_4_8BIT_MASK) <<
 560:Generated_Source\PSoC4/TCPWM_4.c ****                                                           TCPWM_4_PRESCALER_SHIFT));
 561:Generated_Source\PSoC4/TCPWM_4.c **** 
 562:Generated_Source\PSoC4/TCPWM_4.c ****     CyExitCriticalSection(enableInterrupts);
 563:Generated_Source\PSoC4/TCPWM_4.c **** }
 564:Generated_Source\PSoC4/TCPWM_4.c **** 
 565:Generated_Source\PSoC4/TCPWM_4.c **** 
 566:Generated_Source\PSoC4/TCPWM_4.c **** /*******************************************************************************
 567:Generated_Source\PSoC4/TCPWM_4.c **** * Function Name: TCPWM_4_SetPWMInvert
 568:Generated_Source\PSoC4/TCPWM_4.c **** ********************************************************************************
 569:Generated_Source\PSoC4/TCPWM_4.c **** *
 570:Generated_Source\PSoC4/TCPWM_4.c **** * Summary:
 571:Generated_Source\PSoC4/TCPWM_4.c **** *  Writes the bits that control whether the line and line_n outputs are
 572:Generated_Source\PSoC4/TCPWM_4.c **** *  inverted from their normal output values.  This functionality is only
 573:Generated_Source\PSoC4/TCPWM_4.c **** *  applicable to the three PWM modes.
 574:Generated_Source\PSoC4/TCPWM_4.c **** *
 575:Generated_Source\PSoC4/TCPWM_4.c **** * Parameters:
 576:Generated_Source\PSoC4/TCPWM_4.c **** *  mask: Mask of outputs to invert.
 577:Generated_Source\PSoC4/TCPWM_4.c **** *   Values:
 578:Generated_Source\PSoC4/TCPWM_4.c **** *         - TCPWM_4_INVERT_LINE   - Inverts the line output
 579:Generated_Source\PSoC4/TCPWM_4.c **** *         - TCPWM_4_INVERT_LINE_N - Inverts the line_n output
 580:Generated_Source\PSoC4/TCPWM_4.c **** *
 581:Generated_Source\PSoC4/TCPWM_4.c **** * Return:
 582:Generated_Source\PSoC4/TCPWM_4.c **** *  None
 583:Generated_Source\PSoC4/TCPWM_4.c **** *
 584:Generated_Source\PSoC4/TCPWM_4.c **** *******************************************************************************/
 585:Generated_Source\PSoC4/TCPWM_4.c **** void TCPWM_4_SetPWMInvert(uint32 mask)
 586:Generated_Source\PSoC4/TCPWM_4.c **** {
 587:Generated_Source\PSoC4/TCPWM_4.c ****     uint8 enableInterrupts;
 588:Generated_Source\PSoC4/TCPWM_4.c **** 
 589:Generated_Source\PSoC4/TCPWM_4.c ****     enableInterrupts = CyEnterCriticalSection();
 590:Generated_Source\PSoC4/TCPWM_4.c **** 
 591:Generated_Source\PSoC4/TCPWM_4.c ****     TCPWM_4_CONTROL_REG &= (uint32)~TCPWM_4_INV_OUT_MASK;
 592:Generated_Source\PSoC4/TCPWM_4.c ****     TCPWM_4_CONTROL_REG |= mask;
 593:Generated_Source\PSoC4/TCPWM_4.c **** 
 594:Generated_Source\PSoC4/TCPWM_4.c ****     CyExitCriticalSection(enableInterrupts);
 595:Generated_Source\PSoC4/TCPWM_4.c **** }
 596:Generated_Source\PSoC4/TCPWM_4.c **** 
ARM GAS  C:\Users\TECHCO~1\AppData\Local\Temp\cc9RpRiE.s 			page 12


 597:Generated_Source\PSoC4/TCPWM_4.c **** 
 598:Generated_Source\PSoC4/TCPWM_4.c **** 
 599:Generated_Source\PSoC4/TCPWM_4.c **** /*******************************************************************************
 600:Generated_Source\PSoC4/TCPWM_4.c **** * Function Name: TCPWM_4_WriteCounter
 601:Generated_Source\PSoC4/TCPWM_4.c **** ********************************************************************************
 602:Generated_Source\PSoC4/TCPWM_4.c **** *
 603:Generated_Source\PSoC4/TCPWM_4.c **** * Summary:
 604:Generated_Source\PSoC4/TCPWM_4.c **** *  Writes a new 16bit counter value directly into the counter register, thus
 605:Generated_Source\PSoC4/TCPWM_4.c **** *  setting the counter (not the period) to the value written. It is not
 606:Generated_Source\PSoC4/TCPWM_4.c **** *  advised to write to this field when the counter is running.
 607:Generated_Source\PSoC4/TCPWM_4.c **** *
 608:Generated_Source\PSoC4/TCPWM_4.c **** * Parameters:
 609:Generated_Source\PSoC4/TCPWM_4.c **** *  count: value to write
 610:Generated_Source\PSoC4/TCPWM_4.c **** *
 611:Generated_Source\PSoC4/TCPWM_4.c **** * Return:
 612:Generated_Source\PSoC4/TCPWM_4.c **** *  None
 613:Generated_Source\PSoC4/TCPWM_4.c **** *
 614:Generated_Source\PSoC4/TCPWM_4.c **** *******************************************************************************/
 615:Generated_Source\PSoC4/TCPWM_4.c **** void TCPWM_4_WriteCounter(uint32 count)
 616:Generated_Source\PSoC4/TCPWM_4.c **** {
 617:Generated_Source\PSoC4/TCPWM_4.c ****     TCPWM_4_COUNTER_REG = (count & TCPWM_4_16BIT_MASK);
  32              		.loc 1 617 0
  33 0002 0021     		mov	r1, #0
  34              	.LBE11:
  35              	.LBE10:
  89:Generated_Source\PSoC4/TCPWM_4.c **** 
  36              		.loc 1 89 0
  37 0004 0C4B     		ldr	r3, .L2
  38 0006 D204     		lsl	r2, r2, #19
  39 0008 1A60     		str	r2, [r3]
  95:Generated_Source\PSoC4/TCPWM_4.c ****             
  40              		.loc 1 95 0
  41 000a 1A68     		ldr	r2, [r3]
 160:Generated_Source\PSoC4/TCPWM_4.c **** 
  42              		.loc 1 160 0
  43              		@ sp needed
  95:Generated_Source\PSoC4/TCPWM_4.c ****             
  44              		.loc 1 95 0
  45 000c 1A60     		str	r2, [r3]
  46              	.LVL0:
  47              	.LBB13:
  48              	.LBB12:
  49              		.loc 1 617 0
  50 000e 0B4A     		ldr	r2, .L2+4
  51 0010 1160     		str	r1, [r2]
  52              	.LBE12:
  53              	.LBE13:
 112:Generated_Source\PSoC4/TCPWM_4.c ****         #endif  /* (TCPWM_4__PWM == TCPWM_4_PWM_MODE) */
  54              		.loc 1 112 0
  55 0012 1A68     		ldr	r2, [r3]
  56 0014 1A60     		str	r2, [r3]
 116:Generated_Source\PSoC4/TCPWM_4.c ****     
  57              		.loc 1 116 0
  58 0016 FF22     		mov	r2, #255
  59 0018 094B     		ldr	r3, .L2+8
  60 001a 9200     		lsl	r2, r2, #2
  61 001c 1A60     		str	r2, [r3]
ARM GAS  C:\Users\TECHCO~1\AppData\Local\Temp\cc9RpRiE.s 			page 13


  62              	.LVL1:
  63              	.LBB14:
  64              	.LBB15:
 618:Generated_Source\PSoC4/TCPWM_4.c **** }
 619:Generated_Source\PSoC4/TCPWM_4.c **** 
 620:Generated_Source\PSoC4/TCPWM_4.c **** 
 621:Generated_Source\PSoC4/TCPWM_4.c **** /*******************************************************************************
 622:Generated_Source\PSoC4/TCPWM_4.c **** * Function Name: TCPWM_4_ReadCounter
 623:Generated_Source\PSoC4/TCPWM_4.c **** ********************************************************************************
 624:Generated_Source\PSoC4/TCPWM_4.c **** *
 625:Generated_Source\PSoC4/TCPWM_4.c **** * Summary:
 626:Generated_Source\PSoC4/TCPWM_4.c **** *  Reads the current counter value.
 627:Generated_Source\PSoC4/TCPWM_4.c **** *
 628:Generated_Source\PSoC4/TCPWM_4.c **** * Parameters:
 629:Generated_Source\PSoC4/TCPWM_4.c **** *  None
 630:Generated_Source\PSoC4/TCPWM_4.c **** *
 631:Generated_Source\PSoC4/TCPWM_4.c **** * Return:
 632:Generated_Source\PSoC4/TCPWM_4.c **** *  Current counter value
 633:Generated_Source\PSoC4/TCPWM_4.c **** *
 634:Generated_Source\PSoC4/TCPWM_4.c **** *******************************************************************************/
 635:Generated_Source\PSoC4/TCPWM_4.c **** uint32 TCPWM_4_ReadCounter(void)
 636:Generated_Source\PSoC4/TCPWM_4.c **** {
 637:Generated_Source\PSoC4/TCPWM_4.c ****     return (TCPWM_4_COUNTER_REG & TCPWM_4_16BIT_MASK);
 638:Generated_Source\PSoC4/TCPWM_4.c **** }
 639:Generated_Source\PSoC4/TCPWM_4.c **** 
 640:Generated_Source\PSoC4/TCPWM_4.c **** 
 641:Generated_Source\PSoC4/TCPWM_4.c **** /*******************************************************************************
 642:Generated_Source\PSoC4/TCPWM_4.c **** * Function Name: TCPWM_4_SetCounterMode
 643:Generated_Source\PSoC4/TCPWM_4.c **** ********************************************************************************
 644:Generated_Source\PSoC4/TCPWM_4.c **** *
 645:Generated_Source\PSoC4/TCPWM_4.c **** * Summary:
 646:Generated_Source\PSoC4/TCPWM_4.c **** *  Sets the counter mode.  Applicable to all modes except Quadrature Decoder
 647:Generated_Source\PSoC4/TCPWM_4.c **** *  and the PWM with a pseudo random output.
 648:Generated_Source\PSoC4/TCPWM_4.c **** *
 649:Generated_Source\PSoC4/TCPWM_4.c **** * Parameters:
 650:Generated_Source\PSoC4/TCPWM_4.c **** *  counterMode: Enumerated counter type values
 651:Generated_Source\PSoC4/TCPWM_4.c **** *   Values:
 652:Generated_Source\PSoC4/TCPWM_4.c **** *     - TCPWM_4_COUNT_UP       - Counts up
 653:Generated_Source\PSoC4/TCPWM_4.c **** *     - TCPWM_4_COUNT_DOWN     - Counts down
 654:Generated_Source\PSoC4/TCPWM_4.c **** *     - TCPWM_4_COUNT_UPDOWN0  - Counts up and down. Terminal count
 655:Generated_Source\PSoC4/TCPWM_4.c **** *                                         generated when counter reaches 0
 656:Generated_Source\PSoC4/TCPWM_4.c **** *     - TCPWM_4_COUNT_UPDOWN1  - Counts up and down. Terminal count
 657:Generated_Source\PSoC4/TCPWM_4.c **** *                                         generated both when counter reaches 0
 658:Generated_Source\PSoC4/TCPWM_4.c **** *                                         and period
 659:Generated_Source\PSoC4/TCPWM_4.c **** *
 660:Generated_Source\PSoC4/TCPWM_4.c **** * Return:
 661:Generated_Source\PSoC4/TCPWM_4.c **** *  None
 662:Generated_Source\PSoC4/TCPWM_4.c **** *
 663:Generated_Source\PSoC4/TCPWM_4.c **** *******************************************************************************/
 664:Generated_Source\PSoC4/TCPWM_4.c **** void TCPWM_4_SetCounterMode(uint32 counterMode)
 665:Generated_Source\PSoC4/TCPWM_4.c **** {
 666:Generated_Source\PSoC4/TCPWM_4.c ****     uint8 enableInterrupts;
 667:Generated_Source\PSoC4/TCPWM_4.c **** 
 668:Generated_Source\PSoC4/TCPWM_4.c ****     enableInterrupts = CyEnterCriticalSection();
 669:Generated_Source\PSoC4/TCPWM_4.c **** 
 670:Generated_Source\PSoC4/TCPWM_4.c ****     TCPWM_4_CONTROL_REG &= (uint32)~TCPWM_4_UPDOWN_MASK;
 671:Generated_Source\PSoC4/TCPWM_4.c ****     TCPWM_4_CONTROL_REG |= counterMode;
ARM GAS  C:\Users\TECHCO~1\AppData\Local\Temp\cc9RpRiE.s 			page 14


 672:Generated_Source\PSoC4/TCPWM_4.c **** 
 673:Generated_Source\PSoC4/TCPWM_4.c ****     CyExitCriticalSection(enableInterrupts);
 674:Generated_Source\PSoC4/TCPWM_4.c **** }
 675:Generated_Source\PSoC4/TCPWM_4.c **** 
 676:Generated_Source\PSoC4/TCPWM_4.c **** 
 677:Generated_Source\PSoC4/TCPWM_4.c **** /*******************************************************************************
 678:Generated_Source\PSoC4/TCPWM_4.c **** * Function Name: TCPWM_4_WritePeriod
 679:Generated_Source\PSoC4/TCPWM_4.c **** ********************************************************************************
 680:Generated_Source\PSoC4/TCPWM_4.c **** *
 681:Generated_Source\PSoC4/TCPWM_4.c **** * Summary:
 682:Generated_Source\PSoC4/TCPWM_4.c **** *  Writes the 16 bit period register with the new period value.
 683:Generated_Source\PSoC4/TCPWM_4.c **** *  To cause the counter to count for N cycles this register should be written
 684:Generated_Source\PSoC4/TCPWM_4.c **** *  with N-1 (counts from 0 to period inclusive).
 685:Generated_Source\PSoC4/TCPWM_4.c **** *
 686:Generated_Source\PSoC4/TCPWM_4.c **** * Parameters:
 687:Generated_Source\PSoC4/TCPWM_4.c **** *  period: Period value
 688:Generated_Source\PSoC4/TCPWM_4.c **** *
 689:Generated_Source\PSoC4/TCPWM_4.c **** * Return:
 690:Generated_Source\PSoC4/TCPWM_4.c **** *  None
 691:Generated_Source\PSoC4/TCPWM_4.c **** *
 692:Generated_Source\PSoC4/TCPWM_4.c **** *******************************************************************************/
 693:Generated_Source\PSoC4/TCPWM_4.c **** void TCPWM_4_WritePeriod(uint32 period)
 694:Generated_Source\PSoC4/TCPWM_4.c **** {
 695:Generated_Source\PSoC4/TCPWM_4.c ****     TCPWM_4_PERIOD_REG = (period & TCPWM_4_16BIT_MASK);
 696:Generated_Source\PSoC4/TCPWM_4.c **** }
 697:Generated_Source\PSoC4/TCPWM_4.c **** 
 698:Generated_Source\PSoC4/TCPWM_4.c **** 
 699:Generated_Source\PSoC4/TCPWM_4.c **** /*******************************************************************************
 700:Generated_Source\PSoC4/TCPWM_4.c **** * Function Name: TCPWM_4_ReadPeriod
 701:Generated_Source\PSoC4/TCPWM_4.c **** ********************************************************************************
 702:Generated_Source\PSoC4/TCPWM_4.c **** *
 703:Generated_Source\PSoC4/TCPWM_4.c **** * Summary:
 704:Generated_Source\PSoC4/TCPWM_4.c **** *  Reads the 16 bit period register.
 705:Generated_Source\PSoC4/TCPWM_4.c **** *
 706:Generated_Source\PSoC4/TCPWM_4.c **** * Parameters:
 707:Generated_Source\PSoC4/TCPWM_4.c **** *  None
 708:Generated_Source\PSoC4/TCPWM_4.c **** *
 709:Generated_Source\PSoC4/TCPWM_4.c **** * Return:
 710:Generated_Source\PSoC4/TCPWM_4.c **** *  Period value
 711:Generated_Source\PSoC4/TCPWM_4.c **** *
 712:Generated_Source\PSoC4/TCPWM_4.c **** *******************************************************************************/
 713:Generated_Source\PSoC4/TCPWM_4.c **** uint32 TCPWM_4_ReadPeriod(void)
 714:Generated_Source\PSoC4/TCPWM_4.c **** {
 715:Generated_Source\PSoC4/TCPWM_4.c ****     return (TCPWM_4_PERIOD_REG & TCPWM_4_16BIT_MASK);
 716:Generated_Source\PSoC4/TCPWM_4.c **** }
 717:Generated_Source\PSoC4/TCPWM_4.c **** 
 718:Generated_Source\PSoC4/TCPWM_4.c **** 
 719:Generated_Source\PSoC4/TCPWM_4.c **** /*******************************************************************************
 720:Generated_Source\PSoC4/TCPWM_4.c **** * Function Name: TCPWM_4_SetCompareSwap
 721:Generated_Source\PSoC4/TCPWM_4.c **** ********************************************************************************
 722:Generated_Source\PSoC4/TCPWM_4.c **** *
 723:Generated_Source\PSoC4/TCPWM_4.c **** * Summary:
 724:Generated_Source\PSoC4/TCPWM_4.c **** *  Writes the register that controls whether the compare registers are
 725:Generated_Source\PSoC4/TCPWM_4.c **** *  swapped. When enabled in the Timer/Counter mode(without capture) the swap
 726:Generated_Source\PSoC4/TCPWM_4.c **** *  occurs at a TC event. In the PWM mode the swap occurs at the next TC event
 727:Generated_Source\PSoC4/TCPWM_4.c **** *  following a hardware switch event.
 728:Generated_Source\PSoC4/TCPWM_4.c **** *
ARM GAS  C:\Users\TECHCO~1\AppData\Local\Temp\cc9RpRiE.s 			page 15


 729:Generated_Source\PSoC4/TCPWM_4.c **** * Parameters:
 730:Generated_Source\PSoC4/TCPWM_4.c **** *  swapEnable
 731:Generated_Source\PSoC4/TCPWM_4.c **** *   Values:
 732:Generated_Source\PSoC4/TCPWM_4.c **** *     - 0 - Disable swap
 733:Generated_Source\PSoC4/TCPWM_4.c **** *     - 1 - Enable swap
 734:Generated_Source\PSoC4/TCPWM_4.c **** *
 735:Generated_Source\PSoC4/TCPWM_4.c **** * Return:
 736:Generated_Source\PSoC4/TCPWM_4.c **** *  None
 737:Generated_Source\PSoC4/TCPWM_4.c **** *
 738:Generated_Source\PSoC4/TCPWM_4.c **** *******************************************************************************/
 739:Generated_Source\PSoC4/TCPWM_4.c **** void TCPWM_4_SetCompareSwap(uint32 swapEnable)
 740:Generated_Source\PSoC4/TCPWM_4.c **** {
 741:Generated_Source\PSoC4/TCPWM_4.c ****     uint8 enableInterrupts;
 742:Generated_Source\PSoC4/TCPWM_4.c **** 
 743:Generated_Source\PSoC4/TCPWM_4.c ****     enableInterrupts = CyEnterCriticalSection();
 744:Generated_Source\PSoC4/TCPWM_4.c **** 
 745:Generated_Source\PSoC4/TCPWM_4.c ****     TCPWM_4_CONTROL_REG &= (uint32)~TCPWM_4_RELOAD_CC_MASK;
 746:Generated_Source\PSoC4/TCPWM_4.c ****     TCPWM_4_CONTROL_REG |= (swapEnable & TCPWM_4_1BIT_MASK);
 747:Generated_Source\PSoC4/TCPWM_4.c **** 
 748:Generated_Source\PSoC4/TCPWM_4.c ****     CyExitCriticalSection(enableInterrupts);
 749:Generated_Source\PSoC4/TCPWM_4.c **** }
 750:Generated_Source\PSoC4/TCPWM_4.c **** 
 751:Generated_Source\PSoC4/TCPWM_4.c **** 
 752:Generated_Source\PSoC4/TCPWM_4.c **** /*******************************************************************************
 753:Generated_Source\PSoC4/TCPWM_4.c **** * Function Name: TCPWM_4_WritePeriodBuf
 754:Generated_Source\PSoC4/TCPWM_4.c **** ********************************************************************************
 755:Generated_Source\PSoC4/TCPWM_4.c **** *
 756:Generated_Source\PSoC4/TCPWM_4.c **** * Summary:
 757:Generated_Source\PSoC4/TCPWM_4.c **** *  Writes the 16 bit period buf register with the new period value.
 758:Generated_Source\PSoC4/TCPWM_4.c **** *
 759:Generated_Source\PSoC4/TCPWM_4.c **** * Parameters:
 760:Generated_Source\PSoC4/TCPWM_4.c **** *  periodBuf: Period value
 761:Generated_Source\PSoC4/TCPWM_4.c **** *
 762:Generated_Source\PSoC4/TCPWM_4.c **** * Return:
 763:Generated_Source\PSoC4/TCPWM_4.c **** *  None
 764:Generated_Source\PSoC4/TCPWM_4.c **** *
 765:Generated_Source\PSoC4/TCPWM_4.c **** *******************************************************************************/
 766:Generated_Source\PSoC4/TCPWM_4.c **** void TCPWM_4_WritePeriodBuf(uint32 periodBuf)
 767:Generated_Source\PSoC4/TCPWM_4.c **** {
 768:Generated_Source\PSoC4/TCPWM_4.c ****     TCPWM_4_PERIOD_BUF_REG = (periodBuf & TCPWM_4_16BIT_MASK);
 769:Generated_Source\PSoC4/TCPWM_4.c **** }
 770:Generated_Source\PSoC4/TCPWM_4.c **** 
 771:Generated_Source\PSoC4/TCPWM_4.c **** 
 772:Generated_Source\PSoC4/TCPWM_4.c **** /*******************************************************************************
 773:Generated_Source\PSoC4/TCPWM_4.c **** * Function Name: TCPWM_4_ReadPeriodBuf
 774:Generated_Source\PSoC4/TCPWM_4.c **** ********************************************************************************
 775:Generated_Source\PSoC4/TCPWM_4.c **** *
 776:Generated_Source\PSoC4/TCPWM_4.c **** * Summary:
 777:Generated_Source\PSoC4/TCPWM_4.c **** *  Reads the 16 bit period buf register.
 778:Generated_Source\PSoC4/TCPWM_4.c **** *
 779:Generated_Source\PSoC4/TCPWM_4.c **** * Parameters:
 780:Generated_Source\PSoC4/TCPWM_4.c **** *  None
 781:Generated_Source\PSoC4/TCPWM_4.c **** *
 782:Generated_Source\PSoC4/TCPWM_4.c **** * Return:
 783:Generated_Source\PSoC4/TCPWM_4.c **** *  Period value
 784:Generated_Source\PSoC4/TCPWM_4.c **** *
 785:Generated_Source\PSoC4/TCPWM_4.c **** *******************************************************************************/
ARM GAS  C:\Users\TECHCO~1\AppData\Local\Temp\cc9RpRiE.s 			page 16


 786:Generated_Source\PSoC4/TCPWM_4.c **** uint32 TCPWM_4_ReadPeriodBuf(void)
 787:Generated_Source\PSoC4/TCPWM_4.c **** {
 788:Generated_Source\PSoC4/TCPWM_4.c ****     return (TCPWM_4_PERIOD_BUF_REG & TCPWM_4_16BIT_MASK);
 789:Generated_Source\PSoC4/TCPWM_4.c **** }
 790:Generated_Source\PSoC4/TCPWM_4.c **** 
 791:Generated_Source\PSoC4/TCPWM_4.c **** 
 792:Generated_Source\PSoC4/TCPWM_4.c **** /*******************************************************************************
 793:Generated_Source\PSoC4/TCPWM_4.c **** * Function Name: TCPWM_4_SetPeriodSwap
 794:Generated_Source\PSoC4/TCPWM_4.c **** ********************************************************************************
 795:Generated_Source\PSoC4/TCPWM_4.c **** *
 796:Generated_Source\PSoC4/TCPWM_4.c **** * Summary:
 797:Generated_Source\PSoC4/TCPWM_4.c **** *  Writes the register that controls whether the period registers are
 798:Generated_Source\PSoC4/TCPWM_4.c **** *  swapped. When enabled in Timer/Counter mode the swap occurs at a TC event.
 799:Generated_Source\PSoC4/TCPWM_4.c **** *  In the PWM mode the swap occurs at the next TC event following a hardware
 800:Generated_Source\PSoC4/TCPWM_4.c **** *  switch event.
 801:Generated_Source\PSoC4/TCPWM_4.c **** *
 802:Generated_Source\PSoC4/TCPWM_4.c **** * Parameters:
 803:Generated_Source\PSoC4/TCPWM_4.c **** *  swapEnable
 804:Generated_Source\PSoC4/TCPWM_4.c **** *   Values:
 805:Generated_Source\PSoC4/TCPWM_4.c **** *     - 0 - Disable swap
 806:Generated_Source\PSoC4/TCPWM_4.c **** *     - 1 - Enable swap
 807:Generated_Source\PSoC4/TCPWM_4.c **** *
 808:Generated_Source\PSoC4/TCPWM_4.c **** * Return:
 809:Generated_Source\PSoC4/TCPWM_4.c **** *  None
 810:Generated_Source\PSoC4/TCPWM_4.c **** *
 811:Generated_Source\PSoC4/TCPWM_4.c **** *******************************************************************************/
 812:Generated_Source\PSoC4/TCPWM_4.c **** void TCPWM_4_SetPeriodSwap(uint32 swapEnable)
 813:Generated_Source\PSoC4/TCPWM_4.c **** {
 814:Generated_Source\PSoC4/TCPWM_4.c ****     uint8 enableInterrupts;
 815:Generated_Source\PSoC4/TCPWM_4.c **** 
 816:Generated_Source\PSoC4/TCPWM_4.c ****     enableInterrupts = CyEnterCriticalSection();
 817:Generated_Source\PSoC4/TCPWM_4.c **** 
 818:Generated_Source\PSoC4/TCPWM_4.c ****     TCPWM_4_CONTROL_REG &= (uint32)~TCPWM_4_RELOAD_PERIOD_MASK;
 819:Generated_Source\PSoC4/TCPWM_4.c ****     TCPWM_4_CONTROL_REG |= ((uint32)((swapEnable & TCPWM_4_1BIT_MASK) <<
 820:Generated_Source\PSoC4/TCPWM_4.c ****                                                             TCPWM_4_RELOAD_PERIOD_SHIFT));
 821:Generated_Source\PSoC4/TCPWM_4.c **** 
 822:Generated_Source\PSoC4/TCPWM_4.c ****     CyExitCriticalSection(enableInterrupts);
 823:Generated_Source\PSoC4/TCPWM_4.c **** }
 824:Generated_Source\PSoC4/TCPWM_4.c **** 
 825:Generated_Source\PSoC4/TCPWM_4.c **** 
 826:Generated_Source\PSoC4/TCPWM_4.c **** /*******************************************************************************
 827:Generated_Source\PSoC4/TCPWM_4.c **** * Function Name: TCPWM_4_WriteCompare
 828:Generated_Source\PSoC4/TCPWM_4.c **** ********************************************************************************
 829:Generated_Source\PSoC4/TCPWM_4.c **** *
 830:Generated_Source\PSoC4/TCPWM_4.c **** * Summary:
 831:Generated_Source\PSoC4/TCPWM_4.c **** *  Writes the 16 bit compare register with the new compare value. Not
 832:Generated_Source\PSoC4/TCPWM_4.c **** *  applicable for Timer/Counter with Capture or in Quadrature Decoder modes.
 833:Generated_Source\PSoC4/TCPWM_4.c **** *
 834:Generated_Source\PSoC4/TCPWM_4.c **** * Parameters:
 835:Generated_Source\PSoC4/TCPWM_4.c **** *  compare: Compare value
 836:Generated_Source\PSoC4/TCPWM_4.c **** *
 837:Generated_Source\PSoC4/TCPWM_4.c **** * Return:
 838:Generated_Source\PSoC4/TCPWM_4.c **** *  None
 839:Generated_Source\PSoC4/TCPWM_4.c **** *
 840:Generated_Source\PSoC4/TCPWM_4.c **** * Note:
 841:Generated_Source\PSoC4/TCPWM_4.c **** *  It is not recommended to use the value equal to "0" or equal to 
 842:Generated_Source\PSoC4/TCPWM_4.c **** *  "period value" in Center or Asymmetric align PWM modes on the 
ARM GAS  C:\Users\TECHCO~1\AppData\Local\Temp\cc9RpRiE.s 			page 17


 843:Generated_Source\PSoC4/TCPWM_4.c **** *  PSoC 4100/PSoC 4200 devices.
 844:Generated_Source\PSoC4/TCPWM_4.c **** *  PSoC 4000 devices write the 16 bit compare register with the decremented 
 845:Generated_Source\PSoC4/TCPWM_4.c **** *  compare value in the Up counting mode (except 0x0u), and the incremented 
 846:Generated_Source\PSoC4/TCPWM_4.c **** *  compare value in the Down counting mode (except 0xFFFFu).
 847:Generated_Source\PSoC4/TCPWM_4.c **** *
 848:Generated_Source\PSoC4/TCPWM_4.c **** *******************************************************************************/
 849:Generated_Source\PSoC4/TCPWM_4.c **** void TCPWM_4_WriteCompare(uint32 compare)
 850:Generated_Source\PSoC4/TCPWM_4.c **** {
 851:Generated_Source\PSoC4/TCPWM_4.c ****     #if (TCPWM_4_CY_TCPWM_4000)
 852:Generated_Source\PSoC4/TCPWM_4.c ****         uint32 currentMode;
 853:Generated_Source\PSoC4/TCPWM_4.c ****     #endif /* (TCPWM_4_CY_TCPWM_4000) */
 854:Generated_Source\PSoC4/TCPWM_4.c **** 
 855:Generated_Source\PSoC4/TCPWM_4.c ****     #if (TCPWM_4_CY_TCPWM_4000)
 856:Generated_Source\PSoC4/TCPWM_4.c ****         currentMode = ((TCPWM_4_CONTROL_REG & TCPWM_4_UPDOWN_MASK) >> TCPWM_4_UPDOWN_SHIFT);
 857:Generated_Source\PSoC4/TCPWM_4.c **** 
 858:Generated_Source\PSoC4/TCPWM_4.c ****         if (((uint32)TCPWM_4__COUNT_DOWN == currentMode) && (0xFFFFu != compare))
 859:Generated_Source\PSoC4/TCPWM_4.c ****         {
 860:Generated_Source\PSoC4/TCPWM_4.c ****             compare++;
 861:Generated_Source\PSoC4/TCPWM_4.c ****         }
 862:Generated_Source\PSoC4/TCPWM_4.c ****         else if (((uint32)TCPWM_4__COUNT_UP == currentMode) && (0u != compare))
 863:Generated_Source\PSoC4/TCPWM_4.c ****         {
 864:Generated_Source\PSoC4/TCPWM_4.c ****             compare--;
 865:Generated_Source\PSoC4/TCPWM_4.c ****         }
 866:Generated_Source\PSoC4/TCPWM_4.c ****         else
 867:Generated_Source\PSoC4/TCPWM_4.c ****         {
 868:Generated_Source\PSoC4/TCPWM_4.c ****         }
 869:Generated_Source\PSoC4/TCPWM_4.c ****         
 870:Generated_Source\PSoC4/TCPWM_4.c ****     
 871:Generated_Source\PSoC4/TCPWM_4.c ****     #endif /* (TCPWM_4_CY_TCPWM_4000) */
 872:Generated_Source\PSoC4/TCPWM_4.c ****     
 873:Generated_Source\PSoC4/TCPWM_4.c ****     TCPWM_4_COMP_CAP_REG = (compare & TCPWM_4_16BIT_MASK);
 874:Generated_Source\PSoC4/TCPWM_4.c **** }
 875:Generated_Source\PSoC4/TCPWM_4.c **** 
 876:Generated_Source\PSoC4/TCPWM_4.c **** 
 877:Generated_Source\PSoC4/TCPWM_4.c **** /*******************************************************************************
 878:Generated_Source\PSoC4/TCPWM_4.c **** * Function Name: TCPWM_4_ReadCompare
 879:Generated_Source\PSoC4/TCPWM_4.c **** ********************************************************************************
 880:Generated_Source\PSoC4/TCPWM_4.c **** *
 881:Generated_Source\PSoC4/TCPWM_4.c **** * Summary:
 882:Generated_Source\PSoC4/TCPWM_4.c **** *  Reads the compare register. Not applicable for Timer/Counter with Capture
 883:Generated_Source\PSoC4/TCPWM_4.c **** *  or in Quadrature Decoder modes.
 884:Generated_Source\PSoC4/TCPWM_4.c **** *  PSoC 4000 devices read the incremented compare register value in the 
 885:Generated_Source\PSoC4/TCPWM_4.c **** *  Up counting mode (except 0xFFFFu), and the decremented value in the 
 886:Generated_Source\PSoC4/TCPWM_4.c **** *  Down counting mode (except 0x0u).
 887:Generated_Source\PSoC4/TCPWM_4.c **** *
 888:Generated_Source\PSoC4/TCPWM_4.c **** * Parameters:
 889:Generated_Source\PSoC4/TCPWM_4.c **** *  None
 890:Generated_Source\PSoC4/TCPWM_4.c **** *
 891:Generated_Source\PSoC4/TCPWM_4.c **** * Return:
 892:Generated_Source\PSoC4/TCPWM_4.c **** *  Compare value
 893:Generated_Source\PSoC4/TCPWM_4.c **** *
 894:Generated_Source\PSoC4/TCPWM_4.c **** * Note:
 895:Generated_Source\PSoC4/TCPWM_4.c **** *  PSoC 4000 devices read the incremented compare register value in the 
 896:Generated_Source\PSoC4/TCPWM_4.c **** *  Up counting mode (except 0xFFFFu), and the decremented value in the 
 897:Generated_Source\PSoC4/TCPWM_4.c **** *  Down counting mode (except 0x0u).
 898:Generated_Source\PSoC4/TCPWM_4.c **** *
 899:Generated_Source\PSoC4/TCPWM_4.c **** *******************************************************************************/
ARM GAS  C:\Users\TECHCO~1\AppData\Local\Temp\cc9RpRiE.s 			page 18


 900:Generated_Source\PSoC4/TCPWM_4.c **** uint32 TCPWM_4_ReadCompare(void)
 901:Generated_Source\PSoC4/TCPWM_4.c **** {
 902:Generated_Source\PSoC4/TCPWM_4.c ****     #if (TCPWM_4_CY_TCPWM_4000)
 903:Generated_Source\PSoC4/TCPWM_4.c ****         uint32 currentMode;
 904:Generated_Source\PSoC4/TCPWM_4.c ****         uint32 regVal;
 905:Generated_Source\PSoC4/TCPWM_4.c ****     #endif /* (TCPWM_4_CY_TCPWM_4000) */
 906:Generated_Source\PSoC4/TCPWM_4.c **** 
 907:Generated_Source\PSoC4/TCPWM_4.c ****     #if (TCPWM_4_CY_TCPWM_4000)
 908:Generated_Source\PSoC4/TCPWM_4.c ****         currentMode = ((TCPWM_4_CONTROL_REG & TCPWM_4_UPDOWN_MASK) >> TCPWM_4_UPDOWN_SHIFT);
 909:Generated_Source\PSoC4/TCPWM_4.c ****         
 910:Generated_Source\PSoC4/TCPWM_4.c ****         regVal = TCPWM_4_COMP_CAP_REG;
 911:Generated_Source\PSoC4/TCPWM_4.c ****         
 912:Generated_Source\PSoC4/TCPWM_4.c ****         if (((uint32)TCPWM_4__COUNT_DOWN == currentMode) && (0u != regVal))
 913:Generated_Source\PSoC4/TCPWM_4.c ****         {
 914:Generated_Source\PSoC4/TCPWM_4.c ****             regVal--;
 915:Generated_Source\PSoC4/TCPWM_4.c ****         }
 916:Generated_Source\PSoC4/TCPWM_4.c ****         else if (((uint32)TCPWM_4__COUNT_UP == currentMode) && (0xFFFFu != regVal))
 917:Generated_Source\PSoC4/TCPWM_4.c ****         {
 918:Generated_Source\PSoC4/TCPWM_4.c ****             regVal++;
 919:Generated_Source\PSoC4/TCPWM_4.c ****         }
 920:Generated_Source\PSoC4/TCPWM_4.c ****         else
 921:Generated_Source\PSoC4/TCPWM_4.c ****         {
 922:Generated_Source\PSoC4/TCPWM_4.c ****         }
 923:Generated_Source\PSoC4/TCPWM_4.c **** 
 924:Generated_Source\PSoC4/TCPWM_4.c ****         return (regVal & TCPWM_4_16BIT_MASK);
 925:Generated_Source\PSoC4/TCPWM_4.c ****     #else
 926:Generated_Source\PSoC4/TCPWM_4.c ****         return (TCPWM_4_COMP_CAP_REG & TCPWM_4_16BIT_MASK);
 927:Generated_Source\PSoC4/TCPWM_4.c ****     #endif /* (TCPWM_4_CY_TCPWM_4000) */
 928:Generated_Source\PSoC4/TCPWM_4.c **** }
 929:Generated_Source\PSoC4/TCPWM_4.c **** 
 930:Generated_Source\PSoC4/TCPWM_4.c **** 
 931:Generated_Source\PSoC4/TCPWM_4.c **** /*******************************************************************************
 932:Generated_Source\PSoC4/TCPWM_4.c **** * Function Name: TCPWM_4_WriteCompareBuf
 933:Generated_Source\PSoC4/TCPWM_4.c **** ********************************************************************************
 934:Generated_Source\PSoC4/TCPWM_4.c **** *
 935:Generated_Source\PSoC4/TCPWM_4.c **** * Summary:
 936:Generated_Source\PSoC4/TCPWM_4.c **** *  Writes the 16 bit compare buffer register with the new compare value. Not
 937:Generated_Source\PSoC4/TCPWM_4.c **** *  applicable for Timer/Counter with Capture or in Quadrature Decoder modes.
 938:Generated_Source\PSoC4/TCPWM_4.c **** *
 939:Generated_Source\PSoC4/TCPWM_4.c **** * Parameters:
 940:Generated_Source\PSoC4/TCPWM_4.c **** *  compareBuf: Compare value
 941:Generated_Source\PSoC4/TCPWM_4.c **** *
 942:Generated_Source\PSoC4/TCPWM_4.c **** * Return:
 943:Generated_Source\PSoC4/TCPWM_4.c **** *  None
 944:Generated_Source\PSoC4/TCPWM_4.c **** *
 945:Generated_Source\PSoC4/TCPWM_4.c **** * Note:
 946:Generated_Source\PSoC4/TCPWM_4.c **** *  It is not recommended to use the value equal to "0" or equal to 
 947:Generated_Source\PSoC4/TCPWM_4.c **** *  "period value" in Center or Asymmetric align PWM modes on the 
 948:Generated_Source\PSoC4/TCPWM_4.c **** *  PSoC 4100/PSoC 4200 devices.
 949:Generated_Source\PSoC4/TCPWM_4.c **** *  PSoC 4000 devices write the 16 bit compare register with the decremented 
 950:Generated_Source\PSoC4/TCPWM_4.c **** *  compare value in the Up counting mode (except 0x0u), and the incremented 
 951:Generated_Source\PSoC4/TCPWM_4.c **** *  compare value in the Down counting mode (except 0xFFFFu).
 952:Generated_Source\PSoC4/TCPWM_4.c **** *
 953:Generated_Source\PSoC4/TCPWM_4.c **** *******************************************************************************/
 954:Generated_Source\PSoC4/TCPWM_4.c **** void TCPWM_4_WriteCompareBuf(uint32 compareBuf)
 955:Generated_Source\PSoC4/TCPWM_4.c **** {
 956:Generated_Source\PSoC4/TCPWM_4.c ****     #if (TCPWM_4_CY_TCPWM_4000)
ARM GAS  C:\Users\TECHCO~1\AppData\Local\Temp\cc9RpRiE.s 			page 19


 957:Generated_Source\PSoC4/TCPWM_4.c ****         uint32 currentMode;
 958:Generated_Source\PSoC4/TCPWM_4.c ****     #endif /* (TCPWM_4_CY_TCPWM_4000) */
 959:Generated_Source\PSoC4/TCPWM_4.c **** 
 960:Generated_Source\PSoC4/TCPWM_4.c ****     #if (TCPWM_4_CY_TCPWM_4000)
 961:Generated_Source\PSoC4/TCPWM_4.c ****         currentMode = ((TCPWM_4_CONTROL_REG & TCPWM_4_UPDOWN_MASK) >> TCPWM_4_UPDOWN_SHIFT);
 962:Generated_Source\PSoC4/TCPWM_4.c **** 
 963:Generated_Source\PSoC4/TCPWM_4.c ****         if (((uint32)TCPWM_4__COUNT_DOWN == currentMode) && (0xFFFFu != compareBuf))
 964:Generated_Source\PSoC4/TCPWM_4.c ****         {
 965:Generated_Source\PSoC4/TCPWM_4.c ****             compareBuf++;
 966:Generated_Source\PSoC4/TCPWM_4.c ****         }
 967:Generated_Source\PSoC4/TCPWM_4.c ****         else if (((uint32)TCPWM_4__COUNT_UP == currentMode) && (0u != compareBuf))
 968:Generated_Source\PSoC4/TCPWM_4.c ****         {
 969:Generated_Source\PSoC4/TCPWM_4.c ****             compareBuf --;
 970:Generated_Source\PSoC4/TCPWM_4.c ****         }
 971:Generated_Source\PSoC4/TCPWM_4.c ****         else
 972:Generated_Source\PSoC4/TCPWM_4.c ****         {
 973:Generated_Source\PSoC4/TCPWM_4.c ****         }
 974:Generated_Source\PSoC4/TCPWM_4.c ****     #endif /* (TCPWM_4_CY_TCPWM_4000) */
 975:Generated_Source\PSoC4/TCPWM_4.c ****     
 976:Generated_Source\PSoC4/TCPWM_4.c ****     TCPWM_4_COMP_CAP_BUF_REG = (compareBuf & TCPWM_4_16BIT_MASK);
 977:Generated_Source\PSoC4/TCPWM_4.c **** }
 978:Generated_Source\PSoC4/TCPWM_4.c **** 
 979:Generated_Source\PSoC4/TCPWM_4.c **** 
 980:Generated_Source\PSoC4/TCPWM_4.c **** /*******************************************************************************
 981:Generated_Source\PSoC4/TCPWM_4.c **** * Function Name: TCPWM_4_ReadCompareBuf
 982:Generated_Source\PSoC4/TCPWM_4.c **** ********************************************************************************
 983:Generated_Source\PSoC4/TCPWM_4.c **** *
 984:Generated_Source\PSoC4/TCPWM_4.c **** * Summary:
 985:Generated_Source\PSoC4/TCPWM_4.c **** *  Reads the compare buffer register. Not applicable for Timer/Counter with
 986:Generated_Source\PSoC4/TCPWM_4.c **** *  Capture or in Quadrature Decoder modes.
 987:Generated_Source\PSoC4/TCPWM_4.c **** *
 988:Generated_Source\PSoC4/TCPWM_4.c **** * Parameters:
 989:Generated_Source\PSoC4/TCPWM_4.c **** *  None
 990:Generated_Source\PSoC4/TCPWM_4.c **** *
 991:Generated_Source\PSoC4/TCPWM_4.c **** * Return:
 992:Generated_Source\PSoC4/TCPWM_4.c **** *  Compare buffer value
 993:Generated_Source\PSoC4/TCPWM_4.c **** *
 994:Generated_Source\PSoC4/TCPWM_4.c **** * Note:
 995:Generated_Source\PSoC4/TCPWM_4.c **** *  PSoC 4000 devices read the incremented compare register value in the 
 996:Generated_Source\PSoC4/TCPWM_4.c **** *  Up counting mode (except 0xFFFFu), and the decremented value in the 
 997:Generated_Source\PSoC4/TCPWM_4.c **** *  Down counting mode (except 0x0u).
 998:Generated_Source\PSoC4/TCPWM_4.c **** *
 999:Generated_Source\PSoC4/TCPWM_4.c **** *******************************************************************************/
1000:Generated_Source\PSoC4/TCPWM_4.c **** uint32 TCPWM_4_ReadCompareBuf(void)
1001:Generated_Source\PSoC4/TCPWM_4.c **** {
1002:Generated_Source\PSoC4/TCPWM_4.c ****     #if (TCPWM_4_CY_TCPWM_4000)
1003:Generated_Source\PSoC4/TCPWM_4.c ****         uint32 currentMode;
1004:Generated_Source\PSoC4/TCPWM_4.c ****         uint32 regVal;
1005:Generated_Source\PSoC4/TCPWM_4.c ****     #endif /* (TCPWM_4_CY_TCPWM_4000) */
1006:Generated_Source\PSoC4/TCPWM_4.c **** 
1007:Generated_Source\PSoC4/TCPWM_4.c ****     #if (TCPWM_4_CY_TCPWM_4000)
1008:Generated_Source\PSoC4/TCPWM_4.c ****         currentMode = ((TCPWM_4_CONTROL_REG & TCPWM_4_UPDOWN_MASK) >> TCPWM_4_UPDOWN_SHIFT);
1009:Generated_Source\PSoC4/TCPWM_4.c **** 
1010:Generated_Source\PSoC4/TCPWM_4.c ****         regVal = TCPWM_4_COMP_CAP_BUF_REG;
1011:Generated_Source\PSoC4/TCPWM_4.c ****         
1012:Generated_Source\PSoC4/TCPWM_4.c ****         if (((uint32)TCPWM_4__COUNT_DOWN == currentMode) && (0u != regVal))
1013:Generated_Source\PSoC4/TCPWM_4.c ****         {
ARM GAS  C:\Users\TECHCO~1\AppData\Local\Temp\cc9RpRiE.s 			page 20


1014:Generated_Source\PSoC4/TCPWM_4.c ****             regVal--;
1015:Generated_Source\PSoC4/TCPWM_4.c ****         }
1016:Generated_Source\PSoC4/TCPWM_4.c ****         else if (((uint32)TCPWM_4__COUNT_UP == currentMode) && (0xFFFFu != regVal))
1017:Generated_Source\PSoC4/TCPWM_4.c ****         {
1018:Generated_Source\PSoC4/TCPWM_4.c ****             regVal++;
1019:Generated_Source\PSoC4/TCPWM_4.c ****         }
1020:Generated_Source\PSoC4/TCPWM_4.c ****         else
1021:Generated_Source\PSoC4/TCPWM_4.c ****         {
1022:Generated_Source\PSoC4/TCPWM_4.c ****         }
1023:Generated_Source\PSoC4/TCPWM_4.c **** 
1024:Generated_Source\PSoC4/TCPWM_4.c ****         return (regVal & TCPWM_4_16BIT_MASK);
1025:Generated_Source\PSoC4/TCPWM_4.c ****     #else
1026:Generated_Source\PSoC4/TCPWM_4.c ****         return (TCPWM_4_COMP_CAP_BUF_REG & TCPWM_4_16BIT_MASK);
1027:Generated_Source\PSoC4/TCPWM_4.c ****     #endif /* (TCPWM_4_CY_TCPWM_4000) */
1028:Generated_Source\PSoC4/TCPWM_4.c **** }
1029:Generated_Source\PSoC4/TCPWM_4.c **** 
1030:Generated_Source\PSoC4/TCPWM_4.c **** 
1031:Generated_Source\PSoC4/TCPWM_4.c **** /*******************************************************************************
1032:Generated_Source\PSoC4/TCPWM_4.c **** * Function Name: TCPWM_4_ReadCapture
1033:Generated_Source\PSoC4/TCPWM_4.c **** ********************************************************************************
1034:Generated_Source\PSoC4/TCPWM_4.c **** *
1035:Generated_Source\PSoC4/TCPWM_4.c **** * Summary:
1036:Generated_Source\PSoC4/TCPWM_4.c **** *  Reads the captured counter value. This API is applicable only for
1037:Generated_Source\PSoC4/TCPWM_4.c **** *  Timer/Counter with the capture mode and Quadrature Decoder modes.
1038:Generated_Source\PSoC4/TCPWM_4.c **** *
1039:Generated_Source\PSoC4/TCPWM_4.c **** * Parameters:
1040:Generated_Source\PSoC4/TCPWM_4.c **** *  None
1041:Generated_Source\PSoC4/TCPWM_4.c **** *
1042:Generated_Source\PSoC4/TCPWM_4.c **** * Return:
1043:Generated_Source\PSoC4/TCPWM_4.c **** *  Capture value
1044:Generated_Source\PSoC4/TCPWM_4.c **** *
1045:Generated_Source\PSoC4/TCPWM_4.c **** *******************************************************************************/
1046:Generated_Source\PSoC4/TCPWM_4.c **** uint32 TCPWM_4_ReadCapture(void)
1047:Generated_Source\PSoC4/TCPWM_4.c **** {
1048:Generated_Source\PSoC4/TCPWM_4.c ****     return (TCPWM_4_COMP_CAP_REG & TCPWM_4_16BIT_MASK);
1049:Generated_Source\PSoC4/TCPWM_4.c **** }
1050:Generated_Source\PSoC4/TCPWM_4.c **** 
1051:Generated_Source\PSoC4/TCPWM_4.c **** 
1052:Generated_Source\PSoC4/TCPWM_4.c **** /*******************************************************************************
1053:Generated_Source\PSoC4/TCPWM_4.c **** * Function Name: TCPWM_4_ReadCaptureBuf
1054:Generated_Source\PSoC4/TCPWM_4.c **** ********************************************************************************
1055:Generated_Source\PSoC4/TCPWM_4.c **** *
1056:Generated_Source\PSoC4/TCPWM_4.c **** * Summary:
1057:Generated_Source\PSoC4/TCPWM_4.c **** *  Reads the capture buffer register. This API is applicable only for
1058:Generated_Source\PSoC4/TCPWM_4.c **** *  Timer/Counter with the capture mode and Quadrature Decoder modes.
1059:Generated_Source\PSoC4/TCPWM_4.c **** *
1060:Generated_Source\PSoC4/TCPWM_4.c **** * Parameters:
1061:Generated_Source\PSoC4/TCPWM_4.c **** *  None
1062:Generated_Source\PSoC4/TCPWM_4.c **** *
1063:Generated_Source\PSoC4/TCPWM_4.c **** * Return:
1064:Generated_Source\PSoC4/TCPWM_4.c **** *  Capture buffer value
1065:Generated_Source\PSoC4/TCPWM_4.c **** *
1066:Generated_Source\PSoC4/TCPWM_4.c **** *******************************************************************************/
1067:Generated_Source\PSoC4/TCPWM_4.c **** uint32 TCPWM_4_ReadCaptureBuf(void)
1068:Generated_Source\PSoC4/TCPWM_4.c **** {
1069:Generated_Source\PSoC4/TCPWM_4.c ****     return (TCPWM_4_COMP_CAP_BUF_REG & TCPWM_4_16BIT_MASK);
1070:Generated_Source\PSoC4/TCPWM_4.c **** }
ARM GAS  C:\Users\TECHCO~1\AppData\Local\Temp\cc9RpRiE.s 			page 21


1071:Generated_Source\PSoC4/TCPWM_4.c **** 
1072:Generated_Source\PSoC4/TCPWM_4.c **** 
1073:Generated_Source\PSoC4/TCPWM_4.c **** /*******************************************************************************
1074:Generated_Source\PSoC4/TCPWM_4.c **** * Function Name: TCPWM_4_SetCaptureMode
1075:Generated_Source\PSoC4/TCPWM_4.c **** ********************************************************************************
1076:Generated_Source\PSoC4/TCPWM_4.c **** *
1077:Generated_Source\PSoC4/TCPWM_4.c **** * Summary:
1078:Generated_Source\PSoC4/TCPWM_4.c **** *  Sets the capture trigger mode. For PWM mode this is the switch input.
1079:Generated_Source\PSoC4/TCPWM_4.c **** *  This input is not applicable to the Timer/Counter without Capture and
1080:Generated_Source\PSoC4/TCPWM_4.c **** *  Quadrature Decoder modes.
1081:Generated_Source\PSoC4/TCPWM_4.c **** *
1082:Generated_Source\PSoC4/TCPWM_4.c **** * Parameters:
1083:Generated_Source\PSoC4/TCPWM_4.c **** *  triggerMode: Enumerated trigger mode value
1084:Generated_Source\PSoC4/TCPWM_4.c **** *   Values:
1085:Generated_Source\PSoC4/TCPWM_4.c **** *     - TCPWM_4_TRIG_LEVEL     - Level
1086:Generated_Source\PSoC4/TCPWM_4.c **** *     - TCPWM_4_TRIG_RISING    - Rising edge
1087:Generated_Source\PSoC4/TCPWM_4.c **** *     - TCPWM_4_TRIG_FALLING   - Falling edge
1088:Generated_Source\PSoC4/TCPWM_4.c **** *     - TCPWM_4_TRIG_BOTH      - Both rising and falling edge
1089:Generated_Source\PSoC4/TCPWM_4.c **** *
1090:Generated_Source\PSoC4/TCPWM_4.c **** * Return:
1091:Generated_Source\PSoC4/TCPWM_4.c **** *  None
1092:Generated_Source\PSoC4/TCPWM_4.c **** *
1093:Generated_Source\PSoC4/TCPWM_4.c **** *******************************************************************************/
1094:Generated_Source\PSoC4/TCPWM_4.c **** void TCPWM_4_SetCaptureMode(uint32 triggerMode)
1095:Generated_Source\PSoC4/TCPWM_4.c **** {
1096:Generated_Source\PSoC4/TCPWM_4.c ****     uint8 enableInterrupts;
1097:Generated_Source\PSoC4/TCPWM_4.c **** 
1098:Generated_Source\PSoC4/TCPWM_4.c ****     enableInterrupts = CyEnterCriticalSection();
1099:Generated_Source\PSoC4/TCPWM_4.c **** 
1100:Generated_Source\PSoC4/TCPWM_4.c ****     TCPWM_4_TRIG_CONTROL1_REG &= (uint32)~TCPWM_4_CAPTURE_MASK;
1101:Generated_Source\PSoC4/TCPWM_4.c ****     TCPWM_4_TRIG_CONTROL1_REG |= triggerMode;
1102:Generated_Source\PSoC4/TCPWM_4.c **** 
1103:Generated_Source\PSoC4/TCPWM_4.c ****     CyExitCriticalSection(enableInterrupts);
1104:Generated_Source\PSoC4/TCPWM_4.c **** }
1105:Generated_Source\PSoC4/TCPWM_4.c **** 
1106:Generated_Source\PSoC4/TCPWM_4.c **** 
1107:Generated_Source\PSoC4/TCPWM_4.c **** /*******************************************************************************
1108:Generated_Source\PSoC4/TCPWM_4.c **** * Function Name: TCPWM_4_SetReloadMode
1109:Generated_Source\PSoC4/TCPWM_4.c **** ********************************************************************************
1110:Generated_Source\PSoC4/TCPWM_4.c **** *
1111:Generated_Source\PSoC4/TCPWM_4.c **** * Summary:
1112:Generated_Source\PSoC4/TCPWM_4.c **** *  Sets the reload trigger mode. For Quadrature Decoder mode this is the index
1113:Generated_Source\PSoC4/TCPWM_4.c **** *  input.
1114:Generated_Source\PSoC4/TCPWM_4.c **** *
1115:Generated_Source\PSoC4/TCPWM_4.c **** * Parameters:
1116:Generated_Source\PSoC4/TCPWM_4.c **** *  triggerMode: Enumerated trigger mode value
1117:Generated_Source\PSoC4/TCPWM_4.c **** *   Values:
1118:Generated_Source\PSoC4/TCPWM_4.c **** *     - TCPWM_4_TRIG_LEVEL     - Level
1119:Generated_Source\PSoC4/TCPWM_4.c **** *     - TCPWM_4_TRIG_RISING    - Rising edge
1120:Generated_Source\PSoC4/TCPWM_4.c **** *     - TCPWM_4_TRIG_FALLING   - Falling edge
1121:Generated_Source\PSoC4/TCPWM_4.c **** *     - TCPWM_4_TRIG_BOTH      - Both rising and falling edge
1122:Generated_Source\PSoC4/TCPWM_4.c **** *
1123:Generated_Source\PSoC4/TCPWM_4.c **** * Return:
1124:Generated_Source\PSoC4/TCPWM_4.c **** *  None
1125:Generated_Source\PSoC4/TCPWM_4.c **** *
1126:Generated_Source\PSoC4/TCPWM_4.c **** *******************************************************************************/
1127:Generated_Source\PSoC4/TCPWM_4.c **** void TCPWM_4_SetReloadMode(uint32 triggerMode)
ARM GAS  C:\Users\TECHCO~1\AppData\Local\Temp\cc9RpRiE.s 			page 22


1128:Generated_Source\PSoC4/TCPWM_4.c **** {
1129:Generated_Source\PSoC4/TCPWM_4.c ****     uint8 enableInterrupts;
1130:Generated_Source\PSoC4/TCPWM_4.c **** 
1131:Generated_Source\PSoC4/TCPWM_4.c ****     enableInterrupts = CyEnterCriticalSection();
1132:Generated_Source\PSoC4/TCPWM_4.c **** 
1133:Generated_Source\PSoC4/TCPWM_4.c ****     TCPWM_4_TRIG_CONTROL1_REG &= (uint32)~TCPWM_4_RELOAD_MASK;
1134:Generated_Source\PSoC4/TCPWM_4.c ****     TCPWM_4_TRIG_CONTROL1_REG |= ((uint32)(triggerMode << TCPWM_4_RELOAD_SHIFT));
1135:Generated_Source\PSoC4/TCPWM_4.c **** 
1136:Generated_Source\PSoC4/TCPWM_4.c ****     CyExitCriticalSection(enableInterrupts);
1137:Generated_Source\PSoC4/TCPWM_4.c **** }
1138:Generated_Source\PSoC4/TCPWM_4.c **** 
1139:Generated_Source\PSoC4/TCPWM_4.c **** 
1140:Generated_Source\PSoC4/TCPWM_4.c **** /*******************************************************************************
1141:Generated_Source\PSoC4/TCPWM_4.c **** * Function Name: TCPWM_4_SetStartMode
1142:Generated_Source\PSoC4/TCPWM_4.c **** ********************************************************************************
1143:Generated_Source\PSoC4/TCPWM_4.c **** *
1144:Generated_Source\PSoC4/TCPWM_4.c **** * Summary:
1145:Generated_Source\PSoC4/TCPWM_4.c **** *  Sets the start trigger mode. For Quadrature Decoder mode this is the
1146:Generated_Source\PSoC4/TCPWM_4.c **** *  phiB input.
1147:Generated_Source\PSoC4/TCPWM_4.c **** *
1148:Generated_Source\PSoC4/TCPWM_4.c **** * Parameters:
1149:Generated_Source\PSoC4/TCPWM_4.c **** *  triggerMode: Enumerated trigger mode value
1150:Generated_Source\PSoC4/TCPWM_4.c **** *   Values:
1151:Generated_Source\PSoC4/TCPWM_4.c **** *     - TCPWM_4_TRIG_LEVEL     - Level
1152:Generated_Source\PSoC4/TCPWM_4.c **** *     - TCPWM_4_TRIG_RISING    - Rising edge
1153:Generated_Source\PSoC4/TCPWM_4.c **** *     - TCPWM_4_TRIG_FALLING   - Falling edge
1154:Generated_Source\PSoC4/TCPWM_4.c **** *     - TCPWM_4_TRIG_BOTH      - Both rising and falling edge
1155:Generated_Source\PSoC4/TCPWM_4.c **** *
1156:Generated_Source\PSoC4/TCPWM_4.c **** * Return:
1157:Generated_Source\PSoC4/TCPWM_4.c **** *  None
1158:Generated_Source\PSoC4/TCPWM_4.c **** *
1159:Generated_Source\PSoC4/TCPWM_4.c **** *******************************************************************************/
1160:Generated_Source\PSoC4/TCPWM_4.c **** void TCPWM_4_SetStartMode(uint32 triggerMode)
1161:Generated_Source\PSoC4/TCPWM_4.c **** {
1162:Generated_Source\PSoC4/TCPWM_4.c ****     uint8 enableInterrupts;
1163:Generated_Source\PSoC4/TCPWM_4.c **** 
1164:Generated_Source\PSoC4/TCPWM_4.c ****     enableInterrupts = CyEnterCriticalSection();
1165:Generated_Source\PSoC4/TCPWM_4.c **** 
1166:Generated_Source\PSoC4/TCPWM_4.c ****     TCPWM_4_TRIG_CONTROL1_REG &= (uint32)~TCPWM_4_START_MASK;
1167:Generated_Source\PSoC4/TCPWM_4.c ****     TCPWM_4_TRIG_CONTROL1_REG |= ((uint32)(triggerMode << TCPWM_4_START_SHIFT));
1168:Generated_Source\PSoC4/TCPWM_4.c **** 
1169:Generated_Source\PSoC4/TCPWM_4.c ****     CyExitCriticalSection(enableInterrupts);
1170:Generated_Source\PSoC4/TCPWM_4.c **** }
1171:Generated_Source\PSoC4/TCPWM_4.c **** 
1172:Generated_Source\PSoC4/TCPWM_4.c **** 
1173:Generated_Source\PSoC4/TCPWM_4.c **** /*******************************************************************************
1174:Generated_Source\PSoC4/TCPWM_4.c **** * Function Name: TCPWM_4_SetStopMode
1175:Generated_Source\PSoC4/TCPWM_4.c **** ********************************************************************************
1176:Generated_Source\PSoC4/TCPWM_4.c **** *
1177:Generated_Source\PSoC4/TCPWM_4.c **** * Summary:
1178:Generated_Source\PSoC4/TCPWM_4.c **** *  Sets the stop trigger mode. For PWM mode this is the kill input.
1179:Generated_Source\PSoC4/TCPWM_4.c **** *
1180:Generated_Source\PSoC4/TCPWM_4.c **** * Parameters:
1181:Generated_Source\PSoC4/TCPWM_4.c **** *  triggerMode: Enumerated trigger mode value
1182:Generated_Source\PSoC4/TCPWM_4.c **** *   Values:
1183:Generated_Source\PSoC4/TCPWM_4.c **** *     - TCPWM_4_TRIG_LEVEL     - Level
1184:Generated_Source\PSoC4/TCPWM_4.c **** *     - TCPWM_4_TRIG_RISING    - Rising edge
ARM GAS  C:\Users\TECHCO~1\AppData\Local\Temp\cc9RpRiE.s 			page 23


1185:Generated_Source\PSoC4/TCPWM_4.c **** *     - TCPWM_4_TRIG_FALLING   - Falling edge
1186:Generated_Source\PSoC4/TCPWM_4.c **** *     - TCPWM_4_TRIG_BOTH      - Both rising and falling edge
1187:Generated_Source\PSoC4/TCPWM_4.c **** *
1188:Generated_Source\PSoC4/TCPWM_4.c **** * Return:
1189:Generated_Source\PSoC4/TCPWM_4.c **** *  None
1190:Generated_Source\PSoC4/TCPWM_4.c **** *
1191:Generated_Source\PSoC4/TCPWM_4.c **** *******************************************************************************/
1192:Generated_Source\PSoC4/TCPWM_4.c **** void TCPWM_4_SetStopMode(uint32 triggerMode)
1193:Generated_Source\PSoC4/TCPWM_4.c **** {
1194:Generated_Source\PSoC4/TCPWM_4.c ****     uint8 enableInterrupts;
1195:Generated_Source\PSoC4/TCPWM_4.c **** 
1196:Generated_Source\PSoC4/TCPWM_4.c ****     enableInterrupts = CyEnterCriticalSection();
1197:Generated_Source\PSoC4/TCPWM_4.c **** 
1198:Generated_Source\PSoC4/TCPWM_4.c ****     TCPWM_4_TRIG_CONTROL1_REG &= (uint32)~TCPWM_4_STOP_MASK;
1199:Generated_Source\PSoC4/TCPWM_4.c ****     TCPWM_4_TRIG_CONTROL1_REG |= ((uint32)(triggerMode << TCPWM_4_STOP_SHIFT));
1200:Generated_Source\PSoC4/TCPWM_4.c **** 
1201:Generated_Source\PSoC4/TCPWM_4.c ****     CyExitCriticalSection(enableInterrupts);
1202:Generated_Source\PSoC4/TCPWM_4.c **** }
1203:Generated_Source\PSoC4/TCPWM_4.c **** 
1204:Generated_Source\PSoC4/TCPWM_4.c **** 
1205:Generated_Source\PSoC4/TCPWM_4.c **** /*******************************************************************************
1206:Generated_Source\PSoC4/TCPWM_4.c **** * Function Name: TCPWM_4_SetCountMode
1207:Generated_Source\PSoC4/TCPWM_4.c **** ********************************************************************************
1208:Generated_Source\PSoC4/TCPWM_4.c **** *
1209:Generated_Source\PSoC4/TCPWM_4.c **** * Summary:
1210:Generated_Source\PSoC4/TCPWM_4.c **** *  Sets the count trigger mode. For Quadrature Decoder mode this is the phiA
1211:Generated_Source\PSoC4/TCPWM_4.c **** *  input.
1212:Generated_Source\PSoC4/TCPWM_4.c **** *
1213:Generated_Source\PSoC4/TCPWM_4.c **** * Parameters:
1214:Generated_Source\PSoC4/TCPWM_4.c **** *  triggerMode: Enumerated trigger mode value
1215:Generated_Source\PSoC4/TCPWM_4.c **** *   Values:
1216:Generated_Source\PSoC4/TCPWM_4.c **** *     - TCPWM_4_TRIG_LEVEL     - Level
1217:Generated_Source\PSoC4/TCPWM_4.c **** *     - TCPWM_4_TRIG_RISING    - Rising edge
1218:Generated_Source\PSoC4/TCPWM_4.c **** *     - TCPWM_4_TRIG_FALLING   - Falling edge
1219:Generated_Source\PSoC4/TCPWM_4.c **** *     - TCPWM_4_TRIG_BOTH      - Both rising and falling edge
1220:Generated_Source\PSoC4/TCPWM_4.c **** *
1221:Generated_Source\PSoC4/TCPWM_4.c **** * Return:
1222:Generated_Source\PSoC4/TCPWM_4.c **** *  None
1223:Generated_Source\PSoC4/TCPWM_4.c **** *
1224:Generated_Source\PSoC4/TCPWM_4.c **** *******************************************************************************/
1225:Generated_Source\PSoC4/TCPWM_4.c **** void TCPWM_4_SetCountMode(uint32 triggerMode)
1226:Generated_Source\PSoC4/TCPWM_4.c **** {
1227:Generated_Source\PSoC4/TCPWM_4.c ****     uint8 enableInterrupts;
1228:Generated_Source\PSoC4/TCPWM_4.c **** 
1229:Generated_Source\PSoC4/TCPWM_4.c ****     enableInterrupts = CyEnterCriticalSection();
1230:Generated_Source\PSoC4/TCPWM_4.c **** 
1231:Generated_Source\PSoC4/TCPWM_4.c ****     TCPWM_4_TRIG_CONTROL1_REG &= (uint32)~TCPWM_4_COUNT_MASK;
1232:Generated_Source\PSoC4/TCPWM_4.c ****     TCPWM_4_TRIG_CONTROL1_REG |= ((uint32)(triggerMode << TCPWM_4_COUNT_SHIFT));
1233:Generated_Source\PSoC4/TCPWM_4.c **** 
1234:Generated_Source\PSoC4/TCPWM_4.c ****     CyExitCriticalSection(enableInterrupts);
1235:Generated_Source\PSoC4/TCPWM_4.c **** }
1236:Generated_Source\PSoC4/TCPWM_4.c **** 
1237:Generated_Source\PSoC4/TCPWM_4.c **** 
1238:Generated_Source\PSoC4/TCPWM_4.c **** /*******************************************************************************
1239:Generated_Source\PSoC4/TCPWM_4.c **** * Function Name: TCPWM_4_TriggerCommand
1240:Generated_Source\PSoC4/TCPWM_4.c **** ********************************************************************************
1241:Generated_Source\PSoC4/TCPWM_4.c **** *
ARM GAS  C:\Users\TECHCO~1\AppData\Local\Temp\cc9RpRiE.s 			page 24


1242:Generated_Source\PSoC4/TCPWM_4.c **** * Summary:
1243:Generated_Source\PSoC4/TCPWM_4.c **** *  Triggers the designated command to occur on the designated TCPWM instances.
1244:Generated_Source\PSoC4/TCPWM_4.c **** *  The mask can be used to apply this command simultaneously to more than one
1245:Generated_Source\PSoC4/TCPWM_4.c **** *  instance.  This allows multiple TCPWM instances to be synchronized.
1246:Generated_Source\PSoC4/TCPWM_4.c **** *
1247:Generated_Source\PSoC4/TCPWM_4.c **** * Parameters:
1248:Generated_Source\PSoC4/TCPWM_4.c **** *  mask: A combination of mask bits for each instance of the TCPWM that the
1249:Generated_Source\PSoC4/TCPWM_4.c **** *        command should apply to.  This function from one instance can be used
1250:Generated_Source\PSoC4/TCPWM_4.c **** *        to apply the command to any of the instances in the design.
1251:Generated_Source\PSoC4/TCPWM_4.c **** *        The mask value for a specific instance is available with the MASK
1252:Generated_Source\PSoC4/TCPWM_4.c **** *        define.
1253:Generated_Source\PSoC4/TCPWM_4.c **** *  command: Enumerated command values. Capture command only applicable for
1254:Generated_Source\PSoC4/TCPWM_4.c **** *           Timer/Counter with Capture and PWM modes.
1255:Generated_Source\PSoC4/TCPWM_4.c **** *   Values:
1256:Generated_Source\PSoC4/TCPWM_4.c **** *     - TCPWM_4_CMD_CAPTURE    - Trigger Capture/Switch command
1257:Generated_Source\PSoC4/TCPWM_4.c **** *     - TCPWM_4_CMD_RELOAD     - Trigger Reload/Index command
1258:Generated_Source\PSoC4/TCPWM_4.c **** *     - TCPWM_4_CMD_STOP       - Trigger Stop/Kill command
1259:Generated_Source\PSoC4/TCPWM_4.c **** *     - TCPWM_4_CMD_START      - Trigger Start/phiB command
1260:Generated_Source\PSoC4/TCPWM_4.c **** *
1261:Generated_Source\PSoC4/TCPWM_4.c **** * Return:
1262:Generated_Source\PSoC4/TCPWM_4.c **** *  None
1263:Generated_Source\PSoC4/TCPWM_4.c **** *
1264:Generated_Source\PSoC4/TCPWM_4.c **** *******************************************************************************/
1265:Generated_Source\PSoC4/TCPWM_4.c **** void TCPWM_4_TriggerCommand(uint32 mask, uint32 command)
1266:Generated_Source\PSoC4/TCPWM_4.c **** {
1267:Generated_Source\PSoC4/TCPWM_4.c ****     uint8 enableInterrupts;
1268:Generated_Source\PSoC4/TCPWM_4.c **** 
1269:Generated_Source\PSoC4/TCPWM_4.c ****     enableInterrupts = CyEnterCriticalSection();
1270:Generated_Source\PSoC4/TCPWM_4.c **** 
1271:Generated_Source\PSoC4/TCPWM_4.c ****     TCPWM_4_COMMAND_REG = ((uint32)(mask << command));
1272:Generated_Source\PSoC4/TCPWM_4.c **** 
1273:Generated_Source\PSoC4/TCPWM_4.c ****     CyExitCriticalSection(enableInterrupts);
1274:Generated_Source\PSoC4/TCPWM_4.c **** }
1275:Generated_Source\PSoC4/TCPWM_4.c **** 
1276:Generated_Source\PSoC4/TCPWM_4.c **** 
1277:Generated_Source\PSoC4/TCPWM_4.c **** /*******************************************************************************
1278:Generated_Source\PSoC4/TCPWM_4.c **** * Function Name: TCPWM_4_ReadStatus
1279:Generated_Source\PSoC4/TCPWM_4.c **** ********************************************************************************
1280:Generated_Source\PSoC4/TCPWM_4.c **** *
1281:Generated_Source\PSoC4/TCPWM_4.c **** * Summary:
1282:Generated_Source\PSoC4/TCPWM_4.c **** *  Reads the status of the TCPWM_4.
1283:Generated_Source\PSoC4/TCPWM_4.c **** *
1284:Generated_Source\PSoC4/TCPWM_4.c **** * Parameters:
1285:Generated_Source\PSoC4/TCPWM_4.c **** *  None
1286:Generated_Source\PSoC4/TCPWM_4.c **** *
1287:Generated_Source\PSoC4/TCPWM_4.c **** * Return:
1288:Generated_Source\PSoC4/TCPWM_4.c **** *  Status
1289:Generated_Source\PSoC4/TCPWM_4.c **** *   Values:
1290:Generated_Source\PSoC4/TCPWM_4.c **** *     - TCPWM_4_STATUS_DOWN    - Set if counting down
1291:Generated_Source\PSoC4/TCPWM_4.c **** *     - TCPWM_4_STATUS_RUNNING - Set if counter is running
1292:Generated_Source\PSoC4/TCPWM_4.c **** *
1293:Generated_Source\PSoC4/TCPWM_4.c **** *******************************************************************************/
1294:Generated_Source\PSoC4/TCPWM_4.c **** uint32 TCPWM_4_ReadStatus(void)
1295:Generated_Source\PSoC4/TCPWM_4.c **** {
1296:Generated_Source\PSoC4/TCPWM_4.c ****     return ((TCPWM_4_STATUS_REG >> TCPWM_4_RUNNING_STATUS_SHIFT) |
1297:Generated_Source\PSoC4/TCPWM_4.c ****             (TCPWM_4_STATUS_REG & TCPWM_4_STATUS_DOWN));
1298:Generated_Source\PSoC4/TCPWM_4.c **** }
ARM GAS  C:\Users\TECHCO~1\AppData\Local\Temp\cc9RpRiE.s 			page 25


1299:Generated_Source\PSoC4/TCPWM_4.c **** 
1300:Generated_Source\PSoC4/TCPWM_4.c **** 
1301:Generated_Source\PSoC4/TCPWM_4.c **** /*******************************************************************************
1302:Generated_Source\PSoC4/TCPWM_4.c **** * Function Name: TCPWM_4_SetInterruptMode
1303:Generated_Source\PSoC4/TCPWM_4.c **** ********************************************************************************
1304:Generated_Source\PSoC4/TCPWM_4.c **** *
1305:Generated_Source\PSoC4/TCPWM_4.c **** * Summary:
1306:Generated_Source\PSoC4/TCPWM_4.c **** *  Sets the interrupt mask to control which interrupt
1307:Generated_Source\PSoC4/TCPWM_4.c **** *  requests generate the interrupt signal.
1308:Generated_Source\PSoC4/TCPWM_4.c **** *
1309:Generated_Source\PSoC4/TCPWM_4.c **** * Parameters:
1310:Generated_Source\PSoC4/TCPWM_4.c **** *   interruptMask: Mask of bits to be enabled
1311:Generated_Source\PSoC4/TCPWM_4.c **** *   Values:
1312:Generated_Source\PSoC4/TCPWM_4.c **** *     - TCPWM_4_INTR_MASK_TC       - Terminal count mask
1313:Generated_Source\PSoC4/TCPWM_4.c **** *     - TCPWM_4_INTR_MASK_CC_MATCH - Compare count / capture mask
1314:Generated_Source\PSoC4/TCPWM_4.c **** *
1315:Generated_Source\PSoC4/TCPWM_4.c **** * Return:
1316:Generated_Source\PSoC4/TCPWM_4.c **** *  None
1317:Generated_Source\PSoC4/TCPWM_4.c **** *
1318:Generated_Source\PSoC4/TCPWM_4.c **** *******************************************************************************/
1319:Generated_Source\PSoC4/TCPWM_4.c **** void TCPWM_4_SetInterruptMode(uint32 interruptMask)
1320:Generated_Source\PSoC4/TCPWM_4.c **** {
1321:Generated_Source\PSoC4/TCPWM_4.c ****     TCPWM_4_INTERRUPT_MASK_REG =  interruptMask;
  65              		.loc 1 1321 0
  66 001e 0122     		mov	r2, #1
  67 0020 084B     		ldr	r3, .L2+12
  68 0022 1A60     		str	r2, [r3]
  69              	.LBE15:
  70              	.LBE14:
 129:Generated_Source\PSoC4/TCPWM_4.c ****             #endif  /* ( TCPWM_4_PWM_LEFT == TCPWM_4_PWM_ALIGN) */
  71              		.loc 1 129 0
  72 0024 084B     		ldr	r3, .L2+16
  73 0026 3032     		add	r2, r2, #48
  74 0028 1A60     		str	r2, [r3]
  75              	.LVL2:
  76              	.LBB16:
  77              	.LBB17:
 695:Generated_Source\PSoC4/TCPWM_4.c **** }
  78              		.loc 1 695 0
  79 002a 084B     		ldr	r3, .L2+20
  80 002c CE32     		add	r2, r2, #206
  81 002e 1A60     		str	r2, [r3]
  82              	.LVL3:
  83              	.LBE17:
  84              	.LBE16:
  85              	.LBB18:
  86              	.LBB19:
 873:Generated_Source\PSoC4/TCPWM_4.c **** }
  87              		.loc 1 873 0
  88 0030 074B     		ldr	r3, .L2+24
  89 0032 013A     		sub	r2, r2, #1
  90 0034 1A60     		str	r2, [r3]
  91              	.LBE19:
  92              	.LBE18:
 160:Generated_Source\PSoC4/TCPWM_4.c **** 
  93              		.loc 1 160 0
  94 0036 7047     		bx	lr
ARM GAS  C:\Users\TECHCO~1\AppData\Local\Temp\cc9RpRiE.s 			page 26


  95              	.L3:
  96              		.align	2
  97              	.L2:
  98 0038 40010540 		.word	1074069824
  99 003c 48010540 		.word	1074069832
 100 0040 64010540 		.word	1074069860
 101 0044 78010540 		.word	1074069880
 102 0048 68010540 		.word	1074069864
 103 004c 54010540 		.word	1074069844
 104 0050 4C010540 		.word	1074069836
 105              		.cfi_endproc
 106              	.LFE0:
 107              		.size	TCPWM_4_Init, .-TCPWM_4_Init
 108              		.section	.text.TCPWM_4_Stop,"ax",%progbits
 109              		.align	1
 110              		.global	TCPWM_4_Stop
 111              		.code	16
 112              		.thumb_func
 113              		.type	TCPWM_4_Stop, %function
 114              	TCPWM_4_Stop:
 115              	.LFB3:
 257:Generated_Source\PSoC4/TCPWM_4.c ****     uint8 enableInterrupts;
 116              		.loc 1 257 0
 117              		.cfi_startproc
 118 0000 08B5     		push	{r3, lr}
 119              		.cfi_def_cfa_offset 8
 120              		.cfi_offset 3, -8
 121              		.cfi_offset 14, -4
 260:Generated_Source\PSoC4/TCPWM_4.c **** 
 122              		.loc 1 260 0
 123 0002 FFF7FEFF 		bl	CyEnterCriticalSection
 124              	.LVL4:
 262:Generated_Source\PSoC4/TCPWM_4.c **** 
 125              		.loc 1 262 0
 126 0006 0221     		mov	r1, #2
 127 0008 034A     		ldr	r2, .L5
 265:Generated_Source\PSoC4/TCPWM_4.c **** 
 128              		.loc 1 265 0
 129              		@ sp needed
 262:Generated_Source\PSoC4/TCPWM_4.c **** 
 130              		.loc 1 262 0
 131 000a 1368     		ldr	r3, [r2]
 132 000c 8B43     		bic	r3, r1
 133 000e 1360     		str	r3, [r2]
 264:Generated_Source\PSoC4/TCPWM_4.c **** }
 134              		.loc 1 264 0
 135 0010 FFF7FEFF 		bl	CyExitCriticalSection
 136              	.LVL5:
 265:Generated_Source\PSoC4/TCPWM_4.c **** 
 137              		.loc 1 265 0
 138 0014 08BD     		pop	{r3, pc}
 139              	.L6:
 140 0016 C046     		.align	2
 141              	.L5:
 142 0018 00000540 		.word	1074069504
 143              		.cfi_endproc
 144              	.LFE3:
ARM GAS  C:\Users\TECHCO~1\AppData\Local\Temp\cc9RpRiE.s 			page 27


 145              		.size	TCPWM_4_Stop, .-TCPWM_4_Stop
 146              		.section	.text.TCPWM_4_SetMode,"ax",%progbits
 147              		.align	1
 148              		.global	TCPWM_4_SetMode
 149              		.code	16
 150              		.thumb_func
 151              		.type	TCPWM_4_SetMode, %function
 152              	TCPWM_4_SetMode:
 153              	.LFB4:
 294:Generated_Source\PSoC4/TCPWM_4.c ****     uint8 enableInterrupts;
 154              		.loc 1 294 0
 155              		.cfi_startproc
 156              	.LVL6:
 157 0000 10B5     		push	{r4, lr}
 158              		.cfi_def_cfa_offset 8
 159              		.cfi_offset 4, -8
 160              		.cfi_offset 14, -4
 294:Generated_Source\PSoC4/TCPWM_4.c ****     uint8 enableInterrupts;
 161              		.loc 1 294 0
 162 0002 041C     		mov	r4, r0
 297:Generated_Source\PSoC4/TCPWM_4.c **** 
 163              		.loc 1 297 0
 164 0004 FFF7FEFF 		bl	CyEnterCriticalSection
 165              	.LVL7:
 299:Generated_Source\PSoC4/TCPWM_4.c ****     TCPWM_4_CONTROL_REG |= mode;
 166              		.loc 1 299 0
 167 0008 054B     		ldr	r3, .L8
 168 000a 064A     		ldr	r2, .L8+4
 169 000c 1968     		ldr	r1, [r3]
 303:Generated_Source\PSoC4/TCPWM_4.c **** 
 170              		.loc 1 303 0
 171              		@ sp needed
 299:Generated_Source\PSoC4/TCPWM_4.c ****     TCPWM_4_CONTROL_REG |= mode;
 172              		.loc 1 299 0
 173 000e 0A40     		and	r2, r1
 174 0010 1A60     		str	r2, [r3]
 300:Generated_Source\PSoC4/TCPWM_4.c **** 
 175              		.loc 1 300 0
 176 0012 1A68     		ldr	r2, [r3]
 177 0014 2243     		orr	r2, r4
 178 0016 1A60     		str	r2, [r3]
 302:Generated_Source\PSoC4/TCPWM_4.c **** }
 179              		.loc 1 302 0
 180 0018 FFF7FEFF 		bl	CyExitCriticalSection
 181              	.LVL8:
 182              	.LVL9:
 303:Generated_Source\PSoC4/TCPWM_4.c **** 
 183              		.loc 1 303 0
 184 001c 10BD     		pop	{r4, pc}
 185              	.L9:
 186 001e C046     		.align	2
 187              	.L8:
 188 0020 40010540 		.word	1074069824
 189 0024 FFFFFFF8 		.word	-117440513
 190              		.cfi_endproc
 191              	.LFE4:
 192              		.size	TCPWM_4_SetMode, .-TCPWM_4_SetMode
ARM GAS  C:\Users\TECHCO~1\AppData\Local\Temp\cc9RpRiE.s 			page 28


 193              		.section	.text.TCPWM_4_SetQDMode,"ax",%progbits
 194              		.align	1
 195              		.global	TCPWM_4_SetQDMode
 196              		.code	16
 197              		.thumb_func
 198              		.type	TCPWM_4_SetQDMode, %function
 199              	TCPWM_4_SetQDMode:
 200              	.LFB5:
 327:Generated_Source\PSoC4/TCPWM_4.c ****     uint8 enableInterrupts;
 201              		.loc 1 327 0
 202              		.cfi_startproc
 203              	.LVL10:
 204 0000 10B5     		push	{r4, lr}
 205              		.cfi_def_cfa_offset 8
 206              		.cfi_offset 4, -8
 207              		.cfi_offset 14, -4
 327:Generated_Source\PSoC4/TCPWM_4.c ****     uint8 enableInterrupts;
 208              		.loc 1 327 0
 209 0002 041C     		mov	r4, r0
 330:Generated_Source\PSoC4/TCPWM_4.c **** 
 210              		.loc 1 330 0
 211 0004 FFF7FEFF 		bl	CyEnterCriticalSection
 212              	.LVL11:
 332:Generated_Source\PSoC4/TCPWM_4.c ****     TCPWM_4_CONTROL_REG |= qdMode;
 213              		.loc 1 332 0
 214 0008 054B     		ldr	r3, .L11
 215 000a 064A     		ldr	r2, .L11+4
 216 000c 1968     		ldr	r1, [r3]
 336:Generated_Source\PSoC4/TCPWM_4.c **** 
 217              		.loc 1 336 0
 218              		@ sp needed
 332:Generated_Source\PSoC4/TCPWM_4.c ****     TCPWM_4_CONTROL_REG |= qdMode;
 219              		.loc 1 332 0
 220 000e 0A40     		and	r2, r1
 221 0010 1A60     		str	r2, [r3]
 333:Generated_Source\PSoC4/TCPWM_4.c **** 
 222              		.loc 1 333 0
 223 0012 1A68     		ldr	r2, [r3]
 224 0014 2243     		orr	r2, r4
 225 0016 1A60     		str	r2, [r3]
 335:Generated_Source\PSoC4/TCPWM_4.c **** }
 226              		.loc 1 335 0
 227 0018 FFF7FEFF 		bl	CyExitCriticalSection
 228              	.LVL12:
 229              	.LVL13:
 336:Generated_Source\PSoC4/TCPWM_4.c **** 
 230              		.loc 1 336 0
 231 001c 10BD     		pop	{r4, pc}
 232              	.L12:
 233 001e C046     		.align	2
 234              	.L11:
 235 0020 40010540 		.word	1074069824
 236 0024 FFFF8FFF 		.word	-7340033
 237              		.cfi_endproc
 238              	.LFE5:
 239              		.size	TCPWM_4_SetQDMode, .-TCPWM_4_SetQDMode
 240              		.section	.text.TCPWM_4_SetPrescaler,"ax",%progbits
ARM GAS  C:\Users\TECHCO~1\AppData\Local\Temp\cc9RpRiE.s 			page 29


 241              		.align	1
 242              		.global	TCPWM_4_SetPrescaler
 243              		.code	16
 244              		.thumb_func
 245              		.type	TCPWM_4_SetPrescaler, %function
 246              	TCPWM_4_SetPrescaler:
 247              	.LFB6:
 364:Generated_Source\PSoC4/TCPWM_4.c ****     uint8 enableInterrupts;
 248              		.loc 1 364 0
 249              		.cfi_startproc
 250              	.LVL14:
 251 0000 10B5     		push	{r4, lr}
 252              		.cfi_def_cfa_offset 8
 253              		.cfi_offset 4, -8
 254              		.cfi_offset 14, -4
 364:Generated_Source\PSoC4/TCPWM_4.c ****     uint8 enableInterrupts;
 255              		.loc 1 364 0
 256 0002 041C     		mov	r4, r0
 367:Generated_Source\PSoC4/TCPWM_4.c **** 
 257              		.loc 1 367 0
 258 0004 FFF7FEFF 		bl	CyEnterCriticalSection
 259              	.LVL15:
 369:Generated_Source\PSoC4/TCPWM_4.c ****     TCPWM_4_CONTROL_REG |= prescaler;
 260              		.loc 1 369 0
 261 0008 054B     		ldr	r3, .L14
 262 000a 064A     		ldr	r2, .L14+4
 263 000c 1968     		ldr	r1, [r3]
 373:Generated_Source\PSoC4/TCPWM_4.c **** 
 264              		.loc 1 373 0
 265              		@ sp needed
 369:Generated_Source\PSoC4/TCPWM_4.c ****     TCPWM_4_CONTROL_REG |= prescaler;
 266              		.loc 1 369 0
 267 000e 0A40     		and	r2, r1
 268 0010 1A60     		str	r2, [r3]
 370:Generated_Source\PSoC4/TCPWM_4.c **** 
 269              		.loc 1 370 0
 270 0012 1A68     		ldr	r2, [r3]
 271 0014 2243     		orr	r2, r4
 272 0016 1A60     		str	r2, [r3]
 372:Generated_Source\PSoC4/TCPWM_4.c **** }
 273              		.loc 1 372 0
 274 0018 FFF7FEFF 		bl	CyExitCriticalSection
 275              	.LVL16:
 276              	.LVL17:
 373:Generated_Source\PSoC4/TCPWM_4.c **** 
 277              		.loc 1 373 0
 278 001c 10BD     		pop	{r4, pc}
 279              	.L15:
 280 001e C046     		.align	2
 281              	.L14:
 282 0020 40010540 		.word	1074069824
 283 0024 FF00FFFF 		.word	-65281
 284              		.cfi_endproc
 285              	.LFE6:
 286              		.size	TCPWM_4_SetPrescaler, .-TCPWM_4_SetPrescaler
 287              		.section	.text.TCPWM_4_SetOneShot,"ax",%progbits
 288              		.align	1
ARM GAS  C:\Users\TECHCO~1\AppData\Local\Temp\cc9RpRiE.s 			page 30


 289              		.global	TCPWM_4_SetOneShot
 290              		.code	16
 291              		.thumb_func
 292              		.type	TCPWM_4_SetOneShot, %function
 293              	TCPWM_4_SetOneShot:
 294              	.LFB7:
 396:Generated_Source\PSoC4/TCPWM_4.c ****     uint8 enableInterrupts;
 295              		.loc 1 396 0
 296              		.cfi_startproc
 297              	.LVL18:
 298 0000 10B5     		push	{r4, lr}
 299              		.cfi_def_cfa_offset 8
 300              		.cfi_offset 4, -8
 301              		.cfi_offset 14, -4
 396:Generated_Source\PSoC4/TCPWM_4.c ****     uint8 enableInterrupts;
 302              		.loc 1 396 0
 303 0002 041C     		mov	r4, r0
 399:Generated_Source\PSoC4/TCPWM_4.c **** 
 304              		.loc 1 399 0
 305 0004 FFF7FEFF 		bl	CyEnterCriticalSection
 306              	.LVL19:
 401:Generated_Source\PSoC4/TCPWM_4.c ****     TCPWM_4_CONTROL_REG |= ((uint32)((oneShotEnable & TCPWM_4_1BIT_MASK) <<
 307              		.loc 1 401 0
 308 0008 064A     		ldr	r2, .L17
 309 000a 074B     		ldr	r3, .L17+4
 310 000c 1168     		ldr	r1, [r2]
 406:Generated_Source\PSoC4/TCPWM_4.c **** 
 311              		.loc 1 406 0
 312              		@ sp needed
 401:Generated_Source\PSoC4/TCPWM_4.c ****     TCPWM_4_CONTROL_REG |= ((uint32)((oneShotEnable & TCPWM_4_1BIT_MASK) <<
 313              		.loc 1 401 0
 314 000e 0B40     		and	r3, r1
 315 0010 1360     		str	r3, [r2]
 402:Generated_Source\PSoC4/TCPWM_4.c ****                                                                TCPWM_4_ONESHOT_SHIFT));
 316              		.loc 1 402 0
 317 0012 0123     		mov	r3, #1
 318 0014 1168     		ldr	r1, [r2]
 319 0016 2340     		and	r3, r4
 320 0018 9B04     		lsl	r3, r3, #18
 321 001a 0B43     		orr	r3, r1
 322 001c 1360     		str	r3, [r2]
 405:Generated_Source\PSoC4/TCPWM_4.c **** }
 323              		.loc 1 405 0
 324 001e FFF7FEFF 		bl	CyExitCriticalSection
 325              	.LVL20:
 326              	.LVL21:
 406:Generated_Source\PSoC4/TCPWM_4.c **** 
 327              		.loc 1 406 0
 328 0022 10BD     		pop	{r4, pc}
 329              	.L18:
 330              		.align	2
 331              	.L17:
 332 0024 40010540 		.word	1074069824
 333 0028 FFFFFBFF 		.word	-262145
 334              		.cfi_endproc
 335              	.LFE7:
 336              		.size	TCPWM_4_SetOneShot, .-TCPWM_4_SetOneShot
ARM GAS  C:\Users\TECHCO~1\AppData\Local\Temp\cc9RpRiE.s 			page 31


 337              		.section	.text.TCPWM_4_SetPWMMode,"ax",%progbits
 338              		.align	1
 339              		.global	TCPWM_4_SetPWMMode
 340              		.code	16
 341              		.thumb_func
 342              		.type	TCPWM_4_SetPWMMode, %function
 343              	TCPWM_4_SetPWMMode:
 344              	.LFB8:
 450:Generated_Source\PSoC4/TCPWM_4.c ****     TCPWM_4_TRIG_CONTROL2_REG = (modeMask & TCPWM_4_6BIT_MASK);
 345              		.loc 1 450 0
 346              		.cfi_startproc
 347              	.LVL22:
 451:Generated_Source\PSoC4/TCPWM_4.c **** }
 348              		.loc 1 451 0
 349 0000 3F23     		mov	r3, #63
 350 0002 1840     		and	r0, r3
 351              	.LVL23:
 352 0004 014B     		ldr	r3, .L20
 452:Generated_Source\PSoC4/TCPWM_4.c **** 
 353              		.loc 1 452 0
 354              		@ sp needed
 451:Generated_Source\PSoC4/TCPWM_4.c **** }
 355              		.loc 1 451 0
 356 0006 1860     		str	r0, [r3]
 452:Generated_Source\PSoC4/TCPWM_4.c **** 
 357              		.loc 1 452 0
 358 0008 7047     		bx	lr
 359              	.L21:
 360 000a C046     		.align	2
 361              	.L20:
 362 000c 68010540 		.word	1074069864
 363              		.cfi_endproc
 364              	.LFE8:
 365              		.size	TCPWM_4_SetPWMMode, .-TCPWM_4_SetPWMMode
 366              		.section	.text.TCPWM_4_SetPWMSyncKill,"ax",%progbits
 367              		.align	1
 368              		.global	TCPWM_4_SetPWMSyncKill
 369              		.code	16
 370              		.thumb_func
 371              		.type	TCPWM_4_SetPWMSyncKill, %function
 372              	TCPWM_4_SetPWMSyncKill:
 373              	.LFB9:
 486:Generated_Source\PSoC4/TCPWM_4.c ****     uint8 enableInterrupts;
 374              		.loc 1 486 0
 375              		.cfi_startproc
 376              	.LVL24:
 377 0000 10B5     		push	{r4, lr}
 378              		.cfi_def_cfa_offset 8
 379              		.cfi_offset 4, -8
 380              		.cfi_offset 14, -4
 486:Generated_Source\PSoC4/TCPWM_4.c ****     uint8 enableInterrupts;
 381              		.loc 1 486 0
 382 0002 041C     		mov	r4, r0
 489:Generated_Source\PSoC4/TCPWM_4.c **** 
 383              		.loc 1 489 0
 384 0004 FFF7FEFF 		bl	CyEnterCriticalSection
 385              	.LVL25:
ARM GAS  C:\Users\TECHCO~1\AppData\Local\Temp\cc9RpRiE.s 			page 32


 491:Generated_Source\PSoC4/TCPWM_4.c ****     TCPWM_4_CONTROL_REG |= ((uint32)((syncKillEnable & TCPWM_4_1BIT_MASK)  <<
 386              		.loc 1 491 0
 387 0008 0421     		mov	r1, #4
 388 000a 064A     		ldr	r2, .L23
 496:Generated_Source\PSoC4/TCPWM_4.c **** 
 389              		.loc 1 496 0
 390              		@ sp needed
 491:Generated_Source\PSoC4/TCPWM_4.c ****     TCPWM_4_CONTROL_REG |= ((uint32)((syncKillEnable & TCPWM_4_1BIT_MASK)  <<
 391              		.loc 1 491 0
 392 000c 1368     		ldr	r3, [r2]
 393 000e 8B43     		bic	r3, r1
 394 0010 1360     		str	r3, [r2]
 492:Generated_Source\PSoC4/TCPWM_4.c ****                                                TCPWM_4_PWM_SYNC_KILL_SHIFT));
 395              		.loc 1 492 0
 396 0012 0123     		mov	r3, #1
 397 0014 1168     		ldr	r1, [r2]
 398 0016 2340     		and	r3, r4
 399 0018 9B00     		lsl	r3, r3, #2
 400 001a 0B43     		orr	r3, r1
 401 001c 1360     		str	r3, [r2]
 495:Generated_Source\PSoC4/TCPWM_4.c **** }
 402              		.loc 1 495 0
 403 001e FFF7FEFF 		bl	CyExitCriticalSection
 404              	.LVL26:
 405              	.LVL27:
 496:Generated_Source\PSoC4/TCPWM_4.c **** 
 406              		.loc 1 496 0
 407 0022 10BD     		pop	{r4, pc}
 408              	.L24:
 409              		.align	2
 410              	.L23:
 411 0024 40010540 		.word	1074069824
 412              		.cfi_endproc
 413              	.LFE9:
 414              		.size	TCPWM_4_SetPWMSyncKill, .-TCPWM_4_SetPWMSyncKill
 415              		.section	.text.TCPWM_4_SetPWMStopOnKill,"ax",%progbits
 416              		.align	1
 417              		.global	TCPWM_4_SetPWMStopOnKill
 418              		.code	16
 419              		.thumb_func
 420              		.type	TCPWM_4_SetPWMStopOnKill, %function
 421              	TCPWM_4_SetPWMStopOnKill:
 422              	.LFB10:
 520:Generated_Source\PSoC4/TCPWM_4.c ****     uint8 enableInterrupts;
 423              		.loc 1 520 0
 424              		.cfi_startproc
 425              	.LVL28:
 426 0000 10B5     		push	{r4, lr}
 427              		.cfi_def_cfa_offset 8
 428              		.cfi_offset 4, -8
 429              		.cfi_offset 14, -4
 520:Generated_Source\PSoC4/TCPWM_4.c ****     uint8 enableInterrupts;
 430              		.loc 1 520 0
 431 0002 041C     		mov	r4, r0
 523:Generated_Source\PSoC4/TCPWM_4.c **** 
 432              		.loc 1 523 0
 433 0004 FFF7FEFF 		bl	CyEnterCriticalSection
ARM GAS  C:\Users\TECHCO~1\AppData\Local\Temp\cc9RpRiE.s 			page 33


 434              	.LVL29:
 525:Generated_Source\PSoC4/TCPWM_4.c ****     TCPWM_4_CONTROL_REG |= ((uint32)((stopOnKillEnable & TCPWM_4_1BIT_MASK)  <<
 435              		.loc 1 525 0
 436 0008 0821     		mov	r1, #8
 437 000a 064A     		ldr	r2, .L26
 530:Generated_Source\PSoC4/TCPWM_4.c **** 
 438              		.loc 1 530 0
 439              		@ sp needed
 525:Generated_Source\PSoC4/TCPWM_4.c ****     TCPWM_4_CONTROL_REG |= ((uint32)((stopOnKillEnable & TCPWM_4_1BIT_MASK)  <<
 440              		.loc 1 525 0
 441 000c 1368     		ldr	r3, [r2]
 442 000e 8B43     		bic	r3, r1
 443 0010 1360     		str	r3, [r2]
 526:Generated_Source\PSoC4/TCPWM_4.c ****                                                          TCPWM_4_PWM_STOP_KILL_SHIFT));
 444              		.loc 1 526 0
 445 0012 0123     		mov	r3, #1
 446 0014 1168     		ldr	r1, [r2]
 447 0016 2340     		and	r3, r4
 448 0018 DB00     		lsl	r3, r3, #3
 449 001a 0B43     		orr	r3, r1
 450 001c 1360     		str	r3, [r2]
 529:Generated_Source\PSoC4/TCPWM_4.c **** }
 451              		.loc 1 529 0
 452 001e FFF7FEFF 		bl	CyExitCriticalSection
 453              	.LVL30:
 454              	.LVL31:
 530:Generated_Source\PSoC4/TCPWM_4.c **** 
 455              		.loc 1 530 0
 456 0022 10BD     		pop	{r4, pc}
 457              	.L27:
 458              		.align	2
 459              	.L26:
 460 0024 40010540 		.word	1074069824
 461              		.cfi_endproc
 462              	.LFE10:
 463              		.size	TCPWM_4_SetPWMStopOnKill, .-TCPWM_4_SetPWMStopOnKill
 464              		.section	.text.TCPWM_4_SetPWMDeadTime,"ax",%progbits
 465              		.align	1
 466              		.global	TCPWM_4_SetPWMDeadTime
 467              		.code	16
 468              		.thumb_func
 469              		.type	TCPWM_4_SetPWMDeadTime, %function
 470              	TCPWM_4_SetPWMDeadTime:
 471              	.LFB11:
 553:Generated_Source\PSoC4/TCPWM_4.c ****     uint8 enableInterrupts;
 472              		.loc 1 553 0
 473              		.cfi_startproc
 474              	.LVL32:
 475 0000 10B5     		push	{r4, lr}
 476              		.cfi_def_cfa_offset 8
 477              		.cfi_offset 4, -8
 478              		.cfi_offset 14, -4
 553:Generated_Source\PSoC4/TCPWM_4.c ****     uint8 enableInterrupts;
 479              		.loc 1 553 0
 480 0002 041C     		mov	r4, r0
 556:Generated_Source\PSoC4/TCPWM_4.c **** 
 481              		.loc 1 556 0
ARM GAS  C:\Users\TECHCO~1\AppData\Local\Temp\cc9RpRiE.s 			page 34


 482 0004 FFF7FEFF 		bl	CyEnterCriticalSection
 483              	.LVL33:
 558:Generated_Source\PSoC4/TCPWM_4.c ****     TCPWM_4_CONTROL_REG |= ((uint32)((deadTime & TCPWM_4_8BIT_MASK) <<
 484              		.loc 1 558 0
 485 0008 064B     		ldr	r3, .L29
 486 000a 074A     		ldr	r2, .L29+4
 487 000c 1968     		ldr	r1, [r3]
 559:Generated_Source\PSoC4/TCPWM_4.c ****                                                           TCPWM_4_PRESCALER_SHIFT));
 488              		.loc 1 559 0
 489 000e 2406     		lsl	r4, r4, #24
 490              	.LVL34:
 558:Generated_Source\PSoC4/TCPWM_4.c ****     TCPWM_4_CONTROL_REG |= ((uint32)((deadTime & TCPWM_4_8BIT_MASK) <<
 491              		.loc 1 558 0
 492 0010 0A40     		and	r2, r1
 493 0012 1A60     		str	r2, [r3]
 559:Generated_Source\PSoC4/TCPWM_4.c ****                                                           TCPWM_4_PRESCALER_SHIFT));
 494              		.loc 1 559 0
 495 0014 1A68     		ldr	r2, [r3]
 496 0016 240C     		lsr	r4, r4, #16
 497 0018 1443     		orr	r4, r2
 498 001a 1C60     		str	r4, [r3]
 562:Generated_Source\PSoC4/TCPWM_4.c **** }
 499              		.loc 1 562 0
 500 001c FFF7FEFF 		bl	CyExitCriticalSection
 501              	.LVL35:
 563:Generated_Source\PSoC4/TCPWM_4.c **** 
 502              		.loc 1 563 0
 503              		@ sp needed
 504 0020 10BD     		pop	{r4, pc}
 505              	.L30:
 506 0022 C046     		.align	2
 507              	.L29:
 508 0024 40010540 		.word	1074069824
 509 0028 FF00FFFF 		.word	-65281
 510              		.cfi_endproc
 511              	.LFE11:
 512              		.size	TCPWM_4_SetPWMDeadTime, .-TCPWM_4_SetPWMDeadTime
 513              		.section	.text.TCPWM_4_SetPWMInvert,"ax",%progbits
 514              		.align	1
 515              		.global	TCPWM_4_SetPWMInvert
 516              		.code	16
 517              		.thumb_func
 518              		.type	TCPWM_4_SetPWMInvert, %function
 519              	TCPWM_4_SetPWMInvert:
 520              	.LFB12:
 586:Generated_Source\PSoC4/TCPWM_4.c ****     uint8 enableInterrupts;
 521              		.loc 1 586 0
 522              		.cfi_startproc
 523              	.LVL36:
 524 0000 10B5     		push	{r4, lr}
 525              		.cfi_def_cfa_offset 8
 526              		.cfi_offset 4, -8
 527              		.cfi_offset 14, -4
 586:Generated_Source\PSoC4/TCPWM_4.c ****     uint8 enableInterrupts;
 528              		.loc 1 586 0
 529 0002 041C     		mov	r4, r0
 589:Generated_Source\PSoC4/TCPWM_4.c **** 
ARM GAS  C:\Users\TECHCO~1\AppData\Local\Temp\cc9RpRiE.s 			page 35


 530              		.loc 1 589 0
 531 0004 FFF7FEFF 		bl	CyEnterCriticalSection
 532              	.LVL37:
 591:Generated_Source\PSoC4/TCPWM_4.c ****     TCPWM_4_CONTROL_REG |= mask;
 533              		.loc 1 591 0
 534 0008 054B     		ldr	r3, .L32
 535 000a 064A     		ldr	r2, .L32+4
 536 000c 1968     		ldr	r1, [r3]
 595:Generated_Source\PSoC4/TCPWM_4.c **** 
 537              		.loc 1 595 0
 538              		@ sp needed
 591:Generated_Source\PSoC4/TCPWM_4.c ****     TCPWM_4_CONTROL_REG |= mask;
 539              		.loc 1 591 0
 540 000e 0A40     		and	r2, r1
 541 0010 1A60     		str	r2, [r3]
 592:Generated_Source\PSoC4/TCPWM_4.c **** 
 542              		.loc 1 592 0
 543 0012 1A68     		ldr	r2, [r3]
 544 0014 2243     		orr	r2, r4
 545 0016 1A60     		str	r2, [r3]
 594:Generated_Source\PSoC4/TCPWM_4.c **** }
 546              		.loc 1 594 0
 547 0018 FFF7FEFF 		bl	CyExitCriticalSection
 548              	.LVL38:
 549              	.LVL39:
 595:Generated_Source\PSoC4/TCPWM_4.c **** 
 550              		.loc 1 595 0
 551 001c 10BD     		pop	{r4, pc}
 552              	.L33:
 553 001e C046     		.align	2
 554              	.L32:
 555 0020 40010540 		.word	1074069824
 556 0024 FFFFCFFF 		.word	-3145729
 557              		.cfi_endproc
 558              	.LFE12:
 559              		.size	TCPWM_4_SetPWMInvert, .-TCPWM_4_SetPWMInvert
 560              		.section	.text.TCPWM_4_WriteCounter,"ax",%progbits
 561              		.align	1
 562              		.global	TCPWM_4_WriteCounter
 563              		.code	16
 564              		.thumb_func
 565              		.type	TCPWM_4_WriteCounter, %function
 566              	TCPWM_4_WriteCounter:
 567              	.LFB13:
 616:Generated_Source\PSoC4/TCPWM_4.c ****     TCPWM_4_COUNTER_REG = (count & TCPWM_4_16BIT_MASK);
 568              		.loc 1 616 0
 569              		.cfi_startproc
 570              	.LVL40:
 617:Generated_Source\PSoC4/TCPWM_4.c **** }
 571              		.loc 1 617 0
 572 0000 014B     		ldr	r3, .L35
 573 0002 80B2     		uxth	r0, r0
 574              	.LVL41:
 575 0004 1860     		str	r0, [r3]
 618:Generated_Source\PSoC4/TCPWM_4.c **** 
 576              		.loc 1 618 0
 577              		@ sp needed
ARM GAS  C:\Users\TECHCO~1\AppData\Local\Temp\cc9RpRiE.s 			page 36


 578 0006 7047     		bx	lr
 579              	.L36:
 580              		.align	2
 581              	.L35:
 582 0008 48010540 		.word	1074069832
 583              		.cfi_endproc
 584              	.LFE13:
 585              		.size	TCPWM_4_WriteCounter, .-TCPWM_4_WriteCounter
 586              		.section	.text.TCPWM_4_ReadCounter,"ax",%progbits
 587              		.align	1
 588              		.global	TCPWM_4_ReadCounter
 589              		.code	16
 590              		.thumb_func
 591              		.type	TCPWM_4_ReadCounter, %function
 592              	TCPWM_4_ReadCounter:
 593              	.LFB14:
 636:Generated_Source\PSoC4/TCPWM_4.c ****     return (TCPWM_4_COUNTER_REG & TCPWM_4_16BIT_MASK);
 594              		.loc 1 636 0
 595              		.cfi_startproc
 637:Generated_Source\PSoC4/TCPWM_4.c **** }
 596              		.loc 1 637 0
 597 0000 014B     		ldr	r3, .L38
 638:Generated_Source\PSoC4/TCPWM_4.c **** 
 598              		.loc 1 638 0
 599              		@ sp needed
 637:Generated_Source\PSoC4/TCPWM_4.c **** }
 600              		.loc 1 637 0
 601 0002 1868     		ldr	r0, [r3]
 602 0004 80B2     		uxth	r0, r0
 638:Generated_Source\PSoC4/TCPWM_4.c **** 
 603              		.loc 1 638 0
 604 0006 7047     		bx	lr
 605              	.L39:
 606              		.align	2
 607              	.L38:
 608 0008 48010540 		.word	1074069832
 609              		.cfi_endproc
 610              	.LFE14:
 611              		.size	TCPWM_4_ReadCounter, .-TCPWM_4_ReadCounter
 612              		.section	.text.TCPWM_4_SetCounterMode,"ax",%progbits
 613              		.align	1
 614              		.global	TCPWM_4_SetCounterMode
 615              		.code	16
 616              		.thumb_func
 617              		.type	TCPWM_4_SetCounterMode, %function
 618              	TCPWM_4_SetCounterMode:
 619              	.LFB15:
 665:Generated_Source\PSoC4/TCPWM_4.c ****     uint8 enableInterrupts;
 620              		.loc 1 665 0
 621              		.cfi_startproc
 622              	.LVL42:
 623 0000 10B5     		push	{r4, lr}
 624              		.cfi_def_cfa_offset 8
 625              		.cfi_offset 4, -8
 626              		.cfi_offset 14, -4
 665:Generated_Source\PSoC4/TCPWM_4.c ****     uint8 enableInterrupts;
 627              		.loc 1 665 0
ARM GAS  C:\Users\TECHCO~1\AppData\Local\Temp\cc9RpRiE.s 			page 37


 628 0002 041C     		mov	r4, r0
 668:Generated_Source\PSoC4/TCPWM_4.c **** 
 629              		.loc 1 668 0
 630 0004 FFF7FEFF 		bl	CyEnterCriticalSection
 631              	.LVL43:
 670:Generated_Source\PSoC4/TCPWM_4.c ****     TCPWM_4_CONTROL_REG |= counterMode;
 632              		.loc 1 670 0
 633 0008 054B     		ldr	r3, .L41
 634 000a 064A     		ldr	r2, .L41+4
 635 000c 1968     		ldr	r1, [r3]
 674:Generated_Source\PSoC4/TCPWM_4.c **** 
 636              		.loc 1 674 0
 637              		@ sp needed
 670:Generated_Source\PSoC4/TCPWM_4.c ****     TCPWM_4_CONTROL_REG |= counterMode;
 638              		.loc 1 670 0
 639 000e 0A40     		and	r2, r1
 640 0010 1A60     		str	r2, [r3]
 671:Generated_Source\PSoC4/TCPWM_4.c **** 
 641              		.loc 1 671 0
 642 0012 1A68     		ldr	r2, [r3]
 643 0014 2243     		orr	r2, r4
 644 0016 1A60     		str	r2, [r3]
 673:Generated_Source\PSoC4/TCPWM_4.c **** }
 645              		.loc 1 673 0
 646 0018 FFF7FEFF 		bl	CyExitCriticalSection
 647              	.LVL44:
 648              	.LVL45:
 674:Generated_Source\PSoC4/TCPWM_4.c **** 
 649              		.loc 1 674 0
 650 001c 10BD     		pop	{r4, pc}
 651              	.L42:
 652 001e C046     		.align	2
 653              	.L41:
 654 0020 40010540 		.word	1074069824
 655 0024 FFFFFCFF 		.word	-196609
 656              		.cfi_endproc
 657              	.LFE15:
 658              		.size	TCPWM_4_SetCounterMode, .-TCPWM_4_SetCounterMode
 659              		.section	.text.TCPWM_4_WritePeriod,"ax",%progbits
 660              		.align	1
 661              		.global	TCPWM_4_WritePeriod
 662              		.code	16
 663              		.thumb_func
 664              		.type	TCPWM_4_WritePeriod, %function
 665              	TCPWM_4_WritePeriod:
 666              	.LFB16:
 694:Generated_Source\PSoC4/TCPWM_4.c ****     TCPWM_4_PERIOD_REG = (period & TCPWM_4_16BIT_MASK);
 667              		.loc 1 694 0
 668              		.cfi_startproc
 669              	.LVL46:
 695:Generated_Source\PSoC4/TCPWM_4.c **** }
 670              		.loc 1 695 0
 671 0000 014B     		ldr	r3, .L44
 672 0002 80B2     		uxth	r0, r0
 673              	.LVL47:
 674 0004 1860     		str	r0, [r3]
 696:Generated_Source\PSoC4/TCPWM_4.c **** 
ARM GAS  C:\Users\TECHCO~1\AppData\Local\Temp\cc9RpRiE.s 			page 38


 675              		.loc 1 696 0
 676              		@ sp needed
 677 0006 7047     		bx	lr
 678              	.L45:
 679              		.align	2
 680              	.L44:
 681 0008 54010540 		.word	1074069844
 682              		.cfi_endproc
 683              	.LFE16:
 684              		.size	TCPWM_4_WritePeriod, .-TCPWM_4_WritePeriod
 685              		.section	.text.TCPWM_4_ReadPeriod,"ax",%progbits
 686              		.align	1
 687              		.global	TCPWM_4_ReadPeriod
 688              		.code	16
 689              		.thumb_func
 690              		.type	TCPWM_4_ReadPeriod, %function
 691              	TCPWM_4_ReadPeriod:
 692              	.LFB17:
 714:Generated_Source\PSoC4/TCPWM_4.c ****     return (TCPWM_4_PERIOD_REG & TCPWM_4_16BIT_MASK);
 693              		.loc 1 714 0
 694              		.cfi_startproc
 715:Generated_Source\PSoC4/TCPWM_4.c **** }
 695              		.loc 1 715 0
 696 0000 014B     		ldr	r3, .L47
 716:Generated_Source\PSoC4/TCPWM_4.c **** 
 697              		.loc 1 716 0
 698              		@ sp needed
 715:Generated_Source\PSoC4/TCPWM_4.c **** }
 699              		.loc 1 715 0
 700 0002 1868     		ldr	r0, [r3]
 701 0004 80B2     		uxth	r0, r0
 716:Generated_Source\PSoC4/TCPWM_4.c **** 
 702              		.loc 1 716 0
 703 0006 7047     		bx	lr
 704              	.L48:
 705              		.align	2
 706              	.L47:
 707 0008 54010540 		.word	1074069844
 708              		.cfi_endproc
 709              	.LFE17:
 710              		.size	TCPWM_4_ReadPeriod, .-TCPWM_4_ReadPeriod
 711              		.section	.text.TCPWM_4_SetCompareSwap,"ax",%progbits
 712              		.align	1
 713              		.global	TCPWM_4_SetCompareSwap
 714              		.code	16
 715              		.thumb_func
 716              		.type	TCPWM_4_SetCompareSwap, %function
 717              	TCPWM_4_SetCompareSwap:
 718              	.LFB18:
 740:Generated_Source\PSoC4/TCPWM_4.c ****     uint8 enableInterrupts;
 719              		.loc 1 740 0
 720              		.cfi_startproc
 721              	.LVL48:
 722 0000 10B5     		push	{r4, lr}
 723              		.cfi_def_cfa_offset 8
 724              		.cfi_offset 4, -8
 725              		.cfi_offset 14, -4
ARM GAS  C:\Users\TECHCO~1\AppData\Local\Temp\cc9RpRiE.s 			page 39


 740:Generated_Source\PSoC4/TCPWM_4.c ****     uint8 enableInterrupts;
 726              		.loc 1 740 0
 727 0002 041C     		mov	r4, r0
 743:Generated_Source\PSoC4/TCPWM_4.c **** 
 728              		.loc 1 743 0
 729 0004 FFF7FEFF 		bl	CyEnterCriticalSection
 730              	.LVL49:
 745:Generated_Source\PSoC4/TCPWM_4.c ****     TCPWM_4_CONTROL_REG |= (swapEnable & TCPWM_4_1BIT_MASK);
 731              		.loc 1 745 0
 732 0008 0122     		mov	r2, #1
 733 000a 054B     		ldr	r3, .L50
 749:Generated_Source\PSoC4/TCPWM_4.c **** 
 734              		.loc 1 749 0
 735              		@ sp needed
 745:Generated_Source\PSoC4/TCPWM_4.c ****     TCPWM_4_CONTROL_REG |= (swapEnable & TCPWM_4_1BIT_MASK);
 736              		.loc 1 745 0
 737 000c 1968     		ldr	r1, [r3]
 738 000e 9143     		bic	r1, r2
 739 0010 1960     		str	r1, [r3]
 746:Generated_Source\PSoC4/TCPWM_4.c **** 
 740              		.loc 1 746 0
 741 0012 1968     		ldr	r1, [r3]
 742 0014 2240     		and	r2, r4
 743 0016 0A43     		orr	r2, r1
 744 0018 1A60     		str	r2, [r3]
 748:Generated_Source\PSoC4/TCPWM_4.c **** }
 745              		.loc 1 748 0
 746 001a FFF7FEFF 		bl	CyExitCriticalSection
 747              	.LVL50:
 748              	.LVL51:
 749:Generated_Source\PSoC4/TCPWM_4.c **** 
 749              		.loc 1 749 0
 750 001e 10BD     		pop	{r4, pc}
 751              	.L51:
 752              		.align	2
 753              	.L50:
 754 0020 40010540 		.word	1074069824
 755              		.cfi_endproc
 756              	.LFE18:
 757              		.size	TCPWM_4_SetCompareSwap, .-TCPWM_4_SetCompareSwap
 758              		.section	.text.TCPWM_4_WritePeriodBuf,"ax",%progbits
 759              		.align	1
 760              		.global	TCPWM_4_WritePeriodBuf
 761              		.code	16
 762              		.thumb_func
 763              		.type	TCPWM_4_WritePeriodBuf, %function
 764              	TCPWM_4_WritePeriodBuf:
 765              	.LFB19:
 767:Generated_Source\PSoC4/TCPWM_4.c ****     TCPWM_4_PERIOD_BUF_REG = (periodBuf & TCPWM_4_16BIT_MASK);
 766              		.loc 1 767 0
 767              		.cfi_startproc
 768              	.LVL52:
 768:Generated_Source\PSoC4/TCPWM_4.c **** }
 769              		.loc 1 768 0
 770 0000 014B     		ldr	r3, .L53
 771 0002 80B2     		uxth	r0, r0
 772              	.LVL53:
ARM GAS  C:\Users\TECHCO~1\AppData\Local\Temp\cc9RpRiE.s 			page 40


 773 0004 1860     		str	r0, [r3]
 769:Generated_Source\PSoC4/TCPWM_4.c **** 
 774              		.loc 1 769 0
 775              		@ sp needed
 776 0006 7047     		bx	lr
 777              	.L54:
 778              		.align	2
 779              	.L53:
 780 0008 58010540 		.word	1074069848
 781              		.cfi_endproc
 782              	.LFE19:
 783              		.size	TCPWM_4_WritePeriodBuf, .-TCPWM_4_WritePeriodBuf
 784              		.section	.text.TCPWM_4_ReadPeriodBuf,"ax",%progbits
 785              		.align	1
 786              		.global	TCPWM_4_ReadPeriodBuf
 787              		.code	16
 788              		.thumb_func
 789              		.type	TCPWM_4_ReadPeriodBuf, %function
 790              	TCPWM_4_ReadPeriodBuf:
 791              	.LFB20:
 787:Generated_Source\PSoC4/TCPWM_4.c ****     return (TCPWM_4_PERIOD_BUF_REG & TCPWM_4_16BIT_MASK);
 792              		.loc 1 787 0
 793              		.cfi_startproc
 788:Generated_Source\PSoC4/TCPWM_4.c **** }
 794              		.loc 1 788 0
 795 0000 014B     		ldr	r3, .L56
 789:Generated_Source\PSoC4/TCPWM_4.c **** 
 796              		.loc 1 789 0
 797              		@ sp needed
 788:Generated_Source\PSoC4/TCPWM_4.c **** }
 798              		.loc 1 788 0
 799 0002 1868     		ldr	r0, [r3]
 800 0004 80B2     		uxth	r0, r0
 789:Generated_Source\PSoC4/TCPWM_4.c **** 
 801              		.loc 1 789 0
 802 0006 7047     		bx	lr
 803              	.L57:
 804              		.align	2
 805              	.L56:
 806 0008 58010540 		.word	1074069848
 807              		.cfi_endproc
 808              	.LFE20:
 809              		.size	TCPWM_4_ReadPeriodBuf, .-TCPWM_4_ReadPeriodBuf
 810              		.section	.text.TCPWM_4_SetPeriodSwap,"ax",%progbits
 811              		.align	1
 812              		.global	TCPWM_4_SetPeriodSwap
 813              		.code	16
 814              		.thumb_func
 815              		.type	TCPWM_4_SetPeriodSwap, %function
 816              	TCPWM_4_SetPeriodSwap:
 817              	.LFB21:
 813:Generated_Source\PSoC4/TCPWM_4.c ****     uint8 enableInterrupts;
 818              		.loc 1 813 0
 819              		.cfi_startproc
 820              	.LVL54:
 821 0000 10B5     		push	{r4, lr}
 822              		.cfi_def_cfa_offset 8
ARM GAS  C:\Users\TECHCO~1\AppData\Local\Temp\cc9RpRiE.s 			page 41


 823              		.cfi_offset 4, -8
 824              		.cfi_offset 14, -4
 813:Generated_Source\PSoC4/TCPWM_4.c ****     uint8 enableInterrupts;
 825              		.loc 1 813 0
 826 0002 041C     		mov	r4, r0
 816:Generated_Source\PSoC4/TCPWM_4.c **** 
 827              		.loc 1 816 0
 828 0004 FFF7FEFF 		bl	CyEnterCriticalSection
 829              	.LVL55:
 818:Generated_Source\PSoC4/TCPWM_4.c ****     TCPWM_4_CONTROL_REG |= ((uint32)((swapEnable & TCPWM_4_1BIT_MASK) <<
 830              		.loc 1 818 0
 831 0008 0221     		mov	r1, #2
 832 000a 064A     		ldr	r2, .L59
 823:Generated_Source\PSoC4/TCPWM_4.c **** 
 833              		.loc 1 823 0
 834              		@ sp needed
 818:Generated_Source\PSoC4/TCPWM_4.c ****     TCPWM_4_CONTROL_REG |= ((uint32)((swapEnable & TCPWM_4_1BIT_MASK) <<
 835              		.loc 1 818 0
 836 000c 1368     		ldr	r3, [r2]
 837 000e 8B43     		bic	r3, r1
 838 0010 1360     		str	r3, [r2]
 819:Generated_Source\PSoC4/TCPWM_4.c ****                                                             TCPWM_4_RELOAD_PERIOD_SHIFT));
 839              		.loc 1 819 0
 840 0012 0123     		mov	r3, #1
 841 0014 1168     		ldr	r1, [r2]
 842 0016 2340     		and	r3, r4
 843 0018 5B00     		lsl	r3, r3, #1
 844 001a 0B43     		orr	r3, r1
 845 001c 1360     		str	r3, [r2]
 822:Generated_Source\PSoC4/TCPWM_4.c **** }
 846              		.loc 1 822 0
 847 001e FFF7FEFF 		bl	CyExitCriticalSection
 848              	.LVL56:
 849              	.LVL57:
 823:Generated_Source\PSoC4/TCPWM_4.c **** 
 850              		.loc 1 823 0
 851 0022 10BD     		pop	{r4, pc}
 852              	.L60:
 853              		.align	2
 854              	.L59:
 855 0024 40010540 		.word	1074069824
 856              		.cfi_endproc
 857              	.LFE21:
 858              		.size	TCPWM_4_SetPeriodSwap, .-TCPWM_4_SetPeriodSwap
 859              		.section	.text.TCPWM_4_WriteCompare,"ax",%progbits
 860              		.align	1
 861              		.global	TCPWM_4_WriteCompare
 862              		.code	16
 863              		.thumb_func
 864              		.type	TCPWM_4_WriteCompare, %function
 865              	TCPWM_4_WriteCompare:
 866              	.LFB22:
 850:Generated_Source\PSoC4/TCPWM_4.c ****     #if (TCPWM_4_CY_TCPWM_4000)
 867              		.loc 1 850 0
 868              		.cfi_startproc
 869              	.LVL58:
 873:Generated_Source\PSoC4/TCPWM_4.c **** }
ARM GAS  C:\Users\TECHCO~1\AppData\Local\Temp\cc9RpRiE.s 			page 42


 870              		.loc 1 873 0
 871 0000 014B     		ldr	r3, .L62
 872 0002 80B2     		uxth	r0, r0
 873              	.LVL59:
 874 0004 1860     		str	r0, [r3]
 874:Generated_Source\PSoC4/TCPWM_4.c **** 
 875              		.loc 1 874 0
 876              		@ sp needed
 877 0006 7047     		bx	lr
 878              	.L63:
 879              		.align	2
 880              	.L62:
 881 0008 4C010540 		.word	1074069836
 882              		.cfi_endproc
 883              	.LFE22:
 884              		.size	TCPWM_4_WriteCompare, .-TCPWM_4_WriteCompare
 885              		.section	.text.TCPWM_4_ReadCompare,"ax",%progbits
 886              		.align	1
 887              		.global	TCPWM_4_ReadCompare
 888              		.code	16
 889              		.thumb_func
 890              		.type	TCPWM_4_ReadCompare, %function
 891              	TCPWM_4_ReadCompare:
 892              	.LFB23:
 901:Generated_Source\PSoC4/TCPWM_4.c ****     #if (TCPWM_4_CY_TCPWM_4000)
 893              		.loc 1 901 0
 894              		.cfi_startproc
 926:Generated_Source\PSoC4/TCPWM_4.c ****     #endif /* (TCPWM_4_CY_TCPWM_4000) */
 895              		.loc 1 926 0
 896 0000 014B     		ldr	r3, .L65
 928:Generated_Source\PSoC4/TCPWM_4.c **** 
 897              		.loc 1 928 0
 898              		@ sp needed
 926:Generated_Source\PSoC4/TCPWM_4.c ****     #endif /* (TCPWM_4_CY_TCPWM_4000) */
 899              		.loc 1 926 0
 900 0002 1868     		ldr	r0, [r3]
 901 0004 80B2     		uxth	r0, r0
 928:Generated_Source\PSoC4/TCPWM_4.c **** 
 902              		.loc 1 928 0
 903 0006 7047     		bx	lr
 904              	.L66:
 905              		.align	2
 906              	.L65:
 907 0008 4C010540 		.word	1074069836
 908              		.cfi_endproc
 909              	.LFE23:
 910              		.size	TCPWM_4_ReadCompare, .-TCPWM_4_ReadCompare
 911              		.section	.text.TCPWM_4_WriteCompareBuf,"ax",%progbits
 912              		.align	1
 913              		.global	TCPWM_4_WriteCompareBuf
 914              		.code	16
 915              		.thumb_func
 916              		.type	TCPWM_4_WriteCompareBuf, %function
 917              	TCPWM_4_WriteCompareBuf:
 918              	.LFB24:
 955:Generated_Source\PSoC4/TCPWM_4.c ****     #if (TCPWM_4_CY_TCPWM_4000)
 919              		.loc 1 955 0
ARM GAS  C:\Users\TECHCO~1\AppData\Local\Temp\cc9RpRiE.s 			page 43


 920              		.cfi_startproc
 921              	.LVL60:
 976:Generated_Source\PSoC4/TCPWM_4.c **** }
 922              		.loc 1 976 0
 923 0000 014B     		ldr	r3, .L68
 924 0002 80B2     		uxth	r0, r0
 925              	.LVL61:
 926 0004 1860     		str	r0, [r3]
 977:Generated_Source\PSoC4/TCPWM_4.c **** 
 927              		.loc 1 977 0
 928              		@ sp needed
 929 0006 7047     		bx	lr
 930              	.L69:
 931              		.align	2
 932              	.L68:
 933 0008 50010540 		.word	1074069840
 934              		.cfi_endproc
 935              	.LFE24:
 936              		.size	TCPWM_4_WriteCompareBuf, .-TCPWM_4_WriteCompareBuf
 937              		.section	.text.TCPWM_4_ReadCompareBuf,"ax",%progbits
 938              		.align	1
 939              		.global	TCPWM_4_ReadCompareBuf
 940              		.code	16
 941              		.thumb_func
 942              		.type	TCPWM_4_ReadCompareBuf, %function
 943              	TCPWM_4_ReadCompareBuf:
 944              	.LFB25:
1001:Generated_Source\PSoC4/TCPWM_4.c ****     #if (TCPWM_4_CY_TCPWM_4000)
 945              		.loc 1 1001 0
 946              		.cfi_startproc
1026:Generated_Source\PSoC4/TCPWM_4.c ****     #endif /* (TCPWM_4_CY_TCPWM_4000) */
 947              		.loc 1 1026 0
 948 0000 014B     		ldr	r3, .L71
1028:Generated_Source\PSoC4/TCPWM_4.c **** 
 949              		.loc 1 1028 0
 950              		@ sp needed
1026:Generated_Source\PSoC4/TCPWM_4.c ****     #endif /* (TCPWM_4_CY_TCPWM_4000) */
 951              		.loc 1 1026 0
 952 0002 1868     		ldr	r0, [r3]
 953 0004 80B2     		uxth	r0, r0
1028:Generated_Source\PSoC4/TCPWM_4.c **** 
 954              		.loc 1 1028 0
 955 0006 7047     		bx	lr
 956              	.L72:
 957              		.align	2
 958              	.L71:
 959 0008 50010540 		.word	1074069840
 960              		.cfi_endproc
 961              	.LFE25:
 962              		.size	TCPWM_4_ReadCompareBuf, .-TCPWM_4_ReadCompareBuf
 963              		.section	.text.TCPWM_4_ReadCapture,"ax",%progbits
 964              		.align	1
 965              		.global	TCPWM_4_ReadCapture
 966              		.code	16
 967              		.thumb_func
 968              		.type	TCPWM_4_ReadCapture, %function
 969              	TCPWM_4_ReadCapture:
ARM GAS  C:\Users\TECHCO~1\AppData\Local\Temp\cc9RpRiE.s 			page 44


 970              	.LFB26:
1047:Generated_Source\PSoC4/TCPWM_4.c ****     return (TCPWM_4_COMP_CAP_REG & TCPWM_4_16BIT_MASK);
 971              		.loc 1 1047 0
 972              		.cfi_startproc
1048:Generated_Source\PSoC4/TCPWM_4.c **** }
 973              		.loc 1 1048 0
 974 0000 014B     		ldr	r3, .L74
1049:Generated_Source\PSoC4/TCPWM_4.c **** 
 975              		.loc 1 1049 0
 976              		@ sp needed
1048:Generated_Source\PSoC4/TCPWM_4.c **** }
 977              		.loc 1 1048 0
 978 0002 1868     		ldr	r0, [r3]
 979 0004 80B2     		uxth	r0, r0
1049:Generated_Source\PSoC4/TCPWM_4.c **** 
 980              		.loc 1 1049 0
 981 0006 7047     		bx	lr
 982              	.L75:
 983              		.align	2
 984              	.L74:
 985 0008 4C010540 		.word	1074069836
 986              		.cfi_endproc
 987              	.LFE26:
 988              		.size	TCPWM_4_ReadCapture, .-TCPWM_4_ReadCapture
 989              		.section	.text.TCPWM_4_ReadCaptureBuf,"ax",%progbits
 990              		.align	1
 991              		.global	TCPWM_4_ReadCaptureBuf
 992              		.code	16
 993              		.thumb_func
 994              		.type	TCPWM_4_ReadCaptureBuf, %function
 995              	TCPWM_4_ReadCaptureBuf:
 996              	.LFB27:
1068:Generated_Source\PSoC4/TCPWM_4.c ****     return (TCPWM_4_COMP_CAP_BUF_REG & TCPWM_4_16BIT_MASK);
 997              		.loc 1 1068 0
 998              		.cfi_startproc
1069:Generated_Source\PSoC4/TCPWM_4.c **** }
 999              		.loc 1 1069 0
 1000 0000 014B     		ldr	r3, .L77
1070:Generated_Source\PSoC4/TCPWM_4.c **** 
 1001              		.loc 1 1070 0
 1002              		@ sp needed
1069:Generated_Source\PSoC4/TCPWM_4.c **** }
 1003              		.loc 1 1069 0
 1004 0002 1868     		ldr	r0, [r3]
 1005 0004 80B2     		uxth	r0, r0
1070:Generated_Source\PSoC4/TCPWM_4.c **** 
 1006              		.loc 1 1070 0
 1007 0006 7047     		bx	lr
 1008              	.L78:
 1009              		.align	2
 1010              	.L77:
 1011 0008 50010540 		.word	1074069840
 1012              		.cfi_endproc
 1013              	.LFE27:
 1014              		.size	TCPWM_4_ReadCaptureBuf, .-TCPWM_4_ReadCaptureBuf
 1015              		.section	.text.TCPWM_4_SetCaptureMode,"ax",%progbits
 1016              		.align	1
ARM GAS  C:\Users\TECHCO~1\AppData\Local\Temp\cc9RpRiE.s 			page 45


 1017              		.global	TCPWM_4_SetCaptureMode
 1018              		.code	16
 1019              		.thumb_func
 1020              		.type	TCPWM_4_SetCaptureMode, %function
 1021              	TCPWM_4_SetCaptureMode:
 1022              	.LFB28:
1095:Generated_Source\PSoC4/TCPWM_4.c ****     uint8 enableInterrupts;
 1023              		.loc 1 1095 0
 1024              		.cfi_startproc
 1025              	.LVL62:
 1026 0000 10B5     		push	{r4, lr}
 1027              		.cfi_def_cfa_offset 8
 1028              		.cfi_offset 4, -8
 1029              		.cfi_offset 14, -4
1095:Generated_Source\PSoC4/TCPWM_4.c ****     uint8 enableInterrupts;
 1030              		.loc 1 1095 0
 1031 0002 041C     		mov	r4, r0
1098:Generated_Source\PSoC4/TCPWM_4.c **** 
 1032              		.loc 1 1098 0
 1033 0004 FFF7FEFF 		bl	CyEnterCriticalSection
 1034              	.LVL63:
1100:Generated_Source\PSoC4/TCPWM_4.c ****     TCPWM_4_TRIG_CONTROL1_REG |= triggerMode;
 1035              		.loc 1 1100 0
 1036 0008 0321     		mov	r1, #3
 1037 000a 054B     		ldr	r3, .L80
1104:Generated_Source\PSoC4/TCPWM_4.c **** 
 1038              		.loc 1 1104 0
 1039              		@ sp needed
1100:Generated_Source\PSoC4/TCPWM_4.c ****     TCPWM_4_TRIG_CONTROL1_REG |= triggerMode;
 1040              		.loc 1 1100 0
 1041 000c 1A68     		ldr	r2, [r3]
 1042 000e 8A43     		bic	r2, r1
 1043 0010 1A60     		str	r2, [r3]
1101:Generated_Source\PSoC4/TCPWM_4.c **** 
 1044              		.loc 1 1101 0
 1045 0012 1A68     		ldr	r2, [r3]
 1046 0014 2243     		orr	r2, r4
 1047 0016 1A60     		str	r2, [r3]
1103:Generated_Source\PSoC4/TCPWM_4.c **** }
 1048              		.loc 1 1103 0
 1049 0018 FFF7FEFF 		bl	CyExitCriticalSection
 1050              	.LVL64:
 1051              	.LVL65:
1104:Generated_Source\PSoC4/TCPWM_4.c **** 
 1052              		.loc 1 1104 0
 1053 001c 10BD     		pop	{r4, pc}
 1054              	.L81:
 1055 001e C046     		.align	2
 1056              	.L80:
 1057 0020 64010540 		.word	1074069860
 1058              		.cfi_endproc
 1059              	.LFE28:
 1060              		.size	TCPWM_4_SetCaptureMode, .-TCPWM_4_SetCaptureMode
 1061              		.section	.text.TCPWM_4_SetReloadMode,"ax",%progbits
 1062              		.align	1
 1063              		.global	TCPWM_4_SetReloadMode
 1064              		.code	16
ARM GAS  C:\Users\TECHCO~1\AppData\Local\Temp\cc9RpRiE.s 			page 46


 1065              		.thumb_func
 1066              		.type	TCPWM_4_SetReloadMode, %function
 1067              	TCPWM_4_SetReloadMode:
 1068              	.LFB29:
1128:Generated_Source\PSoC4/TCPWM_4.c ****     uint8 enableInterrupts;
 1069              		.loc 1 1128 0
 1070              		.cfi_startproc
 1071              	.LVL66:
 1072 0000 10B5     		push	{r4, lr}
 1073              		.cfi_def_cfa_offset 8
 1074              		.cfi_offset 4, -8
 1075              		.cfi_offset 14, -4
1128:Generated_Source\PSoC4/TCPWM_4.c ****     uint8 enableInterrupts;
 1076              		.loc 1 1128 0
 1077 0002 041C     		mov	r4, r0
1131:Generated_Source\PSoC4/TCPWM_4.c **** 
 1078              		.loc 1 1131 0
 1079 0004 FFF7FEFF 		bl	CyEnterCriticalSection
 1080              	.LVL67:
1133:Generated_Source\PSoC4/TCPWM_4.c ****     TCPWM_4_TRIG_CONTROL1_REG |= ((uint32)(triggerMode << TCPWM_4_RELOAD_SHIFT));
 1081              		.loc 1 1133 0
 1082 0008 3021     		mov	r1, #48
 1083 000a 054B     		ldr	r3, .L83
1137:Generated_Source\PSoC4/TCPWM_4.c **** 
 1084              		.loc 1 1137 0
 1085              		@ sp needed
1133:Generated_Source\PSoC4/TCPWM_4.c ****     TCPWM_4_TRIG_CONTROL1_REG |= ((uint32)(triggerMode << TCPWM_4_RELOAD_SHIFT));
 1086              		.loc 1 1133 0
 1087 000c 1A68     		ldr	r2, [r3]
 1088 000e 8A43     		bic	r2, r1
 1089 0010 1A60     		str	r2, [r3]
1134:Generated_Source\PSoC4/TCPWM_4.c **** 
 1090              		.loc 1 1134 0
 1091 0012 1968     		ldr	r1, [r3]
 1092 0014 2201     		lsl	r2, r4, #4
 1093 0016 0A43     		orr	r2, r1
 1094 0018 1A60     		str	r2, [r3]
1136:Generated_Source\PSoC4/TCPWM_4.c **** }
 1095              		.loc 1 1136 0
 1096 001a FFF7FEFF 		bl	CyExitCriticalSection
 1097              	.LVL68:
 1098              	.LVL69:
1137:Generated_Source\PSoC4/TCPWM_4.c **** 
 1099              		.loc 1 1137 0
 1100 001e 10BD     		pop	{r4, pc}
 1101              	.L84:
 1102              		.align	2
 1103              	.L83:
 1104 0020 64010540 		.word	1074069860
 1105              		.cfi_endproc
 1106              	.LFE29:
 1107              		.size	TCPWM_4_SetReloadMode, .-TCPWM_4_SetReloadMode
 1108              		.section	.text.TCPWM_4_SetStartMode,"ax",%progbits
 1109              		.align	1
 1110              		.global	TCPWM_4_SetStartMode
 1111              		.code	16
 1112              		.thumb_func
ARM GAS  C:\Users\TECHCO~1\AppData\Local\Temp\cc9RpRiE.s 			page 47


 1113              		.type	TCPWM_4_SetStartMode, %function
 1114              	TCPWM_4_SetStartMode:
 1115              	.LFB30:
1161:Generated_Source\PSoC4/TCPWM_4.c ****     uint8 enableInterrupts;
 1116              		.loc 1 1161 0
 1117              		.cfi_startproc
 1118              	.LVL70:
 1119 0000 10B5     		push	{r4, lr}
 1120              		.cfi_def_cfa_offset 8
 1121              		.cfi_offset 4, -8
 1122              		.cfi_offset 14, -4
1161:Generated_Source\PSoC4/TCPWM_4.c ****     uint8 enableInterrupts;
 1123              		.loc 1 1161 0
 1124 0002 041C     		mov	r4, r0
1164:Generated_Source\PSoC4/TCPWM_4.c **** 
 1125              		.loc 1 1164 0
 1126 0004 FFF7FEFF 		bl	CyEnterCriticalSection
 1127              	.LVL71:
1166:Generated_Source\PSoC4/TCPWM_4.c ****     TCPWM_4_TRIG_CONTROL1_REG |= ((uint32)(triggerMode << TCPWM_4_START_SHIFT));
 1128              		.loc 1 1166 0
 1129 0008 054B     		ldr	r3, .L86
 1130 000a 064A     		ldr	r2, .L86+4
 1131 000c 1968     		ldr	r1, [r3]
1170:Generated_Source\PSoC4/TCPWM_4.c **** 
 1132              		.loc 1 1170 0
 1133              		@ sp needed
1166:Generated_Source\PSoC4/TCPWM_4.c ****     TCPWM_4_TRIG_CONTROL1_REG |= ((uint32)(triggerMode << TCPWM_4_START_SHIFT));
 1134              		.loc 1 1166 0
 1135 000e 0A40     		and	r2, r1
 1136 0010 1A60     		str	r2, [r3]
1167:Generated_Source\PSoC4/TCPWM_4.c **** 
 1137              		.loc 1 1167 0
 1138 0012 1968     		ldr	r1, [r3]
 1139 0014 2202     		lsl	r2, r4, #8
 1140 0016 0A43     		orr	r2, r1
 1141 0018 1A60     		str	r2, [r3]
1169:Generated_Source\PSoC4/TCPWM_4.c **** }
 1142              		.loc 1 1169 0
 1143 001a FFF7FEFF 		bl	CyExitCriticalSection
 1144              	.LVL72:
 1145              	.LVL73:
1170:Generated_Source\PSoC4/TCPWM_4.c **** 
 1146              		.loc 1 1170 0
 1147 001e 10BD     		pop	{r4, pc}
 1148              	.L87:
 1149              		.align	2
 1150              	.L86:
 1151 0020 64010540 		.word	1074069860
 1152 0024 FFFCFFFF 		.word	-769
 1153              		.cfi_endproc
 1154              	.LFE30:
 1155              		.size	TCPWM_4_SetStartMode, .-TCPWM_4_SetStartMode
 1156              		.section	.text.TCPWM_4_SetStopMode,"ax",%progbits
 1157              		.align	1
 1158              		.global	TCPWM_4_SetStopMode
 1159              		.code	16
 1160              		.thumb_func
ARM GAS  C:\Users\TECHCO~1\AppData\Local\Temp\cc9RpRiE.s 			page 48


 1161              		.type	TCPWM_4_SetStopMode, %function
 1162              	TCPWM_4_SetStopMode:
 1163              	.LFB31:
1193:Generated_Source\PSoC4/TCPWM_4.c ****     uint8 enableInterrupts;
 1164              		.loc 1 1193 0
 1165              		.cfi_startproc
 1166              	.LVL74:
 1167 0000 10B5     		push	{r4, lr}
 1168              		.cfi_def_cfa_offset 8
 1169              		.cfi_offset 4, -8
 1170              		.cfi_offset 14, -4
1193:Generated_Source\PSoC4/TCPWM_4.c ****     uint8 enableInterrupts;
 1171              		.loc 1 1193 0
 1172 0002 041C     		mov	r4, r0
1196:Generated_Source\PSoC4/TCPWM_4.c **** 
 1173              		.loc 1 1196 0
 1174 0004 FFF7FEFF 		bl	CyEnterCriticalSection
 1175              	.LVL75:
1198:Generated_Source\PSoC4/TCPWM_4.c ****     TCPWM_4_TRIG_CONTROL1_REG |= ((uint32)(triggerMode << TCPWM_4_STOP_SHIFT));
 1176              		.loc 1 1198 0
 1177 0008 C021     		mov	r1, #192
 1178 000a 054B     		ldr	r3, .L89
1202:Generated_Source\PSoC4/TCPWM_4.c **** 
 1179              		.loc 1 1202 0
 1180              		@ sp needed
1198:Generated_Source\PSoC4/TCPWM_4.c ****     TCPWM_4_TRIG_CONTROL1_REG |= ((uint32)(triggerMode << TCPWM_4_STOP_SHIFT));
 1181              		.loc 1 1198 0
 1182 000c 1A68     		ldr	r2, [r3]
 1183 000e 8A43     		bic	r2, r1
 1184 0010 1A60     		str	r2, [r3]
1199:Generated_Source\PSoC4/TCPWM_4.c **** 
 1185              		.loc 1 1199 0
 1186 0012 1968     		ldr	r1, [r3]
 1187 0014 A201     		lsl	r2, r4, #6
 1188 0016 0A43     		orr	r2, r1
 1189 0018 1A60     		str	r2, [r3]
1201:Generated_Source\PSoC4/TCPWM_4.c **** }
 1190              		.loc 1 1201 0
 1191 001a FFF7FEFF 		bl	CyExitCriticalSection
 1192              	.LVL76:
 1193              	.LVL77:
1202:Generated_Source\PSoC4/TCPWM_4.c **** 
 1194              		.loc 1 1202 0
 1195 001e 10BD     		pop	{r4, pc}
 1196              	.L90:
 1197              		.align	2
 1198              	.L89:
 1199 0020 64010540 		.word	1074069860
 1200              		.cfi_endproc
 1201              	.LFE31:
 1202              		.size	TCPWM_4_SetStopMode, .-TCPWM_4_SetStopMode
 1203              		.section	.text.TCPWM_4_SetCountMode,"ax",%progbits
 1204              		.align	1
 1205              		.global	TCPWM_4_SetCountMode
 1206              		.code	16
 1207              		.thumb_func
 1208              		.type	TCPWM_4_SetCountMode, %function
ARM GAS  C:\Users\TECHCO~1\AppData\Local\Temp\cc9RpRiE.s 			page 49


 1209              	TCPWM_4_SetCountMode:
 1210              	.LFB32:
1226:Generated_Source\PSoC4/TCPWM_4.c ****     uint8 enableInterrupts;
 1211              		.loc 1 1226 0
 1212              		.cfi_startproc
 1213              	.LVL78:
 1214 0000 10B5     		push	{r4, lr}
 1215              		.cfi_def_cfa_offset 8
 1216              		.cfi_offset 4, -8
 1217              		.cfi_offset 14, -4
1226:Generated_Source\PSoC4/TCPWM_4.c ****     uint8 enableInterrupts;
 1218              		.loc 1 1226 0
 1219 0002 041C     		mov	r4, r0
1229:Generated_Source\PSoC4/TCPWM_4.c **** 
 1220              		.loc 1 1229 0
 1221 0004 FFF7FEFF 		bl	CyEnterCriticalSection
 1222              	.LVL79:
1231:Generated_Source\PSoC4/TCPWM_4.c ****     TCPWM_4_TRIG_CONTROL1_REG |= ((uint32)(triggerMode << TCPWM_4_COUNT_SHIFT));
 1223              		.loc 1 1231 0
 1224 0008 0C21     		mov	r1, #12
 1225 000a 054B     		ldr	r3, .L92
1235:Generated_Source\PSoC4/TCPWM_4.c **** 
 1226              		.loc 1 1235 0
 1227              		@ sp needed
1231:Generated_Source\PSoC4/TCPWM_4.c ****     TCPWM_4_TRIG_CONTROL1_REG |= ((uint32)(triggerMode << TCPWM_4_COUNT_SHIFT));
 1228              		.loc 1 1231 0
 1229 000c 1A68     		ldr	r2, [r3]
 1230 000e 8A43     		bic	r2, r1
 1231 0010 1A60     		str	r2, [r3]
1232:Generated_Source\PSoC4/TCPWM_4.c **** 
 1232              		.loc 1 1232 0
 1233 0012 1968     		ldr	r1, [r3]
 1234 0014 A200     		lsl	r2, r4, #2
 1235 0016 0A43     		orr	r2, r1
 1236 0018 1A60     		str	r2, [r3]
1234:Generated_Source\PSoC4/TCPWM_4.c **** }
 1237              		.loc 1 1234 0
 1238 001a FFF7FEFF 		bl	CyExitCriticalSection
 1239              	.LVL80:
 1240              	.LVL81:
1235:Generated_Source\PSoC4/TCPWM_4.c **** 
 1241              		.loc 1 1235 0
 1242 001e 10BD     		pop	{r4, pc}
 1243              	.L93:
 1244              		.align	2
 1245              	.L92:
 1246 0020 64010540 		.word	1074069860
 1247              		.cfi_endproc
 1248              	.LFE32:
 1249              		.size	TCPWM_4_SetCountMode, .-TCPWM_4_SetCountMode
 1250              		.section	.text.TCPWM_4_TriggerCommand,"ax",%progbits
 1251              		.align	1
 1252              		.global	TCPWM_4_TriggerCommand
 1253              		.code	16
 1254              		.thumb_func
 1255              		.type	TCPWM_4_TriggerCommand, %function
 1256              	TCPWM_4_TriggerCommand:
ARM GAS  C:\Users\TECHCO~1\AppData\Local\Temp\cc9RpRiE.s 			page 50


 1257              	.LFB33:
1266:Generated_Source\PSoC4/TCPWM_4.c ****     uint8 enableInterrupts;
 1258              		.loc 1 1266 0
 1259              		.cfi_startproc
 1260              	.LVL82:
 1261 0000 38B5     		push	{r3, r4, r5, lr}
 1262              		.cfi_def_cfa_offset 16
 1263              		.cfi_offset 3, -16
 1264              		.cfi_offset 4, -12
 1265              		.cfi_offset 5, -8
 1266              		.cfi_offset 14, -4
1266:Generated_Source\PSoC4/TCPWM_4.c ****     uint8 enableInterrupts;
 1267              		.loc 1 1266 0
 1268 0002 0D1C     		mov	r5, r1
 1269 0004 041C     		mov	r4, r0
1271:Generated_Source\PSoC4/TCPWM_4.c **** 
 1270              		.loc 1 1271 0
 1271 0006 AC40     		lsl	r4, r4, r5
1269:Generated_Source\PSoC4/TCPWM_4.c **** 
 1272              		.loc 1 1269 0
 1273 0008 FFF7FEFF 		bl	CyEnterCriticalSection
 1274              	.LVL83:
1271:Generated_Source\PSoC4/TCPWM_4.c **** 
 1275              		.loc 1 1271 0
 1276 000c 024B     		ldr	r3, .L95
1274:Generated_Source\PSoC4/TCPWM_4.c **** 
 1277              		.loc 1 1274 0
 1278              		@ sp needed
1271:Generated_Source\PSoC4/TCPWM_4.c **** 
 1279              		.loc 1 1271 0
 1280 000e 1C60     		str	r4, [r3]
1273:Generated_Source\PSoC4/TCPWM_4.c **** }
 1281              		.loc 1 1273 0
 1282 0010 FFF7FEFF 		bl	CyExitCriticalSection
 1283              	.LVL84:
 1284              	.LVL85:
1274:Generated_Source\PSoC4/TCPWM_4.c **** 
 1285              		.loc 1 1274 0
 1286 0014 38BD     		pop	{r3, r4, r5, pc}
 1287              	.L96:
 1288 0016 C046     		.align	2
 1289              	.L95:
 1290 0018 08000540 		.word	1074069512
 1291              		.cfi_endproc
 1292              	.LFE33:
 1293              		.size	TCPWM_4_TriggerCommand, .-TCPWM_4_TriggerCommand
 1294              		.section	.text.TCPWM_4_Enable,"ax",%progbits
 1295              		.align	1
 1296              		.global	TCPWM_4_Enable
 1297              		.code	16
 1298              		.thumb_func
 1299              		.type	TCPWM_4_Enable, %function
 1300              	TCPWM_4_Enable:
 1301              	.LFB1:
 178:Generated_Source\PSoC4/TCPWM_4.c ****     uint8 enableInterrupts;
 1302              		.loc 1 178 0
 1303              		.cfi_startproc
ARM GAS  C:\Users\TECHCO~1\AppData\Local\Temp\cc9RpRiE.s 			page 51


 1304 0000 10B5     		push	{r4, lr}
 1305              		.cfi_def_cfa_offset 8
 1306              		.cfi_offset 4, -8
 1307              		.cfi_offset 14, -4
 182:Generated_Source\PSoC4/TCPWM_4.c ****     CyExitCriticalSection(enableInterrupts);
 1308              		.loc 1 182 0
 1309 0002 0224     		mov	r4, #2
 181:Generated_Source\PSoC4/TCPWM_4.c ****     TCPWM_4_BLOCK_CONTROL_REG |= TCPWM_4_MASK;
 1310              		.loc 1 181 0
 1311 0004 FFF7FEFF 		bl	CyEnterCriticalSection
 1312              	.LVL86:
 182:Generated_Source\PSoC4/TCPWM_4.c ****     CyExitCriticalSection(enableInterrupts);
 1313              		.loc 1 182 0
 1314 0008 054A     		ldr	r2, .L98
 203:Generated_Source\PSoC4/TCPWM_4.c **** 
 1315              		.loc 1 203 0
 1316              		@ sp needed
 182:Generated_Source\PSoC4/TCPWM_4.c ****     CyExitCriticalSection(enableInterrupts);
 1317              		.loc 1 182 0
 1318 000a 1368     		ldr	r3, [r2]
 1319 000c 2343     		orr	r3, r4
 1320 000e 1360     		str	r3, [r2]
 183:Generated_Source\PSoC4/TCPWM_4.c **** 
 1321              		.loc 1 183 0
 1322 0010 FFF7FEFF 		bl	CyExitCriticalSection
 1323              	.LVL87:
 188:Generated_Source\PSoC4/TCPWM_4.c ****         #endif /* (0u == TCPWM_4_PWM_START_SIGNAL_PRESENT) */
 1324              		.loc 1 188 0
 1325 0014 201C     		mov	r0, r4
 1326 0016 1821     		mov	r1, #24
 1327 0018 FFF7FEFF 		bl	TCPWM_4_TriggerCommand
 1328              	.LVL88:
 203:Generated_Source\PSoC4/TCPWM_4.c **** 
 1329              		.loc 1 203 0
 1330 001c 10BD     		pop	{r4, pc}
 1331              	.L99:
 1332 001e C046     		.align	2
 1333              	.L98:
 1334 0020 00000540 		.word	1074069504
 1335              		.cfi_endproc
 1336              	.LFE1:
 1337              		.size	TCPWM_4_Enable, .-TCPWM_4_Enable
 1338              		.section	.text.TCPWM_4_Start,"ax",%progbits
 1339              		.align	1
 1340              		.global	TCPWM_4_Start
 1341              		.code	16
 1342              		.thumb_func
 1343              		.type	TCPWM_4_Start, %function
 1344              	TCPWM_4_Start:
 1345              	.LFB2:
 231:Generated_Source\PSoC4/TCPWM_4.c ****     if (0u == TCPWM_4_initVar)
 1346              		.loc 1 231 0
 1347              		.cfi_startproc
 1348 0000 10B5     		push	{r4, lr}
 1349              		.cfi_def_cfa_offset 8
 1350              		.cfi_offset 4, -8
 1351              		.cfi_offset 14, -4
ARM GAS  C:\Users\TECHCO~1\AppData\Local\Temp\cc9RpRiE.s 			page 52


 232:Generated_Source\PSoC4/TCPWM_4.c ****     {
 1352              		.loc 1 232 0
 1353 0002 054C     		ldr	r4, .L103
 1354 0004 2378     		ldrb	r3, [r4]
 1355 0006 002B     		cmp	r3, #0
 1356 0008 03D1     		bne	.L101
 234:Generated_Source\PSoC4/TCPWM_4.c ****         TCPWM_4_initVar = 1u;
 1357              		.loc 1 234 0
 1358 000a FFF7FEFF 		bl	TCPWM_4_Init
 1359              	.LVL89:
 235:Generated_Source\PSoC4/TCPWM_4.c ****     }
 1360              		.loc 1 235 0
 1361 000e 0123     		mov	r3, #1
 1362 0010 2370     		strb	r3, [r4]
 1363              	.L101:
 238:Generated_Source\PSoC4/TCPWM_4.c **** }
 1364              		.loc 1 238 0
 1365 0012 FFF7FEFF 		bl	TCPWM_4_Enable
 1366              	.LVL90:
 239:Generated_Source\PSoC4/TCPWM_4.c **** 
 1367              		.loc 1 239 0
 1368              		@ sp needed
 1369 0016 10BD     		pop	{r4, pc}
 1370              	.L104:
 1371              		.align	2
 1372              	.L103:
 1373 0018 00000000 		.word	.LANCHOR0
 1374              		.cfi_endproc
 1375              	.LFE2:
 1376              		.size	TCPWM_4_Start, .-TCPWM_4_Start
 1377              		.section	.text.TCPWM_4_ReadStatus,"ax",%progbits
 1378              		.align	1
 1379              		.global	TCPWM_4_ReadStatus
 1380              		.code	16
 1381              		.thumb_func
 1382              		.type	TCPWM_4_ReadStatus, %function
 1383              	TCPWM_4_ReadStatus:
 1384              	.LFB34:
1295:Generated_Source\PSoC4/TCPWM_4.c ****     return ((TCPWM_4_STATUS_REG >> TCPWM_4_RUNNING_STATUS_SHIFT) |
 1385              		.loc 1 1295 0
 1386              		.cfi_startproc
1296:Generated_Source\PSoC4/TCPWM_4.c ****             (TCPWM_4_STATUS_REG & TCPWM_4_STATUS_DOWN));
 1387              		.loc 1 1296 0
 1388 0000 034A     		ldr	r2, .L106
1298:Generated_Source\PSoC4/TCPWM_4.c **** 
 1389              		.loc 1 1298 0
 1390              		@ sp needed
1296:Generated_Source\PSoC4/TCPWM_4.c ****             (TCPWM_4_STATUS_REG & TCPWM_4_STATUS_DOWN));
 1391              		.loc 1 1296 0
 1392 0002 1368     		ldr	r3, [r2]
1297:Generated_Source\PSoC4/TCPWM_4.c **** }
 1393              		.loc 1 1297 0
 1394 0004 1068     		ldr	r0, [r2]
 1395 0006 0122     		mov	r2, #1
1296:Generated_Source\PSoC4/TCPWM_4.c ****             (TCPWM_4_STATUS_REG & TCPWM_4_STATUS_DOWN));
 1396              		.loc 1 1296 0
 1397 0008 9B0F     		lsr	r3, r3, #30
ARM GAS  C:\Users\TECHCO~1\AppData\Local\Temp\cc9RpRiE.s 			page 53


1297:Generated_Source\PSoC4/TCPWM_4.c **** }
 1398              		.loc 1 1297 0
 1399 000a 1040     		and	r0, r2
1296:Generated_Source\PSoC4/TCPWM_4.c ****             (TCPWM_4_STATUS_REG & TCPWM_4_STATUS_DOWN));
 1400              		.loc 1 1296 0
 1401 000c 1843     		orr	r0, r3
1298:Generated_Source\PSoC4/TCPWM_4.c **** 
 1402              		.loc 1 1298 0
 1403 000e 7047     		bx	lr
 1404              	.L107:
 1405              		.align	2
 1406              	.L106:
 1407 0010 44010540 		.word	1074069828
 1408              		.cfi_endproc
 1409              	.LFE34:
 1410              		.size	TCPWM_4_ReadStatus, .-TCPWM_4_ReadStatus
 1411              		.section	.text.TCPWM_4_SetInterruptMode,"ax",%progbits
 1412              		.align	1
 1413              		.global	TCPWM_4_SetInterruptMode
 1414              		.code	16
 1415              		.thumb_func
 1416              		.type	TCPWM_4_SetInterruptMode, %function
 1417              	TCPWM_4_SetInterruptMode:
 1418              	.LFB35:
1320:Generated_Source\PSoC4/TCPWM_4.c ****     TCPWM_4_INTERRUPT_MASK_REG =  interruptMask;
 1419              		.loc 1 1320 0
 1420              		.cfi_startproc
 1421              	.LVL91:
 1422              		.loc 1 1321 0
 1423 0000 014B     		ldr	r3, .L109
1322:Generated_Source\PSoC4/TCPWM_4.c **** }
 1424              		.loc 1 1322 0
 1425              		@ sp needed
1321:Generated_Source\PSoC4/TCPWM_4.c **** }
 1426              		.loc 1 1321 0
 1427 0002 1860     		str	r0, [r3]
 1428              		.loc 1 1322 0
 1429 0004 7047     		bx	lr
 1430              	.L110:
 1431 0006 C046     		.align	2
 1432              	.L109:
 1433 0008 78010540 		.word	1074069880
 1434              		.cfi_endproc
 1435              	.LFE35:
 1436              		.size	TCPWM_4_SetInterruptMode, .-TCPWM_4_SetInterruptMode
 1437              		.section	.text.TCPWM_4_GetInterruptSourceMasked,"ax",%progbits
 1438              		.align	1
 1439              		.global	TCPWM_4_GetInterruptSourceMasked
 1440              		.code	16
 1441              		.thumb_func
 1442              		.type	TCPWM_4_GetInterruptSourceMasked, %function
 1443              	TCPWM_4_GetInterruptSourceMasked:
 1444              	.LFB36:
1323:Generated_Source\PSoC4/TCPWM_4.c **** 
1324:Generated_Source\PSoC4/TCPWM_4.c **** 
1325:Generated_Source\PSoC4/TCPWM_4.c **** /*******************************************************************************
1326:Generated_Source\PSoC4/TCPWM_4.c **** * Function Name: TCPWM_4_GetInterruptSourceMasked
ARM GAS  C:\Users\TECHCO~1\AppData\Local\Temp\cc9RpRiE.s 			page 54


1327:Generated_Source\PSoC4/TCPWM_4.c **** ********************************************************************************
1328:Generated_Source\PSoC4/TCPWM_4.c **** *
1329:Generated_Source\PSoC4/TCPWM_4.c **** * Summary:
1330:Generated_Source\PSoC4/TCPWM_4.c **** *  Gets the interrupt requests masked by the interrupt mask.
1331:Generated_Source\PSoC4/TCPWM_4.c **** *
1332:Generated_Source\PSoC4/TCPWM_4.c **** * Parameters:
1333:Generated_Source\PSoC4/TCPWM_4.c **** *   None
1334:Generated_Source\PSoC4/TCPWM_4.c **** *
1335:Generated_Source\PSoC4/TCPWM_4.c **** * Return:
1336:Generated_Source\PSoC4/TCPWM_4.c **** *  Masked interrupt source
1337:Generated_Source\PSoC4/TCPWM_4.c **** *   Values:
1338:Generated_Source\PSoC4/TCPWM_4.c **** *     - TCPWM_4_INTR_MASK_TC       - Terminal count mask
1339:Generated_Source\PSoC4/TCPWM_4.c **** *     - TCPWM_4_INTR_MASK_CC_MATCH - Compare count / capture mask
1340:Generated_Source\PSoC4/TCPWM_4.c **** *
1341:Generated_Source\PSoC4/TCPWM_4.c **** *******************************************************************************/
1342:Generated_Source\PSoC4/TCPWM_4.c **** uint32 TCPWM_4_GetInterruptSourceMasked(void)
1343:Generated_Source\PSoC4/TCPWM_4.c **** {
 1445              		.loc 1 1343 0
 1446              		.cfi_startproc
1344:Generated_Source\PSoC4/TCPWM_4.c ****     return (TCPWM_4_INTERRUPT_MASKED_REG);
 1447              		.loc 1 1344 0
 1448 0000 014B     		ldr	r3, .L112
1345:Generated_Source\PSoC4/TCPWM_4.c **** }
 1449              		.loc 1 1345 0
 1450              		@ sp needed
1344:Generated_Source\PSoC4/TCPWM_4.c ****     return (TCPWM_4_INTERRUPT_MASKED_REG);
 1451              		.loc 1 1344 0
 1452 0002 1868     		ldr	r0, [r3]
 1453              		.loc 1 1345 0
 1454 0004 7047     		bx	lr
 1455              	.L113:
 1456 0006 C046     		.align	2
 1457              	.L112:
 1458 0008 7C010540 		.word	1074069884
 1459              		.cfi_endproc
 1460              	.LFE36:
 1461              		.size	TCPWM_4_GetInterruptSourceMasked, .-TCPWM_4_GetInterruptSourceMasked
 1462              		.section	.text.TCPWM_4_GetInterruptSource,"ax",%progbits
 1463              		.align	1
 1464              		.global	TCPWM_4_GetInterruptSource
 1465              		.code	16
 1466              		.thumb_func
 1467              		.type	TCPWM_4_GetInterruptSource, %function
 1468              	TCPWM_4_GetInterruptSource:
 1469              	.LFB37:
1346:Generated_Source\PSoC4/TCPWM_4.c **** 
1347:Generated_Source\PSoC4/TCPWM_4.c **** 
1348:Generated_Source\PSoC4/TCPWM_4.c **** /*******************************************************************************
1349:Generated_Source\PSoC4/TCPWM_4.c **** * Function Name: TCPWM_4_GetInterruptSource
1350:Generated_Source\PSoC4/TCPWM_4.c **** ********************************************************************************
1351:Generated_Source\PSoC4/TCPWM_4.c **** *
1352:Generated_Source\PSoC4/TCPWM_4.c **** * Summary:
1353:Generated_Source\PSoC4/TCPWM_4.c **** *  Gets the interrupt requests (without masking).
1354:Generated_Source\PSoC4/TCPWM_4.c **** *
1355:Generated_Source\PSoC4/TCPWM_4.c **** * Parameters:
1356:Generated_Source\PSoC4/TCPWM_4.c **** *  None
1357:Generated_Source\PSoC4/TCPWM_4.c **** *
ARM GAS  C:\Users\TECHCO~1\AppData\Local\Temp\cc9RpRiE.s 			page 55


1358:Generated_Source\PSoC4/TCPWM_4.c **** * Return:
1359:Generated_Source\PSoC4/TCPWM_4.c **** *  Interrupt request value
1360:Generated_Source\PSoC4/TCPWM_4.c **** *   Values:
1361:Generated_Source\PSoC4/TCPWM_4.c **** *     - TCPWM_4_INTR_MASK_TC       - Terminal count mask
1362:Generated_Source\PSoC4/TCPWM_4.c **** *     - TCPWM_4_INTR_MASK_CC_MATCH - Compare count / capture mask
1363:Generated_Source\PSoC4/TCPWM_4.c **** *
1364:Generated_Source\PSoC4/TCPWM_4.c **** *******************************************************************************/
1365:Generated_Source\PSoC4/TCPWM_4.c **** uint32 TCPWM_4_GetInterruptSource(void)
1366:Generated_Source\PSoC4/TCPWM_4.c **** {
 1470              		.loc 1 1366 0
 1471              		.cfi_startproc
1367:Generated_Source\PSoC4/TCPWM_4.c ****     return (TCPWM_4_INTERRUPT_REQ_REG);
 1472              		.loc 1 1367 0
 1473 0000 014B     		ldr	r3, .L115
1368:Generated_Source\PSoC4/TCPWM_4.c **** }
 1474              		.loc 1 1368 0
 1475              		@ sp needed
1367:Generated_Source\PSoC4/TCPWM_4.c ****     return (TCPWM_4_INTERRUPT_REQ_REG);
 1476              		.loc 1 1367 0
 1477 0002 1868     		ldr	r0, [r3]
 1478              		.loc 1 1368 0
 1479 0004 7047     		bx	lr
 1480              	.L116:
 1481 0006 C046     		.align	2
 1482              	.L115:
 1483 0008 70010540 		.word	1074069872
 1484              		.cfi_endproc
 1485              	.LFE37:
 1486              		.size	TCPWM_4_GetInterruptSource, .-TCPWM_4_GetInterruptSource
 1487              		.section	.text.TCPWM_4_ClearInterrupt,"ax",%progbits
 1488              		.align	1
 1489              		.global	TCPWM_4_ClearInterrupt
 1490              		.code	16
 1491              		.thumb_func
 1492              		.type	TCPWM_4_ClearInterrupt, %function
 1493              	TCPWM_4_ClearInterrupt:
 1494              	.LFB38:
1369:Generated_Source\PSoC4/TCPWM_4.c **** 
1370:Generated_Source\PSoC4/TCPWM_4.c **** 
1371:Generated_Source\PSoC4/TCPWM_4.c **** /*******************************************************************************
1372:Generated_Source\PSoC4/TCPWM_4.c **** * Function Name: TCPWM_4_ClearInterrupt
1373:Generated_Source\PSoC4/TCPWM_4.c **** ********************************************************************************
1374:Generated_Source\PSoC4/TCPWM_4.c **** *
1375:Generated_Source\PSoC4/TCPWM_4.c **** * Summary:
1376:Generated_Source\PSoC4/TCPWM_4.c **** *  Clears the interrupt request.
1377:Generated_Source\PSoC4/TCPWM_4.c **** *
1378:Generated_Source\PSoC4/TCPWM_4.c **** * Parameters:
1379:Generated_Source\PSoC4/TCPWM_4.c **** *   interruptMask: Mask of interrupts to clear
1380:Generated_Source\PSoC4/TCPWM_4.c **** *   Values:
1381:Generated_Source\PSoC4/TCPWM_4.c **** *     - TCPWM_4_INTR_MASK_TC       - Terminal count mask
1382:Generated_Source\PSoC4/TCPWM_4.c **** *     - TCPWM_4_INTR_MASK_CC_MATCH - Compare count / capture mask
1383:Generated_Source\PSoC4/TCPWM_4.c **** *
1384:Generated_Source\PSoC4/TCPWM_4.c **** * Return:
1385:Generated_Source\PSoC4/TCPWM_4.c **** *  None
1386:Generated_Source\PSoC4/TCPWM_4.c **** *
1387:Generated_Source\PSoC4/TCPWM_4.c **** *******************************************************************************/
1388:Generated_Source\PSoC4/TCPWM_4.c **** void TCPWM_4_ClearInterrupt(uint32 interruptMask)
ARM GAS  C:\Users\TECHCO~1\AppData\Local\Temp\cc9RpRiE.s 			page 56


1389:Generated_Source\PSoC4/TCPWM_4.c **** {
 1495              		.loc 1 1389 0
 1496              		.cfi_startproc
 1497              	.LVL92:
1390:Generated_Source\PSoC4/TCPWM_4.c ****     TCPWM_4_INTERRUPT_REQ_REG = interruptMask;
 1498              		.loc 1 1390 0
 1499 0000 014B     		ldr	r3, .L118
1391:Generated_Source\PSoC4/TCPWM_4.c **** }
 1500              		.loc 1 1391 0
 1501              		@ sp needed
1390:Generated_Source\PSoC4/TCPWM_4.c ****     TCPWM_4_INTERRUPT_REQ_REG = interruptMask;
 1502              		.loc 1 1390 0
 1503 0002 1860     		str	r0, [r3]
 1504              		.loc 1 1391 0
 1505 0004 7047     		bx	lr
 1506              	.L119:
 1507 0006 C046     		.align	2
 1508              	.L118:
 1509 0008 70010540 		.word	1074069872
 1510              		.cfi_endproc
 1511              	.LFE38:
 1512              		.size	TCPWM_4_ClearInterrupt, .-TCPWM_4_ClearInterrupt
 1513              		.section	.text.TCPWM_4_SetInterrupt,"ax",%progbits
 1514              		.align	1
 1515              		.global	TCPWM_4_SetInterrupt
 1516              		.code	16
 1517              		.thumb_func
 1518              		.type	TCPWM_4_SetInterrupt, %function
 1519              	TCPWM_4_SetInterrupt:
 1520              	.LFB39:
1392:Generated_Source\PSoC4/TCPWM_4.c **** 
1393:Generated_Source\PSoC4/TCPWM_4.c **** 
1394:Generated_Source\PSoC4/TCPWM_4.c **** /*******************************************************************************
1395:Generated_Source\PSoC4/TCPWM_4.c **** * Function Name: TCPWM_4_SetInterrupt
1396:Generated_Source\PSoC4/TCPWM_4.c **** ********************************************************************************
1397:Generated_Source\PSoC4/TCPWM_4.c **** *
1398:Generated_Source\PSoC4/TCPWM_4.c **** * Summary:
1399:Generated_Source\PSoC4/TCPWM_4.c **** *  Sets a software interrupt request.
1400:Generated_Source\PSoC4/TCPWM_4.c **** *
1401:Generated_Source\PSoC4/TCPWM_4.c **** * Parameters:
1402:Generated_Source\PSoC4/TCPWM_4.c **** *   interruptMask: Mask of interrupts to set
1403:Generated_Source\PSoC4/TCPWM_4.c **** *   Values:
1404:Generated_Source\PSoC4/TCPWM_4.c **** *     - TCPWM_4_INTR_MASK_TC       - Terminal count mask
1405:Generated_Source\PSoC4/TCPWM_4.c **** *     - TCPWM_4_INTR_MASK_CC_MATCH - Compare count / capture mask
1406:Generated_Source\PSoC4/TCPWM_4.c **** *
1407:Generated_Source\PSoC4/TCPWM_4.c **** * Return:
1408:Generated_Source\PSoC4/TCPWM_4.c **** *  None
1409:Generated_Source\PSoC4/TCPWM_4.c **** *
1410:Generated_Source\PSoC4/TCPWM_4.c **** *******************************************************************************/
1411:Generated_Source\PSoC4/TCPWM_4.c **** void TCPWM_4_SetInterrupt(uint32 interruptMask)
1412:Generated_Source\PSoC4/TCPWM_4.c **** {
 1521              		.loc 1 1412 0
 1522              		.cfi_startproc
 1523              	.LVL93:
1413:Generated_Source\PSoC4/TCPWM_4.c ****     TCPWM_4_INTERRUPT_SET_REG = interruptMask;
 1524              		.loc 1 1413 0
 1525 0000 014B     		ldr	r3, .L121
ARM GAS  C:\Users\TECHCO~1\AppData\Local\Temp\cc9RpRiE.s 			page 57


1414:Generated_Source\PSoC4/TCPWM_4.c **** }
 1526              		.loc 1 1414 0
 1527              		@ sp needed
1413:Generated_Source\PSoC4/TCPWM_4.c ****     TCPWM_4_INTERRUPT_SET_REG = interruptMask;
 1528              		.loc 1 1413 0
 1529 0002 1860     		str	r0, [r3]
 1530              		.loc 1 1414 0
 1531 0004 7047     		bx	lr
 1532              	.L122:
 1533 0006 C046     		.align	2
 1534              	.L121:
 1535 0008 74010540 		.word	1074069876
 1536              		.cfi_endproc
 1537              	.LFE39:
 1538              		.size	TCPWM_4_SetInterrupt, .-TCPWM_4_SetInterrupt
 1539              		.global	TCPWM_4_initVar
 1540              		.bss
 1541              		.set	.LANCHOR0,. + 0
 1542              		.type	TCPWM_4_initVar, %object
 1543              		.size	TCPWM_4_initVar, 1
 1544              	TCPWM_4_initVar:
 1545 0000 00       		.space	1
 1546              		.text
 1547              	.Letext0:
 1548              		.file 2 "Generated_Source\\PSoC4\\cytypes.h"
 1549              		.file 3 "Generated_Source\\PSoC4\\CyLib.h"
 1550              		.section	.debug_info,"",%progbits
 1551              	.Ldebug_info0:
 1552 0000 5B090000 		.4byte	0x95b
 1553 0004 0400     		.2byte	0x4
 1554 0006 00000000 		.4byte	.Ldebug_abbrev0
 1555 000a 04       		.byte	0x4
 1556 000b 01       		.uleb128 0x1
 1557 000c 06000000 		.4byte	.LASF76
 1558 0010 01       		.byte	0x1
 1559 0011 C1000000 		.4byte	.LASF77
 1560 0015 13050000 		.4byte	.LASF78
 1561 0019 18000000 		.4byte	.Ldebug_ranges0+0x18
 1562 001d 00000000 		.4byte	0
 1563 0021 00000000 		.4byte	.Ldebug_line0
 1564 0025 02       		.uleb128 0x2
 1565 0026 01       		.byte	0x1
 1566 0027 06       		.byte	0x6
 1567 0028 5F010000 		.4byte	.LASF0
 1568 002c 02       		.uleb128 0x2
 1569 002d 01       		.byte	0x1
 1570 002e 08       		.byte	0x8
 1571 002f 0C040000 		.4byte	.LASF1
 1572 0033 02       		.uleb128 0x2
 1573 0034 02       		.byte	0x2
 1574 0035 05       		.byte	0x5
 1575 0036 5D040000 		.4byte	.LASF2
 1576 003a 02       		.uleb128 0x2
 1577 003b 02       		.byte	0x2
 1578 003c 07       		.byte	0x7
 1579 003d E5020000 		.4byte	.LASF3
 1580 0041 02       		.uleb128 0x2
ARM GAS  C:\Users\TECHCO~1\AppData\Local\Temp\cc9RpRiE.s 			page 58


 1581 0042 04       		.byte	0x4
 1582 0043 05       		.byte	0x5
 1583 0044 CD010000 		.4byte	.LASF4
 1584 0048 02       		.uleb128 0x2
 1585 0049 04       		.byte	0x4
 1586 004a 07       		.byte	0x7
 1587 004b 83020000 		.4byte	.LASF5
 1588 004f 02       		.uleb128 0x2
 1589 0050 08       		.byte	0x8
 1590 0051 05       		.byte	0x5
 1591 0052 51010000 		.4byte	.LASF6
 1592 0056 02       		.uleb128 0x2
 1593 0057 08       		.byte	0x8
 1594 0058 07       		.byte	0x7
 1595 0059 F9000000 		.4byte	.LASF7
 1596 005d 03       		.uleb128 0x3
 1597 005e 04       		.byte	0x4
 1598 005f 05       		.byte	0x5
 1599 0060 696E7400 		.ascii	"int\000"
 1600 0064 02       		.uleb128 0x2
 1601 0065 04       		.byte	0x4
 1602 0066 07       		.byte	0x7
 1603 0067 57020000 		.4byte	.LASF8
 1604 006b 04       		.uleb128 0x4
 1605 006c EA010000 		.4byte	.LASF9
 1606 0070 02       		.byte	0x2
 1607 0071 B901     		.2byte	0x1b9
 1608 0073 2C000000 		.4byte	0x2c
 1609 0077 04       		.uleb128 0x4
 1610 0078 0E020000 		.4byte	.LASF10
 1611 007c 02       		.byte	0x2
 1612 007d BB01     		.2byte	0x1bb
 1613 007f 48000000 		.4byte	0x48
 1614 0083 02       		.uleb128 0x2
 1615 0084 04       		.byte	0x4
 1616 0085 04       		.byte	0x4
 1617 0086 CE030000 		.4byte	.LASF11
 1618 008a 02       		.uleb128 0x2
 1619 008b 08       		.byte	0x8
 1620 008c 04       		.byte	0x4
 1621 008d F0010000 		.4byte	.LASF12
 1622 0091 02       		.uleb128 0x2
 1623 0092 01       		.byte	0x1
 1624 0093 08       		.byte	0x8
 1625 0094 FC040000 		.4byte	.LASF13
 1626 0098 04       		.uleb128 0x4
 1627 0099 32030000 		.4byte	.LASF14
 1628 009d 02       		.byte	0x2
 1629 009e 6502     		.2byte	0x265
 1630 00a0 A4000000 		.4byte	0xa4
 1631 00a4 05       		.uleb128 0x5
 1632 00a5 77000000 		.4byte	0x77
 1633 00a9 02       		.uleb128 0x2
 1634 00aa 04       		.byte	0x4
 1635 00ab 07       		.byte	0x7
 1636 00ac 4E030000 		.4byte	.LASF15
 1637 00b0 06       		.uleb128 0x6
ARM GAS  C:\Users\TECHCO~1\AppData\Local\Temp\cc9RpRiE.s 			page 59


 1638 00b1 42020000 		.4byte	.LASF16
 1639 00b5 01       		.byte	0x1
 1640 00b6 6702     		.2byte	0x267
 1641 00b8 01       		.byte	0x1
 1642 00b9 CA000000 		.4byte	0xca
 1643 00bd 07       		.uleb128 0x7
 1644 00be 00000000 		.4byte	.LASF18
 1645 00c2 01       		.byte	0x1
 1646 00c3 6702     		.2byte	0x267
 1647 00c5 77000000 		.4byte	0x77
 1648 00c9 00       		.byte	0
 1649 00ca 06       		.uleb128 0x6
 1650 00cb DE030000 		.4byte	.LASF17
 1651 00cf 01       		.byte	0x1
 1652 00d0 2705     		.2byte	0x527
 1653 00d2 01       		.byte	0x1
 1654 00d3 E4000000 		.4byte	0xe4
 1655 00d7 07       		.uleb128 0x7
 1656 00d8 AF040000 		.4byte	.LASF19
 1657 00dc 01       		.byte	0x1
 1658 00dd 2705     		.2byte	0x527
 1659 00df 77000000 		.4byte	0x77
 1660 00e3 00       		.byte	0
 1661 00e4 06       		.uleb128 0x6
 1662 00e5 67040000 		.4byte	.LASF20
 1663 00e9 01       		.byte	0x1
 1664 00ea B502     		.2byte	0x2b5
 1665 00ec 01       		.byte	0x1
 1666 00ed FE000000 		.4byte	0xfe
 1667 00f1 07       		.uleb128 0x7
 1668 00f2 E2000000 		.4byte	.LASF21
 1669 00f6 01       		.byte	0x1
 1670 00f7 B502     		.2byte	0x2b5
 1671 00f9 77000000 		.4byte	0x77
 1672 00fd 00       		.byte	0
 1673 00fe 06       		.uleb128 0x6
 1674 00ff B8010000 		.4byte	.LASF22
 1675 0103 01       		.byte	0x1
 1676 0104 5103     		.2byte	0x351
 1677 0106 01       		.byte	0x1
 1678 0107 18010000 		.4byte	0x118
 1679 010b 07       		.uleb128 0x7
 1680 010c 9D030000 		.4byte	.LASF23
 1681 0110 01       		.byte	0x1
 1682 0111 5103     		.2byte	0x351
 1683 0113 77000000 		.4byte	0x77
 1684 0117 00       		.byte	0
 1685 0118 08       		.uleb128 0x8
 1686 0119 97010000 		.4byte	.LASF24
 1687 011d 01       		.byte	0x1
 1688 011e 26       		.byte	0x26
 1689 011f 00000000 		.4byte	.LFB0
 1690 0123 54000000 		.4byte	.LFE0-.LFB0
 1691 0127 01       		.uleb128 0x1
 1692 0128 9C       		.byte	0x9c
 1693 0129 92010000 		.4byte	0x192
 1694 012d 09       		.uleb128 0x9
ARM GAS  C:\Users\TECHCO~1\AppData\Local\Temp\cc9RpRiE.s 			page 60


 1695 012e B0000000 		.4byte	0xb0
 1696 0132 02000000 		.4byte	.LBB10
 1697 0136 00000000 		.4byte	.Ldebug_ranges0+0
 1698 013a 01       		.byte	0x1
 1699 013b 67       		.byte	0x67
 1700 013c 47010000 		.4byte	0x147
 1701 0140 0A       		.uleb128 0xa
 1702 0141 BD000000 		.4byte	0xbd
 1703 0145 00       		.byte	0
 1704 0146 00       		.byte	0
 1705 0147 0B       		.uleb128 0xb
 1706 0148 CA000000 		.4byte	0xca
 1707 014c 1E000000 		.4byte	.LBB14
 1708 0150 06000000 		.4byte	.LBE14-.LBB14
 1709 0154 01       		.byte	0x1
 1710 0155 77       		.byte	0x77
 1711 0156 61010000 		.4byte	0x161
 1712 015a 0A       		.uleb128 0xa
 1713 015b D7000000 		.4byte	0xd7
 1714 015f 01       		.byte	0x1
 1715 0160 00       		.byte	0
 1716 0161 0B       		.uleb128 0xb
 1717 0162 E4000000 		.4byte	0xe4
 1718 0166 2A000000 		.4byte	.LBB16
 1719 016a 06000000 		.4byte	.LBE16-.LBB16
 1720 016e 01       		.byte	0x1
 1721 016f 92       		.byte	0x92
 1722 0170 7B010000 		.4byte	0x17b
 1723 0174 0A       		.uleb128 0xa
 1724 0175 F1000000 		.4byte	0xf1
 1725 0179 FF       		.byte	0xff
 1726 017a 00       		.byte	0
 1727 017b 0C       		.uleb128 0xc
 1728 017c FE000000 		.4byte	0xfe
 1729 0180 30000000 		.4byte	.LBB18
 1730 0184 06000000 		.4byte	.LBE18-.LBB18
 1731 0188 01       		.byte	0x1
 1732 0189 93       		.byte	0x93
 1733 018a 0A       		.uleb128 0xa
 1734 018b 0B010000 		.4byte	0x10b
 1735 018f FE       		.byte	0xfe
 1736 0190 00       		.byte	0
 1737 0191 00       		.byte	0
 1738 0192 0D       		.uleb128 0xd
 1739 0193 06050000 		.4byte	.LASF25
 1740 0197 01       		.byte	0x1
 1741 0198 0001     		.2byte	0x100
 1742 019a 00000000 		.4byte	.LFB3
 1743 019e 1C000000 		.4byte	.LFE3-.LFB3
 1744 01a2 01       		.uleb128 0x1
 1745 01a3 9C       		.byte	0x9c
 1746 01a4 CB010000 		.4byte	0x1cb
 1747 01a8 0E       		.uleb128 0xe
 1748 01a9 CE050000 		.4byte	.LASF27
 1749 01ad 01       		.byte	0x1
 1750 01ae 0201     		.2byte	0x102
 1751 01b0 6B000000 		.4byte	0x6b
ARM GAS  C:\Users\TECHCO~1\AppData\Local\Temp\cc9RpRiE.s 			page 61


 1752 01b4 00000000 		.4byte	.LLST0
 1753 01b8 0F       		.uleb128 0xf
 1754 01b9 06000000 		.4byte	.LVL4
 1755 01bd 46090000 		.4byte	0x946
 1756 01c1 0F       		.uleb128 0xf
 1757 01c2 14000000 		.4byte	.LVL5
 1758 01c6 51090000 		.4byte	0x951
 1759 01ca 00       		.byte	0
 1760 01cb 0D       		.uleb128 0xd
 1761 01cc 57030000 		.4byte	.LASF26
 1762 01d0 01       		.byte	0x1
 1763 01d1 2501     		.2byte	0x125
 1764 01d3 00000000 		.4byte	.LFB4
 1765 01d7 28000000 		.4byte	.LFE4-.LFB4
 1766 01db 01       		.uleb128 0x1
 1767 01dc 9C       		.byte	0x9c
 1768 01dd 14020000 		.4byte	0x214
 1769 01e1 10       		.uleb128 0x10
 1770 01e2 01050000 		.4byte	.LASF29
 1771 01e6 01       		.byte	0x1
 1772 01e7 2501     		.2byte	0x125
 1773 01e9 77000000 		.4byte	0x77
 1774 01ed 13000000 		.4byte	.LLST1
 1775 01f1 0E       		.uleb128 0xe
 1776 01f2 CE050000 		.4byte	.LASF27
 1777 01f6 01       		.byte	0x1
 1778 01f7 2701     		.2byte	0x127
 1779 01f9 6B000000 		.4byte	0x6b
 1780 01fd 3F000000 		.4byte	.LLST2
 1781 0201 0F       		.uleb128 0xf
 1782 0202 08000000 		.4byte	.LVL7
 1783 0206 46090000 		.4byte	0x946
 1784 020a 0F       		.uleb128 0xf
 1785 020b 1C000000 		.4byte	.LVL8
 1786 020f 51090000 		.4byte	0x951
 1787 0213 00       		.byte	0
 1788 0214 0D       		.uleb128 0xd
 1789 0215 BD040000 		.4byte	.LASF28
 1790 0219 01       		.byte	0x1
 1791 021a 4601     		.2byte	0x146
 1792 021c 00000000 		.4byte	.LFB5
 1793 0220 28000000 		.4byte	.LFE5-.LFB5
 1794 0224 01       		.uleb128 0x1
 1795 0225 9C       		.byte	0x9c
 1796 0226 5D020000 		.4byte	0x25d
 1797 022a 10       		.uleb128 0x10
 1798 022b 33010000 		.4byte	.LASF30
 1799 022f 01       		.byte	0x1
 1800 0230 4601     		.2byte	0x146
 1801 0232 77000000 		.4byte	0x77
 1802 0236 52000000 		.4byte	.LLST3
 1803 023a 0E       		.uleb128 0xe
 1804 023b CE050000 		.4byte	.LASF27
 1805 023f 01       		.byte	0x1
 1806 0240 4801     		.2byte	0x148
 1807 0242 6B000000 		.4byte	0x6b
 1808 0246 7E000000 		.4byte	.LLST4
ARM GAS  C:\Users\TECHCO~1\AppData\Local\Temp\cc9RpRiE.s 			page 62


 1809 024a 0F       		.uleb128 0xf
 1810 024b 08000000 		.4byte	.LVL11
 1811 024f 46090000 		.4byte	0x946
 1812 0253 0F       		.uleb128 0xf
 1813 0254 1C000000 		.4byte	.LVL12
 1814 0258 51090000 		.4byte	0x951
 1815 025c 00       		.byte	0
 1816 025d 0D       		.uleb128 0xd
 1817 025e F7030000 		.4byte	.LASF31
 1818 0262 01       		.byte	0x1
 1819 0263 6B01     		.2byte	0x16b
 1820 0265 00000000 		.4byte	.LFB6
 1821 0269 28000000 		.4byte	.LFE6-.LFB6
 1822 026d 01       		.uleb128 0x1
 1823 026e 9C       		.byte	0x9c
 1824 026f A6020000 		.4byte	0x2a6
 1825 0273 10       		.uleb128 0x10
 1826 0274 D4030000 		.4byte	.LASF32
 1827 0278 01       		.byte	0x1
 1828 0279 6B01     		.2byte	0x16b
 1829 027b 77000000 		.4byte	0x77
 1830 027f 91000000 		.4byte	.LLST5
 1831 0283 0E       		.uleb128 0xe
 1832 0284 CE050000 		.4byte	.LASF27
 1833 0288 01       		.byte	0x1
 1834 0289 6D01     		.2byte	0x16d
 1835 028b 6B000000 		.4byte	0x6b
 1836 028f BD000000 		.4byte	.LLST6
 1837 0293 0F       		.uleb128 0xf
 1838 0294 08000000 		.4byte	.LVL15
 1839 0298 46090000 		.4byte	0x946
 1840 029c 0F       		.uleb128 0xf
 1841 029d 1C000000 		.4byte	.LVL16
 1842 02a1 51090000 		.4byte	0x951
 1843 02a5 00       		.byte	0
 1844 02a6 0D       		.uleb128 0xd
 1845 02a7 BB030000 		.4byte	.LASF33
 1846 02ab 01       		.byte	0x1
 1847 02ac 8B01     		.2byte	0x18b
 1848 02ae 00000000 		.4byte	.LFB7
 1849 02b2 2C000000 		.4byte	.LFE7-.LFB7
 1850 02b6 01       		.uleb128 0x1
 1851 02b7 9C       		.byte	0x9c
 1852 02b8 EF020000 		.4byte	0x2ef
 1853 02bc 10       		.uleb128 0x10
 1854 02bd F8020000 		.4byte	.LASF34
 1855 02c1 01       		.byte	0x1
 1856 02c2 8B01     		.2byte	0x18b
 1857 02c4 77000000 		.4byte	0x77
 1858 02c8 D0000000 		.4byte	.LLST7
 1859 02cc 0E       		.uleb128 0xe
 1860 02cd CE050000 		.4byte	.LASF27
 1861 02d1 01       		.byte	0x1
 1862 02d2 8D01     		.2byte	0x18d
 1863 02d4 6B000000 		.4byte	0x6b
 1864 02d8 FC000000 		.4byte	.LLST8
 1865 02dc 0F       		.uleb128 0xf
ARM GAS  C:\Users\TECHCO~1\AppData\Local\Temp\cc9RpRiE.s 			page 63


 1866 02dd 08000000 		.4byte	.LVL19
 1867 02e1 46090000 		.4byte	0x946
 1868 02e5 0F       		.uleb128 0xf
 1869 02e6 22000000 		.4byte	.LVL20
 1870 02ea 51090000 		.4byte	0x951
 1871 02ee 00       		.byte	0
 1872 02ef 0D       		.uleb128 0xd
 1873 02f0 9C040000 		.4byte	.LASF35
 1874 02f4 01       		.byte	0x1
 1875 02f5 C101     		.2byte	0x1c1
 1876 02f7 00000000 		.4byte	.LFB8
 1877 02fb 10000000 		.4byte	.LFE8-.LFB8
 1878 02ff 01       		.uleb128 0x1
 1879 0300 9C       		.byte	0x9c
 1880 0301 16030000 		.4byte	0x316
 1881 0305 10       		.uleb128 0x10
 1882 0306 95020000 		.4byte	.LASF36
 1883 030a 01       		.byte	0x1
 1884 030b C101     		.2byte	0x1c1
 1885 030d 77000000 		.4byte	0x77
 1886 0311 0F010000 		.4byte	.LLST9
 1887 0315 00       		.byte	0
 1888 0316 0D       		.uleb128 0xd
 1889 0317 F7010000 		.4byte	.LASF37
 1890 031b 01       		.byte	0x1
 1891 031c E501     		.2byte	0x1e5
 1892 031e 00000000 		.4byte	.LFB9
 1893 0322 28000000 		.4byte	.LFE9-.LFB9
 1894 0326 01       		.uleb128 0x1
 1895 0327 9C       		.byte	0x9c
 1896 0328 5F030000 		.4byte	0x35f
 1897 032c 10       		.uleb128 0x10
 1898 032d 67030000 		.4byte	.LASF38
 1899 0331 01       		.byte	0x1
 1900 0332 E501     		.2byte	0x1e5
 1901 0334 77000000 		.4byte	0x77
 1902 0338 30010000 		.4byte	.LLST10
 1903 033c 0E       		.uleb128 0xe
 1904 033d CE050000 		.4byte	.LASF27
 1905 0341 01       		.byte	0x1
 1906 0342 E701     		.2byte	0x1e7
 1907 0344 6B000000 		.4byte	0x6b
 1908 0348 5C010000 		.4byte	.LLST11
 1909 034c 0F       		.uleb128 0xf
 1910 034d 08000000 		.4byte	.LVL25
 1911 0351 46090000 		.4byte	0x946
 1912 0355 0F       		.uleb128 0xf
 1913 0356 22000000 		.4byte	.LVL26
 1914 035a 51090000 		.4byte	0x951
 1915 035e 00       		.byte	0
 1916 035f 0D       		.uleb128 0xd
 1917 0360 B5020000 		.4byte	.LASF39
 1918 0364 01       		.byte	0x1
 1919 0365 0702     		.2byte	0x207
 1920 0367 00000000 		.4byte	.LFB10
 1921 036b 28000000 		.4byte	.LFE10-.LFB10
 1922 036f 01       		.uleb128 0x1
ARM GAS  C:\Users\TECHCO~1\AppData\Local\Temp\cc9RpRiE.s 			page 64


 1923 0370 9C       		.byte	0x9c
 1924 0371 A8030000 		.4byte	0x3a8
 1925 0375 10       		.uleb128 0x10
 1926 0376 31040000 		.4byte	.LASF40
 1927 037a 01       		.byte	0x1
 1928 037b 0702     		.2byte	0x207
 1929 037d 77000000 		.4byte	0x77
 1930 0381 6F010000 		.4byte	.LLST12
 1931 0385 0E       		.uleb128 0xe
 1932 0386 CE050000 		.4byte	.LASF27
 1933 038a 01       		.byte	0x1
 1934 038b 0902     		.2byte	0x209
 1935 038d 6B000000 		.4byte	0x6b
 1936 0391 9B010000 		.4byte	.LLST13
 1937 0395 0F       		.uleb128 0xf
 1938 0396 08000000 		.4byte	.LVL29
 1939 039a 46090000 		.4byte	0x946
 1940 039e 0F       		.uleb128 0xf
 1941 039f 22000000 		.4byte	.LVL30
 1942 03a3 51090000 		.4byte	0x951
 1943 03a7 00       		.byte	0
 1944 03a8 0D       		.uleb128 0xd
 1945 03a9 64020000 		.4byte	.LASF41
 1946 03ad 01       		.byte	0x1
 1947 03ae 2802     		.2byte	0x228
 1948 03b0 00000000 		.4byte	.LFB11
 1949 03b4 2C000000 		.4byte	.LFE11-.LFB11
 1950 03b8 01       		.uleb128 0x1
 1951 03b9 9C       		.byte	0x9c
 1952 03ba F1030000 		.4byte	0x3f1
 1953 03be 10       		.uleb128 0x10
 1954 03bf 26020000 		.4byte	.LASF42
 1955 03c3 01       		.byte	0x1
 1956 03c4 2802     		.2byte	0x228
 1957 03c6 77000000 		.4byte	0x77
 1958 03ca AE010000 		.4byte	.LLST14
 1959 03ce 0E       		.uleb128 0xe
 1960 03cf CE050000 		.4byte	.LASF27
 1961 03d3 01       		.byte	0x1
 1962 03d4 2A02     		.2byte	0x22a
 1963 03d6 6B000000 		.4byte	0x6b
 1964 03da DA010000 		.4byte	.LLST15
 1965 03de 0F       		.uleb128 0xf
 1966 03df 08000000 		.4byte	.LVL33
 1967 03e3 46090000 		.4byte	0x946
 1968 03e7 0F       		.uleb128 0xf
 1969 03e8 20000000 		.4byte	.LVL35
 1970 03ec 51090000 		.4byte	0x951
 1971 03f0 00       		.byte	0
 1972 03f1 0D       		.uleb128 0xd
 1973 03f2 06030000 		.4byte	.LASF43
 1974 03f6 01       		.byte	0x1
 1975 03f7 4902     		.2byte	0x249
 1976 03f9 00000000 		.4byte	.LFB12
 1977 03fd 28000000 		.4byte	.LFE12-.LFB12
 1978 0401 01       		.uleb128 0x1
 1979 0402 9C       		.byte	0x9c
ARM GAS  C:\Users\TECHCO~1\AppData\Local\Temp\cc9RpRiE.s 			page 65


 1980 0403 3A040000 		.4byte	0x43a
 1981 0407 10       		.uleb128 0x10
 1982 0408 21020000 		.4byte	.LASF44
 1983 040c 01       		.byte	0x1
 1984 040d 4902     		.2byte	0x249
 1985 040f 77000000 		.4byte	0x77
 1986 0413 ED010000 		.4byte	.LLST16
 1987 0417 0E       		.uleb128 0xe
 1988 0418 CE050000 		.4byte	.LASF27
 1989 041c 01       		.byte	0x1
 1990 041d 4B02     		.2byte	0x24b
 1991 041f 6B000000 		.4byte	0x6b
 1992 0423 19020000 		.4byte	.LLST17
 1993 0427 0F       		.uleb128 0xf
 1994 0428 08000000 		.4byte	.LVL37
 1995 042c 46090000 		.4byte	0x946
 1996 0430 0F       		.uleb128 0xf
 1997 0431 1C000000 		.4byte	.LVL38
 1998 0435 51090000 		.4byte	0x951
 1999 0439 00       		.byte	0
 2000 043a 11       		.uleb128 0x11
 2001 043b B0000000 		.4byte	0xb0
 2002 043f 00000000 		.4byte	.LFB13
 2003 0443 0C000000 		.4byte	.LFE13-.LFB13
 2004 0447 01       		.uleb128 0x1
 2005 0448 9C       		.byte	0x9c
 2006 0449 57040000 		.4byte	0x457
 2007 044d 12       		.uleb128 0x12
 2008 044e BD000000 		.4byte	0xbd
 2009 0452 2C020000 		.4byte	.LLST18
 2010 0456 00       		.byte	0
 2011 0457 13       		.uleb128 0x13
 2012 0458 A4010000 		.4byte	.LASF47
 2013 045c 01       		.byte	0x1
 2014 045d 7B02     		.2byte	0x27b
 2015 045f 77000000 		.4byte	0x77
 2016 0463 00000000 		.4byte	.LFB14
 2017 0467 0C000000 		.4byte	.LFE14-.LFB14
 2018 046b 01       		.uleb128 0x1
 2019 046c 9C       		.byte	0x9c
 2020 046d 0D       		.uleb128 0xd
 2021 046e EE050000 		.4byte	.LASF45
 2022 0472 01       		.byte	0x1
 2023 0473 9802     		.2byte	0x298
 2024 0475 00000000 		.4byte	.LFB15
 2025 0479 28000000 		.4byte	.LFE15-.LFB15
 2026 047d 01       		.uleb128 0x1
 2027 047e 9C       		.byte	0x9c
 2028 047f B6040000 		.4byte	0x4b6
 2029 0483 10       		.uleb128 0x10
 2030 0484 8B050000 		.4byte	.LASF46
 2031 0488 01       		.byte	0x1
 2032 0489 9802     		.2byte	0x298
 2033 048b 77000000 		.4byte	0x77
 2034 048f 4D020000 		.4byte	.LLST19
 2035 0493 0E       		.uleb128 0xe
 2036 0494 CE050000 		.4byte	.LASF27
ARM GAS  C:\Users\TECHCO~1\AppData\Local\Temp\cc9RpRiE.s 			page 66


 2037 0498 01       		.byte	0x1
 2038 0499 9A02     		.2byte	0x29a
 2039 049b 6B000000 		.4byte	0x6b
 2040 049f 79020000 		.4byte	.LLST20
 2041 04a3 0F       		.uleb128 0xf
 2042 04a4 08000000 		.4byte	.LVL43
 2043 04a8 46090000 		.4byte	0x946
 2044 04ac 0F       		.uleb128 0xf
 2045 04ad 1C000000 		.4byte	.LVL44
 2046 04b1 51090000 		.4byte	0x951
 2047 04b5 00       		.byte	0
 2048 04b6 11       		.uleb128 0x11
 2049 04b7 E4000000 		.4byte	0xe4
 2050 04bb 00000000 		.4byte	.LFB16
 2051 04bf 0C000000 		.4byte	.LFE16-.LFB16
 2052 04c3 01       		.uleb128 0x1
 2053 04c4 9C       		.byte	0x9c
 2054 04c5 D3040000 		.4byte	0x4d3
 2055 04c9 12       		.uleb128 0x12
 2056 04ca F1000000 		.4byte	0xf1
 2057 04ce 8C020000 		.4byte	.LLST21
 2058 04d2 00       		.byte	0
 2059 04d3 13       		.uleb128 0x13
 2060 04d4 76030000 		.4byte	.LASF48
 2061 04d8 01       		.byte	0x1
 2062 04d9 C902     		.2byte	0x2c9
 2063 04db 77000000 		.4byte	0x77
 2064 04df 00000000 		.4byte	.LFB17
 2065 04e3 0C000000 		.4byte	.LFE17-.LFB17
 2066 04e7 01       		.uleb128 0x1
 2067 04e8 9C       		.byte	0x9c
 2068 04e9 0D       		.uleb128 0xd
 2069 04ea 6B010000 		.4byte	.LASF49
 2070 04ee 01       		.byte	0x1
 2071 04ef E302     		.2byte	0x2e3
 2072 04f1 00000000 		.4byte	.LFB18
 2073 04f5 24000000 		.4byte	.LFE18-.LFB18
 2074 04f9 01       		.uleb128 0x1
 2075 04fa 9C       		.byte	0x9c
 2076 04fb 32050000 		.4byte	0x532
 2077 04ff 10       		.uleb128 0x10
 2078 0500 05060000 		.4byte	.LASF50
 2079 0504 01       		.byte	0x1
 2080 0505 E302     		.2byte	0x2e3
 2081 0507 77000000 		.4byte	0x77
 2082 050b AD020000 		.4byte	.LLST22
 2083 050f 0E       		.uleb128 0xe
 2084 0510 CE050000 		.4byte	.LASF27
 2085 0514 01       		.byte	0x1
 2086 0515 E502     		.2byte	0x2e5
 2087 0517 6B000000 		.4byte	0x6b
 2088 051b D9020000 		.4byte	.LLST23
 2089 051f 0F       		.uleb128 0xf
 2090 0520 08000000 		.4byte	.LVL49
 2091 0524 46090000 		.4byte	0x946
 2092 0528 0F       		.uleb128 0xf
 2093 0529 1E000000 		.4byte	.LVL50
ARM GAS  C:\Users\TECHCO~1\AppData\Local\Temp\cc9RpRiE.s 			page 67


 2094 052d 51090000 		.4byte	0x951
 2095 0531 00       		.byte	0
 2096 0532 0D       		.uleb128 0xd
 2097 0533 1A040000 		.4byte	.LASF51
 2098 0537 01       		.byte	0x1
 2099 0538 FE02     		.2byte	0x2fe
 2100 053a 00000000 		.4byte	.LFB19
 2101 053e 0C000000 		.4byte	.LFE19-.LFB19
 2102 0542 01       		.uleb128 0x1
 2103 0543 9C       		.byte	0x9c
 2104 0544 59050000 		.4byte	0x559
 2105 0548 10       		.uleb128 0x10
 2106 0549 25060000 		.4byte	.LASF52
 2107 054d 01       		.byte	0x1
 2108 054e FE02     		.2byte	0x2fe
 2109 0550 77000000 		.4byte	0x77
 2110 0554 EC020000 		.4byte	.LLST24
 2111 0558 00       		.byte	0
 2112 0559 13       		.uleb128 0x13
 2113 055a 38030000 		.4byte	.LASF53
 2114 055e 01       		.byte	0x1
 2115 055f 1203     		.2byte	0x312
 2116 0561 77000000 		.4byte	0x77
 2117 0565 00000000 		.4byte	.LFB20
 2118 0569 0C000000 		.4byte	.LFE20-.LFB20
 2119 056d 01       		.uleb128 0x1
 2120 056e 9C       		.byte	0x9c
 2121 056f 0D       		.uleb128 0xd
 2122 0570 A5030000 		.4byte	.LASF54
 2123 0574 01       		.byte	0x1
 2124 0575 2C03     		.2byte	0x32c
 2125 0577 00000000 		.4byte	.LFB21
 2126 057b 28000000 		.4byte	.LFE21-.LFB21
 2127 057f 01       		.uleb128 0x1
 2128 0580 9C       		.byte	0x9c
 2129 0581 B8050000 		.4byte	0x5b8
 2130 0585 10       		.uleb128 0x10
 2131 0586 05060000 		.4byte	.LASF50
 2132 058a 01       		.byte	0x1
 2133 058b 2C03     		.2byte	0x32c
 2134 058d 77000000 		.4byte	0x77
 2135 0591 0D030000 		.4byte	.LLST25
 2136 0595 0E       		.uleb128 0xe
 2137 0596 CE050000 		.4byte	.LASF27
 2138 059a 01       		.byte	0x1
 2139 059b 2E03     		.2byte	0x32e
 2140 059d 6B000000 		.4byte	0x6b
 2141 05a1 39030000 		.4byte	.LLST26
 2142 05a5 0F       		.uleb128 0xf
 2143 05a6 08000000 		.4byte	.LVL55
 2144 05aa 46090000 		.4byte	0x946
 2145 05ae 0F       		.uleb128 0xf
 2146 05af 22000000 		.4byte	.LVL56
 2147 05b3 51090000 		.4byte	0x951
 2148 05b7 00       		.byte	0
 2149 05b8 11       		.uleb128 0x11
 2150 05b9 FE000000 		.4byte	0xfe
ARM GAS  C:\Users\TECHCO~1\AppData\Local\Temp\cc9RpRiE.s 			page 68


 2151 05bd 00000000 		.4byte	.LFB22
 2152 05c1 0C000000 		.4byte	.LFE22-.LFB22
 2153 05c5 01       		.uleb128 0x1
 2154 05c6 9C       		.byte	0x9c
 2155 05c7 D5050000 		.4byte	0x5d5
 2156 05cb 12       		.uleb128 0x12
 2157 05cc 0B010000 		.4byte	0x10b
 2158 05d0 4C030000 		.4byte	.LLST27
 2159 05d4 00       		.byte	0
 2160 05d5 13       		.uleb128 0x13
 2161 05d6 D6010000 		.4byte	.LASF55
 2162 05da 01       		.byte	0x1
 2163 05db 8403     		.2byte	0x384
 2164 05dd 77000000 		.4byte	0x77
 2165 05e1 00000000 		.4byte	.LFB23
 2166 05e5 0C000000 		.4byte	.LFE23-.LFB23
 2167 05e9 01       		.uleb128 0x1
 2168 05ea 9C       		.byte	0x9c
 2169 05eb 0D       		.uleb128 0xd
 2170 05ec 97050000 		.4byte	.LASF56
 2171 05f0 01       		.byte	0x1
 2172 05f1 BA03     		.2byte	0x3ba
 2173 05f3 00000000 		.4byte	.LFB24
 2174 05f7 0C000000 		.4byte	.LFE24-.LFB24
 2175 05fb 01       		.uleb128 0x1
 2176 05fc 9C       		.byte	0x9c
 2177 05fd 12060000 		.4byte	0x612
 2178 0601 10       		.uleb128 0x10
 2179 0602 C3050000 		.4byte	.LASF57
 2180 0606 01       		.byte	0x1
 2181 0607 BA03     		.2byte	0x3ba
 2182 0609 77000000 		.4byte	0x77
 2183 060d 6D030000 		.4byte	.LLST28
 2184 0611 00       		.byte	0
 2185 0612 13       		.uleb128 0x13
 2186 0613 3A010000 		.4byte	.LASF58
 2187 0617 01       		.byte	0x1
 2188 0618 E803     		.2byte	0x3e8
 2189 061a 77000000 		.4byte	0x77
 2190 061e 00000000 		.4byte	.LFB25
 2191 0622 0C000000 		.4byte	.LFE25-.LFB25
 2192 0626 01       		.uleb128 0x1
 2193 0627 9C       		.byte	0x9c
 2194 0628 13       		.uleb128 0x13
 2195 0629 AF050000 		.4byte	.LASF59
 2196 062d 01       		.byte	0x1
 2197 062e 1604     		.2byte	0x416
 2198 0630 77000000 		.4byte	0x77
 2199 0634 00000000 		.4byte	.LFB26
 2200 0638 0C000000 		.4byte	.LFE26-.LFB26
 2201 063c 01       		.uleb128 0x1
 2202 063d 9C       		.byte	0x9c
 2203 063e 13       		.uleb128 0x13
 2204 063f E5040000 		.4byte	.LASF60
 2205 0643 01       		.byte	0x1
 2206 0644 2B04     		.2byte	0x42b
 2207 0646 77000000 		.4byte	0x77
ARM GAS  C:\Users\TECHCO~1\AppData\Local\Temp\cc9RpRiE.s 			page 69


 2208 064a 00000000 		.4byte	.LFB27
 2209 064e 0C000000 		.4byte	.LFE27-.LFB27
 2210 0652 01       		.uleb128 0x1
 2211 0653 9C       		.byte	0x9c
 2212 0654 0D       		.uleb128 0xd
 2213 0655 94000000 		.4byte	.LASF61
 2214 0659 01       		.byte	0x1
 2215 065a 4604     		.2byte	0x446
 2216 065c 00000000 		.4byte	.LFB28
 2217 0660 24000000 		.4byte	.LFE28-.LFB28
 2218 0664 01       		.uleb128 0x1
 2219 0665 9C       		.byte	0x9c
 2220 0666 9D060000 		.4byte	0x69d
 2221 066a 10       		.uleb128 0x10
 2222 066b 15020000 		.4byte	.LASF62
 2223 066f 01       		.byte	0x1
 2224 0670 4604     		.2byte	0x446
 2225 0672 77000000 		.4byte	0x77
 2226 0676 8E030000 		.4byte	.LLST29
 2227 067a 0E       		.uleb128 0xe
 2228 067b CE050000 		.4byte	.LASF27
 2229 067f 01       		.byte	0x1
 2230 0680 4804     		.2byte	0x448
 2231 0682 6B000000 		.4byte	0x6b
 2232 0686 BA030000 		.4byte	.LLST30
 2233 068a 0F       		.uleb128 0xf
 2234 068b 08000000 		.4byte	.LVL63
 2235 068f 46090000 		.4byte	0x946
 2236 0693 0F       		.uleb128 0xf
 2237 0694 1C000000 		.4byte	.LVL64
 2238 0698 51090000 		.4byte	0x951
 2239 069c 00       		.byte	0
 2240 069d 0D       		.uleb128 0xd
 2241 069e CF040000 		.4byte	.LASF63
 2242 06a2 01       		.byte	0x1
 2243 06a3 6704     		.2byte	0x467
 2244 06a5 00000000 		.4byte	.LFB29
 2245 06a9 24000000 		.4byte	.LFE29-.LFB29
 2246 06ad 01       		.uleb128 0x1
 2247 06ae 9C       		.byte	0x9c
 2248 06af E6060000 		.4byte	0x6e6
 2249 06b3 10       		.uleb128 0x10
 2250 06b4 15020000 		.4byte	.LASF62
 2251 06b8 01       		.byte	0x1
 2252 06b9 6704     		.2byte	0x467
 2253 06bb 77000000 		.4byte	0x77
 2254 06bf CD030000 		.4byte	.LLST31
 2255 06c3 0E       		.uleb128 0xe
 2256 06c4 CE050000 		.4byte	.LASF27
 2257 06c8 01       		.byte	0x1
 2258 06c9 6904     		.2byte	0x469
 2259 06cb 6B000000 		.4byte	0x6b
 2260 06cf F9030000 		.4byte	.LLST32
 2261 06d3 0F       		.uleb128 0xf
 2262 06d4 08000000 		.4byte	.LVL67
 2263 06d8 46090000 		.4byte	0x946
 2264 06dc 0F       		.uleb128 0xf
ARM GAS  C:\Users\TECHCO~1\AppData\Local\Temp\cc9RpRiE.s 			page 70


 2265 06dd 1E000000 		.4byte	.LVL68
 2266 06e1 51090000 		.4byte	0x951
 2267 06e5 00       		.byte	0
 2268 06e6 0D       		.uleb128 0xd
 2269 06e7 82010000 		.4byte	.LASF64
 2270 06eb 01       		.byte	0x1
 2271 06ec 8804     		.2byte	0x488
 2272 06ee 00000000 		.4byte	.LFB30
 2273 06f2 28000000 		.4byte	.LFE30-.LFB30
 2274 06f6 01       		.uleb128 0x1
 2275 06f7 9C       		.byte	0x9c
 2276 06f8 2F070000 		.4byte	0x72f
 2277 06fc 10       		.uleb128 0x10
 2278 06fd 15020000 		.4byte	.LASF62
 2279 0701 01       		.byte	0x1
 2280 0702 8804     		.2byte	0x488
 2281 0704 77000000 		.4byte	0x77
 2282 0708 0C040000 		.4byte	.LLST33
 2283 070c 0E       		.uleb128 0xe
 2284 070d CE050000 		.4byte	.LASF27
 2285 0711 01       		.byte	0x1
 2286 0712 8A04     		.2byte	0x48a
 2287 0714 6B000000 		.4byte	0x6b
 2288 0718 38040000 		.4byte	.LLST34
 2289 071c 0F       		.uleb128 0xf
 2290 071d 08000000 		.4byte	.LVL71
 2291 0721 46090000 		.4byte	0x946
 2292 0725 0F       		.uleb128 0xf
 2293 0726 1E000000 		.4byte	.LVL72
 2294 072a 51090000 		.4byte	0x951
 2295 072e 00       		.byte	0
 2296 072f 0D       		.uleb128 0xd
 2297 0730 89030000 		.4byte	.LASF65
 2298 0734 01       		.byte	0x1
 2299 0735 A804     		.2byte	0x4a8
 2300 0737 00000000 		.4byte	.LFB31
 2301 073b 24000000 		.4byte	.LFE31-.LFB31
 2302 073f 01       		.uleb128 0x1
 2303 0740 9C       		.byte	0x9c
 2304 0741 78070000 		.4byte	0x778
 2305 0745 10       		.uleb128 0x10
 2306 0746 15020000 		.4byte	.LASF62
 2307 074a 01       		.byte	0x1
 2308 074b A804     		.2byte	0x4a8
 2309 074d 77000000 		.4byte	0x77
 2310 0751 4B040000 		.4byte	.LLST35
 2311 0755 0E       		.uleb128 0xe
 2312 0756 CE050000 		.4byte	.LASF27
 2313 075a 01       		.byte	0x1
 2314 075b AA04     		.2byte	0x4aa
 2315 075d 6B000000 		.4byte	0x6b
 2316 0761 77040000 		.4byte	.LLST36
 2317 0765 0F       		.uleb128 0xf
 2318 0766 08000000 		.4byte	.LVL75
 2319 076a 46090000 		.4byte	0x946
 2320 076e 0F       		.uleb128 0xf
 2321 076f 1E000000 		.4byte	.LVL76
ARM GAS  C:\Users\TECHCO~1\AppData\Local\Temp\cc9RpRiE.s 			page 71


 2322 0773 51090000 		.4byte	0x951
 2323 0777 00       		.byte	0
 2324 0778 0D       		.uleb128 0xd
 2325 0779 1E010000 		.4byte	.LASF66
 2326 077d 01       		.byte	0x1
 2327 077e C904     		.2byte	0x4c9
 2328 0780 00000000 		.4byte	.LFB32
 2329 0784 24000000 		.4byte	.LFE32-.LFB32
 2330 0788 01       		.uleb128 0x1
 2331 0789 9C       		.byte	0x9c
 2332 078a C1070000 		.4byte	0x7c1
 2333 078e 10       		.uleb128 0x10
 2334 078f 15020000 		.4byte	.LASF62
 2335 0793 01       		.byte	0x1
 2336 0794 C904     		.2byte	0x4c9
 2337 0796 77000000 		.4byte	0x77
 2338 079a 8A040000 		.4byte	.LLST37
 2339 079e 0E       		.uleb128 0xe
 2340 079f CE050000 		.4byte	.LASF27
 2341 07a3 01       		.byte	0x1
 2342 07a4 CB04     		.2byte	0x4cb
 2343 07a6 6B000000 		.4byte	0x6b
 2344 07aa B6040000 		.4byte	.LLST38
 2345 07ae 0F       		.uleb128 0xf
 2346 07af 08000000 		.4byte	.LVL79
 2347 07b3 46090000 		.4byte	0x946
 2348 07b7 0F       		.uleb128 0xf
 2349 07b8 1E000000 		.4byte	.LVL80
 2350 07bc 51090000 		.4byte	0x951
 2351 07c0 00       		.byte	0
 2352 07c1 0D       		.uleb128 0xd
 2353 07c2 1B030000 		.4byte	.LASF67
 2354 07c6 01       		.byte	0x1
 2355 07c7 F104     		.2byte	0x4f1
 2356 07c9 00000000 		.4byte	.LFB33
 2357 07cd 1C000000 		.4byte	.LFE33-.LFB33
 2358 07d1 01       		.uleb128 0x1
 2359 07d2 9C       		.byte	0x9c
 2360 07d3 1A080000 		.4byte	0x81a
 2361 07d7 10       		.uleb128 0x10
 2362 07d8 21020000 		.4byte	.LASF44
 2363 07dc 01       		.byte	0x1
 2364 07dd F104     		.2byte	0x4f1
 2365 07df 77000000 		.4byte	0x77
 2366 07e3 C9040000 		.4byte	.LLST39
 2367 07e7 10       		.uleb128 0x10
 2368 07e8 7B020000 		.4byte	.LASF68
 2369 07ec 01       		.byte	0x1
 2370 07ed F104     		.2byte	0x4f1
 2371 07ef 77000000 		.4byte	0x77
 2372 07f3 EA040000 		.4byte	.LLST40
 2373 07f7 0E       		.uleb128 0xe
 2374 07f8 CE050000 		.4byte	.LASF27
 2375 07fc 01       		.byte	0x1
 2376 07fd F304     		.2byte	0x4f3
 2377 07ff 6B000000 		.4byte	0x6b
 2378 0803 16050000 		.4byte	.LLST41
ARM GAS  C:\Users\TECHCO~1\AppData\Local\Temp\cc9RpRiE.s 			page 72


 2379 0807 0F       		.uleb128 0xf
 2380 0808 0C000000 		.4byte	.LVL83
 2381 080c 46090000 		.4byte	0x946
 2382 0810 0F       		.uleb128 0xf
 2383 0811 14000000 		.4byte	.LVL84
 2384 0815 51090000 		.4byte	0x951
 2385 0819 00       		.byte	0
 2386 081a 08       		.uleb128 0x8
 2387 081b DF050000 		.4byte	.LASF69
 2388 081f 01       		.byte	0x1
 2389 0820 B1       		.byte	0xb1
 2390 0821 00000000 		.4byte	.LFB1
 2391 0825 24000000 		.4byte	.LFE1-.LFB1
 2392 0829 01       		.uleb128 0x1
 2393 082a 9C       		.byte	0x9c
 2394 082b 66080000 		.4byte	0x866
 2395 082f 14       		.uleb128 0x14
 2396 0830 CE050000 		.4byte	.LASF27
 2397 0834 01       		.byte	0x1
 2398 0835 B3       		.byte	0xb3
 2399 0836 6B000000 		.4byte	0x6b
 2400 083a 29050000 		.4byte	.LLST42
 2401 083e 0F       		.uleb128 0xf
 2402 083f 08000000 		.4byte	.LVL86
 2403 0843 46090000 		.4byte	0x946
 2404 0847 0F       		.uleb128 0xf
 2405 0848 14000000 		.4byte	.LVL87
 2406 084c 51090000 		.4byte	0x951
 2407 0850 15       		.uleb128 0x15
 2408 0851 1C000000 		.4byte	.LVL88
 2409 0855 C1070000 		.4byte	0x7c1
 2410 0859 16       		.uleb128 0x16
 2411 085a 01       		.uleb128 0x1
 2412 085b 51       		.byte	0x51
 2413 085c 01       		.uleb128 0x1
 2414 085d 48       		.byte	0x48
 2415 085e 16       		.uleb128 0x16
 2416 085f 01       		.uleb128 0x1
 2417 0860 50       		.byte	0x50
 2418 0861 02       		.uleb128 0x2
 2419 0862 74       		.byte	0x74
 2420 0863 00       		.sleb128 0
 2421 0864 00       		.byte	0
 2422 0865 00       		.byte	0
 2423 0866 08       		.uleb128 0x8
 2424 0867 10010000 		.4byte	.LASF70
 2425 086b 01       		.byte	0x1
 2426 086c E6       		.byte	0xe6
 2427 086d 00000000 		.4byte	.LFB2
 2428 0871 1C000000 		.4byte	.LFE2-.LFB2
 2429 0875 01       		.uleb128 0x1
 2430 0876 9C       		.byte	0x9c
 2431 0877 8E080000 		.4byte	0x88e
 2432 087b 0F       		.uleb128 0xf
 2433 087c 0E000000 		.4byte	.LVL89
 2434 0880 18010000 		.4byte	0x118
 2435 0884 0F       		.uleb128 0xf
ARM GAS  C:\Users\TECHCO~1\AppData\Local\Temp\cc9RpRiE.s 			page 73


 2436 0885 16000000 		.4byte	.LVL90
 2437 0889 1A080000 		.4byte	0x81a
 2438 088d 00       		.byte	0
 2439 088e 13       		.uleb128 0x13
 2440 088f 2F020000 		.4byte	.LASF71
 2441 0893 01       		.byte	0x1
 2442 0894 0E05     		.2byte	0x50e
 2443 0896 77000000 		.4byte	0x77
 2444 089a 00000000 		.4byte	.LFB34
 2445 089e 14000000 		.4byte	.LFE34-.LFB34
 2446 08a2 01       		.uleb128 0x1
 2447 08a3 9C       		.byte	0x9c
 2448 08a4 11       		.uleb128 0x11
 2449 08a5 CA000000 		.4byte	0xca
 2450 08a9 00000000 		.4byte	.LFB35
 2451 08ad 0C000000 		.4byte	.LFE35-.LFB35
 2452 08b1 01       		.uleb128 0x1
 2453 08b2 9C       		.byte	0x9c
 2454 08b3 BF080000 		.4byte	0x8bf
 2455 08b7 17       		.uleb128 0x17
 2456 08b8 D7000000 		.4byte	0xd7
 2457 08bc 01       		.uleb128 0x1
 2458 08bd 50       		.byte	0x50
 2459 08be 00       		.byte	0
 2460 08bf 13       		.uleb128 0x13
 2461 08c0 7B040000 		.4byte	.LASF72
 2462 08c4 01       		.byte	0x1
 2463 08c5 3E05     		.2byte	0x53e
 2464 08c7 77000000 		.4byte	0x77
 2465 08cb 00000000 		.4byte	.LFB36
 2466 08cf 0C000000 		.4byte	.LFE36-.LFB36
 2467 08d3 01       		.uleb128 0x1
 2468 08d4 9C       		.byte	0x9c
 2469 08d5 13       		.uleb128 0x13
 2470 08d6 42040000 		.4byte	.LASF73
 2471 08da 01       		.byte	0x1
 2472 08db 5505     		.2byte	0x555
 2473 08dd 77000000 		.4byte	0x77
 2474 08e1 00000000 		.4byte	.LFB37
 2475 08e5 0C000000 		.4byte	.LFE37-.LFB37
 2476 08e9 01       		.uleb128 0x1
 2477 08ea 9C       		.byte	0x9c
 2478 08eb 0D       		.uleb128 0xd
 2479 08ec CE020000 		.4byte	.LASF74
 2480 08f0 01       		.byte	0x1
 2481 08f1 6C05     		.2byte	0x56c
 2482 08f3 00000000 		.4byte	.LFB38
 2483 08f7 0C000000 		.4byte	.LFE38-.LFB38
 2484 08fb 01       		.uleb128 0x1
 2485 08fc 9C       		.byte	0x9c
 2486 08fd 10090000 		.4byte	0x910
 2487 0901 18       		.uleb128 0x18
 2488 0902 AF040000 		.4byte	.LASF19
 2489 0906 01       		.byte	0x1
 2490 0907 6C05     		.2byte	0x56c
 2491 0909 77000000 		.4byte	0x77
 2492 090d 01       		.uleb128 0x1
ARM GAS  C:\Users\TECHCO~1\AppData\Local\Temp\cc9RpRiE.s 			page 74


 2493 090e 50       		.byte	0x50
 2494 090f 00       		.byte	0
 2495 0910 0D       		.uleb128 0xd
 2496 0911 10060000 		.4byte	.LASF75
 2497 0915 01       		.byte	0x1
 2498 0916 8305     		.2byte	0x583
 2499 0918 00000000 		.4byte	.LFB39
 2500 091c 0C000000 		.4byte	.LFE39-.LFB39
 2501 0920 01       		.uleb128 0x1
 2502 0921 9C       		.byte	0x9c
 2503 0922 35090000 		.4byte	0x935
 2504 0926 18       		.uleb128 0x18
 2505 0927 AF040000 		.4byte	.LASF19
 2506 092b 01       		.byte	0x1
 2507 092c 8305     		.2byte	0x583
 2508 092e 77000000 		.4byte	0x77
 2509 0932 01       		.uleb128 0x1
 2510 0933 50       		.byte	0x50
 2511 0934 00       		.byte	0
 2512 0935 19       		.uleb128 0x19
 2513 0936 E9000000 		.4byte	.LASF79
 2514 093a 01       		.byte	0x1
 2515 093b 15       		.byte	0x15
 2516 093c 6B000000 		.4byte	0x6b
 2517 0940 05       		.uleb128 0x5
 2518 0941 03       		.byte	0x3
 2519 0942 00000000 		.4byte	TCPWM_4_initVar
 2520 0946 1A       		.uleb128 0x1a
 2521 0947 9E020000 		.4byte	.LASF80
 2522 094b 03       		.byte	0x3
 2523 094c E5       		.byte	0xe5
 2524 094d 6B000000 		.4byte	0x6b
 2525 0951 1B       		.uleb128 0x1b
 2526 0952 AB000000 		.4byte	.LASF81
 2527 0956 03       		.byte	0x3
 2528 0957 E6       		.byte	0xe6
 2529 0958 1C       		.uleb128 0x1c
 2530 0959 6B000000 		.4byte	0x6b
 2531 095d 00       		.byte	0
 2532 095e 00       		.byte	0
 2533              		.section	.debug_abbrev,"",%progbits
 2534              	.Ldebug_abbrev0:
 2535 0000 01       		.uleb128 0x1
 2536 0001 11       		.uleb128 0x11
 2537 0002 01       		.byte	0x1
 2538 0003 25       		.uleb128 0x25
 2539 0004 0E       		.uleb128 0xe
 2540 0005 13       		.uleb128 0x13
 2541 0006 0B       		.uleb128 0xb
 2542 0007 03       		.uleb128 0x3
 2543 0008 0E       		.uleb128 0xe
 2544 0009 1B       		.uleb128 0x1b
 2545 000a 0E       		.uleb128 0xe
 2546 000b 55       		.uleb128 0x55
 2547 000c 17       		.uleb128 0x17
 2548 000d 11       		.uleb128 0x11
 2549 000e 01       		.uleb128 0x1
ARM GAS  C:\Users\TECHCO~1\AppData\Local\Temp\cc9RpRiE.s 			page 75


 2550 000f 10       		.uleb128 0x10
 2551 0010 17       		.uleb128 0x17
 2552 0011 00       		.byte	0
 2553 0012 00       		.byte	0
 2554 0013 02       		.uleb128 0x2
 2555 0014 24       		.uleb128 0x24
 2556 0015 00       		.byte	0
 2557 0016 0B       		.uleb128 0xb
 2558 0017 0B       		.uleb128 0xb
 2559 0018 3E       		.uleb128 0x3e
 2560 0019 0B       		.uleb128 0xb
 2561 001a 03       		.uleb128 0x3
 2562 001b 0E       		.uleb128 0xe
 2563 001c 00       		.byte	0
 2564 001d 00       		.byte	0
 2565 001e 03       		.uleb128 0x3
 2566 001f 24       		.uleb128 0x24
 2567 0020 00       		.byte	0
 2568 0021 0B       		.uleb128 0xb
 2569 0022 0B       		.uleb128 0xb
 2570 0023 3E       		.uleb128 0x3e
 2571 0024 0B       		.uleb128 0xb
 2572 0025 03       		.uleb128 0x3
 2573 0026 08       		.uleb128 0x8
 2574 0027 00       		.byte	0
 2575 0028 00       		.byte	0
 2576 0029 04       		.uleb128 0x4
 2577 002a 16       		.uleb128 0x16
 2578 002b 00       		.byte	0
 2579 002c 03       		.uleb128 0x3
 2580 002d 0E       		.uleb128 0xe
 2581 002e 3A       		.uleb128 0x3a
 2582 002f 0B       		.uleb128 0xb
 2583 0030 3B       		.uleb128 0x3b
 2584 0031 05       		.uleb128 0x5
 2585 0032 49       		.uleb128 0x49
 2586 0033 13       		.uleb128 0x13
 2587 0034 00       		.byte	0
 2588 0035 00       		.byte	0
 2589 0036 05       		.uleb128 0x5
 2590 0037 35       		.uleb128 0x35
 2591 0038 00       		.byte	0
 2592 0039 49       		.uleb128 0x49
 2593 003a 13       		.uleb128 0x13
 2594 003b 00       		.byte	0
 2595 003c 00       		.byte	0
 2596 003d 06       		.uleb128 0x6
 2597 003e 2E       		.uleb128 0x2e
 2598 003f 01       		.byte	0x1
 2599 0040 3F       		.uleb128 0x3f
 2600 0041 19       		.uleb128 0x19
 2601 0042 03       		.uleb128 0x3
 2602 0043 0E       		.uleb128 0xe
 2603 0044 3A       		.uleb128 0x3a
 2604 0045 0B       		.uleb128 0xb
 2605 0046 3B       		.uleb128 0x3b
 2606 0047 05       		.uleb128 0x5
ARM GAS  C:\Users\TECHCO~1\AppData\Local\Temp\cc9RpRiE.s 			page 76


 2607 0048 27       		.uleb128 0x27
 2608 0049 19       		.uleb128 0x19
 2609 004a 20       		.uleb128 0x20
 2610 004b 0B       		.uleb128 0xb
 2611 004c 01       		.uleb128 0x1
 2612 004d 13       		.uleb128 0x13
 2613 004e 00       		.byte	0
 2614 004f 00       		.byte	0
 2615 0050 07       		.uleb128 0x7
 2616 0051 05       		.uleb128 0x5
 2617 0052 00       		.byte	0
 2618 0053 03       		.uleb128 0x3
 2619 0054 0E       		.uleb128 0xe
 2620 0055 3A       		.uleb128 0x3a
 2621 0056 0B       		.uleb128 0xb
 2622 0057 3B       		.uleb128 0x3b
 2623 0058 05       		.uleb128 0x5
 2624 0059 49       		.uleb128 0x49
 2625 005a 13       		.uleb128 0x13
 2626 005b 00       		.byte	0
 2627 005c 00       		.byte	0
 2628 005d 08       		.uleb128 0x8
 2629 005e 2E       		.uleb128 0x2e
 2630 005f 01       		.byte	0x1
 2631 0060 3F       		.uleb128 0x3f
 2632 0061 19       		.uleb128 0x19
 2633 0062 03       		.uleb128 0x3
 2634 0063 0E       		.uleb128 0xe
 2635 0064 3A       		.uleb128 0x3a
 2636 0065 0B       		.uleb128 0xb
 2637 0066 3B       		.uleb128 0x3b
 2638 0067 0B       		.uleb128 0xb
 2639 0068 27       		.uleb128 0x27
 2640 0069 19       		.uleb128 0x19
 2641 006a 11       		.uleb128 0x11
 2642 006b 01       		.uleb128 0x1
 2643 006c 12       		.uleb128 0x12
 2644 006d 06       		.uleb128 0x6
 2645 006e 40       		.uleb128 0x40
 2646 006f 18       		.uleb128 0x18
 2647 0070 9742     		.uleb128 0x2117
 2648 0072 19       		.uleb128 0x19
 2649 0073 01       		.uleb128 0x1
 2650 0074 13       		.uleb128 0x13
 2651 0075 00       		.byte	0
 2652 0076 00       		.byte	0
 2653 0077 09       		.uleb128 0x9
 2654 0078 1D       		.uleb128 0x1d
 2655 0079 01       		.byte	0x1
 2656 007a 31       		.uleb128 0x31
 2657 007b 13       		.uleb128 0x13
 2658 007c 52       		.uleb128 0x52
 2659 007d 01       		.uleb128 0x1
 2660 007e 55       		.uleb128 0x55
 2661 007f 17       		.uleb128 0x17
 2662 0080 58       		.uleb128 0x58
 2663 0081 0B       		.uleb128 0xb
ARM GAS  C:\Users\TECHCO~1\AppData\Local\Temp\cc9RpRiE.s 			page 77


 2664 0082 59       		.uleb128 0x59
 2665 0083 0B       		.uleb128 0xb
 2666 0084 01       		.uleb128 0x1
 2667 0085 13       		.uleb128 0x13
 2668 0086 00       		.byte	0
 2669 0087 00       		.byte	0
 2670 0088 0A       		.uleb128 0xa
 2671 0089 05       		.uleb128 0x5
 2672 008a 00       		.byte	0
 2673 008b 31       		.uleb128 0x31
 2674 008c 13       		.uleb128 0x13
 2675 008d 1C       		.uleb128 0x1c
 2676 008e 0B       		.uleb128 0xb
 2677 008f 00       		.byte	0
 2678 0090 00       		.byte	0
 2679 0091 0B       		.uleb128 0xb
 2680 0092 1D       		.uleb128 0x1d
 2681 0093 01       		.byte	0x1
 2682 0094 31       		.uleb128 0x31
 2683 0095 13       		.uleb128 0x13
 2684 0096 11       		.uleb128 0x11
 2685 0097 01       		.uleb128 0x1
 2686 0098 12       		.uleb128 0x12
 2687 0099 06       		.uleb128 0x6
 2688 009a 58       		.uleb128 0x58
 2689 009b 0B       		.uleb128 0xb
 2690 009c 59       		.uleb128 0x59
 2691 009d 0B       		.uleb128 0xb
 2692 009e 01       		.uleb128 0x1
 2693 009f 13       		.uleb128 0x13
 2694 00a0 00       		.byte	0
 2695 00a1 00       		.byte	0
 2696 00a2 0C       		.uleb128 0xc
 2697 00a3 1D       		.uleb128 0x1d
 2698 00a4 01       		.byte	0x1
 2699 00a5 31       		.uleb128 0x31
 2700 00a6 13       		.uleb128 0x13
 2701 00a7 11       		.uleb128 0x11
 2702 00a8 01       		.uleb128 0x1
 2703 00a9 12       		.uleb128 0x12
 2704 00aa 06       		.uleb128 0x6
 2705 00ab 58       		.uleb128 0x58
 2706 00ac 0B       		.uleb128 0xb
 2707 00ad 59       		.uleb128 0x59
 2708 00ae 0B       		.uleb128 0xb
 2709 00af 00       		.byte	0
 2710 00b0 00       		.byte	0
 2711 00b1 0D       		.uleb128 0xd
 2712 00b2 2E       		.uleb128 0x2e
 2713 00b3 01       		.byte	0x1
 2714 00b4 3F       		.uleb128 0x3f
 2715 00b5 19       		.uleb128 0x19
 2716 00b6 03       		.uleb128 0x3
 2717 00b7 0E       		.uleb128 0xe
 2718 00b8 3A       		.uleb128 0x3a
 2719 00b9 0B       		.uleb128 0xb
 2720 00ba 3B       		.uleb128 0x3b
ARM GAS  C:\Users\TECHCO~1\AppData\Local\Temp\cc9RpRiE.s 			page 78


 2721 00bb 05       		.uleb128 0x5
 2722 00bc 27       		.uleb128 0x27
 2723 00bd 19       		.uleb128 0x19
 2724 00be 11       		.uleb128 0x11
 2725 00bf 01       		.uleb128 0x1
 2726 00c0 12       		.uleb128 0x12
 2727 00c1 06       		.uleb128 0x6
 2728 00c2 40       		.uleb128 0x40
 2729 00c3 18       		.uleb128 0x18
 2730 00c4 9742     		.uleb128 0x2117
 2731 00c6 19       		.uleb128 0x19
 2732 00c7 01       		.uleb128 0x1
 2733 00c8 13       		.uleb128 0x13
 2734 00c9 00       		.byte	0
 2735 00ca 00       		.byte	0
 2736 00cb 0E       		.uleb128 0xe
 2737 00cc 34       		.uleb128 0x34
 2738 00cd 00       		.byte	0
 2739 00ce 03       		.uleb128 0x3
 2740 00cf 0E       		.uleb128 0xe
 2741 00d0 3A       		.uleb128 0x3a
 2742 00d1 0B       		.uleb128 0xb
 2743 00d2 3B       		.uleb128 0x3b
 2744 00d3 05       		.uleb128 0x5
 2745 00d4 49       		.uleb128 0x49
 2746 00d5 13       		.uleb128 0x13
 2747 00d6 02       		.uleb128 0x2
 2748 00d7 17       		.uleb128 0x17
 2749 00d8 00       		.byte	0
 2750 00d9 00       		.byte	0
 2751 00da 0F       		.uleb128 0xf
 2752 00db 898201   		.uleb128 0x4109
 2753 00de 00       		.byte	0
 2754 00df 11       		.uleb128 0x11
 2755 00e0 01       		.uleb128 0x1
 2756 00e1 31       		.uleb128 0x31
 2757 00e2 13       		.uleb128 0x13
 2758 00e3 00       		.byte	0
 2759 00e4 00       		.byte	0
 2760 00e5 10       		.uleb128 0x10
 2761 00e6 05       		.uleb128 0x5
 2762 00e7 00       		.byte	0
 2763 00e8 03       		.uleb128 0x3
 2764 00e9 0E       		.uleb128 0xe
 2765 00ea 3A       		.uleb128 0x3a
 2766 00eb 0B       		.uleb128 0xb
 2767 00ec 3B       		.uleb128 0x3b
 2768 00ed 05       		.uleb128 0x5
 2769 00ee 49       		.uleb128 0x49
 2770 00ef 13       		.uleb128 0x13
 2771 00f0 02       		.uleb128 0x2
 2772 00f1 17       		.uleb128 0x17
 2773 00f2 00       		.byte	0
 2774 00f3 00       		.byte	0
 2775 00f4 11       		.uleb128 0x11
 2776 00f5 2E       		.uleb128 0x2e
 2777 00f6 01       		.byte	0x1
ARM GAS  C:\Users\TECHCO~1\AppData\Local\Temp\cc9RpRiE.s 			page 79


 2778 00f7 31       		.uleb128 0x31
 2779 00f8 13       		.uleb128 0x13
 2780 00f9 11       		.uleb128 0x11
 2781 00fa 01       		.uleb128 0x1
 2782 00fb 12       		.uleb128 0x12
 2783 00fc 06       		.uleb128 0x6
 2784 00fd 40       		.uleb128 0x40
 2785 00fe 18       		.uleb128 0x18
 2786 00ff 9742     		.uleb128 0x2117
 2787 0101 19       		.uleb128 0x19
 2788 0102 01       		.uleb128 0x1
 2789 0103 13       		.uleb128 0x13
 2790 0104 00       		.byte	0
 2791 0105 00       		.byte	0
 2792 0106 12       		.uleb128 0x12
 2793 0107 05       		.uleb128 0x5
 2794 0108 00       		.byte	0
 2795 0109 31       		.uleb128 0x31
 2796 010a 13       		.uleb128 0x13
 2797 010b 02       		.uleb128 0x2
 2798 010c 17       		.uleb128 0x17
 2799 010d 00       		.byte	0
 2800 010e 00       		.byte	0
 2801 010f 13       		.uleb128 0x13
 2802 0110 2E       		.uleb128 0x2e
 2803 0111 00       		.byte	0
 2804 0112 3F       		.uleb128 0x3f
 2805 0113 19       		.uleb128 0x19
 2806 0114 03       		.uleb128 0x3
 2807 0115 0E       		.uleb128 0xe
 2808 0116 3A       		.uleb128 0x3a
 2809 0117 0B       		.uleb128 0xb
 2810 0118 3B       		.uleb128 0x3b
 2811 0119 05       		.uleb128 0x5
 2812 011a 27       		.uleb128 0x27
 2813 011b 19       		.uleb128 0x19
 2814 011c 49       		.uleb128 0x49
 2815 011d 13       		.uleb128 0x13
 2816 011e 11       		.uleb128 0x11
 2817 011f 01       		.uleb128 0x1
 2818 0120 12       		.uleb128 0x12
 2819 0121 06       		.uleb128 0x6
 2820 0122 40       		.uleb128 0x40
 2821 0123 18       		.uleb128 0x18
 2822 0124 9742     		.uleb128 0x2117
 2823 0126 19       		.uleb128 0x19
 2824 0127 00       		.byte	0
 2825 0128 00       		.byte	0
 2826 0129 14       		.uleb128 0x14
 2827 012a 34       		.uleb128 0x34
 2828 012b 00       		.byte	0
 2829 012c 03       		.uleb128 0x3
 2830 012d 0E       		.uleb128 0xe
 2831 012e 3A       		.uleb128 0x3a
 2832 012f 0B       		.uleb128 0xb
 2833 0130 3B       		.uleb128 0x3b
 2834 0131 0B       		.uleb128 0xb
ARM GAS  C:\Users\TECHCO~1\AppData\Local\Temp\cc9RpRiE.s 			page 80


 2835 0132 49       		.uleb128 0x49
 2836 0133 13       		.uleb128 0x13
 2837 0134 02       		.uleb128 0x2
 2838 0135 17       		.uleb128 0x17
 2839 0136 00       		.byte	0
 2840 0137 00       		.byte	0
 2841 0138 15       		.uleb128 0x15
 2842 0139 898201   		.uleb128 0x4109
 2843 013c 01       		.byte	0x1
 2844 013d 11       		.uleb128 0x11
 2845 013e 01       		.uleb128 0x1
 2846 013f 31       		.uleb128 0x31
 2847 0140 13       		.uleb128 0x13
 2848 0141 00       		.byte	0
 2849 0142 00       		.byte	0
 2850 0143 16       		.uleb128 0x16
 2851 0144 8A8201   		.uleb128 0x410a
 2852 0147 00       		.byte	0
 2853 0148 02       		.uleb128 0x2
 2854 0149 18       		.uleb128 0x18
 2855 014a 9142     		.uleb128 0x2111
 2856 014c 18       		.uleb128 0x18
 2857 014d 00       		.byte	0
 2858 014e 00       		.byte	0
 2859 014f 17       		.uleb128 0x17
 2860 0150 05       		.uleb128 0x5
 2861 0151 00       		.byte	0
 2862 0152 31       		.uleb128 0x31
 2863 0153 13       		.uleb128 0x13
 2864 0154 02       		.uleb128 0x2
 2865 0155 18       		.uleb128 0x18
 2866 0156 00       		.byte	0
 2867 0157 00       		.byte	0
 2868 0158 18       		.uleb128 0x18
 2869 0159 05       		.uleb128 0x5
 2870 015a 00       		.byte	0
 2871 015b 03       		.uleb128 0x3
 2872 015c 0E       		.uleb128 0xe
 2873 015d 3A       		.uleb128 0x3a
 2874 015e 0B       		.uleb128 0xb
 2875 015f 3B       		.uleb128 0x3b
 2876 0160 05       		.uleb128 0x5
 2877 0161 49       		.uleb128 0x49
 2878 0162 13       		.uleb128 0x13
 2879 0163 02       		.uleb128 0x2
 2880 0164 18       		.uleb128 0x18
 2881 0165 00       		.byte	0
 2882 0166 00       		.byte	0
 2883 0167 19       		.uleb128 0x19
 2884 0168 34       		.uleb128 0x34
 2885 0169 00       		.byte	0
 2886 016a 03       		.uleb128 0x3
 2887 016b 0E       		.uleb128 0xe
 2888 016c 3A       		.uleb128 0x3a
 2889 016d 0B       		.uleb128 0xb
 2890 016e 3B       		.uleb128 0x3b
 2891 016f 0B       		.uleb128 0xb
ARM GAS  C:\Users\TECHCO~1\AppData\Local\Temp\cc9RpRiE.s 			page 81


 2892 0170 49       		.uleb128 0x49
 2893 0171 13       		.uleb128 0x13
 2894 0172 3F       		.uleb128 0x3f
 2895 0173 19       		.uleb128 0x19
 2896 0174 02       		.uleb128 0x2
 2897 0175 18       		.uleb128 0x18
 2898 0176 00       		.byte	0
 2899 0177 00       		.byte	0
 2900 0178 1A       		.uleb128 0x1a
 2901 0179 2E       		.uleb128 0x2e
 2902 017a 00       		.byte	0
 2903 017b 3F       		.uleb128 0x3f
 2904 017c 19       		.uleb128 0x19
 2905 017d 03       		.uleb128 0x3
 2906 017e 0E       		.uleb128 0xe
 2907 017f 3A       		.uleb128 0x3a
 2908 0180 0B       		.uleb128 0xb
 2909 0181 3B       		.uleb128 0x3b
 2910 0182 0B       		.uleb128 0xb
 2911 0183 27       		.uleb128 0x27
 2912 0184 19       		.uleb128 0x19
 2913 0185 49       		.uleb128 0x49
 2914 0186 13       		.uleb128 0x13
 2915 0187 3C       		.uleb128 0x3c
 2916 0188 19       		.uleb128 0x19
 2917 0189 00       		.byte	0
 2918 018a 00       		.byte	0
 2919 018b 1B       		.uleb128 0x1b
 2920 018c 2E       		.uleb128 0x2e
 2921 018d 01       		.byte	0x1
 2922 018e 3F       		.uleb128 0x3f
 2923 018f 19       		.uleb128 0x19
 2924 0190 03       		.uleb128 0x3
 2925 0191 0E       		.uleb128 0xe
 2926 0192 3A       		.uleb128 0x3a
 2927 0193 0B       		.uleb128 0xb
 2928 0194 3B       		.uleb128 0x3b
 2929 0195 0B       		.uleb128 0xb
 2930 0196 27       		.uleb128 0x27
 2931 0197 19       		.uleb128 0x19
 2932 0198 3C       		.uleb128 0x3c
 2933 0199 19       		.uleb128 0x19
 2934 019a 00       		.byte	0
 2935 019b 00       		.byte	0
 2936 019c 1C       		.uleb128 0x1c
 2937 019d 05       		.uleb128 0x5
 2938 019e 00       		.byte	0
 2939 019f 49       		.uleb128 0x49
 2940 01a0 13       		.uleb128 0x13
 2941 01a1 00       		.byte	0
 2942 01a2 00       		.byte	0
 2943 01a3 00       		.byte	0
 2944              		.section	.debug_loc,"",%progbits
 2945              	.Ldebug_loc0:
 2946              	.LLST0:
 2947 0000 06000000 		.4byte	.LVL4
 2948 0004 13000000 		.4byte	.LVL5-1
ARM GAS  C:\Users\TECHCO~1\AppData\Local\Temp\cc9RpRiE.s 			page 82


 2949 0008 0100     		.2byte	0x1
 2950 000a 50       		.byte	0x50
 2951 000b 00000000 		.4byte	0
 2952 000f 00000000 		.4byte	0
 2953              	.LLST1:
 2954 0013 00000000 		.4byte	.LVL6
 2955 0017 07000000 		.4byte	.LVL7-1
 2956 001b 0100     		.2byte	0x1
 2957 001d 50       		.byte	0x50
 2958 001e 07000000 		.4byte	.LVL7-1
 2959 0022 1C000000 		.4byte	.LVL9
 2960 0026 0100     		.2byte	0x1
 2961 0028 54       		.byte	0x54
 2962 0029 1C000000 		.4byte	.LVL9
 2963 002d 28000000 		.4byte	.LFE4
 2964 0031 0400     		.2byte	0x4
 2965 0033 F3       		.byte	0xf3
 2966 0034 01       		.uleb128 0x1
 2967 0035 50       		.byte	0x50
 2968 0036 9F       		.byte	0x9f
 2969 0037 00000000 		.4byte	0
 2970 003b 00000000 		.4byte	0
 2971              	.LLST2:
 2972 003f 08000000 		.4byte	.LVL7
 2973 0043 1B000000 		.4byte	.LVL8-1
 2974 0047 0100     		.2byte	0x1
 2975 0049 50       		.byte	0x50
 2976 004a 00000000 		.4byte	0
 2977 004e 00000000 		.4byte	0
 2978              	.LLST3:
 2979 0052 00000000 		.4byte	.LVL10
 2980 0056 07000000 		.4byte	.LVL11-1
 2981 005a 0100     		.2byte	0x1
 2982 005c 50       		.byte	0x50
 2983 005d 07000000 		.4byte	.LVL11-1
 2984 0061 1C000000 		.4byte	.LVL13
 2985 0065 0100     		.2byte	0x1
 2986 0067 54       		.byte	0x54
 2987 0068 1C000000 		.4byte	.LVL13
 2988 006c 28000000 		.4byte	.LFE5
 2989 0070 0400     		.2byte	0x4
 2990 0072 F3       		.byte	0xf3
 2991 0073 01       		.uleb128 0x1
 2992 0074 50       		.byte	0x50
 2993 0075 9F       		.byte	0x9f
 2994 0076 00000000 		.4byte	0
 2995 007a 00000000 		.4byte	0
 2996              	.LLST4:
 2997 007e 08000000 		.4byte	.LVL11
 2998 0082 1B000000 		.4byte	.LVL12-1
 2999 0086 0100     		.2byte	0x1
 3000 0088 50       		.byte	0x50
 3001 0089 00000000 		.4byte	0
 3002 008d 00000000 		.4byte	0
 3003              	.LLST5:
 3004 0091 00000000 		.4byte	.LVL14
 3005 0095 07000000 		.4byte	.LVL15-1
ARM GAS  C:\Users\TECHCO~1\AppData\Local\Temp\cc9RpRiE.s 			page 83


 3006 0099 0100     		.2byte	0x1
 3007 009b 50       		.byte	0x50
 3008 009c 07000000 		.4byte	.LVL15-1
 3009 00a0 1C000000 		.4byte	.LVL17
 3010 00a4 0100     		.2byte	0x1
 3011 00a6 54       		.byte	0x54
 3012 00a7 1C000000 		.4byte	.LVL17
 3013 00ab 28000000 		.4byte	.LFE6
 3014 00af 0400     		.2byte	0x4
 3015 00b1 F3       		.byte	0xf3
 3016 00b2 01       		.uleb128 0x1
 3017 00b3 50       		.byte	0x50
 3018 00b4 9F       		.byte	0x9f
 3019 00b5 00000000 		.4byte	0
 3020 00b9 00000000 		.4byte	0
 3021              	.LLST6:
 3022 00bd 08000000 		.4byte	.LVL15
 3023 00c1 1B000000 		.4byte	.LVL16-1
 3024 00c5 0100     		.2byte	0x1
 3025 00c7 50       		.byte	0x50
 3026 00c8 00000000 		.4byte	0
 3027 00cc 00000000 		.4byte	0
 3028              	.LLST7:
 3029 00d0 00000000 		.4byte	.LVL18
 3030 00d4 07000000 		.4byte	.LVL19-1
 3031 00d8 0100     		.2byte	0x1
 3032 00da 50       		.byte	0x50
 3033 00db 07000000 		.4byte	.LVL19-1
 3034 00df 22000000 		.4byte	.LVL21
 3035 00e3 0100     		.2byte	0x1
 3036 00e5 54       		.byte	0x54
 3037 00e6 22000000 		.4byte	.LVL21
 3038 00ea 2C000000 		.4byte	.LFE7
 3039 00ee 0400     		.2byte	0x4
 3040 00f0 F3       		.byte	0xf3
 3041 00f1 01       		.uleb128 0x1
 3042 00f2 50       		.byte	0x50
 3043 00f3 9F       		.byte	0x9f
 3044 00f4 00000000 		.4byte	0
 3045 00f8 00000000 		.4byte	0
 3046              	.LLST8:
 3047 00fc 08000000 		.4byte	.LVL19
 3048 0100 21000000 		.4byte	.LVL20-1
 3049 0104 0100     		.2byte	0x1
 3050 0106 50       		.byte	0x50
 3051 0107 00000000 		.4byte	0
 3052 010b 00000000 		.4byte	0
 3053              	.LLST9:
 3054 010f 00000000 		.4byte	.LVL22
 3055 0113 04000000 		.4byte	.LVL23
 3056 0117 0100     		.2byte	0x1
 3057 0119 50       		.byte	0x50
 3058 011a 04000000 		.4byte	.LVL23
 3059 011e 10000000 		.4byte	.LFE8
 3060 0122 0400     		.2byte	0x4
 3061 0124 F3       		.byte	0xf3
 3062 0125 01       		.uleb128 0x1
ARM GAS  C:\Users\TECHCO~1\AppData\Local\Temp\cc9RpRiE.s 			page 84


 3063 0126 50       		.byte	0x50
 3064 0127 9F       		.byte	0x9f
 3065 0128 00000000 		.4byte	0
 3066 012c 00000000 		.4byte	0
 3067              	.LLST10:
 3068 0130 00000000 		.4byte	.LVL24
 3069 0134 07000000 		.4byte	.LVL25-1
 3070 0138 0100     		.2byte	0x1
 3071 013a 50       		.byte	0x50
 3072 013b 07000000 		.4byte	.LVL25-1
 3073 013f 22000000 		.4byte	.LVL27
 3074 0143 0100     		.2byte	0x1
 3075 0145 54       		.byte	0x54
 3076 0146 22000000 		.4byte	.LVL27
 3077 014a 28000000 		.4byte	.LFE9
 3078 014e 0400     		.2byte	0x4
 3079 0150 F3       		.byte	0xf3
 3080 0151 01       		.uleb128 0x1
 3081 0152 50       		.byte	0x50
 3082 0153 9F       		.byte	0x9f
 3083 0154 00000000 		.4byte	0
 3084 0158 00000000 		.4byte	0
 3085              	.LLST11:
 3086 015c 08000000 		.4byte	.LVL25
 3087 0160 21000000 		.4byte	.LVL26-1
 3088 0164 0100     		.2byte	0x1
 3089 0166 50       		.byte	0x50
 3090 0167 00000000 		.4byte	0
 3091 016b 00000000 		.4byte	0
 3092              	.LLST12:
 3093 016f 00000000 		.4byte	.LVL28
 3094 0173 07000000 		.4byte	.LVL29-1
 3095 0177 0100     		.2byte	0x1
 3096 0179 50       		.byte	0x50
 3097 017a 07000000 		.4byte	.LVL29-1
 3098 017e 22000000 		.4byte	.LVL31
 3099 0182 0100     		.2byte	0x1
 3100 0184 54       		.byte	0x54
 3101 0185 22000000 		.4byte	.LVL31
 3102 0189 28000000 		.4byte	.LFE10
 3103 018d 0400     		.2byte	0x4
 3104 018f F3       		.byte	0xf3
 3105 0190 01       		.uleb128 0x1
 3106 0191 50       		.byte	0x50
 3107 0192 9F       		.byte	0x9f
 3108 0193 00000000 		.4byte	0
 3109 0197 00000000 		.4byte	0
 3110              	.LLST13:
 3111 019b 08000000 		.4byte	.LVL29
 3112 019f 21000000 		.4byte	.LVL30-1
 3113 01a3 0100     		.2byte	0x1
 3114 01a5 50       		.byte	0x50
 3115 01a6 00000000 		.4byte	0
 3116 01aa 00000000 		.4byte	0
 3117              	.LLST14:
 3118 01ae 00000000 		.4byte	.LVL32
 3119 01b2 07000000 		.4byte	.LVL33-1
ARM GAS  C:\Users\TECHCO~1\AppData\Local\Temp\cc9RpRiE.s 			page 85


 3120 01b6 0100     		.2byte	0x1
 3121 01b8 50       		.byte	0x50
 3122 01b9 07000000 		.4byte	.LVL33-1
 3123 01bd 10000000 		.4byte	.LVL34
 3124 01c1 0100     		.2byte	0x1
 3125 01c3 54       		.byte	0x54
 3126 01c4 10000000 		.4byte	.LVL34
 3127 01c8 2C000000 		.4byte	.LFE11
 3128 01cc 0400     		.2byte	0x4
 3129 01ce F3       		.byte	0xf3
 3130 01cf 01       		.uleb128 0x1
 3131 01d0 50       		.byte	0x50
 3132 01d1 9F       		.byte	0x9f
 3133 01d2 00000000 		.4byte	0
 3134 01d6 00000000 		.4byte	0
 3135              	.LLST15:
 3136 01da 08000000 		.4byte	.LVL33
 3137 01de 1F000000 		.4byte	.LVL35-1
 3138 01e2 0100     		.2byte	0x1
 3139 01e4 50       		.byte	0x50
 3140 01e5 00000000 		.4byte	0
 3141 01e9 00000000 		.4byte	0
 3142              	.LLST16:
 3143 01ed 00000000 		.4byte	.LVL36
 3144 01f1 07000000 		.4byte	.LVL37-1
 3145 01f5 0100     		.2byte	0x1
 3146 01f7 50       		.byte	0x50
 3147 01f8 07000000 		.4byte	.LVL37-1
 3148 01fc 1C000000 		.4byte	.LVL39
 3149 0200 0100     		.2byte	0x1
 3150 0202 54       		.byte	0x54
 3151 0203 1C000000 		.4byte	.LVL39
 3152 0207 28000000 		.4byte	.LFE12
 3153 020b 0400     		.2byte	0x4
 3154 020d F3       		.byte	0xf3
 3155 020e 01       		.uleb128 0x1
 3156 020f 50       		.byte	0x50
 3157 0210 9F       		.byte	0x9f
 3158 0211 00000000 		.4byte	0
 3159 0215 00000000 		.4byte	0
 3160              	.LLST17:
 3161 0219 08000000 		.4byte	.LVL37
 3162 021d 1B000000 		.4byte	.LVL38-1
 3163 0221 0100     		.2byte	0x1
 3164 0223 50       		.byte	0x50
 3165 0224 00000000 		.4byte	0
 3166 0228 00000000 		.4byte	0
 3167              	.LLST18:
 3168 022c 00000000 		.4byte	.LVL40
 3169 0230 04000000 		.4byte	.LVL41
 3170 0234 0100     		.2byte	0x1
 3171 0236 50       		.byte	0x50
 3172 0237 04000000 		.4byte	.LVL41
 3173 023b 0C000000 		.4byte	.LFE13
 3174 023f 0400     		.2byte	0x4
 3175 0241 F3       		.byte	0xf3
 3176 0242 01       		.uleb128 0x1
ARM GAS  C:\Users\TECHCO~1\AppData\Local\Temp\cc9RpRiE.s 			page 86


 3177 0243 50       		.byte	0x50
 3178 0244 9F       		.byte	0x9f
 3179 0245 00000000 		.4byte	0
 3180 0249 00000000 		.4byte	0
 3181              	.LLST19:
 3182 024d 00000000 		.4byte	.LVL42
 3183 0251 07000000 		.4byte	.LVL43-1
 3184 0255 0100     		.2byte	0x1
 3185 0257 50       		.byte	0x50
 3186 0258 07000000 		.4byte	.LVL43-1
 3187 025c 1C000000 		.4byte	.LVL45
 3188 0260 0100     		.2byte	0x1
 3189 0262 54       		.byte	0x54
 3190 0263 1C000000 		.4byte	.LVL45
 3191 0267 28000000 		.4byte	.LFE15
 3192 026b 0400     		.2byte	0x4
 3193 026d F3       		.byte	0xf3
 3194 026e 01       		.uleb128 0x1
 3195 026f 50       		.byte	0x50
 3196 0270 9F       		.byte	0x9f
 3197 0271 00000000 		.4byte	0
 3198 0275 00000000 		.4byte	0
 3199              	.LLST20:
 3200 0279 08000000 		.4byte	.LVL43
 3201 027d 1B000000 		.4byte	.LVL44-1
 3202 0281 0100     		.2byte	0x1
 3203 0283 50       		.byte	0x50
 3204 0284 00000000 		.4byte	0
 3205 0288 00000000 		.4byte	0
 3206              	.LLST21:
 3207 028c 00000000 		.4byte	.LVL46
 3208 0290 04000000 		.4byte	.LVL47
 3209 0294 0100     		.2byte	0x1
 3210 0296 50       		.byte	0x50
 3211 0297 04000000 		.4byte	.LVL47
 3212 029b 0C000000 		.4byte	.LFE16
 3213 029f 0400     		.2byte	0x4
 3214 02a1 F3       		.byte	0xf3
 3215 02a2 01       		.uleb128 0x1
 3216 02a3 50       		.byte	0x50
 3217 02a4 9F       		.byte	0x9f
 3218 02a5 00000000 		.4byte	0
 3219 02a9 00000000 		.4byte	0
 3220              	.LLST22:
 3221 02ad 00000000 		.4byte	.LVL48
 3222 02b1 07000000 		.4byte	.LVL49-1
 3223 02b5 0100     		.2byte	0x1
 3224 02b7 50       		.byte	0x50
 3225 02b8 07000000 		.4byte	.LVL49-1
 3226 02bc 1E000000 		.4byte	.LVL51
 3227 02c0 0100     		.2byte	0x1
 3228 02c2 54       		.byte	0x54
 3229 02c3 1E000000 		.4byte	.LVL51
 3230 02c7 24000000 		.4byte	.LFE18
 3231 02cb 0400     		.2byte	0x4
 3232 02cd F3       		.byte	0xf3
 3233 02ce 01       		.uleb128 0x1
ARM GAS  C:\Users\TECHCO~1\AppData\Local\Temp\cc9RpRiE.s 			page 87


 3234 02cf 50       		.byte	0x50
 3235 02d0 9F       		.byte	0x9f
 3236 02d1 00000000 		.4byte	0
 3237 02d5 00000000 		.4byte	0
 3238              	.LLST23:
 3239 02d9 08000000 		.4byte	.LVL49
 3240 02dd 1D000000 		.4byte	.LVL50-1
 3241 02e1 0100     		.2byte	0x1
 3242 02e3 50       		.byte	0x50
 3243 02e4 00000000 		.4byte	0
 3244 02e8 00000000 		.4byte	0
 3245              	.LLST24:
 3246 02ec 00000000 		.4byte	.LVL52
 3247 02f0 04000000 		.4byte	.LVL53
 3248 02f4 0100     		.2byte	0x1
 3249 02f6 50       		.byte	0x50
 3250 02f7 04000000 		.4byte	.LVL53
 3251 02fb 0C000000 		.4byte	.LFE19
 3252 02ff 0400     		.2byte	0x4
 3253 0301 F3       		.byte	0xf3
 3254 0302 01       		.uleb128 0x1
 3255 0303 50       		.byte	0x50
 3256 0304 9F       		.byte	0x9f
 3257 0305 00000000 		.4byte	0
 3258 0309 00000000 		.4byte	0
 3259              	.LLST25:
 3260 030d 00000000 		.4byte	.LVL54
 3261 0311 07000000 		.4byte	.LVL55-1
 3262 0315 0100     		.2byte	0x1
 3263 0317 50       		.byte	0x50
 3264 0318 07000000 		.4byte	.LVL55-1
 3265 031c 22000000 		.4byte	.LVL57
 3266 0320 0100     		.2byte	0x1
 3267 0322 54       		.byte	0x54
 3268 0323 22000000 		.4byte	.LVL57
 3269 0327 28000000 		.4byte	.LFE21
 3270 032b 0400     		.2byte	0x4
 3271 032d F3       		.byte	0xf3
 3272 032e 01       		.uleb128 0x1
 3273 032f 50       		.byte	0x50
 3274 0330 9F       		.byte	0x9f
 3275 0331 00000000 		.4byte	0
 3276 0335 00000000 		.4byte	0
 3277              	.LLST26:
 3278 0339 08000000 		.4byte	.LVL55
 3279 033d 21000000 		.4byte	.LVL56-1
 3280 0341 0100     		.2byte	0x1
 3281 0343 50       		.byte	0x50
 3282 0344 00000000 		.4byte	0
 3283 0348 00000000 		.4byte	0
 3284              	.LLST27:
 3285 034c 00000000 		.4byte	.LVL58
 3286 0350 04000000 		.4byte	.LVL59
 3287 0354 0100     		.2byte	0x1
 3288 0356 50       		.byte	0x50
 3289 0357 04000000 		.4byte	.LVL59
 3290 035b 0C000000 		.4byte	.LFE22
ARM GAS  C:\Users\TECHCO~1\AppData\Local\Temp\cc9RpRiE.s 			page 88


 3291 035f 0400     		.2byte	0x4
 3292 0361 F3       		.byte	0xf3
 3293 0362 01       		.uleb128 0x1
 3294 0363 50       		.byte	0x50
 3295 0364 9F       		.byte	0x9f
 3296 0365 00000000 		.4byte	0
 3297 0369 00000000 		.4byte	0
 3298              	.LLST28:
 3299 036d 00000000 		.4byte	.LVL60
 3300 0371 04000000 		.4byte	.LVL61
 3301 0375 0100     		.2byte	0x1
 3302 0377 50       		.byte	0x50
 3303 0378 04000000 		.4byte	.LVL61
 3304 037c 0C000000 		.4byte	.LFE24
 3305 0380 0400     		.2byte	0x4
 3306 0382 F3       		.byte	0xf3
 3307 0383 01       		.uleb128 0x1
 3308 0384 50       		.byte	0x50
 3309 0385 9F       		.byte	0x9f
 3310 0386 00000000 		.4byte	0
 3311 038a 00000000 		.4byte	0
 3312              	.LLST29:
 3313 038e 00000000 		.4byte	.LVL62
 3314 0392 07000000 		.4byte	.LVL63-1
 3315 0396 0100     		.2byte	0x1
 3316 0398 50       		.byte	0x50
 3317 0399 07000000 		.4byte	.LVL63-1
 3318 039d 1C000000 		.4byte	.LVL65
 3319 03a1 0100     		.2byte	0x1
 3320 03a3 54       		.byte	0x54
 3321 03a4 1C000000 		.4byte	.LVL65
 3322 03a8 24000000 		.4byte	.LFE28
 3323 03ac 0400     		.2byte	0x4
 3324 03ae F3       		.byte	0xf3
 3325 03af 01       		.uleb128 0x1
 3326 03b0 50       		.byte	0x50
 3327 03b1 9F       		.byte	0x9f
 3328 03b2 00000000 		.4byte	0
 3329 03b6 00000000 		.4byte	0
 3330              	.LLST30:
 3331 03ba 08000000 		.4byte	.LVL63
 3332 03be 1B000000 		.4byte	.LVL64-1
 3333 03c2 0100     		.2byte	0x1
 3334 03c4 50       		.byte	0x50
 3335 03c5 00000000 		.4byte	0
 3336 03c9 00000000 		.4byte	0
 3337              	.LLST31:
 3338 03cd 00000000 		.4byte	.LVL66
 3339 03d1 07000000 		.4byte	.LVL67-1
 3340 03d5 0100     		.2byte	0x1
 3341 03d7 50       		.byte	0x50
 3342 03d8 07000000 		.4byte	.LVL67-1
 3343 03dc 1E000000 		.4byte	.LVL69
 3344 03e0 0100     		.2byte	0x1
 3345 03e2 54       		.byte	0x54
 3346 03e3 1E000000 		.4byte	.LVL69
 3347 03e7 24000000 		.4byte	.LFE29
ARM GAS  C:\Users\TECHCO~1\AppData\Local\Temp\cc9RpRiE.s 			page 89


 3348 03eb 0400     		.2byte	0x4
 3349 03ed F3       		.byte	0xf3
 3350 03ee 01       		.uleb128 0x1
 3351 03ef 50       		.byte	0x50
 3352 03f0 9F       		.byte	0x9f
 3353 03f1 00000000 		.4byte	0
 3354 03f5 00000000 		.4byte	0
 3355              	.LLST32:
 3356 03f9 08000000 		.4byte	.LVL67
 3357 03fd 1D000000 		.4byte	.LVL68-1
 3358 0401 0100     		.2byte	0x1
 3359 0403 50       		.byte	0x50
 3360 0404 00000000 		.4byte	0
 3361 0408 00000000 		.4byte	0
 3362              	.LLST33:
 3363 040c 00000000 		.4byte	.LVL70
 3364 0410 07000000 		.4byte	.LVL71-1
 3365 0414 0100     		.2byte	0x1
 3366 0416 50       		.byte	0x50
 3367 0417 07000000 		.4byte	.LVL71-1
 3368 041b 1E000000 		.4byte	.LVL73
 3369 041f 0100     		.2byte	0x1
 3370 0421 54       		.byte	0x54
 3371 0422 1E000000 		.4byte	.LVL73
 3372 0426 28000000 		.4byte	.LFE30
 3373 042a 0400     		.2byte	0x4
 3374 042c F3       		.byte	0xf3
 3375 042d 01       		.uleb128 0x1
 3376 042e 50       		.byte	0x50
 3377 042f 9F       		.byte	0x9f
 3378 0430 00000000 		.4byte	0
 3379 0434 00000000 		.4byte	0
 3380              	.LLST34:
 3381 0438 08000000 		.4byte	.LVL71
 3382 043c 1D000000 		.4byte	.LVL72-1
 3383 0440 0100     		.2byte	0x1
 3384 0442 50       		.byte	0x50
 3385 0443 00000000 		.4byte	0
 3386 0447 00000000 		.4byte	0
 3387              	.LLST35:
 3388 044b 00000000 		.4byte	.LVL74
 3389 044f 07000000 		.4byte	.LVL75-1
 3390 0453 0100     		.2byte	0x1
 3391 0455 50       		.byte	0x50
 3392 0456 07000000 		.4byte	.LVL75-1
 3393 045a 1E000000 		.4byte	.LVL77
 3394 045e 0100     		.2byte	0x1
 3395 0460 54       		.byte	0x54
 3396 0461 1E000000 		.4byte	.LVL77
 3397 0465 24000000 		.4byte	.LFE31
 3398 0469 0400     		.2byte	0x4
 3399 046b F3       		.byte	0xf3
 3400 046c 01       		.uleb128 0x1
 3401 046d 50       		.byte	0x50
 3402 046e 9F       		.byte	0x9f
 3403 046f 00000000 		.4byte	0
 3404 0473 00000000 		.4byte	0
ARM GAS  C:\Users\TECHCO~1\AppData\Local\Temp\cc9RpRiE.s 			page 90


 3405              	.LLST36:
 3406 0477 08000000 		.4byte	.LVL75
 3407 047b 1D000000 		.4byte	.LVL76-1
 3408 047f 0100     		.2byte	0x1
 3409 0481 50       		.byte	0x50
 3410 0482 00000000 		.4byte	0
 3411 0486 00000000 		.4byte	0
 3412              	.LLST37:
 3413 048a 00000000 		.4byte	.LVL78
 3414 048e 07000000 		.4byte	.LVL79-1
 3415 0492 0100     		.2byte	0x1
 3416 0494 50       		.byte	0x50
 3417 0495 07000000 		.4byte	.LVL79-1
 3418 0499 1E000000 		.4byte	.LVL81
 3419 049d 0100     		.2byte	0x1
 3420 049f 54       		.byte	0x54
 3421 04a0 1E000000 		.4byte	.LVL81
 3422 04a4 24000000 		.4byte	.LFE32
 3423 04a8 0400     		.2byte	0x4
 3424 04aa F3       		.byte	0xf3
 3425 04ab 01       		.uleb128 0x1
 3426 04ac 50       		.byte	0x50
 3427 04ad 9F       		.byte	0x9f
 3428 04ae 00000000 		.4byte	0
 3429 04b2 00000000 		.4byte	0
 3430              	.LLST38:
 3431 04b6 08000000 		.4byte	.LVL79
 3432 04ba 1D000000 		.4byte	.LVL80-1
 3433 04be 0100     		.2byte	0x1
 3434 04c0 50       		.byte	0x50
 3435 04c1 00000000 		.4byte	0
 3436 04c5 00000000 		.4byte	0
 3437              	.LLST39:
 3438 04c9 00000000 		.4byte	.LVL82
 3439 04cd 0B000000 		.4byte	.LVL83-1
 3440 04d1 0100     		.2byte	0x1
 3441 04d3 50       		.byte	0x50
 3442 04d4 0B000000 		.4byte	.LVL83-1
 3443 04d8 1C000000 		.4byte	.LFE33
 3444 04dc 0400     		.2byte	0x4
 3445 04de F3       		.byte	0xf3
 3446 04df 01       		.uleb128 0x1
 3447 04e0 50       		.byte	0x50
 3448 04e1 9F       		.byte	0x9f
 3449 04e2 00000000 		.4byte	0
 3450 04e6 00000000 		.4byte	0
 3451              	.LLST40:
 3452 04ea 00000000 		.4byte	.LVL82
 3453 04ee 0B000000 		.4byte	.LVL83-1
 3454 04f2 0100     		.2byte	0x1
 3455 04f4 51       		.byte	0x51
 3456 04f5 0B000000 		.4byte	.LVL83-1
 3457 04f9 14000000 		.4byte	.LVL85
 3458 04fd 0100     		.2byte	0x1
 3459 04ff 55       		.byte	0x55
 3460 0500 14000000 		.4byte	.LVL85
 3461 0504 1C000000 		.4byte	.LFE33
ARM GAS  C:\Users\TECHCO~1\AppData\Local\Temp\cc9RpRiE.s 			page 91


 3462 0508 0400     		.2byte	0x4
 3463 050a F3       		.byte	0xf3
 3464 050b 01       		.uleb128 0x1
 3465 050c 51       		.byte	0x51
 3466 050d 9F       		.byte	0x9f
 3467 050e 00000000 		.4byte	0
 3468 0512 00000000 		.4byte	0
 3469              	.LLST41:
 3470 0516 0C000000 		.4byte	.LVL83
 3471 051a 13000000 		.4byte	.LVL84-1
 3472 051e 0100     		.2byte	0x1
 3473 0520 50       		.byte	0x50
 3474 0521 00000000 		.4byte	0
 3475 0525 00000000 		.4byte	0
 3476              	.LLST42:
 3477 0529 08000000 		.4byte	.LVL86
 3478 052d 13000000 		.4byte	.LVL87-1
 3479 0531 0100     		.2byte	0x1
 3480 0533 50       		.byte	0x50
 3481 0534 00000000 		.4byte	0
 3482 0538 00000000 		.4byte	0
 3483              		.section	.debug_aranges,"",%progbits
 3484 0000 54010000 		.4byte	0x154
 3485 0004 0200     		.2byte	0x2
 3486 0006 00000000 		.4byte	.Ldebug_info0
 3487 000a 04       		.byte	0x4
 3488 000b 00       		.byte	0
 3489 000c 0000     		.2byte	0
 3490 000e 0000     		.2byte	0
 3491 0010 00000000 		.4byte	.LFB0
 3492 0014 54000000 		.4byte	.LFE0-.LFB0
 3493 0018 00000000 		.4byte	.LFB3
 3494 001c 1C000000 		.4byte	.LFE3-.LFB3
 3495 0020 00000000 		.4byte	.LFB4
 3496 0024 28000000 		.4byte	.LFE4-.LFB4
 3497 0028 00000000 		.4byte	.LFB5
 3498 002c 28000000 		.4byte	.LFE5-.LFB5
 3499 0030 00000000 		.4byte	.LFB6
 3500 0034 28000000 		.4byte	.LFE6-.LFB6
 3501 0038 00000000 		.4byte	.LFB7
 3502 003c 2C000000 		.4byte	.LFE7-.LFB7
 3503 0040 00000000 		.4byte	.LFB8
 3504 0044 10000000 		.4byte	.LFE8-.LFB8
 3505 0048 00000000 		.4byte	.LFB9
 3506 004c 28000000 		.4byte	.LFE9-.LFB9
 3507 0050 00000000 		.4byte	.LFB10
 3508 0054 28000000 		.4byte	.LFE10-.LFB10
 3509 0058 00000000 		.4byte	.LFB11
 3510 005c 2C000000 		.4byte	.LFE11-.LFB11
 3511 0060 00000000 		.4byte	.LFB12
 3512 0064 28000000 		.4byte	.LFE12-.LFB12
 3513 0068 00000000 		.4byte	.LFB13
 3514 006c 0C000000 		.4byte	.LFE13-.LFB13
 3515 0070 00000000 		.4byte	.LFB14
 3516 0074 0C000000 		.4byte	.LFE14-.LFB14
 3517 0078 00000000 		.4byte	.LFB15
 3518 007c 28000000 		.4byte	.LFE15-.LFB15
ARM GAS  C:\Users\TECHCO~1\AppData\Local\Temp\cc9RpRiE.s 			page 92


 3519 0080 00000000 		.4byte	.LFB16
 3520 0084 0C000000 		.4byte	.LFE16-.LFB16
 3521 0088 00000000 		.4byte	.LFB17
 3522 008c 0C000000 		.4byte	.LFE17-.LFB17
 3523 0090 00000000 		.4byte	.LFB18
 3524 0094 24000000 		.4byte	.LFE18-.LFB18
 3525 0098 00000000 		.4byte	.LFB19
 3526 009c 0C000000 		.4byte	.LFE19-.LFB19
 3527 00a0 00000000 		.4byte	.LFB20
 3528 00a4 0C000000 		.4byte	.LFE20-.LFB20
 3529 00a8 00000000 		.4byte	.LFB21
 3530 00ac 28000000 		.4byte	.LFE21-.LFB21
 3531 00b0 00000000 		.4byte	.LFB22
 3532 00b4 0C000000 		.4byte	.LFE22-.LFB22
 3533 00b8 00000000 		.4byte	.LFB23
 3534 00bc 0C000000 		.4byte	.LFE23-.LFB23
 3535 00c0 00000000 		.4byte	.LFB24
 3536 00c4 0C000000 		.4byte	.LFE24-.LFB24
 3537 00c8 00000000 		.4byte	.LFB25
 3538 00cc 0C000000 		.4byte	.LFE25-.LFB25
 3539 00d0 00000000 		.4byte	.LFB26
 3540 00d4 0C000000 		.4byte	.LFE26-.LFB26
 3541 00d8 00000000 		.4byte	.LFB27
 3542 00dc 0C000000 		.4byte	.LFE27-.LFB27
 3543 00e0 00000000 		.4byte	.LFB28
 3544 00e4 24000000 		.4byte	.LFE28-.LFB28
 3545 00e8 00000000 		.4byte	.LFB29
 3546 00ec 24000000 		.4byte	.LFE29-.LFB29
 3547 00f0 00000000 		.4byte	.LFB30
 3548 00f4 28000000 		.4byte	.LFE30-.LFB30
 3549 00f8 00000000 		.4byte	.LFB31
 3550 00fc 24000000 		.4byte	.LFE31-.LFB31
 3551 0100 00000000 		.4byte	.LFB32
 3552 0104 24000000 		.4byte	.LFE32-.LFB32
 3553 0108 00000000 		.4byte	.LFB33
 3554 010c 1C000000 		.4byte	.LFE33-.LFB33
 3555 0110 00000000 		.4byte	.LFB1
 3556 0114 24000000 		.4byte	.LFE1-.LFB1
 3557 0118 00000000 		.4byte	.LFB2
 3558 011c 1C000000 		.4byte	.LFE2-.LFB2
 3559 0120 00000000 		.4byte	.LFB34
 3560 0124 14000000 		.4byte	.LFE34-.LFB34
 3561 0128 00000000 		.4byte	.LFB35
 3562 012c 0C000000 		.4byte	.LFE35-.LFB35
 3563 0130 00000000 		.4byte	.LFB36
 3564 0134 0C000000 		.4byte	.LFE36-.LFB36
 3565 0138 00000000 		.4byte	.LFB37
 3566 013c 0C000000 		.4byte	.LFE37-.LFB37
 3567 0140 00000000 		.4byte	.LFB38
 3568 0144 0C000000 		.4byte	.LFE38-.LFB38
 3569 0148 00000000 		.4byte	.LFB39
 3570 014c 0C000000 		.4byte	.LFE39-.LFB39
 3571 0150 00000000 		.4byte	0
 3572 0154 00000000 		.4byte	0
 3573              		.section	.debug_ranges,"",%progbits
 3574              	.Ldebug_ranges0:
 3575 0000 02000000 		.4byte	.LBB10
ARM GAS  C:\Users\TECHCO~1\AppData\Local\Temp\cc9RpRiE.s 			page 93


 3576 0004 04000000 		.4byte	.LBE10
 3577 0008 0E000000 		.4byte	.LBB13
 3578 000c 12000000 		.4byte	.LBE13
 3579 0010 00000000 		.4byte	0
 3580 0014 00000000 		.4byte	0
 3581 0018 00000000 		.4byte	.LFB0
 3582 001c 54000000 		.4byte	.LFE0
 3583 0020 00000000 		.4byte	.LFB3
 3584 0024 1C000000 		.4byte	.LFE3
 3585 0028 00000000 		.4byte	.LFB4
 3586 002c 28000000 		.4byte	.LFE4
 3587 0030 00000000 		.4byte	.LFB5
 3588 0034 28000000 		.4byte	.LFE5
 3589 0038 00000000 		.4byte	.LFB6
 3590 003c 28000000 		.4byte	.LFE6
 3591 0040 00000000 		.4byte	.LFB7
 3592 0044 2C000000 		.4byte	.LFE7
 3593 0048 00000000 		.4byte	.LFB8
 3594 004c 10000000 		.4byte	.LFE8
 3595 0050 00000000 		.4byte	.LFB9
 3596 0054 28000000 		.4byte	.LFE9
 3597 0058 00000000 		.4byte	.LFB10
 3598 005c 28000000 		.4byte	.LFE10
 3599 0060 00000000 		.4byte	.LFB11
 3600 0064 2C000000 		.4byte	.LFE11
 3601 0068 00000000 		.4byte	.LFB12
 3602 006c 28000000 		.4byte	.LFE12
 3603 0070 00000000 		.4byte	.LFB13
 3604 0074 0C000000 		.4byte	.LFE13
 3605 0078 00000000 		.4byte	.LFB14
 3606 007c 0C000000 		.4byte	.LFE14
 3607 0080 00000000 		.4byte	.LFB15
 3608 0084 28000000 		.4byte	.LFE15
 3609 0088 00000000 		.4byte	.LFB16
 3610 008c 0C000000 		.4byte	.LFE16
 3611 0090 00000000 		.4byte	.LFB17
 3612 0094 0C000000 		.4byte	.LFE17
 3613 0098 00000000 		.4byte	.LFB18
 3614 009c 24000000 		.4byte	.LFE18
 3615 00a0 00000000 		.4byte	.LFB19
 3616 00a4 0C000000 		.4byte	.LFE19
 3617 00a8 00000000 		.4byte	.LFB20
 3618 00ac 0C000000 		.4byte	.LFE20
 3619 00b0 00000000 		.4byte	.LFB21
 3620 00b4 28000000 		.4byte	.LFE21
 3621 00b8 00000000 		.4byte	.LFB22
 3622 00bc 0C000000 		.4byte	.LFE22
 3623 00c0 00000000 		.4byte	.LFB23
 3624 00c4 0C000000 		.4byte	.LFE23
 3625 00c8 00000000 		.4byte	.LFB24
 3626 00cc 0C000000 		.4byte	.LFE24
 3627 00d0 00000000 		.4byte	.LFB25
 3628 00d4 0C000000 		.4byte	.LFE25
 3629 00d8 00000000 		.4byte	.LFB26
 3630 00dc 0C000000 		.4byte	.LFE26
 3631 00e0 00000000 		.4byte	.LFB27
 3632 00e4 0C000000 		.4byte	.LFE27
ARM GAS  C:\Users\TECHCO~1\AppData\Local\Temp\cc9RpRiE.s 			page 94


 3633 00e8 00000000 		.4byte	.LFB28
 3634 00ec 24000000 		.4byte	.LFE28
 3635 00f0 00000000 		.4byte	.LFB29
 3636 00f4 24000000 		.4byte	.LFE29
 3637 00f8 00000000 		.4byte	.LFB30
 3638 00fc 28000000 		.4byte	.LFE30
 3639 0100 00000000 		.4byte	.LFB31
 3640 0104 24000000 		.4byte	.LFE31
 3641 0108 00000000 		.4byte	.LFB32
 3642 010c 24000000 		.4byte	.LFE32
 3643 0110 00000000 		.4byte	.LFB33
 3644 0114 1C000000 		.4byte	.LFE33
 3645 0118 00000000 		.4byte	.LFB1
 3646 011c 24000000 		.4byte	.LFE1
 3647 0120 00000000 		.4byte	.LFB2
 3648 0124 1C000000 		.4byte	.LFE2
 3649 0128 00000000 		.4byte	.LFB34
 3650 012c 14000000 		.4byte	.LFE34
 3651 0130 00000000 		.4byte	.LFB35
 3652 0134 0C000000 		.4byte	.LFE35
 3653 0138 00000000 		.4byte	.LFB36
 3654 013c 0C000000 		.4byte	.LFE36
 3655 0140 00000000 		.4byte	.LFB37
 3656 0144 0C000000 		.4byte	.LFE37
 3657 0148 00000000 		.4byte	.LFB38
 3658 014c 0C000000 		.4byte	.LFE38
 3659 0150 00000000 		.4byte	.LFB39
 3660 0154 0C000000 		.4byte	.LFE39
 3661 0158 00000000 		.4byte	0
 3662 015c 00000000 		.4byte	0
 3663              		.section	.debug_line,"",%progbits
 3664              	.Ldebug_line0:
 3665 0000 F4030000 		.section	.debug_str,"MS",%progbits,1
 3665      02004F00 
 3665      00000201 
 3665      FB0E0D00 
 3665      01010101 
 3666              	.LASF18:
 3667 0000 636F756E 		.ascii	"count\000"
 3667      7400
 3668              	.LASF76:
 3669 0006 474E5520 		.ascii	"GNU C 4.9.3 20150303 (release) [ARM/embedded-4_9-br"
 3669      4320342E 
 3669      392E3320 
 3669      32303135 
 3669      30333033 
 3670 0039 616E6368 		.ascii	"anch revision 221220] -mcpu=cortex-m0 -mthumb -g -O"
 3670      20726576 
 3670      6973696F 
 3670      6E203232 
 3670      31323230 
 3671 006c 73202D66 		.ascii	"s -ffunction-sections -ffat-lto-objects\000"
 3671      66756E63 
 3671      74696F6E 
 3671      2D736563 
 3671      74696F6E 
 3672              	.LASF61:
ARM GAS  C:\Users\TECHCO~1\AppData\Local\Temp\cc9RpRiE.s 			page 95


 3673 0094 54435057 		.ascii	"TCPWM_4_SetCaptureMode\000"
 3673      4D5F345F 
 3673      53657443 
 3673      61707475 
 3673      72654D6F 
 3674              	.LASF81:
 3675 00ab 43794578 		.ascii	"CyExitCriticalSection\000"
 3675      69744372 
 3675      69746963 
 3675      616C5365 
 3675      6374696F 
 3676              	.LASF77:
 3677 00c1 47656E65 		.ascii	"Generated_Source\\PSoC4\\TCPWM_4.c\000"
 3677      72617465 
 3677      645F536F 
 3677      75726365 
 3677      5C50536F 
 3678              	.LASF21:
 3679 00e2 70657269 		.ascii	"period\000"
 3679      6F6400
 3680              	.LASF79:
 3681 00e9 54435057 		.ascii	"TCPWM_4_initVar\000"
 3681      4D5F345F 
 3681      696E6974 
 3681      56617200 
 3682              	.LASF7:
 3683 00f9 6C6F6E67 		.ascii	"long long unsigned int\000"
 3683      206C6F6E 
 3683      6720756E 
 3683      7369676E 
 3683      65642069 
 3684              	.LASF70:
 3685 0110 54435057 		.ascii	"TCPWM_4_Start\000"
 3685      4D5F345F 
 3685      53746172 
 3685      7400
 3686              	.LASF66:
 3687 011e 54435057 		.ascii	"TCPWM_4_SetCountMode\000"
 3687      4D5F345F 
 3687      53657443 
 3687      6F756E74 
 3687      4D6F6465 
 3688              	.LASF30:
 3689 0133 71644D6F 		.ascii	"qdMode\000"
 3689      646500
 3690              	.LASF58:
 3691 013a 54435057 		.ascii	"TCPWM_4_ReadCompareBuf\000"
 3691      4D5F345F 
 3691      52656164 
 3691      436F6D70 
 3691      61726542 
 3692              	.LASF6:
 3693 0151 6C6F6E67 		.ascii	"long long int\000"
 3693      206C6F6E 
 3693      6720696E 
 3693      7400
 3694              	.LASF0:
ARM GAS  C:\Users\TECHCO~1\AppData\Local\Temp\cc9RpRiE.s 			page 96


 3695 015f 7369676E 		.ascii	"signed char\000"
 3695      65642063 
 3695      68617200 
 3696              	.LASF49:
 3697 016b 54435057 		.ascii	"TCPWM_4_SetCompareSwap\000"
 3697      4D5F345F 
 3697      53657443 
 3697      6F6D7061 
 3697      72655377 
 3698              	.LASF64:
 3699 0182 54435057 		.ascii	"TCPWM_4_SetStartMode\000"
 3699      4D5F345F 
 3699      53657453 
 3699      74617274 
 3699      4D6F6465 
 3700              	.LASF24:
 3701 0197 54435057 		.ascii	"TCPWM_4_Init\000"
 3701      4D5F345F 
 3701      496E6974 
 3701      00
 3702              	.LASF47:
 3703 01a4 54435057 		.ascii	"TCPWM_4_ReadCounter\000"
 3703      4D5F345F 
 3703      52656164 
 3703      436F756E 
 3703      74657200 
 3704              	.LASF22:
 3705 01b8 54435057 		.ascii	"TCPWM_4_WriteCompare\000"
 3705      4D5F345F 
 3705      57726974 
 3705      65436F6D 
 3705      70617265 
 3706              	.LASF4:
 3707 01cd 6C6F6E67 		.ascii	"long int\000"
 3707      20696E74 
 3707      00
 3708              	.LASF55:
 3709 01d6 54435057 		.ascii	"TCPWM_4_ReadCompare\000"
 3709      4D5F345F 
 3709      52656164 
 3709      436F6D70 
 3709      61726500 
 3710              	.LASF9:
 3711 01ea 75696E74 		.ascii	"uint8\000"
 3711      3800
 3712              	.LASF12:
 3713 01f0 646F7562 		.ascii	"double\000"
 3713      6C6500
 3714              	.LASF37:
 3715 01f7 54435057 		.ascii	"TCPWM_4_SetPWMSyncKill\000"
 3715      4D5F345F 
 3715      53657450 
 3715      574D5379 
 3715      6E634B69 
 3716              	.LASF10:
 3717 020e 75696E74 		.ascii	"uint32\000"
 3717      333200
ARM GAS  C:\Users\TECHCO~1\AppData\Local\Temp\cc9RpRiE.s 			page 97


 3718              	.LASF62:
 3719 0215 74726967 		.ascii	"triggerMode\000"
 3719      6765724D 
 3719      6F646500 
 3720              	.LASF44:
 3721 0221 6D61736B 		.ascii	"mask\000"
 3721      00
 3722              	.LASF42:
 3723 0226 64656164 		.ascii	"deadTime\000"
 3723      54696D65 
 3723      00
 3724              	.LASF71:
 3725 022f 54435057 		.ascii	"TCPWM_4_ReadStatus\000"
 3725      4D5F345F 
 3725      52656164 
 3725      53746174 
 3725      757300
 3726              	.LASF16:
 3727 0242 54435057 		.ascii	"TCPWM_4_WriteCounter\000"
 3727      4D5F345F 
 3727      57726974 
 3727      65436F75 
 3727      6E746572 
 3728              	.LASF8:
 3729 0257 756E7369 		.ascii	"unsigned int\000"
 3729      676E6564 
 3729      20696E74 
 3729      00
 3730              	.LASF41:
 3731 0264 54435057 		.ascii	"TCPWM_4_SetPWMDeadTime\000"
 3731      4D5F345F 
 3731      53657450 
 3731      574D4465 
 3731      61645469 
 3732              	.LASF68:
 3733 027b 636F6D6D 		.ascii	"command\000"
 3733      616E6400 
 3734              	.LASF5:
 3735 0283 6C6F6E67 		.ascii	"long unsigned int\000"
 3735      20756E73 
 3735      69676E65 
 3735      6420696E 
 3735      7400
 3736              	.LASF36:
 3737 0295 6D6F6465 		.ascii	"modeMask\000"
 3737      4D61736B 
 3737      00
 3738              	.LASF80:
 3739 029e 4379456E 		.ascii	"CyEnterCriticalSection\000"
 3739      74657243 
 3739      72697469 
 3739      63616C53 
 3739      65637469 
 3740              	.LASF39:
 3741 02b5 54435057 		.ascii	"TCPWM_4_SetPWMStopOnKill\000"
 3741      4D5F345F 
 3741      53657450 
ARM GAS  C:\Users\TECHCO~1\AppData\Local\Temp\cc9RpRiE.s 			page 98


 3741      574D5374 
 3741      6F704F6E 
 3742              	.LASF74:
 3743 02ce 54435057 		.ascii	"TCPWM_4_ClearInterrupt\000"
 3743      4D5F345F 
 3743      436C6561 
 3743      72496E74 
 3743      65727275 
 3744              	.LASF3:
 3745 02e5 73686F72 		.ascii	"short unsigned int\000"
 3745      7420756E 
 3745      7369676E 
 3745      65642069 
 3745      6E7400
 3746              	.LASF34:
 3747 02f8 6F6E6553 		.ascii	"oneShotEnable\000"
 3747      686F7445 
 3747      6E61626C 
 3747      6500
 3748              	.LASF43:
 3749 0306 54435057 		.ascii	"TCPWM_4_SetPWMInvert\000"
 3749      4D5F345F 
 3749      53657450 
 3749      574D496E 
 3749      76657274 
 3750              	.LASF67:
 3751 031b 54435057 		.ascii	"TCPWM_4_TriggerCommand\000"
 3751      4D5F345F 
 3751      54726967 
 3751      67657243 
 3751      6F6D6D61 
 3752              	.LASF14:
 3753 0332 72656733 		.ascii	"reg32\000"
 3753      3200
 3754              	.LASF53:
 3755 0338 54435057 		.ascii	"TCPWM_4_ReadPeriodBuf\000"
 3755      4D5F345F 
 3755      52656164 
 3755      50657269 
 3755      6F644275 
 3756              	.LASF15:
 3757 034e 73697A65 		.ascii	"sizetype\000"
 3757      74797065 
 3757      00
 3758              	.LASF26:
 3759 0357 54435057 		.ascii	"TCPWM_4_SetMode\000"
 3759      4D5F345F 
 3759      5365744D 
 3759      6F646500 
 3760              	.LASF38:
 3761 0367 73796E63 		.ascii	"syncKillEnable\000"
 3761      4B696C6C 
 3761      456E6162 
 3761      6C6500
 3762              	.LASF48:
 3763 0376 54435057 		.ascii	"TCPWM_4_ReadPeriod\000"
 3763      4D5F345F 
ARM GAS  C:\Users\TECHCO~1\AppData\Local\Temp\cc9RpRiE.s 			page 99


 3763      52656164 
 3763      50657269 
 3763      6F6400
 3764              	.LASF65:
 3765 0389 54435057 		.ascii	"TCPWM_4_SetStopMode\000"
 3765      4D5F345F 
 3765      53657453 
 3765      746F704D 
 3765      6F646500 
 3766              	.LASF23:
 3767 039d 636F6D70 		.ascii	"compare\000"
 3767      61726500 
 3768              	.LASF54:
 3769 03a5 54435057 		.ascii	"TCPWM_4_SetPeriodSwap\000"
 3769      4D5F345F 
 3769      53657450 
 3769      6572696F 
 3769      64537761 
 3770              	.LASF33:
 3771 03bb 54435057 		.ascii	"TCPWM_4_SetOneShot\000"
 3771      4D5F345F 
 3771      5365744F 
 3771      6E655368 
 3771      6F7400
 3772              	.LASF11:
 3773 03ce 666C6F61 		.ascii	"float\000"
 3773      7400
 3774              	.LASF32:
 3775 03d4 70726573 		.ascii	"prescaler\000"
 3775      63616C65 
 3775      7200
 3776              	.LASF17:
 3777 03de 54435057 		.ascii	"TCPWM_4_SetInterruptMode\000"
 3777      4D5F345F 
 3777      53657449 
 3777      6E746572 
 3777      72757074 
 3778              	.LASF31:
 3779 03f7 54435057 		.ascii	"TCPWM_4_SetPrescaler\000"
 3779      4D5F345F 
 3779      53657450 
 3779      72657363 
 3779      616C6572 
 3780              	.LASF1:
 3781 040c 756E7369 		.ascii	"unsigned char\000"
 3781      676E6564 
 3781      20636861 
 3781      7200
 3782              	.LASF51:
 3783 041a 54435057 		.ascii	"TCPWM_4_WritePeriodBuf\000"
 3783      4D5F345F 
 3783      57726974 
 3783      65506572 
 3783      696F6442 
 3784              	.LASF40:
 3785 0431 73746F70 		.ascii	"stopOnKillEnable\000"
 3785      4F6E4B69 
ARM GAS  C:\Users\TECHCO~1\AppData\Local\Temp\cc9RpRiE.s 			page 100


 3785      6C6C456E 
 3785      61626C65 
 3785      00
 3786              	.LASF73:
 3787 0442 54435057 		.ascii	"TCPWM_4_GetInterruptSource\000"
 3787      4D5F345F 
 3787      47657449 
 3787      6E746572 
 3787      72757074 
 3788              	.LASF2:
 3789 045d 73686F72 		.ascii	"short int\000"
 3789      7420696E 
 3789      7400
 3790              	.LASF20:
 3791 0467 54435057 		.ascii	"TCPWM_4_WritePeriod\000"
 3791      4D5F345F 
 3791      57726974 
 3791      65506572 
 3791      696F6400 
 3792              	.LASF72:
 3793 047b 54435057 		.ascii	"TCPWM_4_GetInterruptSourceMasked\000"
 3793      4D5F345F 
 3793      47657449 
 3793      6E746572 
 3793      72757074 
 3794              	.LASF35:
 3795 049c 54435057 		.ascii	"TCPWM_4_SetPWMMode\000"
 3795      4D5F345F 
 3795      53657450 
 3795      574D4D6F 
 3795      646500
 3796              	.LASF19:
 3797 04af 696E7465 		.ascii	"interruptMask\000"
 3797      72727570 
 3797      744D6173 
 3797      6B00
 3798              	.LASF28:
 3799 04bd 54435057 		.ascii	"TCPWM_4_SetQDMode\000"
 3799      4D5F345F 
 3799      53657451 
 3799      444D6F64 
 3799      6500
 3800              	.LASF63:
 3801 04cf 54435057 		.ascii	"TCPWM_4_SetReloadMode\000"
 3801      4D5F345F 
 3801      53657452 
 3801      656C6F61 
 3801      644D6F64 
 3802              	.LASF60:
 3803 04e5 54435057 		.ascii	"TCPWM_4_ReadCaptureBuf\000"
 3803      4D5F345F 
 3803      52656164 
 3803      43617074 
 3803      75726542 
 3804              	.LASF13:
 3805 04fc 63686172 		.ascii	"char\000"
 3805      00
ARM GAS  C:\Users\TECHCO~1\AppData\Local\Temp\cc9RpRiE.s 			page 101


 3806              	.LASF29:
 3807 0501 6D6F6465 		.ascii	"mode\000"
 3807      00
 3808              	.LASF25:
 3809 0506 54435057 		.ascii	"TCPWM_4_Stop\000"
 3809      4D5F345F 
 3809      53746F70 
 3809      00
 3810              	.LASF78:
 3811 0513 433A5C55 		.ascii	"C:\\Users\\Tech Consulting\\Desktop\\PSOC4 projects"
 3811      73657273 
 3811      5C546563 
 3811      6820436F 
 3811      6E73756C 
 3812 0542 5C537465 		.ascii	"\\Stepper Projects GearBest\\DualStepperController-"
 3812      70706572 
 3812      2050726F 
 3812      6A656374 
 3812      73204765 
 3813 0573 50536F43 		.ascii	"PSoC4200-GearBest.cydsn\000"
 3813      34323030 
 3813      2D476561 
 3813      72426573 
 3813      742E6379 
 3814              	.LASF46:
 3815 058b 636F756E 		.ascii	"counterMode\000"
 3815      7465724D 
 3815      6F646500 
 3816              	.LASF56:
 3817 0597 54435057 		.ascii	"TCPWM_4_WriteCompareBuf\000"
 3817      4D5F345F 
 3817      57726974 
 3817      65436F6D 
 3817      70617265 
 3818              	.LASF59:
 3819 05af 54435057 		.ascii	"TCPWM_4_ReadCapture\000"
 3819      4D5F345F 
 3819      52656164 
 3819      43617074 
 3819      75726500 
 3820              	.LASF57:
 3821 05c3 636F6D70 		.ascii	"compareBuf\000"
 3821      61726542 
 3821      756600
 3822              	.LASF27:
 3823 05ce 656E6162 		.ascii	"enableInterrupts\000"
 3823      6C65496E 
 3823      74657272 
 3823      75707473 
 3823      00
 3824              	.LASF69:
 3825 05df 54435057 		.ascii	"TCPWM_4_Enable\000"
 3825      4D5F345F 
 3825      456E6162 
 3825      6C6500
 3826              	.LASF45:
 3827 05ee 54435057 		.ascii	"TCPWM_4_SetCounterMode\000"
ARM GAS  C:\Users\TECHCO~1\AppData\Local\Temp\cc9RpRiE.s 			page 102


 3827      4D5F345F 
 3827      53657443 
 3827      6F756E74 
 3827      65724D6F 
 3828              	.LASF50:
 3829 0605 73776170 		.ascii	"swapEnable\000"
 3829      456E6162 
 3829      6C6500
 3830              	.LASF75:
 3831 0610 54435057 		.ascii	"TCPWM_4_SetInterrupt\000"
 3831      4D5F345F 
 3831      53657449 
 3831      6E746572 
 3831      72757074 
 3832              	.LASF52:
 3833 0625 70657269 		.ascii	"periodBuf\000"
 3833      6F644275 
 3833      6600
 3834              		.ident	"GCC: (GNU Tools for ARM Embedded Processors) 4.9.3 20150303 (release) [ARM/embedded-4_9-br
