ARM GAS  C:\Users\TECHCO~1\AppData\Local\Temp\ccofT038.s 			page 1


   1              		.cpu cortex-m0
   2              		.fpu softvfp
   3              		.eabi_attribute 20, 1
   4              		.eabi_attribute 21, 1
   5              		.eabi_attribute 23, 3
   6              		.eabi_attribute 24, 1
   7              		.eabi_attribute 25, 1
   8              		.eabi_attribute 26, 1
   9              		.eabi_attribute 30, 6
  10              		.eabi_attribute 34, 0
  11              		.eabi_attribute 18, 4
  12              		.code	16
  13              		.file	"Comm_I2C.c"
  14              		.text
  15              	.Ltext0:
  16              		.cfi_sections	.debug_frame
  17              		.comm	Comm_state,1,1
  18              		.global	Comm_configI2C
  19              		.section	.rodata
  20              		.align	2
  21              		.type	Comm_configI2C, %object
  22              		.size	Comm_configI2C, 40
  23              	Comm_configI2C:
  24 0000 01000000 		.word	1
  25 0004 08000000 		.word	8
  26 0008 08000000 		.word	8
  27 000c 01000000 		.word	1
  28 0010 08000000 		.word	8
  29 0014 FE000000 		.word	254
  30 0018 00000000 		.word	0
  31 001c 00000000 		.word	0
  32 0020 00       		.byte	0
  33 0021 00       		.space	1
  34 0022 6400     		.short	100
  35 0024 00       		.byte	0
  36 0025 000000   		.space	3
  37              		.section	.text.Comm_I2CInit,"ax",%progbits
  38              		.align	2
  39              		.global	Comm_I2CInit
  40              		.code	16
  41              		.thumb_func
  42              		.type	Comm_I2CInit, %function
  43              	Comm_I2CInit:
  44              	.LFB0:
  45              		.file 1 ".\\Generated_Source\\PSoC4\\Comm_I2C.c"
   1:.\Generated_Source\PSoC4/Comm_I2C.c **** /*******************************************************************************
   2:.\Generated_Source\PSoC4/Comm_I2C.c **** * File Name: Comm_I2C.c
   3:.\Generated_Source\PSoC4/Comm_I2C.c **** * Version 3.10
   4:.\Generated_Source\PSoC4/Comm_I2C.c **** *
   5:.\Generated_Source\PSoC4/Comm_I2C.c **** * Description:
   6:.\Generated_Source\PSoC4/Comm_I2C.c **** *  This file provides the source code to the API for the SCB Component in
   7:.\Generated_Source\PSoC4/Comm_I2C.c **** *  I2C mode.
   8:.\Generated_Source\PSoC4/Comm_I2C.c **** *
   9:.\Generated_Source\PSoC4/Comm_I2C.c **** * Note:
  10:.\Generated_Source\PSoC4/Comm_I2C.c **** *
  11:.\Generated_Source\PSoC4/Comm_I2C.c **** *******************************************************************************
  12:.\Generated_Source\PSoC4/Comm_I2C.c **** * Copyright 2013-2015, Cypress Semiconductor Corporation.  All rights reserved.
ARM GAS  C:\Users\TECHCO~1\AppData\Local\Temp\ccofT038.s 			page 2


  13:.\Generated_Source\PSoC4/Comm_I2C.c **** * You may use this file only in accordance with the license, terms, conditions,
  14:.\Generated_Source\PSoC4/Comm_I2C.c **** * disclaimers, and limitations in the end user license agreement accompanying
  15:.\Generated_Source\PSoC4/Comm_I2C.c **** * the software package with which this file was provided.
  16:.\Generated_Source\PSoC4/Comm_I2C.c **** *******************************************************************************/
  17:.\Generated_Source\PSoC4/Comm_I2C.c **** 
  18:.\Generated_Source\PSoC4/Comm_I2C.c **** #include "Comm_PVT.h"
  19:.\Generated_Source\PSoC4/Comm_I2C.c **** #include "Comm_I2C_PVT.h"
  20:.\Generated_Source\PSoC4/Comm_I2C.c **** 
  21:.\Generated_Source\PSoC4/Comm_I2C.c **** 
  22:.\Generated_Source\PSoC4/Comm_I2C.c **** /***************************************
  23:.\Generated_Source\PSoC4/Comm_I2C.c **** *      I2C Private Vars
  24:.\Generated_Source\PSoC4/Comm_I2C.c **** ***************************************/
  25:.\Generated_Source\PSoC4/Comm_I2C.c **** 
  26:.\Generated_Source\PSoC4/Comm_I2C.c **** volatile uint8 Comm_state;  /* Current state of I2C FSM */
  27:.\Generated_Source\PSoC4/Comm_I2C.c **** 
  28:.\Generated_Source\PSoC4/Comm_I2C.c **** #if(Comm_SCB_MODE_UNCONFIG_CONST_CFG)
  29:.\Generated_Source\PSoC4/Comm_I2C.c **** 
  30:.\Generated_Source\PSoC4/Comm_I2C.c ****     /***************************************
  31:.\Generated_Source\PSoC4/Comm_I2C.c ****     *  Configuration Structure Initialization
  32:.\Generated_Source\PSoC4/Comm_I2C.c ****     ***************************************/
  33:.\Generated_Source\PSoC4/Comm_I2C.c **** 
  34:.\Generated_Source\PSoC4/Comm_I2C.c ****     /* Constant configuration of I2C */
  35:.\Generated_Source\PSoC4/Comm_I2C.c ****     const Comm_I2C_INIT_STRUCT Comm_configI2C =
  36:.\Generated_Source\PSoC4/Comm_I2C.c ****     {
  37:.\Generated_Source\PSoC4/Comm_I2C.c ****         Comm_I2C_MODE,
  38:.\Generated_Source\PSoC4/Comm_I2C.c ****         Comm_I2C_OVS_FACTOR_LOW,
  39:.\Generated_Source\PSoC4/Comm_I2C.c ****         Comm_I2C_OVS_FACTOR_HIGH,
  40:.\Generated_Source\PSoC4/Comm_I2C.c ****         Comm_I2C_MEDIAN_FILTER_ENABLE,
  41:.\Generated_Source\PSoC4/Comm_I2C.c ****         Comm_I2C_SLAVE_ADDRESS,
  42:.\Generated_Source\PSoC4/Comm_I2C.c ****         Comm_I2C_SLAVE_ADDRESS_MASK,
  43:.\Generated_Source\PSoC4/Comm_I2C.c ****         Comm_I2C_ACCEPT_ADDRESS,
  44:.\Generated_Source\PSoC4/Comm_I2C.c ****         Comm_I2C_WAKE_ENABLE,
  45:.\Generated_Source\PSoC4/Comm_I2C.c ****         Comm_I2C_BYTE_MODE_ENABLE,
  46:.\Generated_Source\PSoC4/Comm_I2C.c ****         Comm_I2C_DATA_RATE,
  47:.\Generated_Source\PSoC4/Comm_I2C.c ****         Comm_I2C_ACCEPT_GENERAL_CALL,
  48:.\Generated_Source\PSoC4/Comm_I2C.c ****     };
  49:.\Generated_Source\PSoC4/Comm_I2C.c **** 
  50:.\Generated_Source\PSoC4/Comm_I2C.c ****     /*******************************************************************************
  51:.\Generated_Source\PSoC4/Comm_I2C.c ****     * Function Name: Comm_I2CInit
  52:.\Generated_Source\PSoC4/Comm_I2C.c ****     ********************************************************************************
  53:.\Generated_Source\PSoC4/Comm_I2C.c ****     *
  54:.\Generated_Source\PSoC4/Comm_I2C.c ****     * Summary:
  55:.\Generated_Source\PSoC4/Comm_I2C.c ****     *  Configures the SCB for I2C operation.
  56:.\Generated_Source\PSoC4/Comm_I2C.c ****     *
  57:.\Generated_Source\PSoC4/Comm_I2C.c ****     * Parameters:
  58:.\Generated_Source\PSoC4/Comm_I2C.c ****     *  config:  Pointer to a structure that contains the following ordered list of
  59:.\Generated_Source\PSoC4/Comm_I2C.c ****     *           fields. These fields match the selections available in the
  60:.\Generated_Source\PSoC4/Comm_I2C.c ****     *           customizer.
  61:.\Generated_Source\PSoC4/Comm_I2C.c ****     *
  62:.\Generated_Source\PSoC4/Comm_I2C.c ****     * Return:
  63:.\Generated_Source\PSoC4/Comm_I2C.c ****     *  None
  64:.\Generated_Source\PSoC4/Comm_I2C.c ****     *
  65:.\Generated_Source\PSoC4/Comm_I2C.c ****     *******************************************************************************/
  66:.\Generated_Source\PSoC4/Comm_I2C.c ****     void Comm_I2CInit(const Comm_I2C_INIT_STRUCT *config)
  67:.\Generated_Source\PSoC4/Comm_I2C.c ****     {
  46              		.loc 1 67 0
  47              		.cfi_startproc
ARM GAS  C:\Users\TECHCO~1\AppData\Local\Temp\ccofT038.s 			page 3


  48 0000 80B5     		push	{r7, lr}
  49              		.cfi_def_cfa_offset 8
  50              		.cfi_offset 7, -8
  51              		.cfi_offset 14, -4
  52 0002 84B0     		sub	sp, sp, #16
  53              		.cfi_def_cfa_offset 24
  54 0004 00AF     		add	r7, sp, #0
  55              		.cfi_def_cfa_register 7
  56 0006 7860     		str	r0, [r7, #4]
  68:.\Generated_Source\PSoC4/Comm_I2C.c ****         uint32 medianFilter;
  69:.\Generated_Source\PSoC4/Comm_I2C.c ****         uint32 locEnableWake;
  70:.\Generated_Source\PSoC4/Comm_I2C.c **** 
  71:.\Generated_Source\PSoC4/Comm_I2C.c ****         if(NULL == config)
  57              		.loc 1 71 0
  58 0008 7B68     		ldr	r3, [r7, #4]
  59 000a 002B     		cmp	r3, #0
  60 000c 03D1     		bne	.L2
  72:.\Generated_Source\PSoC4/Comm_I2C.c ****         {
  73:.\Generated_Source\PSoC4/Comm_I2C.c ****             CYASSERT(0u != 0u); /* Halt execution due to bad function parameter */
  61              		.loc 1 73 0 discriminator 1
  62 000e 0020     		mov	r0, #0
  63 0010 FFF7FEFF 		bl	CyHalt
  64 0014 EEE0     		b	.L1
  65              	.L2:
  74:.\Generated_Source\PSoC4/Comm_I2C.c ****         }
  75:.\Generated_Source\PSoC4/Comm_I2C.c ****         else
  76:.\Generated_Source\PSoC4/Comm_I2C.c ****         {
  77:.\Generated_Source\PSoC4/Comm_I2C.c ****             /* Configure pins */
  78:.\Generated_Source\PSoC4/Comm_I2C.c ****             Comm_SetPins(Comm_SCB_MODE_I2C, Comm_DUMMY_PARAM,
  66              		.loc 1 78 0
  67 0016 0120     		mov	r0, #1
  68 0018 0021     		mov	r1, #0
  69 001a 0022     		mov	r2, #0
  70 001c FFF7FEFF 		bl	Comm_SetPins
  79:.\Generated_Source\PSoC4/Comm_I2C.c ****                                      Comm_DUMMY_PARAM);
  80:.\Generated_Source\PSoC4/Comm_I2C.c **** 
  81:.\Generated_Source\PSoC4/Comm_I2C.c ****             /* Store internal configuration */
  82:.\Generated_Source\PSoC4/Comm_I2C.c ****             Comm_scbMode       = (uint8) Comm_SCB_MODE_I2C;
  71              		.loc 1 82 0
  72 0020 764B     		ldr	r3, .L26
  73 0022 0122     		mov	r2, #1
  74 0024 1A70     		strb	r2, [r3]
  83:.\Generated_Source\PSoC4/Comm_I2C.c ****             Comm_scbEnableWake = (uint8) config->enableWake;
  75              		.loc 1 83 0
  76 0026 7B68     		ldr	r3, [r7, #4]
  77 0028 DB69     		ldr	r3, [r3, #28]
  78 002a DAB2     		uxtb	r2, r3
  79 002c 744B     		ldr	r3, .L26+4
  80 002e 1A70     		strb	r2, [r3]
  84:.\Generated_Source\PSoC4/Comm_I2C.c ****             Comm_scbEnableIntr = (uint8) Comm_SCB_IRQ_INTERNAL;
  81              		.loc 1 84 0
  82 0030 744B     		ldr	r3, .L26+8
  83 0032 0122     		mov	r2, #1
  84 0034 1A70     		strb	r2, [r3]
  85:.\Generated_Source\PSoC4/Comm_I2C.c **** 
  86:.\Generated_Source\PSoC4/Comm_I2C.c ****             Comm_mode          = (uint8) config->mode;
  85              		.loc 1 86 0
ARM GAS  C:\Users\TECHCO~1\AppData\Local\Temp\ccofT038.s 			page 4


  86 0036 7B68     		ldr	r3, [r7, #4]
  87 0038 1B68     		ldr	r3, [r3]
  88 003a DAB2     		uxtb	r2, r3
  89 003c 724B     		ldr	r3, .L26+12
  90 003e 1A70     		strb	r2, [r3]
  87:.\Generated_Source\PSoC4/Comm_I2C.c ****             Comm_acceptAddr    = (uint8) config->acceptAddr;
  91              		.loc 1 87 0
  92 0040 7B68     		ldr	r3, [r7, #4]
  93 0042 9B69     		ldr	r3, [r3, #24]
  94 0044 DAB2     		uxtb	r2, r3
  95 0046 714B     		ldr	r3, .L26+16
  96 0048 1A70     		strb	r2, [r3]
  88:.\Generated_Source\PSoC4/Comm_I2C.c **** 
  89:.\Generated_Source\PSoC4/Comm_I2C.c ****         #if (Comm_CY_SCBIP_V0)
  90:.\Generated_Source\PSoC4/Comm_I2C.c ****             /* Adjust SDA filter settings. Ticket ID#150521 */
  91:.\Generated_Source\PSoC4/Comm_I2C.c ****             Comm_SET_I2C_CFG_SDA_FILT_TRIM(Comm_EC_AM_I2C_CFG_SDA_FILT_TRIM);
  97              		.loc 1 91 0
  98 004a 714B     		ldr	r3, .L26+20
  99 004c 704A     		ldr	r2, .L26+20
 100 004e 1268     		ldr	r2, [r2]
 101 0050 0C21     		mov	r1, #12
 102 0052 0A43     		orr	r2, r1
 103 0054 1A60     		str	r2, [r3]
  92:.\Generated_Source\PSoC4/Comm_I2C.c ****         #endif /* (Comm_CY_SCBIP_V0) */
  93:.\Generated_Source\PSoC4/Comm_I2C.c **** 
  94:.\Generated_Source\PSoC4/Comm_I2C.c ****             /* Adjust AF and DF filter settings. Ticket ID#176179 */
  95:.\Generated_Source\PSoC4/Comm_I2C.c ****             if (((Comm_I2C_MODE_SLAVE != config->mode) &&
 104              		.loc 1 95 0
 105 0056 7B68     		ldr	r3, [r7, #4]
 106 0058 1B68     		ldr	r3, [r3]
 107 005a 012B     		cmp	r3, #1
 108 005c 05D0     		beq	.L4
  96:.\Generated_Source\PSoC4/Comm_I2C.c ****                  (config->dataRate <= Comm_I2C_DATA_RATE_FS_MODE_MAX)) ||
 109              		.loc 1 96 0 discriminator 1
 110 005e 7B68     		ldr	r3, [r7, #4]
 111 0060 5A8C     		ldrh	r2, [r3, #34]
  95:.\Generated_Source\PSoC4/Comm_I2C.c ****                  (config->dataRate <= Comm_I2C_DATA_RATE_FS_MODE_MAX)) ||
 112              		.loc 1 95 0 discriminator 1
 113 0062 C823     		mov	r3, #200
 114 0064 5B00     		lsl	r3, r3, #1
 115 0066 9A42     		cmp	r2, r3
 116 0068 03D9     		bls	.L5
 117              	.L4:
  97:.\Generated_Source\PSoC4/Comm_I2C.c ****                  (Comm_I2C_MODE_SLAVE == config->mode))
 118              		.loc 1 97 0
 119 006a 7B68     		ldr	r3, [r7, #4]
 120 006c 1B68     		ldr	r3, [r3]
  96:.\Generated_Source\PSoC4/Comm_I2C.c ****                  (config->dataRate <= Comm_I2C_DATA_RATE_FS_MODE_MAX)) ||
 121              		.loc 1 96 0
 122 006e 012B     		cmp	r3, #1
 123 0070 08D1     		bne	.L6
 124              	.L5:
  98:.\Generated_Source\PSoC4/Comm_I2C.c ****             {
  99:.\Generated_Source\PSoC4/Comm_I2C.c ****                 /* AF = 1, DF = 0 */
 100:.\Generated_Source\PSoC4/Comm_I2C.c ****                 Comm_I2C_CFG_ANALOG_FITER_ENABLE;
 125              		.loc 1 100 0
 126 0072 674B     		ldr	r3, .L26+20
ARM GAS  C:\Users\TECHCO~1\AppData\Local\Temp\ccofT038.s 			page 5


 127 0074 664A     		ldr	r2, .L26+20
 128 0076 1268     		ldr	r2, [r2]
 129 0078 6649     		ldr	r1, .L26+24
 130 007a 0A43     		orr	r2, r1
 131 007c 1A60     		str	r2, [r3]
 101:.\Generated_Source\PSoC4/Comm_I2C.c ****                 medianFilter = Comm_DIGITAL_FILTER_DISABLE;
 132              		.loc 1 101 0
 133 007e 0023     		mov	r3, #0
 134 0080 FB60     		str	r3, [r7, #12]
 135 0082 07E0     		b	.L7
 136              	.L6:
 102:.\Generated_Source\PSoC4/Comm_I2C.c ****             }
 103:.\Generated_Source\PSoC4/Comm_I2C.c ****             else
 104:.\Generated_Source\PSoC4/Comm_I2C.c ****             {
 105:.\Generated_Source\PSoC4/Comm_I2C.c ****                 /* AF = 0, DF = 1 */
 106:.\Generated_Source\PSoC4/Comm_I2C.c ****                 Comm_I2C_CFG_ANALOG_FITER_DISABLE;
 137              		.loc 1 106 0
 138 0084 624B     		ldr	r3, .L26+20
 139 0086 624A     		ldr	r2, .L26+20
 140 0088 1268     		ldr	r2, [r2]
 141 008a 6349     		ldr	r1, .L26+28
 142 008c 0A40     		and	r2, r1
 143 008e 1A60     		str	r2, [r3]
 107:.\Generated_Source\PSoC4/Comm_I2C.c ****                 medianFilter = Comm_DIGITAL_FILTER_ENABLE;
 144              		.loc 1 107 0
 145 0090 0123     		mov	r3, #1
 146 0092 FB60     		str	r3, [r7, #12]
 147              	.L7:
 108:.\Generated_Source\PSoC4/Comm_I2C.c ****             }
 109:.\Generated_Source\PSoC4/Comm_I2C.c **** 
 110:.\Generated_Source\PSoC4/Comm_I2C.c ****         #if (!Comm_CY_SCBIP_V0)
 111:.\Generated_Source\PSoC4/Comm_I2C.c ****             locEnableWake = (Comm_I2C_MULTI_MASTER_SLAVE) ? (0u) : (config->enableWake);
 112:.\Generated_Source\PSoC4/Comm_I2C.c ****         #else
 113:.\Generated_Source\PSoC4/Comm_I2C.c ****             locEnableWake = config->enableWake;
 148              		.loc 1 113 0
 149 0094 7B68     		ldr	r3, [r7, #4]
 150 0096 DB69     		ldr	r3, [r3, #28]
 151 0098 BB60     		str	r3, [r7, #8]
 114:.\Generated_Source\PSoC4/Comm_I2C.c ****         #endif /* (!Comm_CY_SCBIP_V0) */
 115:.\Generated_Source\PSoC4/Comm_I2C.c **** 
 116:.\Generated_Source\PSoC4/Comm_I2C.c ****             /* Configure I2C interface */
 117:.\Generated_Source\PSoC4/Comm_I2C.c ****             Comm_CTRL_REG     = Comm_GET_CTRL_BYTE_MODE  (config->enableByteMode) |
 152              		.loc 1 117 0
 153 009a 604A     		ldr	r2, .L26+32
 118:.\Generated_Source\PSoC4/Comm_I2C.c ****                                             Comm_GET_CTRL_ADDR_ACCEPT(config->acceptAddr)     |
 154              		.loc 1 118 0
 155 009c 7B68     		ldr	r3, [r7, #4]
 156 009e 9B69     		ldr	r3, [r3, #24]
 117:.\Generated_Source\PSoC4/Comm_I2C.c ****                                             Comm_GET_CTRL_ADDR_ACCEPT(config->acceptAddr)     |
 157              		.loc 1 117 0
 158 00a0 002B     		cmp	r3, #0
 159 00a2 02D0     		beq	.L8
 117:.\Generated_Source\PSoC4/Comm_I2C.c ****                                             Comm_GET_CTRL_ADDR_ACCEPT(config->acceptAddr)     |
 160              		.loc 1 117 0 is_stmt 0 discriminator 1
 161 00a4 8023     		mov	r3, #128
 162 00a6 5902     		lsl	r1, r3, #9
 163 00a8 00E0     		b	.L9
ARM GAS  C:\Users\TECHCO~1\AppData\Local\Temp\ccofT038.s 			page 6


 164              	.L8:
 117:.\Generated_Source\PSoC4/Comm_I2C.c ****                                             Comm_GET_CTRL_ADDR_ACCEPT(config->acceptAddr)     |
 165              		.loc 1 117 0 discriminator 2
 166 00aa 0021     		mov	r1, #0
 167              	.L9:
 119:.\Generated_Source\PSoC4/Comm_I2C.c ****                                             Comm_GET_CTRL_EC_AM_MODE (locEnableWake);
 168              		.loc 1 119 0 is_stmt 1
 169 00ac BB68     		ldr	r3, [r7, #8]
 170 00ae 002B     		cmp	r3, #0
 171 00b0 02D0     		beq	.L10
 172              		.loc 1 119 0 is_stmt 0 discriminator 1
 173 00b2 8023     		mov	r3, #128
 174 00b4 5B00     		lsl	r3, r3, #1
 175 00b6 00E0     		b	.L11
 176              	.L10:
 177              		.loc 1 119 0 discriminator 2
 178 00b8 0023     		mov	r3, #0
 179              	.L11:
 118:.\Generated_Source\PSoC4/Comm_I2C.c ****                                             Comm_GET_CTRL_ADDR_ACCEPT(config->acceptAddr)     |
 180              		.loc 1 118 0 is_stmt 1
 181 00ba 0B43     		orr	r3, r1
 117:.\Generated_Source\PSoC4/Comm_I2C.c ****                                             Comm_GET_CTRL_ADDR_ACCEPT(config->acceptAddr)     |
 182              		.loc 1 117 0
 183 00bc 1360     		str	r3, [r2]
 120:.\Generated_Source\PSoC4/Comm_I2C.c **** 
 121:.\Generated_Source\PSoC4/Comm_I2C.c ****             Comm_I2C_CTRL_REG = Comm_GET_I2C_CTRL_HIGH_PHASE_OVS(config->oversampleHigh) |
 184              		.loc 1 121 0
 185 00be 584A     		ldr	r2, .L26+36
 186 00c0 7B68     		ldr	r3, [r7, #4]
 187 00c2 9B68     		ldr	r3, [r3, #8]
 188 00c4 013B     		sub	r3, r3, #1
 189 00c6 0F21     		mov	r1, #15
 190 00c8 1940     		and	r1, r3
 122:.\Generated_Source\PSoC4/Comm_I2C.c ****                     Comm_GET_I2C_CTRL_LOW_PHASE_OVS (config->oversampleLow)                        
 191              		.loc 1 122 0
 192 00ca 7B68     		ldr	r3, [r7, #4]
 193 00cc 5B68     		ldr	r3, [r3, #4]
 194 00ce 013B     		sub	r3, r3, #1
 195 00d0 1B01     		lsl	r3, r3, #4
 196 00d2 FF20     		mov	r0, #255
 197 00d4 0340     		and	r3, r0
 121:.\Generated_Source\PSoC4/Comm_I2C.c ****                     Comm_GET_I2C_CTRL_LOW_PHASE_OVS (config->oversampleLow)                        
 198              		.loc 1 121 0
 199 00d6 1943     		orr	r1, r3
 123:.\Generated_Source\PSoC4/Comm_I2C.c ****                     Comm_GET_I2C_CTRL_S_GENERAL_IGNORE((uint32)(0u == config->acceptGeneralAddr))  
 200              		.loc 1 123 0
 201 00d8 7B68     		ldr	r3, [r7, #4]
 202 00da 2420     		mov	r0, #36
 203 00dc 1B5C     		ldrb	r3, [r3, r0]
 204 00de 002B     		cmp	r3, #0
 205 00e0 01D1     		bne	.L12
 206              		.loc 1 123 0 is_stmt 0 discriminator 1
 207 00e2 0123     		mov	r3, #1
 208 00e4 00E0     		b	.L13
 209              	.L12:
 210              		.loc 1 123 0 discriminator 2
 211 00e6 0023     		mov	r3, #0
ARM GAS  C:\Users\TECHCO~1\AppData\Local\Temp\ccofT038.s 			page 7


 212              	.L13:
 213              		.loc 1 123 0 discriminator 4
 214 00e8 002B     		cmp	r3, #0
 215 00ea 02D0     		beq	.L14
 216              		.loc 1 123 0 discriminator 5
 217 00ec 8023     		mov	r3, #128
 218 00ee 1B01     		lsl	r3, r3, #4
 219 00f0 00E0     		b	.L15
 220              	.L14:
 221              		.loc 1 123 0 discriminator 6
 222 00f2 0023     		mov	r3, #0
 223              	.L15:
 122:.\Generated_Source\PSoC4/Comm_I2C.c ****                     Comm_GET_I2C_CTRL_LOW_PHASE_OVS (config->oversampleLow)                        
 224              		.loc 1 122 0 is_stmt 1
 225 00f4 1943     		orr	r1, r3
 124:.\Generated_Source\PSoC4/Comm_I2C.c ****                     Comm_GET_I2C_CTRL_SL_MSTR_MODE  (config->mode);
 226              		.loc 1 124 0
 227 00f6 7B68     		ldr	r3, [r7, #4]
 228 00f8 1B68     		ldr	r3, [r3]
 229 00fa 9B07     		lsl	r3, r3, #30
 123:.\Generated_Source\PSoC4/Comm_I2C.c ****                     Comm_GET_I2C_CTRL_S_GENERAL_IGNORE((uint32)(0u == config->acceptGeneralAddr))  
 230              		.loc 1 123 0
 231 00fc 0B43     		orr	r3, r1
 121:.\Generated_Source\PSoC4/Comm_I2C.c ****                     Comm_GET_I2C_CTRL_LOW_PHASE_OVS (config->oversampleLow)                        
 232              		.loc 1 121 0
 233 00fe 1360     		str	r3, [r2]
 125:.\Generated_Source\PSoC4/Comm_I2C.c **** 
 126:.\Generated_Source\PSoC4/Comm_I2C.c ****             /* Configure RX direction */
 127:.\Generated_Source\PSoC4/Comm_I2C.c ****             Comm_RX_CTRL_REG      = Comm_GET_RX_CTRL_MEDIAN(medianFilter) |
 234              		.loc 1 127 0
 235 0100 484B     		ldr	r3, .L26+40
 236 0102 FA68     		ldr	r2, [r7, #12]
 237 0104 002A     		cmp	r2, #0
 238 0106 01D0     		beq	.L16
 239              		.loc 1 127 0 is_stmt 0 discriminator 1
 240 0108 474A     		ldr	r2, .L26+44
 241 010a 00E0     		b	.L17
 242              	.L16:
 243              		.loc 1 127 0 discriminator 2
 244 010c 474A     		ldr	r2, .L26+48
 245              	.L17:
 246              		.loc 1 127 0 discriminator 4
 247 010e 1A60     		str	r2, [r3]
 128:.\Generated_Source\PSoC4/Comm_I2C.c ****                                                 Comm_I2C_RX_CTRL;
 129:.\Generated_Source\PSoC4/Comm_I2C.c ****             Comm_RX_FIFO_CTRL_REG = Comm_CLEAR_REG;
 248              		.loc 1 129 0 is_stmt 1 discriminator 4
 249 0110 474B     		ldr	r3, .L26+52
 250 0112 0022     		mov	r2, #0
 251 0114 1A60     		str	r2, [r3]
 130:.\Generated_Source\PSoC4/Comm_I2C.c **** 
 131:.\Generated_Source\PSoC4/Comm_I2C.c ****             /* Set default address and mask */
 132:.\Generated_Source\PSoC4/Comm_I2C.c ****             Comm_RX_MATCH_REG    = ((Comm_I2C_SLAVE) ?
 252              		.loc 1 132 0 discriminator 4
 253 0116 474A     		ldr	r2, .L26+56
 254 0118 3B4B     		ldr	r3, .L26+12
 255 011a 1B78     		ldrb	r3, [r3]
 256 011c 0121     		mov	r1, #1
ARM GAS  C:\Users\TECHCO~1\AppData\Local\Temp\ccofT038.s 			page 8


 257 011e 0B40     		and	r3, r1
 258 0120 DBB2     		uxtb	r3, r3
 133:.\Generated_Source\PSoC4/Comm_I2C.c ****                                                 (Comm_GET_I2C_8BIT_ADDRESS(config->slaveAddr) |
 134:.\Generated_Source\PSoC4/Comm_I2C.c ****                                                  Comm_GET_RX_MATCH_MASK(config->slaveAddrMask)) :
 259              		.loc 1 134 0 discriminator 4
 260 0122 002B     		cmp	r3, #0
 261 0124 0CD0     		beq	.L18
 133:.\Generated_Source\PSoC4/Comm_I2C.c ****                                                 (Comm_GET_I2C_8BIT_ADDRESS(config->slaveAddr) |
 262              		.loc 1 133 0 discriminator 1
 263 0126 7B68     		ldr	r3, [r7, #4]
 264 0128 1B69     		ldr	r3, [r3, #16]
 265 012a 5B00     		lsl	r3, r3, #1
 266 012c FF21     		mov	r1, #255
 267 012e 1940     		and	r1, r3
 268              		.loc 1 134 0 discriminator 1
 269 0130 7B68     		ldr	r3, [r7, #4]
 270 0132 5B69     		ldr	r3, [r3, #20]
 271 0134 1804     		lsl	r0, r3, #16
 272 0136 FF23     		mov	r3, #255
 273 0138 1B04     		lsl	r3, r3, #16
 274 013a 0340     		and	r3, r0
 275 013c 0B43     		orr	r3, r1
 276 013e 00E0     		b	.L19
 277              	.L18:
 278              		.loc 1 134 0 is_stmt 0 discriminator 2
 279 0140 0023     		mov	r3, #0
 280              	.L19:
 132:.\Generated_Source\PSoC4/Comm_I2C.c ****                                                 (Comm_GET_I2C_8BIT_ADDRESS(config->slaveAddr) |
 281              		.loc 1 132 0 is_stmt 1
 282 0142 1360     		str	r3, [r2]
 135:.\Generated_Source\PSoC4/Comm_I2C.c ****                                                 (Comm_CLEAR_REG));
 136:.\Generated_Source\PSoC4/Comm_I2C.c **** 
 137:.\Generated_Source\PSoC4/Comm_I2C.c **** 
 138:.\Generated_Source\PSoC4/Comm_I2C.c ****             /* Configure TX direction */
 139:.\Generated_Source\PSoC4/Comm_I2C.c ****             Comm_TX_CTRL_REG      = Comm_I2C_TX_CTRL;
 283              		.loc 1 139 0
 284 0144 3C4B     		ldr	r3, .L26+60
 285 0146 394A     		ldr	r2, .L26+48
 286 0148 1A60     		str	r2, [r3]
 140:.\Generated_Source\PSoC4/Comm_I2C.c ****             Comm_TX_FIFO_CTRL_REG = Comm_CLEAR_REG;
 287              		.loc 1 140 0
 288 014a 3C4B     		ldr	r3, .L26+64
 289 014c 0022     		mov	r2, #0
 290 014e 1A60     		str	r2, [r3]
 141:.\Generated_Source\PSoC4/Comm_I2C.c **** 
 142:.\Generated_Source\PSoC4/Comm_I2C.c ****             /* Configure interrupt with I2C handler but do not enable it */
 143:.\Generated_Source\PSoC4/Comm_I2C.c ****             CyIntDisable    (Comm_ISR_NUMBER);
 291              		.loc 1 143 0
 292 0150 0A20     		mov	r0, #10
 293 0152 FFF7FEFF 		bl	CyIntDisable
 144:.\Generated_Source\PSoC4/Comm_I2C.c ****             CyIntSetPriority(Comm_ISR_NUMBER, Comm_ISR_PRIORITY);
 294              		.loc 1 144 0
 295 0156 0A20     		mov	r0, #10
 296 0158 0321     		mov	r1, #3
 297 015a FFF7FEFF 		bl	CyIntSetPriority
 145:.\Generated_Source\PSoC4/Comm_I2C.c ****             (void) CyIntSetVector(Comm_ISR_NUMBER, &Comm_I2C_ISR);
 298              		.loc 1 145 0
ARM GAS  C:\Users\TECHCO~1\AppData\Local\Temp\ccofT038.s 			page 9


 299 015e 384B     		ldr	r3, .L26+68
 300 0160 0A20     		mov	r0, #10
 301 0162 191C     		mov	r1, r3
 302 0164 FFF7FEFF 		bl	CyIntSetVector
 146:.\Generated_Source\PSoC4/Comm_I2C.c **** 
 147:.\Generated_Source\PSoC4/Comm_I2C.c ****             /* Configure interrupt sources */
 148:.\Generated_Source\PSoC4/Comm_I2C.c ****         #if(!Comm_CY_SCBIP_V1)
 149:.\Generated_Source\PSoC4/Comm_I2C.c ****             Comm_INTR_SPI_EC_MASK_REG = Comm_NO_INTR_SOURCES;
 303              		.loc 1 149 0
 304 0168 364B     		ldr	r3, .L26+72
 305 016a 0022     		mov	r2, #0
 306 016c 1A60     		str	r2, [r3]
 150:.\Generated_Source\PSoC4/Comm_I2C.c ****         #endif /* (!Comm_CY_SCBIP_V1) */
 151:.\Generated_Source\PSoC4/Comm_I2C.c **** 
 152:.\Generated_Source\PSoC4/Comm_I2C.c ****             Comm_INTR_I2C_EC_MASK_REG = Comm_NO_INTR_SOURCES;
 307              		.loc 1 152 0
 308 016e 364B     		ldr	r3, .L26+76
 309 0170 0022     		mov	r2, #0
 310 0172 1A60     		str	r2, [r3]
 153:.\Generated_Source\PSoC4/Comm_I2C.c ****             Comm_INTR_RX_MASK_REG     = Comm_NO_INTR_SOURCES;
 311              		.loc 1 153 0
 312 0174 354B     		ldr	r3, .L26+80
 313 0176 0022     		mov	r2, #0
 314 0178 1A60     		str	r2, [r3]
 154:.\Generated_Source\PSoC4/Comm_I2C.c ****             Comm_INTR_TX_MASK_REG     = Comm_NO_INTR_SOURCES;
 315              		.loc 1 154 0
 316 017a 354B     		ldr	r3, .L26+84
 317 017c 0022     		mov	r2, #0
 318 017e 1A60     		str	r2, [r3]
 155:.\Generated_Source\PSoC4/Comm_I2C.c **** 
 156:.\Generated_Source\PSoC4/Comm_I2C.c ****             Comm_INTR_SLAVE_MASK_REG  = ((Comm_I2C_SLAVE) ?
 319              		.loc 1 156 0
 320 0180 344A     		ldr	r2, .L26+88
 321 0182 214B     		ldr	r3, .L26+12
 322 0184 1B78     		ldrb	r3, [r3]
 323 0186 0121     		mov	r1, #1
 324 0188 0B40     		and	r3, r1
 325 018a DBB2     		uxtb	r3, r3
 157:.\Generated_Source\PSoC4/Comm_I2C.c ****                             (Comm_GET_INTR_SLAVE_I2C_GENERAL(config->acceptGeneralAddr) |
 158:.\Generated_Source\PSoC4/Comm_I2C.c ****                              Comm_I2C_INTR_SLAVE_MASK) : (Comm_CLEAR_REG));
 326              		.loc 1 158 0
 327 018c 002B     		cmp	r3, #0
 328 018e 0AD0     		beq	.L20
 157:.\Generated_Source\PSoC4/Comm_I2C.c ****                             (Comm_GET_INTR_SLAVE_I2C_GENERAL(config->acceptGeneralAddr) |
 329              		.loc 1 157 0
 330 0190 7B68     		ldr	r3, [r7, #4]
 331 0192 2421     		mov	r1, #36
 332 0194 5B5C     		ldrb	r3, [r3, r1]
 333 0196 002B     		cmp	r3, #0
 334 0198 02D0     		beq	.L21
 157:.\Generated_Source\PSoC4/Comm_I2C.c ****                             (Comm_GET_INTR_SLAVE_I2C_GENERAL(config->acceptGeneralAddr) |
 335              		.loc 1 157 0 is_stmt 0 discriminator 1
 336 019a CC23     		mov	r3, #204
 337 019c FF33     		add	r3, r3, #255
 338 019e 03E0     		b	.L23
 339              	.L21:
 157:.\Generated_Source\PSoC4/Comm_I2C.c ****                             (Comm_GET_INTR_SLAVE_I2C_GENERAL(config->acceptGeneralAddr) |
ARM GAS  C:\Users\TECHCO~1\AppData\Local\Temp\ccofT038.s 			page 10


 340              		.loc 1 157 0 discriminator 2
 341 01a0 4C23     		mov	r3, #76
 342 01a2 FF33     		add	r3, r3, #255
 343 01a4 00E0     		b	.L23
 344              	.L20:
 345              		.loc 1 158 0 is_stmt 1 discriminator 1
 346 01a6 0023     		mov	r3, #0
 347              	.L23:
 156:.\Generated_Source\PSoC4/Comm_I2C.c ****                             (Comm_GET_INTR_SLAVE_I2C_GENERAL(config->acceptGeneralAddr) |
 348              		.loc 1 156 0
 349 01a8 1360     		str	r3, [r2]
 159:.\Generated_Source\PSoC4/Comm_I2C.c **** 
 160:.\Generated_Source\PSoC4/Comm_I2C.c ****             Comm_INTR_MASTER_MASK_REG = ((Comm_I2C_MASTER) ?
 350              		.loc 1 160 0
 351 01aa 2B4B     		ldr	r3, .L26+92
 352 01ac 164A     		ldr	r2, .L26+12
 353 01ae 1278     		ldrb	r2, [r2]
 354 01b0 0221     		mov	r1, #2
 355 01b2 0A40     		and	r2, r1
 356 01b4 D2B2     		uxtb	r2, r2
 161:.\Generated_Source\PSoC4/Comm_I2C.c ****                                                      (Comm_I2C_INTR_MASTER_MASK) :
 357              		.loc 1 161 0
 358 01b6 002A     		cmp	r2, #0
 359 01b8 02D0     		beq	.L24
 360              		.loc 1 161 0 is_stmt 0 discriminator 1
 361 01ba 1422     		mov	r2, #20
 362 01bc FF32     		add	r2, r2, #255
 363 01be 00E0     		b	.L25
 364              	.L24:
 365              		.loc 1 161 0 discriminator 2
 366 01c0 0022     		mov	r2, #0
 367              	.L25:
 160:.\Generated_Source\PSoC4/Comm_I2C.c ****                                                      (Comm_I2C_INTR_MASTER_MASK) :
 368              		.loc 1 160 0 is_stmt 1
 369 01c2 1A60     		str	r2, [r3]
 162:.\Generated_Source\PSoC4/Comm_I2C.c ****                                                      (Comm_CLEAR_REG));
 163:.\Generated_Source\PSoC4/Comm_I2C.c **** 
 164:.\Generated_Source\PSoC4/Comm_I2C.c ****             /* Configure global variables */
 165:.\Generated_Source\PSoC4/Comm_I2C.c ****             Comm_state = Comm_I2C_FSM_IDLE;
 370              		.loc 1 165 0
 371 01c4 254B     		ldr	r3, .L26+96
 372 01c6 1022     		mov	r2, #16
 373 01c8 1A70     		strb	r2, [r3]
 166:.\Generated_Source\PSoC4/Comm_I2C.c **** 
 167:.\Generated_Source\PSoC4/Comm_I2C.c ****             /* Internal slave variables */
 168:.\Generated_Source\PSoC4/Comm_I2C.c ****             Comm_slStatus        = 0u;
 374              		.loc 1 168 0
 375 01ca 254B     		ldr	r3, .L26+100
 376 01cc 0022     		mov	r2, #0
 377 01ce 1A70     		strb	r2, [r3]
 169:.\Generated_Source\PSoC4/Comm_I2C.c ****             Comm_slRdBufIndex    = 0u;
 378              		.loc 1 169 0
 379 01d0 244B     		ldr	r3, .L26+104
 380 01d2 0022     		mov	r2, #0
 381 01d4 1A60     		str	r2, [r3]
 170:.\Generated_Source\PSoC4/Comm_I2C.c ****             Comm_slWrBufIndex    = 0u;
 382              		.loc 1 170 0
ARM GAS  C:\Users\TECHCO~1\AppData\Local\Temp\ccofT038.s 			page 11


 383 01d6 244B     		ldr	r3, .L26+108
 384 01d8 0022     		mov	r2, #0
 385 01da 1A60     		str	r2, [r3]
 171:.\Generated_Source\PSoC4/Comm_I2C.c ****             Comm_slOverFlowCount = 0u;
 386              		.loc 1 171 0
 387 01dc 234B     		ldr	r3, .L26+112
 388 01de 0022     		mov	r2, #0
 389 01e0 1A70     		strb	r2, [r3]
 172:.\Generated_Source\PSoC4/Comm_I2C.c **** 
 173:.\Generated_Source\PSoC4/Comm_I2C.c ****             /* Internal master variables */
 174:.\Generated_Source\PSoC4/Comm_I2C.c ****             Comm_mstrStatus     = 0u;
 390              		.loc 1 174 0
 391 01e2 234B     		ldr	r3, .L26+116
 392 01e4 0022     		mov	r2, #0
 393 01e6 1A80     		strh	r2, [r3]
 175:.\Generated_Source\PSoC4/Comm_I2C.c ****             Comm_mstrRdBufIndex = 0u;
 394              		.loc 1 175 0
 395 01e8 224B     		ldr	r3, .L26+120
 396 01ea 0022     		mov	r2, #0
 397 01ec 1A60     		str	r2, [r3]
 176:.\Generated_Source\PSoC4/Comm_I2C.c ****             Comm_mstrWrBufIndex = 0u;
 398              		.loc 1 176 0
 399 01ee 224B     		ldr	r3, .L26+124
 400 01f0 0022     		mov	r2, #0
 401 01f2 1A60     		str	r2, [r3]
 402              	.L1:
 177:.\Generated_Source\PSoC4/Comm_I2C.c ****         }
 178:.\Generated_Source\PSoC4/Comm_I2C.c ****     }
 403              		.loc 1 178 0
 404 01f4 BD46     		mov	sp, r7
 405 01f6 04B0     		add	sp, sp, #16
 406              		@ sp needed
 407 01f8 80BD     		pop	{r7, pc}
 408              	.L27:
 409 01fa C046     		.align	2
 410              	.L26:
 411 01fc 00000000 		.word	Comm_scbMode
 412 0200 00000000 		.word	Comm_scbEnableWake
 413 0204 00000000 		.word	Comm_scbEnableIntr
 414 0208 00000000 		.word	Comm_mode
 415 020c 00000000 		.word	Comm_acceptAddr
 416 0210 70000640 		.word	1074135152
 417 0214 00000202 		.word	33685504
 418 0218 FFFFFDFD 		.word	-33685505
 419 021c 00000640 		.word	1074135040
 420 0220 60000640 		.word	1074135136
 421 0224 00030640 		.word	1074135808
 422 0228 07030080 		.word	-2147482873
 423 022c 07010080 		.word	-2147483385
 424 0230 04030640 		.word	1074135812
 425 0234 10030640 		.word	1074135824
 426 0238 00020640 		.word	1074135552
 427 023c 04020640 		.word	1074135556
 428 0240 00000000 		.word	Comm_I2C_ISR
 429 0244 C80E0640 		.word	1074138824
 430 0248 880E0640 		.word	1074138760
 431 024c C80F0640 		.word	1074139080
ARM GAS  C:\Users\TECHCO~1\AppData\Local\Temp\ccofT038.s 			page 12


 432 0250 880F0640 		.word	1074139016
 433 0254 480F0640 		.word	1074138952
 434 0258 080F0640 		.word	1074138888
 435 025c 00000000 		.word	Comm_state
 436 0260 00000000 		.word	Comm_slStatus
 437 0264 00000000 		.word	Comm_slRdBufIndex
 438 0268 00000000 		.word	Comm_slWrBufIndex
 439 026c 00000000 		.word	Comm_slOverFlowCount
 440 0270 00000000 		.word	Comm_mstrStatus
 441 0274 00000000 		.word	Comm_mstrRdBufIndex
 442 0278 00000000 		.word	Comm_mstrWrBufIndex
 443              		.cfi_endproc
 444              	.LFE0:
 445              		.size	Comm_I2CInit, .-Comm_I2CInit
 446              		.section	.text.Comm_I2CStop,"ax",%progbits
 447              		.align	2
 448              		.global	Comm_I2CStop
 449              		.code	16
 450              		.thumb_func
 451              		.type	Comm_I2CStop, %function
 452              	Comm_I2CStop:
 453              	.LFB1:
 179:.\Generated_Source\PSoC4/Comm_I2C.c **** 
 180:.\Generated_Source\PSoC4/Comm_I2C.c **** #else
 181:.\Generated_Source\PSoC4/Comm_I2C.c **** 
 182:.\Generated_Source\PSoC4/Comm_I2C.c ****     /*******************************************************************************
 183:.\Generated_Source\PSoC4/Comm_I2C.c ****     * Function Name: Comm_I2CInit
 184:.\Generated_Source\PSoC4/Comm_I2C.c ****     ********************************************************************************
 185:.\Generated_Source\PSoC4/Comm_I2C.c ****     *
 186:.\Generated_Source\PSoC4/Comm_I2C.c ****     * Summary:
 187:.\Generated_Source\PSoC4/Comm_I2C.c ****     *  Configures the SCB for the I2C operation.
 188:.\Generated_Source\PSoC4/Comm_I2C.c ****     *
 189:.\Generated_Source\PSoC4/Comm_I2C.c ****     * Parameters:
 190:.\Generated_Source\PSoC4/Comm_I2C.c ****     *  None
 191:.\Generated_Source\PSoC4/Comm_I2C.c ****     *
 192:.\Generated_Source\PSoC4/Comm_I2C.c ****     * Return:
 193:.\Generated_Source\PSoC4/Comm_I2C.c ****     *  None
 194:.\Generated_Source\PSoC4/Comm_I2C.c ****     *
 195:.\Generated_Source\PSoC4/Comm_I2C.c ****     *******************************************************************************/
 196:.\Generated_Source\PSoC4/Comm_I2C.c ****     void Comm_I2CInit(void)
 197:.\Generated_Source\PSoC4/Comm_I2C.c ****     {
 198:.\Generated_Source\PSoC4/Comm_I2C.c ****     #if(Comm_CY_SCBIP_V0)
 199:.\Generated_Source\PSoC4/Comm_I2C.c ****         /* Adjust SDA filter settings. Ticket ID#150521 */
 200:.\Generated_Source\PSoC4/Comm_I2C.c ****         Comm_SET_I2C_CFG_SDA_FILT_TRIM(Comm_EC_AM_I2C_CFG_SDA_FILT_TRIM);
 201:.\Generated_Source\PSoC4/Comm_I2C.c ****     #endif /* (Comm_CY_SCBIP_V0) */
 202:.\Generated_Source\PSoC4/Comm_I2C.c **** 
 203:.\Generated_Source\PSoC4/Comm_I2C.c ****         /* Adjust AF and DF filter settings. Ticket ID#176179 */
 204:.\Generated_Source\PSoC4/Comm_I2C.c ****         Comm_I2C_CFG_ANALOG_FITER_ENABLE_ADJ;
 205:.\Generated_Source\PSoC4/Comm_I2C.c **** 
 206:.\Generated_Source\PSoC4/Comm_I2C.c ****         /* Configure I2C interface */
 207:.\Generated_Source\PSoC4/Comm_I2C.c ****         Comm_CTRL_REG     = Comm_I2C_DEFAULT_CTRL;
 208:.\Generated_Source\PSoC4/Comm_I2C.c ****         Comm_I2C_CTRL_REG = Comm_I2C_DEFAULT_I2C_CTRL;
 209:.\Generated_Source\PSoC4/Comm_I2C.c **** 
 210:.\Generated_Source\PSoC4/Comm_I2C.c ****         /* Configure RX direction */
 211:.\Generated_Source\PSoC4/Comm_I2C.c ****         Comm_RX_CTRL_REG      = Comm_I2C_DEFAULT_RX_CTRL;
 212:.\Generated_Source\PSoC4/Comm_I2C.c ****         Comm_RX_FIFO_CTRL_REG = Comm_I2C_DEFAULT_RX_FIFO_CTRL;
 213:.\Generated_Source\PSoC4/Comm_I2C.c **** 
ARM GAS  C:\Users\TECHCO~1\AppData\Local\Temp\ccofT038.s 			page 13


 214:.\Generated_Source\PSoC4/Comm_I2C.c ****         /* Set default address and mask */
 215:.\Generated_Source\PSoC4/Comm_I2C.c ****         Comm_RX_MATCH_REG     = Comm_I2C_DEFAULT_RX_MATCH;
 216:.\Generated_Source\PSoC4/Comm_I2C.c **** 
 217:.\Generated_Source\PSoC4/Comm_I2C.c ****         /* Configure TX direction */
 218:.\Generated_Source\PSoC4/Comm_I2C.c ****         Comm_TX_CTRL_REG      = Comm_I2C_DEFAULT_TX_CTRL;
 219:.\Generated_Source\PSoC4/Comm_I2C.c ****         Comm_TX_FIFO_CTRL_REG = Comm_I2C_DEFAULT_TX_FIFO_CTRL;
 220:.\Generated_Source\PSoC4/Comm_I2C.c **** 
 221:.\Generated_Source\PSoC4/Comm_I2C.c ****         /* Configure interrupt with I2C handler but do not enable it */
 222:.\Generated_Source\PSoC4/Comm_I2C.c ****         CyIntDisable    (Comm_ISR_NUMBER);
 223:.\Generated_Source\PSoC4/Comm_I2C.c ****         CyIntSetPriority(Comm_ISR_NUMBER, Comm_ISR_PRIORITY);
 224:.\Generated_Source\PSoC4/Comm_I2C.c ****     #if(!Comm_I2C_EXTERN_INTR_HANDLER)
 225:.\Generated_Source\PSoC4/Comm_I2C.c ****         (void) CyIntSetVector(Comm_ISR_NUMBER, &Comm_I2C_ISR);
 226:.\Generated_Source\PSoC4/Comm_I2C.c ****     #endif /* (Comm_I2C_EXTERN_INTR_HANDLER) */
 227:.\Generated_Source\PSoC4/Comm_I2C.c **** 
 228:.\Generated_Source\PSoC4/Comm_I2C.c ****         /* Configure interrupt sources */
 229:.\Generated_Source\PSoC4/Comm_I2C.c ****     #if(!Comm_CY_SCBIP_V1)
 230:.\Generated_Source\PSoC4/Comm_I2C.c ****         Comm_INTR_SPI_EC_MASK_REG = Comm_I2C_DEFAULT_INTR_SPI_EC_MASK;
 231:.\Generated_Source\PSoC4/Comm_I2C.c ****     #endif /* (!Comm_CY_SCBIP_V1) */
 232:.\Generated_Source\PSoC4/Comm_I2C.c **** 
 233:.\Generated_Source\PSoC4/Comm_I2C.c ****         Comm_INTR_I2C_EC_MASK_REG = Comm_I2C_DEFAULT_INTR_I2C_EC_MASK;
 234:.\Generated_Source\PSoC4/Comm_I2C.c ****         Comm_INTR_SLAVE_MASK_REG  = Comm_I2C_DEFAULT_INTR_SLAVE_MASK;
 235:.\Generated_Source\PSoC4/Comm_I2C.c ****         Comm_INTR_MASTER_MASK_REG = Comm_I2C_DEFAULT_INTR_MASTER_MASK;
 236:.\Generated_Source\PSoC4/Comm_I2C.c ****         Comm_INTR_RX_MASK_REG     = Comm_I2C_DEFAULT_INTR_RX_MASK;
 237:.\Generated_Source\PSoC4/Comm_I2C.c ****         Comm_INTR_TX_MASK_REG     = Comm_I2C_DEFAULT_INTR_TX_MASK;
 238:.\Generated_Source\PSoC4/Comm_I2C.c **** 
 239:.\Generated_Source\PSoC4/Comm_I2C.c ****         /* Configure global variables */
 240:.\Generated_Source\PSoC4/Comm_I2C.c ****         Comm_state = Comm_I2C_FSM_IDLE;
 241:.\Generated_Source\PSoC4/Comm_I2C.c **** 
 242:.\Generated_Source\PSoC4/Comm_I2C.c ****     #if(Comm_I2C_SLAVE)
 243:.\Generated_Source\PSoC4/Comm_I2C.c ****         /* Internal slave variable */
 244:.\Generated_Source\PSoC4/Comm_I2C.c ****         Comm_slStatus        = 0u;
 245:.\Generated_Source\PSoC4/Comm_I2C.c ****         Comm_slRdBufIndex    = 0u;
 246:.\Generated_Source\PSoC4/Comm_I2C.c ****         Comm_slWrBufIndex    = 0u;
 247:.\Generated_Source\PSoC4/Comm_I2C.c ****         Comm_slOverFlowCount = 0u;
 248:.\Generated_Source\PSoC4/Comm_I2C.c ****     #endif /* (Comm_I2C_SLAVE) */
 249:.\Generated_Source\PSoC4/Comm_I2C.c **** 
 250:.\Generated_Source\PSoC4/Comm_I2C.c ****     #if(Comm_I2C_MASTER)
 251:.\Generated_Source\PSoC4/Comm_I2C.c ****     /* Internal master variable */
 252:.\Generated_Source\PSoC4/Comm_I2C.c ****         Comm_mstrStatus     = 0u;
 253:.\Generated_Source\PSoC4/Comm_I2C.c ****         Comm_mstrRdBufIndex = 0u;
 254:.\Generated_Source\PSoC4/Comm_I2C.c ****         Comm_mstrWrBufIndex = 0u;
 255:.\Generated_Source\PSoC4/Comm_I2C.c ****     #endif /* (Comm_I2C_MASTER) */
 256:.\Generated_Source\PSoC4/Comm_I2C.c ****     }
 257:.\Generated_Source\PSoC4/Comm_I2C.c **** #endif /* (Comm_SCB_MODE_UNCONFIG_CONST_CFG) */
 258:.\Generated_Source\PSoC4/Comm_I2C.c **** 
 259:.\Generated_Source\PSoC4/Comm_I2C.c **** 
 260:.\Generated_Source\PSoC4/Comm_I2C.c **** /*******************************************************************************
 261:.\Generated_Source\PSoC4/Comm_I2C.c **** * Function Name: Comm_I2CStop
 262:.\Generated_Source\PSoC4/Comm_I2C.c **** ********************************************************************************
 263:.\Generated_Source\PSoC4/Comm_I2C.c **** *
 264:.\Generated_Source\PSoC4/Comm_I2C.c **** * Summary:
 265:.\Generated_Source\PSoC4/Comm_I2C.c **** *  Resets the I2C FSM into the default state.
 266:.\Generated_Source\PSoC4/Comm_I2C.c **** *
 267:.\Generated_Source\PSoC4/Comm_I2C.c **** * Parameters:
 268:.\Generated_Source\PSoC4/Comm_I2C.c **** *  None
 269:.\Generated_Source\PSoC4/Comm_I2C.c **** *
 270:.\Generated_Source\PSoC4/Comm_I2C.c **** * Return:
ARM GAS  C:\Users\TECHCO~1\AppData\Local\Temp\ccofT038.s 			page 14


 271:.\Generated_Source\PSoC4/Comm_I2C.c **** *  None
 272:.\Generated_Source\PSoC4/Comm_I2C.c **** *
 273:.\Generated_Source\PSoC4/Comm_I2C.c **** *******************************************************************************/
 274:.\Generated_Source\PSoC4/Comm_I2C.c **** void Comm_I2CStop(void)
 275:.\Generated_Source\PSoC4/Comm_I2C.c **** {
 454              		.loc 1 275 0
 455              		.cfi_startproc
 456 0000 80B5     		push	{r7, lr}
 457              		.cfi_def_cfa_offset 8
 458              		.cfi_offset 7, -8
 459              		.cfi_offset 14, -4
 460 0002 00AF     		add	r7, sp, #0
 461              		.cfi_def_cfa_register 7
 276:.\Generated_Source\PSoC4/Comm_I2C.c ****     Comm_state = Comm_I2C_FSM_IDLE;
 462              		.loc 1 276 0
 463 0004 024B     		ldr	r3, .L29
 464 0006 1022     		mov	r2, #16
 465 0008 1A70     		strb	r2, [r3]
 277:.\Generated_Source\PSoC4/Comm_I2C.c **** }
 466              		.loc 1 277 0
 467 000a BD46     		mov	sp, r7
 468              		@ sp needed
 469 000c 80BD     		pop	{r7, pc}
 470              	.L30:
 471 000e C046     		.align	2
 472              	.L29:
 473 0010 00000000 		.word	Comm_state
 474              		.cfi_endproc
 475              	.LFE1:
 476              		.size	Comm_I2CStop, .-Comm_I2CStop
 477              		.section	.text.Comm_I2CSaveConfig,"ax",%progbits
 478              		.align	2
 479              		.global	Comm_I2CSaveConfig
 480              		.code	16
 481              		.thumb_func
 482              		.type	Comm_I2CSaveConfig, %function
 483              	Comm_I2CSaveConfig:
 484              	.LFB2:
 278:.\Generated_Source\PSoC4/Comm_I2C.c **** 
 279:.\Generated_Source\PSoC4/Comm_I2C.c **** 
 280:.\Generated_Source\PSoC4/Comm_I2C.c **** #if(Comm_I2C_WAKE_ENABLE_CONST)
 281:.\Generated_Source\PSoC4/Comm_I2C.c ****     /*******************************************************************************
 282:.\Generated_Source\PSoC4/Comm_I2C.c ****     * Function Name: Comm_I2CSaveConfig
 283:.\Generated_Source\PSoC4/Comm_I2C.c ****     ********************************************************************************
 284:.\Generated_Source\PSoC4/Comm_I2C.c ****     *
 285:.\Generated_Source\PSoC4/Comm_I2C.c ****     * Summary:
 286:.\Generated_Source\PSoC4/Comm_I2C.c ****     *  Enables Comm_INTR_I2C_EC_WAKE_UP interrupt source. This interrupt
 287:.\Generated_Source\PSoC4/Comm_I2C.c ****     *  triggers on address match and wakes up device.
 288:.\Generated_Source\PSoC4/Comm_I2C.c ****     *
 289:.\Generated_Source\PSoC4/Comm_I2C.c ****     * Parameters:
 290:.\Generated_Source\PSoC4/Comm_I2C.c ****     *  None
 291:.\Generated_Source\PSoC4/Comm_I2C.c ****     *
 292:.\Generated_Source\PSoC4/Comm_I2C.c ****     * Return:
 293:.\Generated_Source\PSoC4/Comm_I2C.c ****     *  None
 294:.\Generated_Source\PSoC4/Comm_I2C.c ****     *
 295:.\Generated_Source\PSoC4/Comm_I2C.c ****     *******************************************************************************/
 296:.\Generated_Source\PSoC4/Comm_I2C.c ****     void Comm_I2CSaveConfig(void)
ARM GAS  C:\Users\TECHCO~1\AppData\Local\Temp\ccofT038.s 			page 15


 297:.\Generated_Source\PSoC4/Comm_I2C.c ****     {
 485              		.loc 1 297 0
 486              		.cfi_startproc
 487 0000 80B5     		push	{r7, lr}
 488              		.cfi_def_cfa_offset 8
 489              		.cfi_offset 7, -8
 490              		.cfi_offset 14, -4
 491 0002 00AF     		add	r7, sp, #0
 492              		.cfi_def_cfa_register 7
 298:.\Generated_Source\PSoC4/Comm_I2C.c ****     #if (!Comm_CY_SCBIP_V0)
 299:.\Generated_Source\PSoC4/Comm_I2C.c ****         #if (Comm_I2C_MULTI_MASTER_SLAVE_CONST && Comm_I2C_WAKE_ENABLE_CONST)
 300:.\Generated_Source\PSoC4/Comm_I2C.c ****             /* Enable externally clocked address match if it was not enabled before.
 301:.\Generated_Source\PSoC4/Comm_I2C.c ****             * This applicable only for Multi-Master-Slave. Ticket ID#192742 */
 302:.\Generated_Source\PSoC4/Comm_I2C.c ****             if (0u == (Comm_CTRL_REG & Comm_CTRL_EC_AM_MODE))
 303:.\Generated_Source\PSoC4/Comm_I2C.c ****             {
 304:.\Generated_Source\PSoC4/Comm_I2C.c ****                 /* Enable external address match logic */
 305:.\Generated_Source\PSoC4/Comm_I2C.c ****                 Comm_Stop();
 306:.\Generated_Source\PSoC4/Comm_I2C.c ****                 Comm_CTRL_REG |= Comm_CTRL_EC_AM_MODE;
 307:.\Generated_Source\PSoC4/Comm_I2C.c ****                 Comm_Enable();
 308:.\Generated_Source\PSoC4/Comm_I2C.c ****             }
 309:.\Generated_Source\PSoC4/Comm_I2C.c ****         #endif /* (Comm_I2C_MULTI_MASTER_SLAVE_CONST) */
 310:.\Generated_Source\PSoC4/Comm_I2C.c **** 
 311:.\Generated_Source\PSoC4/Comm_I2C.c ****         #if (Comm_SCB_CLK_INTERNAL)
 312:.\Generated_Source\PSoC4/Comm_I2C.c ****             /* Disable clock to internal address match logic. Ticket ID#187931 */
 313:.\Generated_Source\PSoC4/Comm_I2C.c ****             Comm_SCBCLK_Stop();
 314:.\Generated_Source\PSoC4/Comm_I2C.c ****         #endif /* (Comm_SCB_CLK_INTERNAL) */
 315:.\Generated_Source\PSoC4/Comm_I2C.c ****     #endif /* (!Comm_CY_SCBIP_V0) */
 316:.\Generated_Source\PSoC4/Comm_I2C.c **** 
 317:.\Generated_Source\PSoC4/Comm_I2C.c ****         Comm_SetI2CExtClkInterruptMode(Comm_INTR_I2C_EC_WAKE_UP);
 493              		.loc 1 317 0
 494 0004 024B     		ldr	r3, .L32
 495 0006 0122     		mov	r2, #1
 496 0008 1A60     		str	r2, [r3]
 318:.\Generated_Source\PSoC4/Comm_I2C.c ****     }
 497              		.loc 1 318 0
 498 000a BD46     		mov	sp, r7
 499              		@ sp needed
 500 000c 80BD     		pop	{r7, pc}
 501              	.L33:
 502 000e C046     		.align	2
 503              	.L32:
 504 0010 880E0640 		.word	1074138760
 505              		.cfi_endproc
 506              	.LFE2:
 507              		.size	Comm_I2CSaveConfig, .-Comm_I2CSaveConfig
 508              		.section	.text.Comm_I2CRestoreConfig,"ax",%progbits
 509              		.align	2
 510              		.global	Comm_I2CRestoreConfig
 511              		.code	16
 512              		.thumb_func
 513              		.type	Comm_I2CRestoreConfig, %function
 514              	Comm_I2CRestoreConfig:
 515              	.LFB3:
 319:.\Generated_Source\PSoC4/Comm_I2C.c **** 
 320:.\Generated_Source\PSoC4/Comm_I2C.c **** 
 321:.\Generated_Source\PSoC4/Comm_I2C.c ****     /*******************************************************************************
 322:.\Generated_Source\PSoC4/Comm_I2C.c ****     * Function Name: Comm_I2CRestoreConfig
ARM GAS  C:\Users\TECHCO~1\AppData\Local\Temp\ccofT038.s 			page 16


 323:.\Generated_Source\PSoC4/Comm_I2C.c ****     ********************************************************************************
 324:.\Generated_Source\PSoC4/Comm_I2C.c ****     *
 325:.\Generated_Source\PSoC4/Comm_I2C.c ****     * Summary:
 326:.\Generated_Source\PSoC4/Comm_I2C.c ****     *  Disables Comm_INTR_I2C_EC_WAKE_UP interrupt source. This interrupt
 327:.\Generated_Source\PSoC4/Comm_I2C.c ****     *  triggers on address match and wakes up device.
 328:.\Generated_Source\PSoC4/Comm_I2C.c ****     *
 329:.\Generated_Source\PSoC4/Comm_I2C.c ****     * Parameters:
 330:.\Generated_Source\PSoC4/Comm_I2C.c ****     *  None
 331:.\Generated_Source\PSoC4/Comm_I2C.c ****     *
 332:.\Generated_Source\PSoC4/Comm_I2C.c ****     * Return:
 333:.\Generated_Source\PSoC4/Comm_I2C.c ****     *  None
 334:.\Generated_Source\PSoC4/Comm_I2C.c ****     *
 335:.\Generated_Source\PSoC4/Comm_I2C.c ****     *******************************************************************************/
 336:.\Generated_Source\PSoC4/Comm_I2C.c ****     void Comm_I2CRestoreConfig(void)
 337:.\Generated_Source\PSoC4/Comm_I2C.c ****     {
 516              		.loc 1 337 0
 517              		.cfi_startproc
 518 0000 80B5     		push	{r7, lr}
 519              		.cfi_def_cfa_offset 8
 520              		.cfi_offset 7, -8
 521              		.cfi_offset 14, -4
 522 0002 00AF     		add	r7, sp, #0
 523              		.cfi_def_cfa_register 7
 338:.\Generated_Source\PSoC4/Comm_I2C.c ****         /* Disable wakeup interrupt on address match */
 339:.\Generated_Source\PSoC4/Comm_I2C.c ****         Comm_SetI2CExtClkInterruptMode(Comm_NO_INTR_SOURCES);
 524              		.loc 1 339 0
 525 0004 024B     		ldr	r3, .L35
 526 0006 0022     		mov	r2, #0
 527 0008 1A60     		str	r2, [r3]
 340:.\Generated_Source\PSoC4/Comm_I2C.c **** 
 341:.\Generated_Source\PSoC4/Comm_I2C.c ****     #if (!Comm_CY_SCBIP_V0)
 342:.\Generated_Source\PSoC4/Comm_I2C.c ****         #if (Comm_SCB_CLK_INTERNAL)
 343:.\Generated_Source\PSoC4/Comm_I2C.c ****             /* Enable clock to internal address match logic. Ticket ID#187931 */
 344:.\Generated_Source\PSoC4/Comm_I2C.c ****             Comm_SCBCLK_Start();
 345:.\Generated_Source\PSoC4/Comm_I2C.c ****         #endif /* (Comm_SCB_CLK_INTERNAL) */
 346:.\Generated_Source\PSoC4/Comm_I2C.c ****     #endif /* (!Comm_CY_SCBIP_V0) */
 347:.\Generated_Source\PSoC4/Comm_I2C.c ****     }
 528              		.loc 1 347 0
 529 000a BD46     		mov	sp, r7
 530              		@ sp needed
 531 000c 80BD     		pop	{r7, pc}
 532              	.L36:
 533 000e C046     		.align	2
 534              	.L35:
 535 0010 880E0640 		.word	1074138760
 536              		.cfi_endproc
 537              	.LFE3:
 538              		.size	Comm_I2CRestoreConfig, .-Comm_I2CRestoreConfig
 539              		.text
 540              	.Letext0:
 541              		.file 2 "Generated_Source\\PSoC4/cytypes.h"
 542              		.file 3 ".\\Generated_Source\\PSoC4\\Comm_I2C.h"
 543              		.file 4 ".\\Generated_Source\\PSoC4\\Comm_PVT.h"
 544              		.file 5 ".\\Generated_Source\\PSoC4\\Comm_I2C_PVT.h"