ARM GAS  C:\Users\TECHCO~1\AppData\Local\Temp\ccgevLFY.s 			page 1


   1              		.cpu cortex-m0
   2              		.fpu softvfp
   3              		.eabi_attribute 20, 1
   4              		.eabi_attribute 21, 1
   5              		.eabi_attribute 23, 3
   6              		.eabi_attribute 24, 1
   7              		.eabi_attribute 25, 1
   8              		.eabi_attribute 26, 1
   9              		.eabi_attribute 30, 6
  10              		.eabi_attribute 34, 0
  11              		.eabi_attribute 18, 4
  12              		.code	16
  13              		.file	"Comm_EZI2C.c"
  14              		.text
  15              	.Ltext0:
  16              		.cfi_sections	.debug_frame
  17              		.comm	Comm_curStatus,1,1
  18              		.comm	Comm_fsmState,1,1
  19              		.comm	Comm_dataBuffer1,4,4
  20              		.comm	Comm_bufSizeBuf1,2,2
  21              		.comm	Comm_protectBuf1,2,2
  22              		.comm	Comm_offsetBuf1,2,2
  23              		.comm	Comm_indexBuf1,2,2
  24              		.comm	Comm_addrBuf1,1,1
  25              		.comm	Comm_addrBuf2,1,1
  26              		.comm	Comm_dataBuffer2,4,4
  27              		.comm	Comm_bufSizeBuf2,2,2
  28              		.comm	Comm_protectBuf2,2,2
  29              		.comm	Comm_offsetBuf2,2,2
  30              		.comm	Comm_indexBuf2,2,2
  31              		.global	Comm_configEzI2C
  32              		.section	.rodata
  33              		.align	2
  34              		.type	Comm_configEzI2C, %object
  35              		.size	Comm_configEzI2C, 32
  36              	Comm_configEzI2C:
  37 0000 01000000 		.word	1
  38 0004 01000000 		.word	1
  39 0008 00000000 		.word	0
  40 000c 08000000 		.word	8
  41 0010 09000000 		.word	9
  42 0014 00000000 		.word	0
  43 0018 00000000 		.word	0
  44 001c 00       		.byte	0
  45 001d 000000   		.space	3
  46              		.section	.text.Comm_EzI2CInit,"ax",%progbits
  47              		.align	2
  48              		.global	Comm_EzI2CInit
  49              		.code	16
  50              		.thumb_func
  51              		.type	Comm_EzI2CInit, %function
  52              	Comm_EzI2CInit:
  53              	.LFB0:
  54              		.file 1 ".\\Generated_Source\\PSoC4\\Comm_EZI2C.c"
   1:.\Generated_Source\PSoC4/Comm_EZI2C.c **** /*******************************************************************************
   2:.\Generated_Source\PSoC4/Comm_EZI2C.c **** * File Name: Comm_EZI2C.c
   3:.\Generated_Source\PSoC4/Comm_EZI2C.c **** * Version 3.10
ARM GAS  C:\Users\TECHCO~1\AppData\Local\Temp\ccgevLFY.s 			page 2


   4:.\Generated_Source\PSoC4/Comm_EZI2C.c **** *
   5:.\Generated_Source\PSoC4/Comm_EZI2C.c **** * Description:
   6:.\Generated_Source\PSoC4/Comm_EZI2C.c **** *  This file provides the source code to the API for the SCB Component in
   7:.\Generated_Source\PSoC4/Comm_EZI2C.c **** *  EZI2C mode.
   8:.\Generated_Source\PSoC4/Comm_EZI2C.c **** *
   9:.\Generated_Source\PSoC4/Comm_EZI2C.c **** * Note:
  10:.\Generated_Source\PSoC4/Comm_EZI2C.c **** *
  11:.\Generated_Source\PSoC4/Comm_EZI2C.c **** *******************************************************************************
  12:.\Generated_Source\PSoC4/Comm_EZI2C.c **** * Copyright 2013-2015, Cypress Semiconductor Corporation.  All rights reserved.
  13:.\Generated_Source\PSoC4/Comm_EZI2C.c **** * You may use this file only in accordance with the license, terms, conditions,
  14:.\Generated_Source\PSoC4/Comm_EZI2C.c **** * disclaimers, and limitations in the end user license agreement accompanying
  15:.\Generated_Source\PSoC4/Comm_EZI2C.c **** * the software package with which this file was provided.
  16:.\Generated_Source\PSoC4/Comm_EZI2C.c **** *******************************************************************************/
  17:.\Generated_Source\PSoC4/Comm_EZI2C.c **** 
  18:.\Generated_Source\PSoC4/Comm_EZI2C.c **** #include "Comm_PVT.h"
  19:.\Generated_Source\PSoC4/Comm_EZI2C.c **** #include "Comm_EZI2C_PVT.h"
  20:.\Generated_Source\PSoC4/Comm_EZI2C.c **** 
  21:.\Generated_Source\PSoC4/Comm_EZI2C.c **** 
  22:.\Generated_Source\PSoC4/Comm_EZI2C.c **** /***************************************
  23:.\Generated_Source\PSoC4/Comm_EZI2C.c **** *      EZI2C Private Vars
  24:.\Generated_Source\PSoC4/Comm_EZI2C.c **** ***************************************/
  25:.\Generated_Source\PSoC4/Comm_EZI2C.c **** 
  26:.\Generated_Source\PSoC4/Comm_EZI2C.c **** volatile uint8 Comm_curStatus; /* Status byte */
  27:.\Generated_Source\PSoC4/Comm_EZI2C.c **** uint8 Comm_fsmState;           /* FSM state   */
  28:.\Generated_Source\PSoC4/Comm_EZI2C.c **** 
  29:.\Generated_Source\PSoC4/Comm_EZI2C.c **** /* Variables intended to be used with Buffer 1: Primary slave address */
  30:.\Generated_Source\PSoC4/Comm_EZI2C.c **** volatile uint8 * Comm_dataBuffer1; /* Pointer to data buffer 1 */
  31:.\Generated_Source\PSoC4/Comm_EZI2C.c **** uint16 Comm_bufSizeBuf1; /* Size of buffer 1 in bytes      */
  32:.\Generated_Source\PSoC4/Comm_EZI2C.c **** uint16 Comm_protectBuf1; /* Start index of write protected area buffer 1 */
  33:.\Generated_Source\PSoC4/Comm_EZI2C.c **** uint16 Comm_offsetBuf1; /* Current offset within buffer 1 */
  34:.\Generated_Source\PSoC4/Comm_EZI2C.c **** uint16 Comm_indexBuf1;  /* Current index within buffer 1  */
  35:.\Generated_Source\PSoC4/Comm_EZI2C.c **** 
  36:.\Generated_Source\PSoC4/Comm_EZI2C.c **** #if(Comm_SECONDARY_ADDRESS_ENABLE_CONST)
  37:.\Generated_Source\PSoC4/Comm_EZI2C.c ****     uint8 Comm_addrBuf1; /* Primary slave address. Used for software comparison   */
  38:.\Generated_Source\PSoC4/Comm_EZI2C.c ****     uint8 Comm_addrBuf2; /* Secondary slave address. Used for software comparison */
  39:.\Generated_Source\PSoC4/Comm_EZI2C.c **** 
  40:.\Generated_Source\PSoC4/Comm_EZI2C.c ****     /* Variables intended to be used with Buffer 2: Primary slave address */
  41:.\Generated_Source\PSoC4/Comm_EZI2C.c ****     volatile uint8 * Comm_dataBuffer2; /* Pointer to data buffer 2 */
  42:.\Generated_Source\PSoC4/Comm_EZI2C.c ****     uint16 Comm_bufSizeBuf2; /* Size of buffer 2 in bytes      */
  43:.\Generated_Source\PSoC4/Comm_EZI2C.c ****     uint16 Comm_protectBuf2; /* Start index of write protected area buffer 2 */
  44:.\Generated_Source\PSoC4/Comm_EZI2C.c ****     uint16 Comm_offsetBuf2; /* Current offset within buffer 2 */
  45:.\Generated_Source\PSoC4/Comm_EZI2C.c ****     uint16 Comm_indexBuf2;  /* Current index within buffer 2  */
  46:.\Generated_Source\PSoC4/Comm_EZI2C.c **** #endif /* (Comm_SECONDARY_ADDRESS_ENABLE_CONST) */
  47:.\Generated_Source\PSoC4/Comm_EZI2C.c **** 
  48:.\Generated_Source\PSoC4/Comm_EZI2C.c **** 
  49:.\Generated_Source\PSoC4/Comm_EZI2C.c **** /***************************************
  50:.\Generated_Source\PSoC4/Comm_EZI2C.c **** *      EZI2C Private Functions
  51:.\Generated_Source\PSoC4/Comm_EZI2C.c **** ***************************************/
  52:.\Generated_Source\PSoC4/Comm_EZI2C.c **** 
  53:.\Generated_Source\PSoC4/Comm_EZI2C.c **** #if(Comm_SECONDARY_ADDRESS_ENABLE_CONST)
  54:.\Generated_Source\PSoC4/Comm_EZI2C.c ****     static uint32 Comm_EzI2CUpdateRxMatchReg(uint32 addr1, uint32 addr2);
  55:.\Generated_Source\PSoC4/Comm_EZI2C.c **** #endif /* (Comm_SECONDARY_ADDRESS_ENABLE_CONST) */
  56:.\Generated_Source\PSoC4/Comm_EZI2C.c **** 
  57:.\Generated_Source\PSoC4/Comm_EZI2C.c **** #if(Comm_SCB_MODE_UNCONFIG_CONST_CFG)
  58:.\Generated_Source\PSoC4/Comm_EZI2C.c **** 
  59:.\Generated_Source\PSoC4/Comm_EZI2C.c ****     /***************************************
  60:.\Generated_Source\PSoC4/Comm_EZI2C.c ****     *  Configuration Structure Initialization
ARM GAS  C:\Users\TECHCO~1\AppData\Local\Temp\ccgevLFY.s 			page 3


  61:.\Generated_Source\PSoC4/Comm_EZI2C.c ****     ***************************************/
  62:.\Generated_Source\PSoC4/Comm_EZI2C.c **** 
  63:.\Generated_Source\PSoC4/Comm_EZI2C.c ****     /* Constant configuration of EZI2C */
  64:.\Generated_Source\PSoC4/Comm_EZI2C.c ****     const Comm_EZI2C_INIT_STRUCT Comm_configEzI2C =
  65:.\Generated_Source\PSoC4/Comm_EZI2C.c ****     {
  66:.\Generated_Source\PSoC4/Comm_EZI2C.c ****         Comm_EZI2C_CLOCK_STRETCHING,
  67:.\Generated_Source\PSoC4/Comm_EZI2C.c ****         Comm_EZI2C_MEDIAN_FILTER_ENABLE,
  68:.\Generated_Source\PSoC4/Comm_EZI2C.c ****         Comm_EZI2C_NUMBER_OF_ADDRESSES,
  69:.\Generated_Source\PSoC4/Comm_EZI2C.c ****         Comm_EZI2C_PRIMARY_SLAVE_ADDRESS,
  70:.\Generated_Source\PSoC4/Comm_EZI2C.c ****         Comm_EZI2C_SECONDARY_SLAVE_ADDRESS,
  71:.\Generated_Source\PSoC4/Comm_EZI2C.c ****         Comm_EZI2C_SUB_ADDRESS_SIZE,
  72:.\Generated_Source\PSoC4/Comm_EZI2C.c ****         Comm_EZI2C_WAKE_ENABLE,
  73:.\Generated_Source\PSoC4/Comm_EZI2C.c ****         Comm_EZI2C_BYTE_MODE_ENABLE
  74:.\Generated_Source\PSoC4/Comm_EZI2C.c ****     };
  75:.\Generated_Source\PSoC4/Comm_EZI2C.c **** 
  76:.\Generated_Source\PSoC4/Comm_EZI2C.c ****     /*******************************************************************************
  77:.\Generated_Source\PSoC4/Comm_EZI2C.c ****     * Function Name: Comm_EzI2CInit
  78:.\Generated_Source\PSoC4/Comm_EZI2C.c ****     ********************************************************************************
  79:.\Generated_Source\PSoC4/Comm_EZI2C.c ****     *
  80:.\Generated_Source\PSoC4/Comm_EZI2C.c ****     * Summary:
  81:.\Generated_Source\PSoC4/Comm_EZI2C.c ****     *  Configures the SCB for the EZI2C operation.
  82:.\Generated_Source\PSoC4/Comm_EZI2C.c ****     *
  83:.\Generated_Source\PSoC4/Comm_EZI2C.c ****     * Parameters:
  84:.\Generated_Source\PSoC4/Comm_EZI2C.c ****     *  config:  Pointer to a structure that contains the following ordered list of
  85:.\Generated_Source\PSoC4/Comm_EZI2C.c ****     *           fields. These fields match the selections available in the
  86:.\Generated_Source\PSoC4/Comm_EZI2C.c ****     *           customizer.
  87:.\Generated_Source\PSoC4/Comm_EZI2C.c ****     *
  88:.\Generated_Source\PSoC4/Comm_EZI2C.c ****     * Return:
  89:.\Generated_Source\PSoC4/Comm_EZI2C.c ****     *  None
  90:.\Generated_Source\PSoC4/Comm_EZI2C.c ****     *
  91:.\Generated_Source\PSoC4/Comm_EZI2C.c ****     *******************************************************************************/
  92:.\Generated_Source\PSoC4/Comm_EZI2C.c ****     void Comm_EzI2CInit(const Comm_EZI2C_INIT_STRUCT *config)
  93:.\Generated_Source\PSoC4/Comm_EZI2C.c ****     {
  55              		.loc 1 93 0
  56              		.cfi_startproc
  57 0000 90B5     		push	{r4, r7, lr}
  58              		.cfi_def_cfa_offset 12
  59              		.cfi_offset 4, -12
  60              		.cfi_offset 7, -8
  61              		.cfi_offset 14, -4
  62 0002 83B0     		sub	sp, sp, #12
  63              		.cfi_def_cfa_offset 24
  64 0004 00AF     		add	r7, sp, #0
  65              		.cfi_def_cfa_register 7
  66 0006 7860     		str	r0, [r7, #4]
  94:.\Generated_Source\PSoC4/Comm_EZI2C.c ****         if(NULL == config)
  67              		.loc 1 94 0
  68 0008 7B68     		ldr	r3, [r7, #4]
  69 000a 002B     		cmp	r3, #0
  70 000c 03D1     		bne	.L2
  95:.\Generated_Source\PSoC4/Comm_EZI2C.c ****         {
  96:.\Generated_Source\PSoC4/Comm_EZI2C.c ****             CYASSERT(0u != 0u); /* Halt execution due to bad function parameter */
  71              		.loc 1 96 0 discriminator 1
  72 000e 0020     		mov	r0, #0
  73 0010 FFF7FEFF 		bl	CyHalt
  74 0014 CAE0     		b	.L1
  75              	.L2:
ARM GAS  C:\Users\TECHCO~1\AppData\Local\Temp\ccgevLFY.s 			page 4


  97:.\Generated_Source\PSoC4/Comm_EZI2C.c ****         }
  98:.\Generated_Source\PSoC4/Comm_EZI2C.c ****         else
  99:.\Generated_Source\PSoC4/Comm_EZI2C.c ****         {
 100:.\Generated_Source\PSoC4/Comm_EZI2C.c ****             /* Configure pins */
 101:.\Generated_Source\PSoC4/Comm_EZI2C.c ****             Comm_SetPins(Comm_SCB_MODE_EZI2C, Comm_DUMMY_PARAM,
  76              		.loc 1 101 0
  77 0016 0820     		mov	r0, #8
  78 0018 0021     		mov	r1, #0
  79 001a 0022     		mov	r2, #0
  80 001c FFF7FEFF 		bl	Comm_SetPins
 102:.\Generated_Source\PSoC4/Comm_EZI2C.c ****                                                                       Comm_DUMMY_PARAM);
 103:.\Generated_Source\PSoC4/Comm_EZI2C.c **** 
 104:.\Generated_Source\PSoC4/Comm_EZI2C.c ****             /* Store internal configuration */
 105:.\Generated_Source\PSoC4/Comm_EZI2C.c ****             Comm_scbMode       = (uint8) Comm_SCB_MODE_EZI2C;
  81              		.loc 1 105 0
  82 0020 644B     		ldr	r3, .L18
  83 0022 0822     		mov	r2, #8
  84 0024 1A70     		strb	r2, [r3]
 106:.\Generated_Source\PSoC4/Comm_EZI2C.c ****             Comm_scbEnableWake = (uint8) config->enableWake;
  85              		.loc 1 106 0
  86 0026 7B68     		ldr	r3, [r7, #4]
  87 0028 9B69     		ldr	r3, [r3, #24]
  88 002a DAB2     		uxtb	r2, r3
  89 002c 624B     		ldr	r3, .L18+4
  90 002e 1A70     		strb	r2, [r3]
 107:.\Generated_Source\PSoC4/Comm_EZI2C.c ****             Comm_scbEnableIntr = (uint8) Comm_SCB_IRQ_INTERNAL;
  91              		.loc 1 107 0
  92 0030 624B     		ldr	r3, .L18+8
  93 0032 0122     		mov	r2, #1
  94 0034 1A70     		strb	r2, [r3]
 108:.\Generated_Source\PSoC4/Comm_EZI2C.c **** 
 109:.\Generated_Source\PSoC4/Comm_EZI2C.c ****             Comm_numberOfAddr  = (uint8) config->numberOfAddresses;
  95              		.loc 1 109 0
  96 0036 7B68     		ldr	r3, [r7, #4]
  97 0038 9B68     		ldr	r3, [r3, #8]
  98 003a DAB2     		uxtb	r2, r3
  99 003c 604B     		ldr	r3, .L18+12
 100 003e 1A70     		strb	r2, [r3]
 110:.\Generated_Source\PSoC4/Comm_EZI2C.c ****             Comm_subAddrSize   = (uint8) config->subAddrSize;
 101              		.loc 1 110 0
 102 0040 7B68     		ldr	r3, [r7, #4]
 103 0042 5B69     		ldr	r3, [r3, #20]
 104 0044 DAB2     		uxtb	r2, r3
 105 0046 5F4B     		ldr	r3, .L18+16
 106 0048 1A70     		strb	r2, [r3]
 111:.\Generated_Source\PSoC4/Comm_EZI2C.c **** 
 112:.\Generated_Source\PSoC4/Comm_EZI2C.c ****         #if (Comm_CY_SCBIP_V0)
 113:.\Generated_Source\PSoC4/Comm_EZI2C.c ****             /* Adjust SDA filter settings. Ticket ID#150521 */
 114:.\Generated_Source\PSoC4/Comm_EZI2C.c ****             Comm_SET_I2C_CFG_SDA_FILT_TRIM(Comm_EC_AM_I2C_CFG_SDA_FILT_TRIM);
 107              		.loc 1 114 0
 108 004a 5F4B     		ldr	r3, .L18+20
 109 004c 5E4A     		ldr	r2, .L18+20
 110 004e 1268     		ldr	r2, [r2]
 111 0050 0C21     		mov	r1, #12
 112 0052 0A43     		orr	r2, r1
 113 0054 1A60     		str	r2, [r3]
 115:.\Generated_Source\PSoC4/Comm_EZI2C.c ****         #endif /* (Comm_CY_SCBIP_V0) */
ARM GAS  C:\Users\TECHCO~1\AppData\Local\Temp\ccgevLFY.s 			page 5


 116:.\Generated_Source\PSoC4/Comm_EZI2C.c **** 
 117:.\Generated_Source\PSoC4/Comm_EZI2C.c ****             /* Adjust AF and DF filter settings, AF = 1, DF = 0. Ticket ID#176179 */
 118:.\Generated_Source\PSoC4/Comm_EZI2C.c ****             Comm_I2C_CFG_ANALOG_FITER_ENABLE;
 114              		.loc 1 118 0
 115 0056 5C4B     		ldr	r3, .L18+20
 116 0058 5B4A     		ldr	r2, .L18+20
 117 005a 1268     		ldr	r2, [r2]
 118 005c 5B49     		ldr	r1, .L18+24
 119 005e 0A43     		orr	r2, r1
 120 0060 1A60     		str	r2, [r3]
 119:.\Generated_Source\PSoC4/Comm_EZI2C.c **** 
 120:.\Generated_Source\PSoC4/Comm_EZI2C.c ****             /* Configure I2C interface */
 121:.\Generated_Source\PSoC4/Comm_EZI2C.c ****             Comm_CTRL_REG     = Comm_GET_CTRL_BYTE_MODE  (config->enableByteMode)    |
 121              		.loc 1 121 0
 122 0062 5B4A     		ldr	r2, .L18+28
 122:.\Generated_Source\PSoC4/Comm_EZI2C.c ****                                             Comm_GET_CTRL_ADDR_ACCEPT(config->numberOfAddresses) |
 123              		.loc 1 122 0
 124 0064 7B68     		ldr	r3, [r7, #4]
 125 0066 9B68     		ldr	r3, [r3, #8]
 121:.\Generated_Source\PSoC4/Comm_EZI2C.c ****                                             Comm_GET_CTRL_ADDR_ACCEPT(config->numberOfAddresses) |
 126              		.loc 1 121 0
 127 0068 002B     		cmp	r3, #0
 128 006a 02D0     		beq	.L4
 121:.\Generated_Source\PSoC4/Comm_EZI2C.c ****                                             Comm_GET_CTRL_ADDR_ACCEPT(config->numberOfAddresses) |
 129              		.loc 1 121 0 is_stmt 0 discriminator 1
 130 006c 8023     		mov	r3, #128
 131 006e 5902     		lsl	r1, r3, #9
 132 0070 00E0     		b	.L5
 133              	.L4:
 121:.\Generated_Source\PSoC4/Comm_EZI2C.c ****                                             Comm_GET_CTRL_ADDR_ACCEPT(config->numberOfAddresses) |
 134              		.loc 1 121 0 discriminator 2
 135 0072 0021     		mov	r1, #0
 136              	.L5:
 123:.\Generated_Source\PSoC4/Comm_EZI2C.c ****                                             Comm_GET_CTRL_EC_AM_MODE (config->enableWake);
 137              		.loc 1 123 0 is_stmt 1
 138 0074 7B68     		ldr	r3, [r7, #4]
 139 0076 9B69     		ldr	r3, [r3, #24]
 140 0078 002B     		cmp	r3, #0
 141 007a 02D0     		beq	.L6
 142              		.loc 1 123 0 is_stmt 0 discriminator 1
 143 007c 8023     		mov	r3, #128
 144 007e 5B00     		lsl	r3, r3, #1
 145 0080 00E0     		b	.L7
 146              	.L6:
 147              		.loc 1 123 0 discriminator 2
 148 0082 0023     		mov	r3, #0
 149              	.L7:
 122:.\Generated_Source\PSoC4/Comm_EZI2C.c ****                                             Comm_GET_CTRL_ADDR_ACCEPT(config->numberOfAddresses) |
 150              		.loc 1 122 0 is_stmt 1
 151 0084 0B43     		orr	r3, r1
 121:.\Generated_Source\PSoC4/Comm_EZI2C.c ****                                             Comm_GET_CTRL_ADDR_ACCEPT(config->numberOfAddresses) |
 152              		.loc 1 121 0
 153 0086 1360     		str	r3, [r2]
 124:.\Generated_Source\PSoC4/Comm_EZI2C.c **** 
 125:.\Generated_Source\PSoC4/Comm_EZI2C.c ****             Comm_I2C_CTRL_REG = Comm_EZI2C_CTRL;
 154              		.loc 1 125 0
 155 0088 524B     		ldr	r3, .L18+32
ARM GAS  C:\Users\TECHCO~1\AppData\Local\Temp\ccgevLFY.s 			page 6


 156 008a 534A     		ldr	r2, .L18+36
 157 008c 1A60     		str	r2, [r3]
 126:.\Generated_Source\PSoC4/Comm_EZI2C.c **** 
 127:.\Generated_Source\PSoC4/Comm_EZI2C.c ****             /* Configure RX direction */
 128:.\Generated_Source\PSoC4/Comm_EZI2C.c ****             Comm_RX_CTRL_REG = Comm_EZI2C_RX_CTRL |
 158              		.loc 1 128 0
 159 008e 534B     		ldr	r3, .L18+40
 160 0090 534A     		ldr	r2, .L18+44
 161 0092 1A60     		str	r2, [r3]
 129:.\Generated_Source\PSoC4/Comm_EZI2C.c ****                                         Comm_GET_RX_CTRL_MEDIAN(Comm_DIGITAL_FILTER_DISABLE);
 130:.\Generated_Source\PSoC4/Comm_EZI2C.c ****                                                 ;
 131:.\Generated_Source\PSoC4/Comm_EZI2C.c ****             Comm_RX_FIFO_CTRL_REG = Comm_CLEAR_REG;
 162              		.loc 1 131 0
 163 0094 534B     		ldr	r3, .L18+48
 164 0096 0022     		mov	r2, #0
 165 0098 1A60     		str	r2, [r3]
 132:.\Generated_Source\PSoC4/Comm_EZI2C.c **** 
 133:.\Generated_Source\PSoC4/Comm_EZI2C.c ****             /* Set default address and mask */
 134:.\Generated_Source\PSoC4/Comm_EZI2C.c ****             if(Comm_EZI2C_PRIMARY_ADDRESS == config->numberOfAddresses)
 166              		.loc 1 134 0
 167 009a 7B68     		ldr	r3, [r7, #4]
 168 009c 9B68     		ldr	r3, [r3, #8]
 169 009e 002B     		cmp	r3, #0
 170 00a0 0BD1     		bne	.L8
 135:.\Generated_Source\PSoC4/Comm_EZI2C.c ****             {
 136:.\Generated_Source\PSoC4/Comm_EZI2C.c ****                 Comm_RX_MATCH_REG = Comm_EzI2CUpdateRxMatchReg(config->primarySlaveAddr,
 171              		.loc 1 136 0
 172 00a2 514C     		ldr	r4, .L18+52
 173 00a4 7B68     		ldr	r3, [r7, #4]
 174 00a6 DA68     		ldr	r2, [r3, #12]
 175 00a8 7B68     		ldr	r3, [r7, #4]
 176 00aa DB68     		ldr	r3, [r3, #12]
 177 00ac 101C     		mov	r0, r2
 178 00ae 191C     		mov	r1, r3
 179 00b0 FFF7FEFF 		bl	Comm_EzI2CUpdateRxMatchReg
 180 00b4 031C     		mov	r3, r0
 181 00b6 2360     		str	r3, [r4]
 182 00b8 0AE0     		b	.L9
 183              	.L8:
 137:.\Generated_Source\PSoC4/Comm_EZI2C.c ****                                                                                        config->prim
 138:.\Generated_Source\PSoC4/Comm_EZI2C.c ****             }
 139:.\Generated_Source\PSoC4/Comm_EZI2C.c ****             else
 140:.\Generated_Source\PSoC4/Comm_EZI2C.c ****             {
 141:.\Generated_Source\PSoC4/Comm_EZI2C.c ****                 Comm_RX_MATCH_REG = Comm_EzI2CUpdateRxMatchReg(config->primarySlaveAddr,
 184              		.loc 1 141 0
 185 00ba 4B4C     		ldr	r4, .L18+52
 186 00bc 7B68     		ldr	r3, [r7, #4]
 187 00be DA68     		ldr	r2, [r3, #12]
 188 00c0 7B68     		ldr	r3, [r7, #4]
 189 00c2 1B69     		ldr	r3, [r3, #16]
 190 00c4 101C     		mov	r0, r2
 191 00c6 191C     		mov	r1, r3
 192 00c8 FFF7FEFF 		bl	Comm_EzI2CUpdateRxMatchReg
 193 00cc 031C     		mov	r3, r0
 194 00ce 2360     		str	r3, [r4]
 195              	.L9:
 142:.\Generated_Source\PSoC4/Comm_EZI2C.c ****                                                                                        config->seco
ARM GAS  C:\Users\TECHCO~1\AppData\Local\Temp\ccgevLFY.s 			page 7


 143:.\Generated_Source\PSoC4/Comm_EZI2C.c ****             }
 144:.\Generated_Source\PSoC4/Comm_EZI2C.c **** 
 145:.\Generated_Source\PSoC4/Comm_EZI2C.c ****             /* Configure TX direction */
 146:.\Generated_Source\PSoC4/Comm_EZI2C.c ****             Comm_TX_CTRL_REG      = Comm_EZI2C_TX_CTRL;
 196              		.loc 1 146 0
 197 00d0 464B     		ldr	r3, .L18+56
 198 00d2 434A     		ldr	r2, .L18+44
 199 00d4 1A60     		str	r2, [r3]
 147:.\Generated_Source\PSoC4/Comm_EZI2C.c ****             Comm_TX_FIFO_CTRL_REG = ((0u != (config->enableClockStretch)) ?
 200              		.loc 1 147 0
 201 00d6 464A     		ldr	r2, .L18+60
 202 00d8 7B68     		ldr	r3, [r7, #4]
 203 00da 1B68     		ldr	r3, [r3]
 148:.\Generated_Source\PSoC4/Comm_EZI2C.c ****                                                  Comm_CLEAR_REG : Comm_EZI2C_TX_FIFO_CTRL);
 204              		.loc 1 148 0
 205 00dc 002B     		cmp	r3, #0
 206 00de 01D0     		beq	.L10
 207              		.loc 1 148 0 is_stmt 0 discriminator 1
 208 00e0 0023     		mov	r3, #0
 209 00e2 00E0     		b	.L11
 210              	.L10:
 211              		.loc 1 148 0 discriminator 2
 212 00e4 0223     		mov	r3, #2
 213              	.L11:
 147:.\Generated_Source\PSoC4/Comm_EZI2C.c ****             Comm_TX_FIFO_CTRL_REG = ((0u != (config->enableClockStretch)) ?
 214              		.loc 1 147 0 is_stmt 1
 215 00e6 1360     		str	r3, [r2]
 149:.\Generated_Source\PSoC4/Comm_EZI2C.c **** 
 150:.\Generated_Source\PSoC4/Comm_EZI2C.c ****             /* Configure interrupt sources */
 151:.\Generated_Source\PSoC4/Comm_EZI2C.c ****         #if (!Comm_CY_SCBIP_V1)
 152:.\Generated_Source\PSoC4/Comm_EZI2C.c ****            Comm_INTR_SPI_EC_MASK_REG = Comm_NO_INTR_SOURCES;
 216              		.loc 1 152 0
 217 00e8 424B     		ldr	r3, .L18+64
 218 00ea 0022     		mov	r2, #0
 219 00ec 1A60     		str	r2, [r3]
 153:.\Generated_Source\PSoC4/Comm_EZI2C.c ****         #endif /* (!Comm_CY_SCBIP_V1) */
 154:.\Generated_Source\PSoC4/Comm_EZI2C.c **** 
 155:.\Generated_Source\PSoC4/Comm_EZI2C.c ****             Comm_INTR_I2C_EC_MASK_REG = Comm_NO_INTR_SOURCES;
 220              		.loc 1 155 0
 221 00ee 424B     		ldr	r3, .L18+68
 222 00f0 0022     		mov	r2, #0
 223 00f2 1A60     		str	r2, [r3]
 156:.\Generated_Source\PSoC4/Comm_EZI2C.c ****             Comm_INTR_MASTER_MASK_REG = Comm_NO_INTR_SOURCES;
 224              		.loc 1 156 0
 225 00f4 414B     		ldr	r3, .L18+72
 226 00f6 0022     		mov	r2, #0
 227 00f8 1A60     		str	r2, [r3]
 157:.\Generated_Source\PSoC4/Comm_EZI2C.c ****             Comm_INTR_SLAVE_MASK_REG  = Comm_EZI2C_INTR_SLAVE_MASK;
 228              		.loc 1 157 0
 229 00fa 414B     		ldr	r3, .L18+76
 230 00fc 1222     		mov	r2, #18
 231 00fe FF32     		add	r2, r2, #255
 232 0100 1A60     		str	r2, [r3]
 158:.\Generated_Source\PSoC4/Comm_EZI2C.c ****             Comm_INTR_TX_MASK_REG     = Comm_NO_INTR_SOURCES;
 233              		.loc 1 158 0
 234 0102 404B     		ldr	r3, .L18+80
 235 0104 0022     		mov	r2, #0
ARM GAS  C:\Users\TECHCO~1\AppData\Local\Temp\ccgevLFY.s 			page 8


 236 0106 1A60     		str	r2, [r3]
 159:.\Generated_Source\PSoC4/Comm_EZI2C.c **** 
 160:.\Generated_Source\PSoC4/Comm_EZI2C.c ****             /* Configure interrupt with EZI2C handler but do not enable it */
 161:.\Generated_Source\PSoC4/Comm_EZI2C.c ****             CyIntDisable    (Comm_ISR_NUMBER);
 237              		.loc 1 161 0
 238 0108 0A20     		mov	r0, #10
 239 010a FFF7FEFF 		bl	CyIntDisable
 162:.\Generated_Source\PSoC4/Comm_EZI2C.c ****             CyIntSetPriority(Comm_ISR_NUMBER, Comm_ISR_PRIORITY);
 240              		.loc 1 162 0
 241 010e 0A20     		mov	r0, #10
 242 0110 0321     		mov	r1, #3
 243 0112 FFF7FEFF 		bl	CyIntSetPriority
 163:.\Generated_Source\PSoC4/Comm_EZI2C.c ****             (void) CyIntSetVector(Comm_ISR_NUMBER, (0u != (config->enableClockStretch)) ?
 244              		.loc 1 163 0
 245 0116 7B68     		ldr	r3, [r7, #4]
 246 0118 1B68     		ldr	r3, [r3]
 247 011a 002B     		cmp	r3, #0
 248 011c 01D0     		beq	.L12
 249              		.loc 1 163 0 is_stmt 0 discriminator 1
 250 011e 3A4B     		ldr	r3, .L18+84
 251 0120 00E0     		b	.L13
 252              	.L12:
 253              		.loc 1 163 0 discriminator 2
 254 0122 3A4B     		ldr	r3, .L18+88
 255              	.L13:
 256              		.loc 1 163 0 discriminator 4
 257 0124 0A20     		mov	r0, #10
 258 0126 191C     		mov	r1, r3
 259 0128 FFF7FEFF 		bl	CyIntSetVector
 164:.\Generated_Source\PSoC4/Comm_EZI2C.c ****                                                                       (&Comm_EZI2C_STRETCH_ISR) :
 165:.\Generated_Source\PSoC4/Comm_EZI2C.c ****                                                                       (&Comm_EZI2C_NO_STRETCH_ISR))
 166:.\Generated_Source\PSoC4/Comm_EZI2C.c **** 
 167:.\Generated_Source\PSoC4/Comm_EZI2C.c ****             if(0u != (config->enableClockStretch))
 260              		.loc 1 167 0 is_stmt 1 discriminator 4
 261 012c 7B68     		ldr	r3, [r7, #4]
 262 012e 1B68     		ldr	r3, [r3]
 263 0130 002B     		cmp	r3, #0
 264 0132 09D0     		beq	.L14
 168:.\Generated_Source\PSoC4/Comm_EZI2C.c ****             {
 169:.\Generated_Source\PSoC4/Comm_EZI2C.c ****                 /* Configure interrupt sources */
 170:.\Generated_Source\PSoC4/Comm_EZI2C.c ****                 Comm_INTR_SLAVE_MASK_REG |= Comm_INTR_SLAVE_I2C_ADDR_MATCH;
 265              		.loc 1 170 0
 266 0134 324B     		ldr	r3, .L18+76
 267 0136 324A     		ldr	r2, .L18+76
 268 0138 1268     		ldr	r2, [r2]
 269 013a 4021     		mov	r1, #64
 270 013c 0A43     		orr	r2, r1
 271 013e 1A60     		str	r2, [r3]
 171:.\Generated_Source\PSoC4/Comm_EZI2C.c ****                 Comm_INTR_RX_MASK_REG     = Comm_NO_INTR_SOURCES;
 272              		.loc 1 171 0
 273 0140 334B     		ldr	r3, .L18+92
 274 0142 0022     		mov	r2, #0
 275 0144 1A60     		str	r2, [r3]
 276 0146 0FE0     		b	.L15
 277              	.L14:
 172:.\Generated_Source\PSoC4/Comm_EZI2C.c ****             }
 173:.\Generated_Source\PSoC4/Comm_EZI2C.c ****             else
ARM GAS  C:\Users\TECHCO~1\AppData\Local\Temp\ccgevLFY.s 			page 9


 174:.\Generated_Source\PSoC4/Comm_EZI2C.c ****             {
 175:.\Generated_Source\PSoC4/Comm_EZI2C.c ****                 /* Enable Auto ACK/NACK features */
 176:.\Generated_Source\PSoC4/Comm_EZI2C.c ****                 Comm_I2C_CTRL_REG |= Comm_EZI2C_CTRL_AUTO;
 278              		.loc 1 176 0
 279 0148 224B     		ldr	r3, .L18+32
 280 014a 224A     		ldr	r2, .L18+32
 281 014c 1268     		ldr	r2, [r2]
 282 014e F021     		mov	r1, #240
 283 0150 0902     		lsl	r1, r1, #8
 284 0152 0A43     		orr	r2, r1
 285 0154 1A60     		str	r2, [r3]
 177:.\Generated_Source\PSoC4/Comm_EZI2C.c **** 
 178:.\Generated_Source\PSoC4/Comm_EZI2C.c ****                 /* Configure RX interrupt source */
 179:.\Generated_Source\PSoC4/Comm_EZI2C.c ****                 Comm_INTR_SLAVE_MASK_REG |= Comm_INTR_SLAVE_I2C_START;
 286              		.loc 1 179 0
 287 0156 2A4B     		ldr	r3, .L18+76
 288 0158 294A     		ldr	r2, .L18+76
 289 015a 1268     		ldr	r2, [r2]
 290 015c 2021     		mov	r1, #32
 291 015e 0A43     		orr	r2, r1
 292 0160 1A60     		str	r2, [r3]
 180:.\Generated_Source\PSoC4/Comm_EZI2C.c ****                 Comm_INTR_RX_MASK_REG     = Comm_INTR_RX_NOT_EMPTY;
 293              		.loc 1 180 0
 294 0162 2B4B     		ldr	r3, .L18+92
 295 0164 0422     		mov	r2, #4
 296 0166 1A60     		str	r2, [r3]
 297              	.L15:
 181:.\Generated_Source\PSoC4/Comm_EZI2C.c ****             }
 182:.\Generated_Source\PSoC4/Comm_EZI2C.c **** 
 183:.\Generated_Source\PSoC4/Comm_EZI2C.c ****             /* Configure global variables */
 184:.\Generated_Source\PSoC4/Comm_EZI2C.c ****             Comm_fsmState = Comm_EZI2C_FSM_IDLE;
 298              		.loc 1 184 0
 299 0168 164B     		ldr	r3, .L18+16
 300 016a 1B78     		ldrb	r3, [r3]
 301 016c 002B     		cmp	r3, #0
 302 016e 01D0     		beq	.L16
 303              		.loc 1 184 0 is_stmt 0 discriminator 1
 304 0170 0222     		mov	r2, #2
 305 0172 00E0     		b	.L17
 306              	.L16:
 307              		.loc 1 184 0 discriminator 2
 308 0174 0022     		mov	r2, #0
 309              	.L17:
 310              		.loc 1 184 0 discriminator 4
 311 0176 274B     		ldr	r3, .L18+96
 312 0178 1A70     		strb	r2, [r3]
 185:.\Generated_Source\PSoC4/Comm_EZI2C.c **** 
 186:.\Generated_Source\PSoC4/Comm_EZI2C.c ****             Comm_curStatus  = 0u;
 313              		.loc 1 186 0 is_stmt 1 discriminator 4
 314 017a 274B     		ldr	r3, .L18+100
 315 017c 0022     		mov	r2, #0
 316 017e 1A70     		strb	r2, [r3]
 187:.\Generated_Source\PSoC4/Comm_EZI2C.c ****             Comm_indexBuf1  = 0u;
 317              		.loc 1 187 0 discriminator 4
 318 0180 264B     		ldr	r3, .L18+104
 319 0182 0022     		mov	r2, #0
 320 0184 1A80     		strh	r2, [r3]
ARM GAS  C:\Users\TECHCO~1\AppData\Local\Temp\ccgevLFY.s 			page 10


 188:.\Generated_Source\PSoC4/Comm_EZI2C.c ****             Comm_offsetBuf1 = 0u;
 321              		.loc 1 188 0 discriminator 4
 322 0186 264B     		ldr	r3, .L18+108
 323 0188 0022     		mov	r2, #0
 324 018a 1A80     		strh	r2, [r3]
 189:.\Generated_Source\PSoC4/Comm_EZI2C.c ****             Comm_indexBuf2  = 0u;
 325              		.loc 1 189 0 discriminator 4
 326 018c 254B     		ldr	r3, .L18+112
 327 018e 0022     		mov	r2, #0
 328 0190 1A80     		strh	r2, [r3]
 190:.\Generated_Source\PSoC4/Comm_EZI2C.c ****             Comm_offsetBuf2 = 0u;
 329              		.loc 1 190 0 discriminator 4
 330 0192 254B     		ldr	r3, .L18+116
 331 0194 0022     		mov	r2, #0
 332 0196 1A80     		strh	r2, [r3]
 191:.\Generated_Source\PSoC4/Comm_EZI2C.c **** 
 192:.\Generated_Source\PSoC4/Comm_EZI2C.c ****             Comm_addrBuf1 = (uint8) config->primarySlaveAddr;
 333              		.loc 1 192 0 discriminator 4
 334 0198 7B68     		ldr	r3, [r7, #4]
 335 019a DB68     		ldr	r3, [r3, #12]
 336 019c DAB2     		uxtb	r2, r3
 337 019e 234B     		ldr	r3, .L18+120
 338 01a0 1A70     		strb	r2, [r3]
 193:.\Generated_Source\PSoC4/Comm_EZI2C.c ****             Comm_addrBuf2 = (uint8) config->secondarySlaveAddr;
 339              		.loc 1 193 0 discriminator 4
 340 01a2 7B68     		ldr	r3, [r7, #4]
 341 01a4 1B69     		ldr	r3, [r3, #16]
 342 01a6 DAB2     		uxtb	r2, r3
 343 01a8 214B     		ldr	r3, .L18+124
 344 01aa 1A70     		strb	r2, [r3]
 345              	.L1:
 194:.\Generated_Source\PSoC4/Comm_EZI2C.c ****         }
 195:.\Generated_Source\PSoC4/Comm_EZI2C.c ****     }
 346              		.loc 1 195 0
 347 01ac BD46     		mov	sp, r7
 348 01ae 03B0     		add	sp, sp, #12
 349              		@ sp needed
 350 01b0 90BD     		pop	{r4, r7, pc}
 351              	.L19:
 352 01b2 C046     		.align	2
 353              	.L18:
 354 01b4 00000000 		.word	Comm_scbMode
 355 01b8 00000000 		.word	Comm_scbEnableWake
 356 01bc 00000000 		.word	Comm_scbEnableIntr
 357 01c0 00000000 		.word	Comm_numberOfAddr
 358 01c4 00000000 		.word	Comm_subAddrSize
 359 01c8 70000640 		.word	1074135152
 360 01cc 00000202 		.word	33685504
 361 01d0 00000640 		.word	1074135040
 362 01d4 60000640 		.word	1074135136
 363 01d8 00080040 		.word	1073743872
 364 01dc 00030640 		.word	1074135808
 365 01e0 07010080 		.word	-2147483385
 366 01e4 04030640 		.word	1074135812
 367 01e8 10030640 		.word	1074135824
 368 01ec 00020640 		.word	1074135552
 369 01f0 04020640 		.word	1074135556
ARM GAS  C:\Users\TECHCO~1\AppData\Local\Temp\ccgevLFY.s 			page 11


 370 01f4 C80E0640 		.word	1074138824
 371 01f8 880E0640 		.word	1074138760
 372 01fc 080F0640 		.word	1074138888
 373 0200 480F0640 		.word	1074138952
 374 0204 880F0640 		.word	1074139016
 375 0208 00000000 		.word	Comm_EZI2C_STRETCH_ISR
 376 020c 00000000 		.word	Comm_EZI2C_NO_STRETCH_ISR
 377 0210 C80F0640 		.word	1074139080
 378 0214 00000000 		.word	Comm_fsmState
 379 0218 00000000 		.word	Comm_curStatus
 380 021c 00000000 		.word	Comm_indexBuf1
 381 0220 00000000 		.word	Comm_offsetBuf1
 382 0224 00000000 		.word	Comm_indexBuf2
 383 0228 00000000 		.word	Comm_offsetBuf2
 384 022c 00000000 		.word	Comm_addrBuf1
 385 0230 00000000 		.word	Comm_addrBuf2
 386              		.cfi_endproc
 387              	.LFE0:
 388              		.size	Comm_EzI2CInit, .-Comm_EzI2CInit
 389              		.section	.text.Comm_EzI2CStop,"ax",%progbits
 390              		.align	2
 391              		.global	Comm_EzI2CStop
 392              		.code	16
 393              		.thumb_func
 394              		.type	Comm_EzI2CStop, %function
 395              	Comm_EzI2CStop:
 396              	.LFB1:
 196:.\Generated_Source\PSoC4/Comm_EZI2C.c **** 
 197:.\Generated_Source\PSoC4/Comm_EZI2C.c **** #else
 198:.\Generated_Source\PSoC4/Comm_EZI2C.c **** 
 199:.\Generated_Source\PSoC4/Comm_EZI2C.c ****     /*******************************************************************************
 200:.\Generated_Source\PSoC4/Comm_EZI2C.c ****     * Function Name: Comm_EzI2CInit
 201:.\Generated_Source\PSoC4/Comm_EZI2C.c ****     ********************************************************************************
 202:.\Generated_Source\PSoC4/Comm_EZI2C.c ****     *
 203:.\Generated_Source\PSoC4/Comm_EZI2C.c ****     * Summary:
 204:.\Generated_Source\PSoC4/Comm_EZI2C.c ****     *  Configures the SCB for the EZI2C operation.
 205:.\Generated_Source\PSoC4/Comm_EZI2C.c ****     *
 206:.\Generated_Source\PSoC4/Comm_EZI2C.c ****     * Parameters:
 207:.\Generated_Source\PSoC4/Comm_EZI2C.c ****     *  None
 208:.\Generated_Source\PSoC4/Comm_EZI2C.c ****     *
 209:.\Generated_Source\PSoC4/Comm_EZI2C.c ****     * Return:
 210:.\Generated_Source\PSoC4/Comm_EZI2C.c ****     *  None
 211:.\Generated_Source\PSoC4/Comm_EZI2C.c ****     *
 212:.\Generated_Source\PSoC4/Comm_EZI2C.c ****     *******************************************************************************/
 213:.\Generated_Source\PSoC4/Comm_EZI2C.c ****     void Comm_EzI2CInit(void)
 214:.\Generated_Source\PSoC4/Comm_EZI2C.c ****     {
 215:.\Generated_Source\PSoC4/Comm_EZI2C.c ****         /* Configure I2C interface */
 216:.\Generated_Source\PSoC4/Comm_EZI2C.c ****         Comm_CTRL_REG     = Comm_EZI2C_DEFAULT_CTRL;
 217:.\Generated_Source\PSoC4/Comm_EZI2C.c ****         Comm_I2C_CTRL_REG = Comm_EZI2C_DEFAULT_I2C_CTRL;
 218:.\Generated_Source\PSoC4/Comm_EZI2C.c **** 
 219:.\Generated_Source\PSoC4/Comm_EZI2C.c ****     #if (Comm_CY_SCBIP_V0)
 220:.\Generated_Source\PSoC4/Comm_EZI2C.c ****         /* Adjust SDA filter settings. Ticket ID#150521 */
 221:.\Generated_Source\PSoC4/Comm_EZI2C.c ****         Comm_SET_I2C_CFG_SDA_FILT_TRIM(Comm_EC_AM_I2C_CFG_SDA_FILT_TRIM);
 222:.\Generated_Source\PSoC4/Comm_EZI2C.c ****     #endif /* (Comm_CY_SCBIP_V0) */
 223:.\Generated_Source\PSoC4/Comm_EZI2C.c **** 
 224:.\Generated_Source\PSoC4/Comm_EZI2C.c ****         /* Configure RX direction */
 225:.\Generated_Source\PSoC4/Comm_EZI2C.c ****         Comm_RX_CTRL_REG      = Comm_EZI2C_DEFAULT_RX_CTRL;
ARM GAS  C:\Users\TECHCO~1\AppData\Local\Temp\ccgevLFY.s 			page 12


 226:.\Generated_Source\PSoC4/Comm_EZI2C.c ****         Comm_RX_FIFO_CTRL_REG = Comm_EZI2C_DEFAULT_RX_FIFO_CTRL;
 227:.\Generated_Source\PSoC4/Comm_EZI2C.c **** 
 228:.\Generated_Source\PSoC4/Comm_EZI2C.c ****         /* Set default address and mask */
 229:.\Generated_Source\PSoC4/Comm_EZI2C.c ****         Comm_RX_MATCH_REG     = Comm_EZI2C_DEFAULT_RX_MATCH;
 230:.\Generated_Source\PSoC4/Comm_EZI2C.c **** 
 231:.\Generated_Source\PSoC4/Comm_EZI2C.c ****         /* Configure TX direction */
 232:.\Generated_Source\PSoC4/Comm_EZI2C.c ****         Comm_TX_CTRL_REG      = Comm_EZI2C_DEFAULT_TX_CTRL;
 233:.\Generated_Source\PSoC4/Comm_EZI2C.c ****         Comm_TX_FIFO_CTRL_REG = Comm_EZI2C_DEFAULT_TX_FIFO_CTRL;
 234:.\Generated_Source\PSoC4/Comm_EZI2C.c **** 
 235:.\Generated_Source\PSoC4/Comm_EZI2C.c ****         /* Configure interrupt with EZI2C handler but do not enable it */
 236:.\Generated_Source\PSoC4/Comm_EZI2C.c ****     #if !defined (CY_EXTERNAL_INTERRUPT_CONFIG)
 237:.\Generated_Source\PSoC4/Comm_EZI2C.c ****         CyIntDisable    (Comm_ISR_NUMBER);
 238:.\Generated_Source\PSoC4/Comm_EZI2C.c ****         CyIntSetPriority(Comm_ISR_NUMBER, Comm_ISR_PRIORITY);
 239:.\Generated_Source\PSoC4/Comm_EZI2C.c **** 
 240:.\Generated_Source\PSoC4/Comm_EZI2C.c ****     #if (Comm_EZI2C_SCL_STRETCH_ENABLE_CONST)
 241:.\Generated_Source\PSoC4/Comm_EZI2C.c ****         (void) CyIntSetVector(Comm_ISR_NUMBER, &Comm_EZI2C_STRETCH_ISR);
 242:.\Generated_Source\PSoC4/Comm_EZI2C.c ****     #else
 243:.\Generated_Source\PSoC4/Comm_EZI2C.c ****         (void) CyIntSetVector(Comm_ISR_NUMBER, &Comm_EZI2C_NO_STRETCH_ISR);
 244:.\Generated_Source\PSoC4/Comm_EZI2C.c ****     #endif /* (Comm_EZI2C_SCL_STRETCH_ENABLE_CONST) */
 245:.\Generated_Source\PSoC4/Comm_EZI2C.c **** 
 246:.\Generated_Source\PSoC4/Comm_EZI2C.c ****     #endif /* !defined (CY_EXTERNAL_INTERRUPT_CONFIG) */
 247:.\Generated_Source\PSoC4/Comm_EZI2C.c **** 
 248:.\Generated_Source\PSoC4/Comm_EZI2C.c ****         /* Configure interrupt sources */
 249:.\Generated_Source\PSoC4/Comm_EZI2C.c ****     #if (!Comm_CY_SCBIP_V1)
 250:.\Generated_Source\PSoC4/Comm_EZI2C.c ****         Comm_INTR_SPI_EC_MASK_REG = Comm_EZI2C_DEFAULT_INTR_SPI_EC_MASK;
 251:.\Generated_Source\PSoC4/Comm_EZI2C.c ****     #endif /* (!Comm_CY_SCBIP_V1) */
 252:.\Generated_Source\PSoC4/Comm_EZI2C.c **** 
 253:.\Generated_Source\PSoC4/Comm_EZI2C.c ****         Comm_INTR_I2C_EC_MASK_REG = Comm_EZI2C_DEFAULT_INTR_I2C_EC_MASK;
 254:.\Generated_Source\PSoC4/Comm_EZI2C.c ****         Comm_INTR_SLAVE_MASK_REG  = Comm_EZI2C_DEFAULT_INTR_SLAVE_MASK;
 255:.\Generated_Source\PSoC4/Comm_EZI2C.c ****         Comm_INTR_MASTER_MASK_REG = Comm_EZI2C_DEFAULT_INTR_MASTER_MASK;
 256:.\Generated_Source\PSoC4/Comm_EZI2C.c ****         Comm_INTR_RX_MASK_REG     = Comm_EZI2C_DEFAULT_INTR_RX_MASK;
 257:.\Generated_Source\PSoC4/Comm_EZI2C.c ****         Comm_INTR_TX_MASK_REG     = Comm_EZI2C_DEFAULT_INTR_TX_MASK;
 258:.\Generated_Source\PSoC4/Comm_EZI2C.c **** 
 259:.\Generated_Source\PSoC4/Comm_EZI2C.c ****         /* Configure global variables */
 260:.\Generated_Source\PSoC4/Comm_EZI2C.c ****         Comm_fsmState = Comm_EZI2C_FSM_IDLE;
 261:.\Generated_Source\PSoC4/Comm_EZI2C.c **** 
 262:.\Generated_Source\PSoC4/Comm_EZI2C.c ****         Comm_curStatus  = 0u;
 263:.\Generated_Source\PSoC4/Comm_EZI2C.c ****         Comm_indexBuf1  = 0u;
 264:.\Generated_Source\PSoC4/Comm_EZI2C.c ****         Comm_offsetBuf1 = 0u;
 265:.\Generated_Source\PSoC4/Comm_EZI2C.c **** 
 266:.\Generated_Source\PSoC4/Comm_EZI2C.c ****     #if(Comm_SECONDARY_ADDRESS_ENABLE_CONST)
 267:.\Generated_Source\PSoC4/Comm_EZI2C.c ****         Comm_indexBuf2  = 0u;
 268:.\Generated_Source\PSoC4/Comm_EZI2C.c ****         Comm_offsetBuf2 = 0u;
 269:.\Generated_Source\PSoC4/Comm_EZI2C.c **** 
 270:.\Generated_Source\PSoC4/Comm_EZI2C.c ****         Comm_addrBuf1 = Comm_EZI2C_PRIMARY_SLAVE_ADDRESS;
 271:.\Generated_Source\PSoC4/Comm_EZI2C.c ****         Comm_addrBuf2 = Comm_EZI2C_SECONDARY_SLAVE_ADDRESS;
 272:.\Generated_Source\PSoC4/Comm_EZI2C.c ****     #endif /* (Comm_SECONDARY_ADDRESS_ENABLE_CONST) */
 273:.\Generated_Source\PSoC4/Comm_EZI2C.c ****     }
 274:.\Generated_Source\PSoC4/Comm_EZI2C.c **** #endif /* (Comm_SCB_MODE_UNCONFIG_CONST_CFG) */
 275:.\Generated_Source\PSoC4/Comm_EZI2C.c **** 
 276:.\Generated_Source\PSoC4/Comm_EZI2C.c **** 
 277:.\Generated_Source\PSoC4/Comm_EZI2C.c **** /*******************************************************************************
 278:.\Generated_Source\PSoC4/Comm_EZI2C.c **** * Function Name: Comm_EzI2CStop
 279:.\Generated_Source\PSoC4/Comm_EZI2C.c **** ********************************************************************************
 280:.\Generated_Source\PSoC4/Comm_EZI2C.c **** *
 281:.\Generated_Source\PSoC4/Comm_EZI2C.c **** * Summary:
 282:.\Generated_Source\PSoC4/Comm_EZI2C.c **** *  Resets the EZI2C FSM into the default state.
ARM GAS  C:\Users\TECHCO~1\AppData\Local\Temp\ccgevLFY.s 			page 13


 283:.\Generated_Source\PSoC4/Comm_EZI2C.c **** *
 284:.\Generated_Source\PSoC4/Comm_EZI2C.c **** * Parameters:
 285:.\Generated_Source\PSoC4/Comm_EZI2C.c **** *  None
 286:.\Generated_Source\PSoC4/Comm_EZI2C.c **** *
 287:.\Generated_Source\PSoC4/Comm_EZI2C.c **** * Return:
 288:.\Generated_Source\PSoC4/Comm_EZI2C.c **** *  None
 289:.\Generated_Source\PSoC4/Comm_EZI2C.c **** *
 290:.\Generated_Source\PSoC4/Comm_EZI2C.c **** *******************************************************************************/
 291:.\Generated_Source\PSoC4/Comm_EZI2C.c **** void Comm_EzI2CStop(void)
 292:.\Generated_Source\PSoC4/Comm_EZI2C.c **** {
 397              		.loc 1 292 0
 398              		.cfi_startproc
 399 0000 80B5     		push	{r7, lr}
 400              		.cfi_def_cfa_offset 8
 401              		.cfi_offset 7, -8
 402              		.cfi_offset 14, -4
 403 0002 00AF     		add	r7, sp, #0
 404              		.cfi_def_cfa_register 7
 293:.\Generated_Source\PSoC4/Comm_EZI2C.c ****     Comm_fsmState = Comm_EZI2C_FSM_IDLE;
 405              		.loc 1 293 0
 406 0004 054B     		ldr	r3, .L23
 407 0006 1B78     		ldrb	r3, [r3]
 408 0008 002B     		cmp	r3, #0
 409 000a 01D0     		beq	.L21
 410              		.loc 1 293 0 is_stmt 0 discriminator 1
 411 000c 0222     		mov	r2, #2
 412 000e 00E0     		b	.L22
 413              	.L21:
 414              		.loc 1 293 0 discriminator 2
 415 0010 0022     		mov	r2, #0
 416              	.L22:
 417              		.loc 1 293 0 discriminator 4
 418 0012 034B     		ldr	r3, .L23+4
 419 0014 1A70     		strb	r2, [r3]
 294:.\Generated_Source\PSoC4/Comm_EZI2C.c **** }
 420              		.loc 1 294 0 is_stmt 1 discriminator 4
 421 0016 BD46     		mov	sp, r7
 422              		@ sp needed
 423 0018 80BD     		pop	{r7, pc}
 424              	.L24:
 425 001a C046     		.align	2
 426              	.L23:
 427 001c 00000000 		.word	Comm_subAddrSize
 428 0020 00000000 		.word	Comm_fsmState
 429              		.cfi_endproc
 430              	.LFE1:
 431              		.size	Comm_EzI2CStop, .-Comm_EzI2CStop
 432              		.section	.text.Comm_EzI2CGetActivity,"ax",%progbits
 433              		.align	2
 434              		.global	Comm_EzI2CGetActivity
 435              		.code	16
 436              		.thumb_func
 437              		.type	Comm_EzI2CGetActivity, %function
 438              	Comm_EzI2CGetActivity:
 439              	.LFB2:
 295:.\Generated_Source\PSoC4/Comm_EZI2C.c **** 
 296:.\Generated_Source\PSoC4/Comm_EZI2C.c **** 
ARM GAS  C:\Users\TECHCO~1\AppData\Local\Temp\ccgevLFY.s 			page 14


 297:.\Generated_Source\PSoC4/Comm_EZI2C.c **** /*******************************************************************************
 298:.\Generated_Source\PSoC4/Comm_EZI2C.c **** * Function Name: Comm_EzI2CGetActivity
 299:.\Generated_Source\PSoC4/Comm_EZI2C.c **** ********************************************************************************
 300:.\Generated_Source\PSoC4/Comm_EZI2C.c **** *
 301:.\Generated_Source\PSoC4/Comm_EZI2C.c **** * Summary:
 302:.\Generated_Source\PSoC4/Comm_EZI2C.c **** *  Returns the EZI2C slave status.
 303:.\Generated_Source\PSoC4/Comm_EZI2C.c **** *  The read, write and error status flags reset to zero after this function
 304:.\Generated_Source\PSoC4/Comm_EZI2C.c **** *  call. The busy status flag is cleared when the transaction intended for
 305:.\Generated_Source\PSoC4/Comm_EZI2C.c **** *  the EZI2C slave completes.
 306:.\Generated_Source\PSoC4/Comm_EZI2C.c **** *
 307:.\Generated_Source\PSoC4/Comm_EZI2C.c **** * Parameters:
 308:.\Generated_Source\PSoC4/Comm_EZI2C.c **** *  None
 309:.\Generated_Source\PSoC4/Comm_EZI2C.c **** *
 310:.\Generated_Source\PSoC4/Comm_EZI2C.c **** * Return:
 311:.\Generated_Source\PSoC4/Comm_EZI2C.c **** *  Returns the status of the EZI2C Slave activity.
 312:.\Generated_Source\PSoC4/Comm_EZI2C.c **** *
 313:.\Generated_Source\PSoC4/Comm_EZI2C.c **** *******************************************************************************/
 314:.\Generated_Source\PSoC4/Comm_EZI2C.c **** uint32 Comm_EzI2CGetActivity(void)
 315:.\Generated_Source\PSoC4/Comm_EZI2C.c **** {
 440              		.loc 1 315 0
 441              		.cfi_startproc
 442 0000 80B5     		push	{r7, lr}
 443              		.cfi_def_cfa_offset 8
 444              		.cfi_offset 7, -8
 445              		.cfi_offset 14, -4
 446 0002 82B0     		sub	sp, sp, #8
 447              		.cfi_def_cfa_offset 16
 448 0004 00AF     		add	r7, sp, #0
 449              		.cfi_def_cfa_register 7
 316:.\Generated_Source\PSoC4/Comm_EZI2C.c ****     uint32 status;
 317:.\Generated_Source\PSoC4/Comm_EZI2C.c **** 
 318:.\Generated_Source\PSoC4/Comm_EZI2C.c ****     Comm_DisableInt();  /* Lock from interruption */
 450              		.loc 1 318 0
 451 0006 0A20     		mov	r0, #10
 452 0008 FFF7FEFF 		bl	CyIntDisable
 319:.\Generated_Source\PSoC4/Comm_EZI2C.c **** 
 320:.\Generated_Source\PSoC4/Comm_EZI2C.c ****     status = Comm_curStatus;
 453              		.loc 1 320 0
 454 000c 1A4B     		ldr	r3, .L33
 455 000e 1B78     		ldrb	r3, [r3]
 456 0010 DBB2     		uxtb	r3, r3
 457 0012 7B60     		str	r3, [r7, #4]
 321:.\Generated_Source\PSoC4/Comm_EZI2C.c **** 
 322:.\Generated_Source\PSoC4/Comm_EZI2C.c ****     /* Relay on address match event from HW as bus busy status */
 323:.\Generated_Source\PSoC4/Comm_EZI2C.c ****     if(Comm_EZI2C_SCL_STRETCH_DISABLE)
 458              		.loc 1 323 0
 459 0014 194B     		ldr	r3, .L33+4
 460 0016 1B68     		ldr	r3, [r3]
 461 0018 4022     		mov	r2, #64
 462 001a 1340     		and	r3, r2
 463 001c 1CD1     		bne	.L26
 324:.\Generated_Source\PSoC4/Comm_EZI2C.c ****     {
 325:.\Generated_Source\PSoC4/Comm_EZI2C.c ****         /* For Comm_CY_SCBIP_V0 the wake is prohibited by customizer */
 326:.\Generated_Source\PSoC4/Comm_EZI2C.c ****         if(Comm_EZI2C_EC_AM_ENABLE)
 464              		.loc 1 326 0
 465 001e 184B     		ldr	r3, .L33+8
 466 0020 1A68     		ldr	r2, [r3]
ARM GAS  C:\Users\TECHCO~1\AppData\Local\Temp\ccgevLFY.s 			page 15


 467 0022 8023     		mov	r3, #128
 468 0024 5B00     		lsl	r3, r3, #1
 469 0026 1340     		and	r3, r2
 470 0028 0BD0     		beq	.L27
 327:.\Generated_Source\PSoC4/Comm_EZI2C.c ****         {
 328:.\Generated_Source\PSoC4/Comm_EZI2C.c ****             status |= Comm_CHECK_INTR_I2C_EC(Comm_INTR_I2C_EC_WAKE_UP) ?
 471              		.loc 1 328 0
 472 002a 164B     		ldr	r3, .L33+12
 473 002c 1B68     		ldr	r3, [r3]
 474 002e 0122     		mov	r2, #1
 475 0030 1340     		and	r3, r2
 329:.\Generated_Source\PSoC4/Comm_EZI2C.c ****                         Comm_EZI2C_STATUS_BUSY : 0u;
 476              		.loc 1 329 0
 477 0032 01D0     		beq	.L28
 478              		.loc 1 329 0 is_stmt 0 discriminator 1
 479 0034 2023     		mov	r3, #32
 480 0036 00E0     		b	.L29
 481              	.L28:
 482              		.loc 1 329 0 discriminator 2
 483 0038 0023     		mov	r3, #0
 484              	.L29:
 328:.\Generated_Source\PSoC4/Comm_EZI2C.c ****                         Comm_EZI2C_STATUS_BUSY : 0u;
 485              		.loc 1 328 0 is_stmt 1 discriminator 4
 486 003a 7A68     		ldr	r2, [r7, #4]
 487 003c 1343     		orr	r3, r2
 488 003e 7B60     		str	r3, [r7, #4]
 489 0040 0AE0     		b	.L26
 490              	.L27:
 330:.\Generated_Source\PSoC4/Comm_EZI2C.c ****         }
 331:.\Generated_Source\PSoC4/Comm_EZI2C.c ****         else
 332:.\Generated_Source\PSoC4/Comm_EZI2C.c ****         {
 333:.\Generated_Source\PSoC4/Comm_EZI2C.c ****             status |= Comm_CHECK_INTR_SLAVE(Comm_INTR_SLAVE_I2C_ADDR_MATCH) ?
 491              		.loc 1 333 0
 492 0042 114B     		ldr	r3, .L33+16
 493 0044 1B68     		ldr	r3, [r3]
 494 0046 4022     		mov	r2, #64
 495 0048 1340     		and	r3, r2
 334:.\Generated_Source\PSoC4/Comm_EZI2C.c ****                         Comm_EZI2C_STATUS_BUSY : 0u;
 496              		.loc 1 334 0
 497 004a 01D0     		beq	.L30
 498              		.loc 1 334 0 is_stmt 0 discriminator 1
 499 004c 2023     		mov	r3, #32
 500 004e 00E0     		b	.L31
 501              	.L30:
 502              		.loc 1 334 0 discriminator 2
 503 0050 0023     		mov	r3, #0
 504              	.L31:
 333:.\Generated_Source\PSoC4/Comm_EZI2C.c ****                         Comm_EZI2C_STATUS_BUSY : 0u;
 505              		.loc 1 333 0 is_stmt 1 discriminator 4
 506 0052 7A68     		ldr	r2, [r7, #4]
 507 0054 1343     		orr	r3, r2
 508 0056 7B60     		str	r3, [r7, #4]
 509              	.L26:
 335:.\Generated_Source\PSoC4/Comm_EZI2C.c ****         }
 336:.\Generated_Source\PSoC4/Comm_EZI2C.c ****         
 337:.\Generated_Source\PSoC4/Comm_EZI2C.c ****     }
 338:.\Generated_Source\PSoC4/Comm_EZI2C.c ****     
ARM GAS  C:\Users\TECHCO~1\AppData\Local\Temp\ccgevLFY.s 			page 16


 339:.\Generated_Source\PSoC4/Comm_EZI2C.c **** 
 340:.\Generated_Source\PSoC4/Comm_EZI2C.c ****     Comm_curStatus &= ((uint8) ~Comm_EZI2C_CLEAR_STATUS);
 510              		.loc 1 340 0
 511 0058 074B     		ldr	r3, .L33
 512 005a 1B78     		ldrb	r3, [r3]
 513 005c DBB2     		uxtb	r3, r3
 514 005e 1F22     		mov	r2, #31
 515 0060 9343     		bic	r3, r2
 516 0062 DAB2     		uxtb	r2, r3
 517 0064 044B     		ldr	r3, .L33
 518 0066 1A70     		strb	r2, [r3]
 341:.\Generated_Source\PSoC4/Comm_EZI2C.c **** 
 342:.\Generated_Source\PSoC4/Comm_EZI2C.c ****     Comm_EnableInt();   /* Release lock */
 519              		.loc 1 342 0
 520 0068 0A20     		mov	r0, #10
 521 006a FFF7FEFF 		bl	CyIntEnable
 343:.\Generated_Source\PSoC4/Comm_EZI2C.c **** 
 344:.\Generated_Source\PSoC4/Comm_EZI2C.c ****     return(status);
 522              		.loc 1 344 0
 523 006e 7B68     		ldr	r3, [r7, #4]
 345:.\Generated_Source\PSoC4/Comm_EZI2C.c **** }
 524              		.loc 1 345 0
 525 0070 181C     		mov	r0, r3
 526 0072 BD46     		mov	sp, r7
 527 0074 02B0     		add	sp, sp, #8
 528              		@ sp needed
 529 0076 80BD     		pop	{r7, pc}
 530              	.L34:
 531              		.align	2
 532              	.L33:
 533 0078 00000000 		.word	Comm_curStatus
 534 007c 480F0640 		.word	1074138952
 535 0080 00000640 		.word	1074135040
 536 0084 800E0640 		.word	1074138752
 537 0088 400F0640 		.word	1074138944
 538              		.cfi_endproc
 539              	.LFE2:
 540              		.size	Comm_EzI2CGetActivity, .-Comm_EzI2CGetActivity
 541              		.section	.text.Comm_EzI2CSetAddress1,"ax",%progbits
 542              		.align	2
 543              		.global	Comm_EzI2CSetAddress1
 544              		.code	16
 545              		.thumb_func
 546              		.type	Comm_EzI2CSetAddress1, %function
 547              	Comm_EzI2CSetAddress1:
 548              	.LFB3:
 346:.\Generated_Source\PSoC4/Comm_EZI2C.c **** 
 347:.\Generated_Source\PSoC4/Comm_EZI2C.c **** 
 348:.\Generated_Source\PSoC4/Comm_EZI2C.c **** /*******************************************************************************
 349:.\Generated_Source\PSoC4/Comm_EZI2C.c **** * Function Name: Comm_EzI2CSetAddress1
 350:.\Generated_Source\PSoC4/Comm_EZI2C.c **** ********************************************************************************
 351:.\Generated_Source\PSoC4/Comm_EZI2C.c **** *
 352:.\Generated_Source\PSoC4/Comm_EZI2C.c **** * Summary:
 353:.\Generated_Source\PSoC4/Comm_EZI2C.c **** *  Sets the primary I2C slave address.
 354:.\Generated_Source\PSoC4/Comm_EZI2C.c **** *
 355:.\Generated_Source\PSoC4/Comm_EZI2C.c **** * Parameters:
 356:.\Generated_Source\PSoC4/Comm_EZI2C.c **** *  address: I2C slave address for the secondary device.
ARM GAS  C:\Users\TECHCO~1\AppData\Local\Temp\ccgevLFY.s 			page 17


 357:.\Generated_Source\PSoC4/Comm_EZI2C.c **** *           This address is the 7-bit right-justified slave address and does
 358:.\Generated_Source\PSoC4/Comm_EZI2C.c **** *           not include the R/W bit.
 359:.\Generated_Source\PSoC4/Comm_EZI2C.c **** *           This value may be any address between 0 and 127 (0x00 to 0x7F).
 360:.\Generated_Source\PSoC4/Comm_EZI2C.c **** *
 361:.\Generated_Source\PSoC4/Comm_EZI2C.c **** * Return:
 362:.\Generated_Source\PSoC4/Comm_EZI2C.c **** *  None
 363:.\Generated_Source\PSoC4/Comm_EZI2C.c **** *
 364:.\Generated_Source\PSoC4/Comm_EZI2C.c **** *******************************************************************************/
 365:.\Generated_Source\PSoC4/Comm_EZI2C.c **** void Comm_EzI2CSetAddress1(uint32 address)
 366:.\Generated_Source\PSoC4/Comm_EZI2C.c **** {
 549              		.loc 1 366 0
 550              		.cfi_startproc
 551 0000 90B5     		push	{r4, r7, lr}
 552              		.cfi_def_cfa_offset 12
 553              		.cfi_offset 4, -12
 554              		.cfi_offset 7, -8
 555              		.cfi_offset 14, -4
 556 0002 85B0     		sub	sp, sp, #20
 557              		.cfi_def_cfa_offset 32
 558 0004 00AF     		add	r7, sp, #0
 559              		.cfi_def_cfa_register 7
 560 0006 7860     		str	r0, [r7, #4]
 367:.\Generated_Source\PSoC4/Comm_EZI2C.c ****     if(Comm_SECONDARY_ADDRESS_ENABLE)
 561              		.loc 1 367 0
 562 0008 134B     		ldr	r3, .L38
 563 000a 1B78     		ldrb	r3, [r3]
 564 000c 002B     		cmp	r3, #0
 565 000e 0FD0     		beq	.L36
 368:.\Generated_Source\PSoC4/Comm_EZI2C.c ****     {
 369:.\Generated_Source\PSoC4/Comm_EZI2C.c ****         Comm_addrBuf1 = (uint8) address;
 566              		.loc 1 369 0
 567 0010 7B68     		ldr	r3, [r7, #4]
 568 0012 DAB2     		uxtb	r2, r3
 569 0014 114B     		ldr	r3, .L38+4
 570 0016 1A70     		strb	r2, [r3]
 370:.\Generated_Source\PSoC4/Comm_EZI2C.c **** 
 371:.\Generated_Source\PSoC4/Comm_EZI2C.c ****         Comm_RX_MATCH_REG = Comm_EzI2CUpdateRxMatchReg(address,
 571              		.loc 1 371 0
 572 0018 114C     		ldr	r4, .L38+8
 573 001a 124B     		ldr	r3, .L38+12
 574 001c 1B78     		ldrb	r3, [r3]
 575 001e 1A1C     		mov	r2, r3
 576 0020 7B68     		ldr	r3, [r7, #4]
 577 0022 181C     		mov	r0, r3
 578 0024 111C     		mov	r1, r2
 579 0026 FFF7FEFF 		bl	Comm_EzI2CUpdateRxMatchReg
 580 002a 031C     		mov	r3, r0
 581 002c 2360     		str	r3, [r4]
 582 002e 10E0     		b	.L35
 583              	.L36:
 584              	.LBB2:
 372:.\Generated_Source\PSoC4/Comm_EZI2C.c ****                                                                                (uint32) Comm_addrBu
 373:.\Generated_Source\PSoC4/Comm_EZI2C.c ****     }
 374:.\Generated_Source\PSoC4/Comm_EZI2C.c ****     else
 375:.\Generated_Source\PSoC4/Comm_EZI2C.c ****     {
 376:.\Generated_Source\PSoC4/Comm_EZI2C.c ****         uint32 matchReg;
 377:.\Generated_Source\PSoC4/Comm_EZI2C.c **** 
ARM GAS  C:\Users\TECHCO~1\AppData\Local\Temp\ccgevLFY.s 			page 18


 378:.\Generated_Source\PSoC4/Comm_EZI2C.c ****         matchReg = Comm_RX_MATCH_REG;
 585              		.loc 1 378 0
 586 0030 0B4B     		ldr	r3, .L38+8
 587 0032 1B68     		ldr	r3, [r3]
 588 0034 FB60     		str	r3, [r7, #12]
 379:.\Generated_Source\PSoC4/Comm_EZI2C.c **** 
 380:.\Generated_Source\PSoC4/Comm_EZI2C.c ****         matchReg &= ((uint32) ~Comm_RX_MATCH_ADDR_MASK);            /* Clear address bits */
 589              		.loc 1 380 0
 590 0036 FB68     		ldr	r3, [r7, #12]
 591 0038 FF22     		mov	r2, #255
 592 003a 9343     		bic	r3, r2
 593 003c FB60     		str	r3, [r7, #12]
 381:.\Generated_Source\PSoC4/Comm_EZI2C.c ****         matchReg |= ((uint32)  Comm_GET_I2C_8BIT_ADDRESS(address)); /* Set mask */
 594              		.loc 1 381 0
 595 003e 7B68     		ldr	r3, [r7, #4]
 596 0040 5B00     		lsl	r3, r3, #1
 597 0042 FF22     		mov	r2, #255
 598 0044 1340     		and	r3, r2
 599 0046 FA68     		ldr	r2, [r7, #12]
 600 0048 1343     		orr	r3, r2
 601 004a FB60     		str	r3, [r7, #12]
 382:.\Generated_Source\PSoC4/Comm_EZI2C.c **** 
 383:.\Generated_Source\PSoC4/Comm_EZI2C.c ****         Comm_RX_MATCH_REG = matchReg;
 602              		.loc 1 383 0
 603 004c 044B     		ldr	r3, .L38+8
 604 004e FA68     		ldr	r2, [r7, #12]
 605 0050 1A60     		str	r2, [r3]
 606              	.L35:
 607              	.LBE2:
 384:.\Generated_Source\PSoC4/Comm_EZI2C.c ****     }
 385:.\Generated_Source\PSoC4/Comm_EZI2C.c ****     
 386:.\Generated_Source\PSoC4/Comm_EZI2C.c **** }
 608              		.loc 1 386 0
 609 0052 BD46     		mov	sp, r7
 610 0054 05B0     		add	sp, sp, #20
 611              		@ sp needed
 612 0056 90BD     		pop	{r4, r7, pc}
 613              	.L39:
 614              		.align	2
 615              	.L38:
 616 0058 00000000 		.word	Comm_numberOfAddr
 617 005c 00000000 		.word	Comm_addrBuf1
 618 0060 10030640 		.word	1074135824
 619 0064 00000000 		.word	Comm_addrBuf2
 620              		.cfi_endproc
 621              	.LFE3:
 622              		.size	Comm_EzI2CSetAddress1, .-Comm_EzI2CSetAddress1
 623              		.section	.text.Comm_EzI2CGetAddress1,"ax",%progbits
 624              		.align	2
 625              		.global	Comm_EzI2CGetAddress1
 626              		.code	16
 627              		.thumb_func
 628              		.type	Comm_EzI2CGetAddress1, %function
 629              	Comm_EzI2CGetAddress1:
 630              	.LFB4:
 387:.\Generated_Source\PSoC4/Comm_EZI2C.c **** 
 388:.\Generated_Source\PSoC4/Comm_EZI2C.c **** 
ARM GAS  C:\Users\TECHCO~1\AppData\Local\Temp\ccgevLFY.s 			page 19


 389:.\Generated_Source\PSoC4/Comm_EZI2C.c **** /*******************************************************************************
 390:.\Generated_Source\PSoC4/Comm_EZI2C.c **** * Function Name: Comm_EzI2CGetAddress1
 391:.\Generated_Source\PSoC4/Comm_EZI2C.c **** ********************************************************************************
 392:.\Generated_Source\PSoC4/Comm_EZI2C.c **** *
 393:.\Generated_Source\PSoC4/Comm_EZI2C.c **** * Summary:
 394:.\Generated_Source\PSoC4/Comm_EZI2C.c **** *  Gets the primary I2C slave 7-bit address.
 395:.\Generated_Source\PSoC4/Comm_EZI2C.c **** *
 396:.\Generated_Source\PSoC4/Comm_EZI2C.c **** * Parameters:
 397:.\Generated_Source\PSoC4/Comm_EZI2C.c **** *  None
 398:.\Generated_Source\PSoC4/Comm_EZI2C.c **** *
 399:.\Generated_Source\PSoC4/Comm_EZI2C.c **** * Return:
 400:.\Generated_Source\PSoC4/Comm_EZI2C.c **** *  Returns I2C slave address for the primary device.
 401:.\Generated_Source\PSoC4/Comm_EZI2C.c **** *  This address is the 7-bit right-justified slave address and does not
 402:.\Generated_Source\PSoC4/Comm_EZI2C.c **** *  include the R/W bit.
 403:.\Generated_Source\PSoC4/Comm_EZI2C.c **** *  This value may be any address between 0 and 127 (0x00 to 0x7F).
 404:.\Generated_Source\PSoC4/Comm_EZI2C.c **** *
 405:.\Generated_Source\PSoC4/Comm_EZI2C.c **** *******************************************************************************/
 406:.\Generated_Source\PSoC4/Comm_EZI2C.c **** uint32 Comm_EzI2CGetAddress1(void)
 407:.\Generated_Source\PSoC4/Comm_EZI2C.c **** {
 631              		.loc 1 407 0
 632              		.cfi_startproc
 633 0000 80B5     		push	{r7, lr}
 634              		.cfi_def_cfa_offset 8
 635              		.cfi_offset 7, -8
 636              		.cfi_offset 14, -4
 637 0002 82B0     		sub	sp, sp, #8
 638              		.cfi_def_cfa_offset 16
 639 0004 00AF     		add	r7, sp, #0
 640              		.cfi_def_cfa_register 7
 408:.\Generated_Source\PSoC4/Comm_EZI2C.c ****     uint32 address;
 409:.\Generated_Source\PSoC4/Comm_EZI2C.c **** 
 410:.\Generated_Source\PSoC4/Comm_EZI2C.c ****     if(Comm_SECONDARY_ADDRESS_ENABLE)
 641              		.loc 1 410 0
 642 0006 094B     		ldr	r3, .L44
 643 0008 1B78     		ldrb	r3, [r3]
 644 000a 002B     		cmp	r3, #0
 645 000c 03D0     		beq	.L41
 411:.\Generated_Source\PSoC4/Comm_EZI2C.c ****     {
 412:.\Generated_Source\PSoC4/Comm_EZI2C.c ****         address = (uint32) Comm_addrBuf1;
 646              		.loc 1 412 0
 647 000e 084B     		ldr	r3, .L44+4
 648 0010 1B78     		ldrb	r3, [r3]
 649 0012 7B60     		str	r3, [r7, #4]
 650 0014 05E0     		b	.L42
 651              	.L41:
 413:.\Generated_Source\PSoC4/Comm_EZI2C.c ****     }
 414:.\Generated_Source\PSoC4/Comm_EZI2C.c ****     else
 415:.\Generated_Source\PSoC4/Comm_EZI2C.c ****     {
 416:.\Generated_Source\PSoC4/Comm_EZI2C.c ****         address = (Comm_GET_RX_MATCH_ADDR(Comm_RX_MATCH_REG) >>
 652              		.loc 1 416 0
 653 0016 074B     		ldr	r3, .L44+8
 654 0018 1B68     		ldr	r3, [r3]
 655 001a FF22     		mov	r2, #255
 656 001c 1340     		and	r3, r2
 657 001e 5B08     		lsr	r3, r3, #1
 658 0020 7B60     		str	r3, [r7, #4]
 659              	.L42:
ARM GAS  C:\Users\TECHCO~1\AppData\Local\Temp\ccgevLFY.s 			page 20


 417:.\Generated_Source\PSoC4/Comm_EZI2C.c ****                    Comm_I2C_SLAVE_ADDR_POS);
 418:.\Generated_Source\PSoC4/Comm_EZI2C.c ****     }
 419:.\Generated_Source\PSoC4/Comm_EZI2C.c ****     
 420:.\Generated_Source\PSoC4/Comm_EZI2C.c **** 
 421:.\Generated_Source\PSoC4/Comm_EZI2C.c ****     return(address);
 660              		.loc 1 421 0
 661 0022 7B68     		ldr	r3, [r7, #4]
 422:.\Generated_Source\PSoC4/Comm_EZI2C.c **** }
 662              		.loc 1 422 0
 663 0024 181C     		mov	r0, r3
 664 0026 BD46     		mov	sp, r7
 665 0028 02B0     		add	sp, sp, #8
 666              		@ sp needed
 667 002a 80BD     		pop	{r7, pc}
 668              	.L45:
 669              		.align	2
 670              	.L44:
 671 002c 00000000 		.word	Comm_numberOfAddr
 672 0030 00000000 		.word	Comm_addrBuf1
 673 0034 10030640 		.word	1074135824
 674              		.cfi_endproc
 675              	.LFE4:
 676              		.size	Comm_EzI2CGetAddress1, .-Comm_EzI2CGetAddress1
 677              		.section	.text.Comm_EzI2CSetBuffer1,"ax",%progbits
 678              		.align	2
 679              		.global	Comm_EzI2CSetBuffer1
 680              		.code	16
 681              		.thumb_func
 682              		.type	Comm_EzI2CSetBuffer1, %function
 683              	Comm_EzI2CSetBuffer1:
 684              	.LFB5:
 423:.\Generated_Source\PSoC4/Comm_EZI2C.c **** 
 424:.\Generated_Source\PSoC4/Comm_EZI2C.c **** 
 425:.\Generated_Source\PSoC4/Comm_EZI2C.c **** /*******************************************************************************
 426:.\Generated_Source\PSoC4/Comm_EZI2C.c **** * Function Name: Comm_EzI2CSetBuffer1
 427:.\Generated_Source\PSoC4/Comm_EZI2C.c **** ********************************************************************************
 428:.\Generated_Source\PSoC4/Comm_EZI2C.c **** *
 429:.\Generated_Source\PSoC4/Comm_EZI2C.c **** * Summary:
 430:.\Generated_Source\PSoC4/Comm_EZI2C.c **** *  Sets up the data buffer to be exposed to the I2C master on a primary slave
 431:.\Generated_Source\PSoC4/Comm_EZI2C.c **** *  address request.
 432:.\Generated_Source\PSoC4/Comm_EZI2C.c **** *
 433:.\Generated_Source\PSoC4/Comm_EZI2C.c **** * Parameters:
 434:.\Generated_Source\PSoC4/Comm_EZI2C.c **** *  bufSize: Size of the buffer in bytes.
 435:.\Generated_Source\PSoC4/Comm_EZI2C.c **** *  rwBoundary: Sets how many bytes are writeable in the beginning of the buffer.
 436:.\Generated_Source\PSoC4/Comm_EZI2C.c **** *              This value must be less than or equal to the buffer size.
 437:.\Generated_Source\PSoC4/Comm_EZI2C.c **** *              Data located at offset rwBoundry and greater are read only.
 438:.\Generated_Source\PSoC4/Comm_EZI2C.c **** *  buffer: Pointer to the data buffer.
 439:.\Generated_Source\PSoC4/Comm_EZI2C.c **** *
 440:.\Generated_Source\PSoC4/Comm_EZI2C.c **** * Return:
 441:.\Generated_Source\PSoC4/Comm_EZI2C.c **** *  None
 442:.\Generated_Source\PSoC4/Comm_EZI2C.c **** *
 443:.\Generated_Source\PSoC4/Comm_EZI2C.c **** *******************************************************************************/
 444:.\Generated_Source\PSoC4/Comm_EZI2C.c **** void Comm_EzI2CSetBuffer1(uint32 bufSize, uint32 rwBoundary, volatile uint8 * buffer)
 445:.\Generated_Source\PSoC4/Comm_EZI2C.c **** {
 685              		.loc 1 445 0
 686              		.cfi_startproc
 687 0000 80B5     		push	{r7, lr}
ARM GAS  C:\Users\TECHCO~1\AppData\Local\Temp\ccgevLFY.s 			page 21


 688              		.cfi_def_cfa_offset 8
 689              		.cfi_offset 7, -8
 690              		.cfi_offset 14, -4
 691 0002 84B0     		sub	sp, sp, #16
 692              		.cfi_def_cfa_offset 24
 693 0004 00AF     		add	r7, sp, #0
 694              		.cfi_def_cfa_register 7
 695 0006 F860     		str	r0, [r7, #12]
 696 0008 B960     		str	r1, [r7, #8]
 697 000a 7A60     		str	r2, [r7, #4]
 446:.\Generated_Source\PSoC4/Comm_EZI2C.c ****     if (NULL != buffer)
 698              		.loc 1 446 0
 699 000c 7B68     		ldr	r3, [r7, #4]
 700 000e 002B     		cmp	r3, #0
 701 0010 10D0     		beq	.L46
 447:.\Generated_Source\PSoC4/Comm_EZI2C.c ****     {
 448:.\Generated_Source\PSoC4/Comm_EZI2C.c ****         Comm_DisableInt();  /* Lock from interruption */
 702              		.loc 1 448 0
 703 0012 0A20     		mov	r0, #10
 704 0014 FFF7FEFF 		bl	CyIntDisable
 449:.\Generated_Source\PSoC4/Comm_EZI2C.c **** 
 450:.\Generated_Source\PSoC4/Comm_EZI2C.c ****         Comm_dataBuffer1 =  buffer;
 705              		.loc 1 450 0
 706 0018 084B     		ldr	r3, .L48
 707 001a 7A68     		ldr	r2, [r7, #4]
 708 001c 1A60     		str	r2, [r3]
 451:.\Generated_Source\PSoC4/Comm_EZI2C.c ****         Comm_bufSizeBuf1 = (uint16) bufSize;
 709              		.loc 1 451 0
 710 001e FB68     		ldr	r3, [r7, #12]
 711 0020 9AB2     		uxth	r2, r3
 712 0022 074B     		ldr	r3, .L48+4
 713 0024 1A80     		strh	r2, [r3]
 452:.\Generated_Source\PSoC4/Comm_EZI2C.c ****         Comm_protectBuf1 = (uint16) rwBoundary;
 714              		.loc 1 452 0
 715 0026 BB68     		ldr	r3, [r7, #8]
 716 0028 9AB2     		uxth	r2, r3
 717 002a 064B     		ldr	r3, .L48+8
 718 002c 1A80     		strh	r2, [r3]
 453:.\Generated_Source\PSoC4/Comm_EZI2C.c **** 
 454:.\Generated_Source\PSoC4/Comm_EZI2C.c ****         Comm_EnableInt();   /* Release lock */
 719              		.loc 1 454 0
 720 002e 0A20     		mov	r0, #10
 721 0030 FFF7FEFF 		bl	CyIntEnable
 722              	.L46:
 455:.\Generated_Source\PSoC4/Comm_EZI2C.c ****     }
 456:.\Generated_Source\PSoC4/Comm_EZI2C.c **** }
 723              		.loc 1 456 0
 724 0034 BD46     		mov	sp, r7
 725 0036 04B0     		add	sp, sp, #16
 726              		@ sp needed
 727 0038 80BD     		pop	{r7, pc}
 728              	.L49:
 729 003a C046     		.align	2
 730              	.L48:
 731 003c 00000000 		.word	Comm_dataBuffer1
 732 0040 00000000 		.word	Comm_bufSizeBuf1
 733 0044 00000000 		.word	Comm_protectBuf1
ARM GAS  C:\Users\TECHCO~1\AppData\Local\Temp\ccgevLFY.s 			page 22


 734              		.cfi_endproc
 735              	.LFE5:
 736              		.size	Comm_EzI2CSetBuffer1, .-Comm_EzI2CSetBuffer1
 737              		.section	.text.Comm_EzI2CSetReadBoundaryBuffer1,"ax",%progbits
 738              		.align	2
 739              		.global	Comm_EzI2CSetReadBoundaryBuffer1
 740              		.code	16
 741              		.thumb_func
 742              		.type	Comm_EzI2CSetReadBoundaryBuffer1, %function
 743              	Comm_EzI2CSetReadBoundaryBuffer1:
 744              	.LFB6:
 457:.\Generated_Source\PSoC4/Comm_EZI2C.c **** 
 458:.\Generated_Source\PSoC4/Comm_EZI2C.c **** 
 459:.\Generated_Source\PSoC4/Comm_EZI2C.c **** /*******************************************************************************
 460:.\Generated_Source\PSoC4/Comm_EZI2C.c **** * Function Name: Comm_EzI2CSetReadBoundaryBuffer1
 461:.\Generated_Source\PSoC4/Comm_EZI2C.c **** ********************************************************************************
 462:.\Generated_Source\PSoC4/Comm_EZI2C.c **** *
 463:.\Generated_Source\PSoC4/Comm_EZI2C.c **** * Summary:
 464:.\Generated_Source\PSoC4/Comm_EZI2C.c **** *  Sets the read only boundary in the data buffer to be exposed to the I2C
 465:.\Generated_Source\PSoC4/Comm_EZI2C.c **** *  master on a primary slave address request.
 466:.\Generated_Source\PSoC4/Comm_EZI2C.c **** *
 467:.\Generated_Source\PSoC4/Comm_EZI2C.c **** * Parameters:
 468:.\Generated_Source\PSoC4/Comm_EZI2C.c **** *  rwBoundry: Sets how many bytes are writeable in the beginning of the buffer.
 469:.\Generated_Source\PSoC4/Comm_EZI2C.c **** *             This value must be less than or equal to the buffer size.
 470:.\Generated_Source\PSoC4/Comm_EZI2C.c **** *             Data located at offset rwBoundry and greater are read only.
 471:.\Generated_Source\PSoC4/Comm_EZI2C.c **** *
 472:.\Generated_Source\PSoC4/Comm_EZI2C.c **** * Return:
 473:.\Generated_Source\PSoC4/Comm_EZI2C.c **** *  None
 474:.\Generated_Source\PSoC4/Comm_EZI2C.c **** *
 475:.\Generated_Source\PSoC4/Comm_EZI2C.c **** *******************************************************************************/
 476:.\Generated_Source\PSoC4/Comm_EZI2C.c **** void Comm_EzI2CSetReadBoundaryBuffer1(uint32 rwBoundary)
 477:.\Generated_Source\PSoC4/Comm_EZI2C.c **** {
 745              		.loc 1 477 0
 746              		.cfi_startproc
 747 0000 80B5     		push	{r7, lr}
 748              		.cfi_def_cfa_offset 8
 749              		.cfi_offset 7, -8
 750              		.cfi_offset 14, -4
 751 0002 82B0     		sub	sp, sp, #8
 752              		.cfi_def_cfa_offset 16
 753 0004 00AF     		add	r7, sp, #0
 754              		.cfi_def_cfa_register 7
 755 0006 7860     		str	r0, [r7, #4]
 478:.\Generated_Source\PSoC4/Comm_EZI2C.c ****     Comm_protectBuf1 = (uint16) rwBoundary;
 756              		.loc 1 478 0
 757 0008 7B68     		ldr	r3, [r7, #4]
 758 000a 9AB2     		uxth	r2, r3
 759 000c 024B     		ldr	r3, .L51
 760 000e 1A80     		strh	r2, [r3]
 479:.\Generated_Source\PSoC4/Comm_EZI2C.c **** }
 761              		.loc 1 479 0
 762 0010 BD46     		mov	sp, r7
 763 0012 02B0     		add	sp, sp, #8
 764              		@ sp needed
 765 0014 80BD     		pop	{r7, pc}
 766              	.L52:
 767 0016 C046     		.align	2
ARM GAS  C:\Users\TECHCO~1\AppData\Local\Temp\ccgevLFY.s 			page 23


 768              	.L51:
 769 0018 00000000 		.word	Comm_protectBuf1
 770              		.cfi_endproc
 771              	.LFE6:
 772              		.size	Comm_EzI2CSetReadBoundaryBuffer1, .-Comm_EzI2CSetReadBoundaryBuffer1
 773              		.section	.text.Comm_EzI2CUpdateRxMatchReg,"ax",%progbits
 774              		.align	2
 775              		.code	16
 776              		.thumb_func
 777              		.type	Comm_EzI2CUpdateRxMatchReg, %function
 778              	Comm_EzI2CUpdateRxMatchReg:
 779              	.LFB7:
 480:.\Generated_Source\PSoC4/Comm_EZI2C.c **** 
 481:.\Generated_Source\PSoC4/Comm_EZI2C.c **** 
 482:.\Generated_Source\PSoC4/Comm_EZI2C.c **** #if(Comm_SECONDARY_ADDRESS_ENABLE_CONST)
 483:.\Generated_Source\PSoC4/Comm_EZI2C.c ****     /*******************************************************************************
 484:.\Generated_Source\PSoC4/Comm_EZI2C.c ****     * Function Name: Comm_EzI2CUpdateRxMatchReg
 485:.\Generated_Source\PSoC4/Comm_EZI2C.c ****     ********************************************************************************
 486:.\Generated_Source\PSoC4/Comm_EZI2C.c ****     *
 487:.\Generated_Source\PSoC4/Comm_EZI2C.c ****     * Summary:
 488:.\Generated_Source\PSoC4/Comm_EZI2C.c ****     *  Returns the value of the RX MATCH register for addr1 and addr2. The addr1 is
 489:.\Generated_Source\PSoC4/Comm_EZI2C.c ****     *  accepted as the primary address and it is written to RX_MATCH.ADDRESS
 490:.\Generated_Source\PSoC4/Comm_EZI2C.c ****     *  (addr1 << 0x01).
 491:.\Generated_Source\PSoC4/Comm_EZI2C.c ****     *  The RX_MATCH.MASK is set as follow: addr1 and addr2 equal bits set to 1
 492:.\Generated_Source\PSoC4/Comm_EZI2C.c ****     *  otherwise 0.
 493:.\Generated_Source\PSoC4/Comm_EZI2C.c ****     *
 494:.\Generated_Source\PSoC4/Comm_EZI2C.c ****     * Parameters:
 495:.\Generated_Source\PSoC4/Comm_EZI2C.c ****     *  addr1: I2C slave address for the primary device.
 496:.\Generated_Source\PSoC4/Comm_EZI2C.c ****     *  addr2: I2C slave address for the secondary device.
 497:.\Generated_Source\PSoC4/Comm_EZI2C.c ****     *         This address is the 7-bit right-justified slave address and does
 498:.\Generated_Source\PSoC4/Comm_EZI2C.c ****     *         not include the R/W bit.
 499:.\Generated_Source\PSoC4/Comm_EZI2C.c ****     *         This value may be any address between 0 and 127 (0x00 to 0x7F).
 500:.\Generated_Source\PSoC4/Comm_EZI2C.c ****     *
 501:.\Generated_Source\PSoC4/Comm_EZI2C.c ****     * Return:
 502:.\Generated_Source\PSoC4/Comm_EZI2C.c ****     *  Value of RX MATCH register.
 503:.\Generated_Source\PSoC4/Comm_EZI2C.c ****     *
 504:.\Generated_Source\PSoC4/Comm_EZI2C.c ****     *******************************************************************************/
 505:.\Generated_Source\PSoC4/Comm_EZI2C.c ****     static uint32 Comm_EzI2CUpdateRxMatchReg(uint32 addr1, uint32 addr2)
 506:.\Generated_Source\PSoC4/Comm_EZI2C.c ****     {
 780              		.loc 1 506 0
 781              		.cfi_startproc
 782 0000 80B5     		push	{r7, lr}
 783              		.cfi_def_cfa_offset 8
 784              		.cfi_offset 7, -8
 785              		.cfi_offset 14, -4
 786 0002 84B0     		sub	sp, sp, #16
 787              		.cfi_def_cfa_offset 24
 788 0004 00AF     		add	r7, sp, #0
 789              		.cfi_def_cfa_register 7
 790 0006 7860     		str	r0, [r7, #4]
 791 0008 3960     		str	r1, [r7]
 507:.\Generated_Source\PSoC4/Comm_EZI2C.c ****         uint32 matchReg;
 508:.\Generated_Source\PSoC4/Comm_EZI2C.c **** 
 509:.\Generated_Source\PSoC4/Comm_EZI2C.c ****         matchReg  = ~(addr1 ^ addr2); /* If (addr1 and addr2) bit matches - mask bit equals 1, in o
 792              		.loc 1 509 0
 793 000a 7A68     		ldr	r2, [r7, #4]
 794 000c 3B68     		ldr	r3, [r7]
ARM GAS  C:\Users\TECHCO~1\AppData\Local\Temp\ccgevLFY.s 			page 24


 795 000e 5340     		eor	r3, r2
 796 0010 DB43     		mvn	r3, r3
 797 0012 FB60     		str	r3, [r7, #12]
 510:.\Generated_Source\PSoC4/Comm_EZI2C.c **** 
 511:.\Generated_Source\PSoC4/Comm_EZI2C.c ****         matchReg  = (uint32) (Comm_GET_I2C_8BIT_ADDRESS(matchReg) << Comm_RX_MATCH_MASK_POS);
 798              		.loc 1 511 0
 799 0014 FB68     		ldr	r3, [r7, #12]
 800 0016 5B00     		lsl	r3, r3, #1
 801 0018 FF22     		mov	r2, #255
 802 001a 1340     		and	r3, r2
 803 001c 1B04     		lsl	r3, r3, #16
 804 001e FB60     		str	r3, [r7, #12]
 512:.\Generated_Source\PSoC4/Comm_EZI2C.c ****         matchReg |= Comm_GET_I2C_8BIT_ADDRESS(addr1);
 805              		.loc 1 512 0
 806 0020 7B68     		ldr	r3, [r7, #4]
 807 0022 5B00     		lsl	r3, r3, #1
 808 0024 FF22     		mov	r2, #255
 809 0026 1340     		and	r3, r2
 810 0028 FA68     		ldr	r2, [r7, #12]
 811 002a 1343     		orr	r3, r2
 812 002c FB60     		str	r3, [r7, #12]
 513:.\Generated_Source\PSoC4/Comm_EZI2C.c **** 
 514:.\Generated_Source\PSoC4/Comm_EZI2C.c ****         return(matchReg);
 813              		.loc 1 514 0
 814 002e FB68     		ldr	r3, [r7, #12]
 515:.\Generated_Source\PSoC4/Comm_EZI2C.c ****     }
 815              		.loc 1 515 0
 816 0030 181C     		mov	r0, r3
 817 0032 BD46     		mov	sp, r7
 818 0034 04B0     		add	sp, sp, #16
 819              		@ sp needed
 820 0036 80BD     		pop	{r7, pc}
 821              		.cfi_endproc
 822              	.LFE7:
 823              		.size	Comm_EzI2CUpdateRxMatchReg, .-Comm_EzI2CUpdateRxMatchReg
 824              		.section	.text.Comm_EzI2CSetAddress2,"ax",%progbits
 825              		.align	2
 826              		.global	Comm_EzI2CSetAddress2
 827              		.code	16
 828              		.thumb_func
 829              		.type	Comm_EzI2CSetAddress2, %function
 830              	Comm_EzI2CSetAddress2:
 831              	.LFB8:
 516:.\Generated_Source\PSoC4/Comm_EZI2C.c **** 
 517:.\Generated_Source\PSoC4/Comm_EZI2C.c ****     /*******************************************************************************
 518:.\Generated_Source\PSoC4/Comm_EZI2C.c ****     * Function Name: Comm_EzI2CSetAddress2
 519:.\Generated_Source\PSoC4/Comm_EZI2C.c ****     ********************************************************************************
 520:.\Generated_Source\PSoC4/Comm_EZI2C.c ****     *
 521:.\Generated_Source\PSoC4/Comm_EZI2C.c ****     * Summary:
 522:.\Generated_Source\PSoC4/Comm_EZI2C.c ****     *  Sets the secondary I2C slave address.
 523:.\Generated_Source\PSoC4/Comm_EZI2C.c ****     *
 524:.\Generated_Source\PSoC4/Comm_EZI2C.c ****     * Parameters:
 525:.\Generated_Source\PSoC4/Comm_EZI2C.c ****     *  address: I2C slave address for the secondary device.
 526:.\Generated_Source\PSoC4/Comm_EZI2C.c ****     *           This address is the 7-bit right-justified slave address and does
 527:.\Generated_Source\PSoC4/Comm_EZI2C.c ****     *           not include the R/W bit.
 528:.\Generated_Source\PSoC4/Comm_EZI2C.c ****     *           This value may be any address between 0 and 127 (0x00 to 0x7F).
 529:.\Generated_Source\PSoC4/Comm_EZI2C.c ****     *
ARM GAS  C:\Users\TECHCO~1\AppData\Local\Temp\ccgevLFY.s 			page 25


 530:.\Generated_Source\PSoC4/Comm_EZI2C.c ****     * Return:
 531:.\Generated_Source\PSoC4/Comm_EZI2C.c ****     *  None
 532:.\Generated_Source\PSoC4/Comm_EZI2C.c ****     *
 533:.\Generated_Source\PSoC4/Comm_EZI2C.c ****     *******************************************************************************/
 534:.\Generated_Source\PSoC4/Comm_EZI2C.c ****     void Comm_EzI2CSetAddress2(uint32 address)
 535:.\Generated_Source\PSoC4/Comm_EZI2C.c ****     {
 832              		.loc 1 535 0
 833              		.cfi_startproc
 834 0000 90B5     		push	{r4, r7, lr}
 835              		.cfi_def_cfa_offset 12
 836              		.cfi_offset 4, -12
 837              		.cfi_offset 7, -8
 838              		.cfi_offset 14, -4
 839 0002 83B0     		sub	sp, sp, #12
 840              		.cfi_def_cfa_offset 24
 841 0004 00AF     		add	r7, sp, #0
 842              		.cfi_def_cfa_register 7
 843 0006 7860     		str	r0, [r7, #4]
 536:.\Generated_Source\PSoC4/Comm_EZI2C.c ****         Comm_addrBuf2 = (uint8) address;
 844              		.loc 1 536 0
 845 0008 7B68     		ldr	r3, [r7, #4]
 846 000a DAB2     		uxtb	r2, r3
 847 000c 074B     		ldr	r3, .L56
 848 000e 1A70     		strb	r2, [r3]
 537:.\Generated_Source\PSoC4/Comm_EZI2C.c **** 
 538:.\Generated_Source\PSoC4/Comm_EZI2C.c ****         Comm_RX_MATCH_REG = Comm_EzI2CUpdateRxMatchReg((uint32) Comm_addrBuf1,
 849              		.loc 1 538 0
 850 0010 074C     		ldr	r4, .L56+4
 851 0012 084B     		ldr	r3, .L56+8
 852 0014 1B78     		ldrb	r3, [r3]
 853 0016 1A1C     		mov	r2, r3
 854 0018 7B68     		ldr	r3, [r7, #4]
 855 001a 101C     		mov	r0, r2
 856 001c 191C     		mov	r1, r3
 857 001e FFF7FEFF 		bl	Comm_EzI2CUpdateRxMatchReg
 858 0022 031C     		mov	r3, r0
 859 0024 2360     		str	r3, [r4]
 539:.\Generated_Source\PSoC4/Comm_EZI2C.c ****                                                                                address);
 540:.\Generated_Source\PSoC4/Comm_EZI2C.c ****     }
 860              		.loc 1 540 0
 861 0026 BD46     		mov	sp, r7
 862 0028 03B0     		add	sp, sp, #12
 863              		@ sp needed
 864 002a 90BD     		pop	{r4, r7, pc}
 865              	.L57:
 866              		.align	2
 867              	.L56:
 868 002c 00000000 		.word	Comm_addrBuf2
 869 0030 10030640 		.word	1074135824
 870 0034 00000000 		.word	Comm_addrBuf1
 871              		.cfi_endproc
 872              	.LFE8:
 873              		.size	Comm_EzI2CSetAddress2, .-Comm_EzI2CSetAddress2
 874              		.section	.text.Comm_EzI2CGetAddress2,"ax",%progbits
 875              		.align	2
 876              		.global	Comm_EzI2CGetAddress2
 877              		.code	16
ARM GAS  C:\Users\TECHCO~1\AppData\Local\Temp\ccgevLFY.s 			page 26


 878              		.thumb_func
 879              		.type	Comm_EzI2CGetAddress2, %function
 880              	Comm_EzI2CGetAddress2:
 881              	.LFB9:
 541:.\Generated_Source\PSoC4/Comm_EZI2C.c **** 
 542:.\Generated_Source\PSoC4/Comm_EZI2C.c **** 
 543:.\Generated_Source\PSoC4/Comm_EZI2C.c ****     /*******************************************************************************
 544:.\Generated_Source\PSoC4/Comm_EZI2C.c ****     * Function Name: Comm_EzI2CGetAddress2
 545:.\Generated_Source\PSoC4/Comm_EZI2C.c ****     ********************************************************************************
 546:.\Generated_Source\PSoC4/Comm_EZI2C.c ****     *
 547:.\Generated_Source\PSoC4/Comm_EZI2C.c ****     * Summary:
 548:.\Generated_Source\PSoC4/Comm_EZI2C.c ****     *  Gets secondary the I2C slave 7-bit address.
 549:.\Generated_Source\PSoC4/Comm_EZI2C.c ****     *
 550:.\Generated_Source\PSoC4/Comm_EZI2C.c ****     * Parameters:
 551:.\Generated_Source\PSoC4/Comm_EZI2C.c ****     *  None
 552:.\Generated_Source\PSoC4/Comm_EZI2C.c ****     *
 553:.\Generated_Source\PSoC4/Comm_EZI2C.c ****     * Return:
 554:.\Generated_Source\PSoC4/Comm_EZI2C.c ****     *  Returns the I2C slave address for the secondary device.
 555:.\Generated_Source\PSoC4/Comm_EZI2C.c ****     *  This address is a 7-bit right-justified slave address and does not
 556:.\Generated_Source\PSoC4/Comm_EZI2C.c ****     *  include the R/W bit.
 557:.\Generated_Source\PSoC4/Comm_EZI2C.c ****     *  This value may be any address between 0 and 127 (0x00 to 0x7F).
 558:.\Generated_Source\PSoC4/Comm_EZI2C.c ****     *
 559:.\Generated_Source\PSoC4/Comm_EZI2C.c ****     *******************************************************************************/
 560:.\Generated_Source\PSoC4/Comm_EZI2C.c ****     uint32 Comm_EzI2CGetAddress2(void)
 561:.\Generated_Source\PSoC4/Comm_EZI2C.c ****     {
 882              		.loc 1 561 0
 883              		.cfi_startproc
 884 0000 80B5     		push	{r7, lr}
 885              		.cfi_def_cfa_offset 8
 886              		.cfi_offset 7, -8
 887              		.cfi_offset 14, -4
 888 0002 00AF     		add	r7, sp, #0
 889              		.cfi_def_cfa_register 7
 562:.\Generated_Source\PSoC4/Comm_EZI2C.c ****         return((uint32) Comm_addrBuf2);
 890              		.loc 1 562 0
 891 0004 024B     		ldr	r3, .L60
 892 0006 1B78     		ldrb	r3, [r3]
 563:.\Generated_Source\PSoC4/Comm_EZI2C.c ****     }
 893              		.loc 1 563 0
 894 0008 181C     		mov	r0, r3
 895 000a BD46     		mov	sp, r7
 896              		@ sp needed
 897 000c 80BD     		pop	{r7, pc}
 898              	.L61:
 899 000e C046     		.align	2
 900              	.L60:
 901 0010 00000000 		.word	Comm_addrBuf2
 902              		.cfi_endproc
 903              	.LFE9:
 904              		.size	Comm_EzI2CGetAddress2, .-Comm_EzI2CGetAddress2
 905              		.section	.text.Comm_EzI2CSetBuffer2,"ax",%progbits
 906              		.align	2
 907              		.global	Comm_EzI2CSetBuffer2
 908              		.code	16
 909              		.thumb_func
 910              		.type	Comm_EzI2CSetBuffer2, %function
 911              	Comm_EzI2CSetBuffer2:
ARM GAS  C:\Users\TECHCO~1\AppData\Local\Temp\ccgevLFY.s 			page 27


 912              	.LFB10:
 564:.\Generated_Source\PSoC4/Comm_EZI2C.c **** 
 565:.\Generated_Source\PSoC4/Comm_EZI2C.c **** 
 566:.\Generated_Source\PSoC4/Comm_EZI2C.c ****     /*******************************************************************************
 567:.\Generated_Source\PSoC4/Comm_EZI2C.c ****     * Function Name: Comm_EzI2CSetBuffer2
 568:.\Generated_Source\PSoC4/Comm_EZI2C.c ****     ********************************************************************************
 569:.\Generated_Source\PSoC4/Comm_EZI2C.c ****     *
 570:.\Generated_Source\PSoC4/Comm_EZI2C.c ****     * Summary:
 571:.\Generated_Source\PSoC4/Comm_EZI2C.c ****     *  Sets up the data buffer to be exposed to the I2C master on a secondary slave
 572:.\Generated_Source\PSoC4/Comm_EZI2C.c ****     *  address request.
 573:.\Generated_Source\PSoC4/Comm_EZI2C.c ****     *
 574:.\Generated_Source\PSoC4/Comm_EZI2C.c ****     * Parameters:
 575:.\Generated_Source\PSoC4/Comm_EZI2C.c ****     *  bufSize: Size of the buffer in bytes.
 576:.\Generated_Source\PSoC4/Comm_EZI2C.c ****     *  rwBoundary: Sets how many bytes are writeable in the beginning of the buffer.
 577:.\Generated_Source\PSoC4/Comm_EZI2C.c ****     *              This value must be less than or equal to the buffer size.
 578:.\Generated_Source\PSoC4/Comm_EZI2C.c ****     *              Data located at offset rwBoundry and greater are read only.
 579:.\Generated_Source\PSoC4/Comm_EZI2C.c ****     *  buffer: Pointer to the data buffer.
 580:.\Generated_Source\PSoC4/Comm_EZI2C.c ****     *
 581:.\Generated_Source\PSoC4/Comm_EZI2C.c ****     * Return:
 582:.\Generated_Source\PSoC4/Comm_EZI2C.c ****     *  None
 583:.\Generated_Source\PSoC4/Comm_EZI2C.c ****     *
 584:.\Generated_Source\PSoC4/Comm_EZI2C.c ****     *******************************************************************************/
 585:.\Generated_Source\PSoC4/Comm_EZI2C.c ****     void Comm_EzI2CSetBuffer2(uint32 bufSize, uint32 rwBoundary, volatile uint8 * buffer)
 586:.\Generated_Source\PSoC4/Comm_EZI2C.c ****     {
 913              		.loc 1 586 0
 914              		.cfi_startproc
 915 0000 80B5     		push	{r7, lr}
 916              		.cfi_def_cfa_offset 8
 917              		.cfi_offset 7, -8
 918              		.cfi_offset 14, -4
 919 0002 84B0     		sub	sp, sp, #16
 920              		.cfi_def_cfa_offset 24
 921 0004 00AF     		add	r7, sp, #0
 922              		.cfi_def_cfa_register 7
 923 0006 F860     		str	r0, [r7, #12]
 924 0008 B960     		str	r1, [r7, #8]
 925 000a 7A60     		str	r2, [r7, #4]
 587:.\Generated_Source\PSoC4/Comm_EZI2C.c ****         if (NULL != buffer)
 926              		.loc 1 587 0
 927 000c 7B68     		ldr	r3, [r7, #4]
 928 000e 002B     		cmp	r3, #0
 929 0010 10D0     		beq	.L62
 588:.\Generated_Source\PSoC4/Comm_EZI2C.c ****         {
 589:.\Generated_Source\PSoC4/Comm_EZI2C.c ****             Comm_DisableInt();  /* Lock from interruption */
 930              		.loc 1 589 0
 931 0012 0A20     		mov	r0, #10
 932 0014 FFF7FEFF 		bl	CyIntDisable
 590:.\Generated_Source\PSoC4/Comm_EZI2C.c **** 
 591:.\Generated_Source\PSoC4/Comm_EZI2C.c ****             Comm_dataBuffer2 =  buffer;
 933              		.loc 1 591 0
 934 0018 084B     		ldr	r3, .L64
 935 001a 7A68     		ldr	r2, [r7, #4]
 936 001c 1A60     		str	r2, [r3]
 592:.\Generated_Source\PSoC4/Comm_EZI2C.c ****             Comm_bufSizeBuf2 = (uint16) bufSize;
 937              		.loc 1 592 0
 938 001e FB68     		ldr	r3, [r7, #12]
 939 0020 9AB2     		uxth	r2, r3
ARM GAS  C:\Users\TECHCO~1\AppData\Local\Temp\ccgevLFY.s 			page 28


 940 0022 074B     		ldr	r3, .L64+4
 941 0024 1A80     		strh	r2, [r3]
 593:.\Generated_Source\PSoC4/Comm_EZI2C.c ****             Comm_protectBuf2 = (uint16) rwBoundary;
 942              		.loc 1 593 0
 943 0026 BB68     		ldr	r3, [r7, #8]
 944 0028 9AB2     		uxth	r2, r3
 945 002a 064B     		ldr	r3, .L64+8
 946 002c 1A80     		strh	r2, [r3]
 594:.\Generated_Source\PSoC4/Comm_EZI2C.c **** 
 595:.\Generated_Source\PSoC4/Comm_EZI2C.c ****             Comm_EnableInt();   /* Release lock */
 947              		.loc 1 595 0
 948 002e 0A20     		mov	r0, #10
 949 0030 FFF7FEFF 		bl	CyIntEnable
 950              	.L62:
 596:.\Generated_Source\PSoC4/Comm_EZI2C.c ****         }
 597:.\Generated_Source\PSoC4/Comm_EZI2C.c ****     }
 951              		.loc 1 597 0
 952 0034 BD46     		mov	sp, r7
 953 0036 04B0     		add	sp, sp, #16
 954              		@ sp needed
 955 0038 80BD     		pop	{r7, pc}
 956              	.L65:
 957 003a C046     		.align	2
 958              	.L64:
 959 003c 00000000 		.word	Comm_dataBuffer2
 960 0040 00000000 		.word	Comm_bufSizeBuf2
 961 0044 00000000 		.word	Comm_protectBuf2
 962              		.cfi_endproc
 963              	.LFE10:
 964              		.size	Comm_EzI2CSetBuffer2, .-Comm_EzI2CSetBuffer2
 965              		.section	.text.Comm_EzI2CSetReadBoundaryBuffer2,"ax",%progbits
 966              		.align	2
 967              		.global	Comm_EzI2CSetReadBoundaryBuffer2
 968              		.code	16
 969              		.thumb_func
 970              		.type	Comm_EzI2CSetReadBoundaryBuffer2, %function
 971              	Comm_EzI2CSetReadBoundaryBuffer2:
 972              	.LFB11:
 598:.\Generated_Source\PSoC4/Comm_EZI2C.c **** 
 599:.\Generated_Source\PSoC4/Comm_EZI2C.c **** 
 600:.\Generated_Source\PSoC4/Comm_EZI2C.c ****     /*******************************************************************************
 601:.\Generated_Source\PSoC4/Comm_EZI2C.c ****     * Function Name: Comm_EzI2CSetReadBoundaryBuffer2
 602:.\Generated_Source\PSoC4/Comm_EZI2C.c ****     ********************************************************************************
 603:.\Generated_Source\PSoC4/Comm_EZI2C.c ****     *
 604:.\Generated_Source\PSoC4/Comm_EZI2C.c ****     * Summary:
 605:.\Generated_Source\PSoC4/Comm_EZI2C.c ****     *  Sets the read only boundary in the data buffer to be exposed to the I2C
 606:.\Generated_Source\PSoC4/Comm_EZI2C.c ****     *  master on a secondary address request.
 607:.\Generated_Source\PSoC4/Comm_EZI2C.c ****     *
 608:.\Generated_Source\PSoC4/Comm_EZI2C.c ****     * Parameters:
 609:.\Generated_Source\PSoC4/Comm_EZI2C.c ****     *  rwBoundary: Sets how many bytes are writeable at the beginning of the buffer.
 610:.\Generated_Source\PSoC4/Comm_EZI2C.c ****     *              This value must be less than or equal to the buffer size.
 611:.\Generated_Source\PSoC4/Comm_EZI2C.c ****     *              Data located at offset rwBoundry and greater are read only.
 612:.\Generated_Source\PSoC4/Comm_EZI2C.c ****     *
 613:.\Generated_Source\PSoC4/Comm_EZI2C.c ****     * Return:
 614:.\Generated_Source\PSoC4/Comm_EZI2C.c ****     *  None
 615:.\Generated_Source\PSoC4/Comm_EZI2C.c ****     *
 616:.\Generated_Source\PSoC4/Comm_EZI2C.c ****     *******************************************************************************/
ARM GAS  C:\Users\TECHCO~1\AppData\Local\Temp\ccgevLFY.s 			page 29


 617:.\Generated_Source\PSoC4/Comm_EZI2C.c ****     void Comm_EzI2CSetReadBoundaryBuffer2(uint32 rwBoundary)
 618:.\Generated_Source\PSoC4/Comm_EZI2C.c ****     {
 973              		.loc 1 618 0
 974              		.cfi_startproc
 975 0000 80B5     		push	{r7, lr}
 976              		.cfi_def_cfa_offset 8
 977              		.cfi_offset 7, -8
 978              		.cfi_offset 14, -4
 979 0002 82B0     		sub	sp, sp, #8
 980              		.cfi_def_cfa_offset 16
 981 0004 00AF     		add	r7, sp, #0
 982              		.cfi_def_cfa_register 7
 983 0006 7860     		str	r0, [r7, #4]
 619:.\Generated_Source\PSoC4/Comm_EZI2C.c ****         Comm_protectBuf2 = (uint16) rwBoundary;
 984              		.loc 1 619 0
 985 0008 7B68     		ldr	r3, [r7, #4]
 986 000a 9AB2     		uxth	r2, r3
 987 000c 024B     		ldr	r3, .L67
 988 000e 1A80     		strh	r2, [r3]
 620:.\Generated_Source\PSoC4/Comm_EZI2C.c ****     }
 989              		.loc 1 620 0
 990 0010 BD46     		mov	sp, r7
 991 0012 02B0     		add	sp, sp, #8
 992              		@ sp needed
 993 0014 80BD     		pop	{r7, pc}
 994              	.L68:
 995 0016 C046     		.align	2
 996              	.L67:
 997 0018 00000000 		.word	Comm_protectBuf2
 998              		.cfi_endproc
 999              	.LFE11:
 1000              		.size	Comm_EzI2CSetReadBoundaryBuffer2, .-Comm_EzI2CSetReadBoundaryBuffer2
 1001              		.section	.text.Comm_EzI2CSaveConfig,"ax",%progbits
 1002              		.align	2
 1003              		.global	Comm_EzI2CSaveConfig
 1004              		.code	16
 1005              		.thumb_func
 1006              		.type	Comm_EzI2CSaveConfig, %function
 1007              	Comm_EzI2CSaveConfig:
 1008              	.LFB12:
 621:.\Generated_Source\PSoC4/Comm_EZI2C.c **** 
 622:.\Generated_Source\PSoC4/Comm_EZI2C.c **** #endif /* (Comm_SECONDARY_ADDRESS_ENABLE_CONST) */
 623:.\Generated_Source\PSoC4/Comm_EZI2C.c **** 
 624:.\Generated_Source\PSoC4/Comm_EZI2C.c **** 
 625:.\Generated_Source\PSoC4/Comm_EZI2C.c **** #if(Comm_EZI2C_WAKE_ENABLE_CONST)
 626:.\Generated_Source\PSoC4/Comm_EZI2C.c ****     /*******************************************************************************
 627:.\Generated_Source\PSoC4/Comm_EZI2C.c ****     * Function Name: Comm_EzI2CSaveConfig
 628:.\Generated_Source\PSoC4/Comm_EZI2C.c ****     ********************************************************************************
 629:.\Generated_Source\PSoC4/Comm_EZI2C.c ****     *
 630:.\Generated_Source\PSoC4/Comm_EZI2C.c ****     * Summary:
 631:.\Generated_Source\PSoC4/Comm_EZI2C.c ****     *  Clock stretching is  enabled: Enables INTR_I2C_EC.WAKE_UP interrupt source.
 632:.\Generated_Source\PSoC4/Comm_EZI2C.c ****     *  It triggers on the slave address match.
 633:.\Generated_Source\PSoC4/Comm_EZI2C.c ****     *  Clock stretching is disabled: Waits until the I2C slave becomes free and
 634:.\Generated_Source\PSoC4/Comm_EZI2C.c ****     *  disables the block to perform reconfiguration from the active mode operation
 635:.\Generated_Source\PSoC4/Comm_EZI2C.c ****     *  to deep sleep with wake up on the address match: enables INTR_I2C_EC.WAKE_UP
 636:.\Generated_Source\PSoC4/Comm_EZI2C.c ****     *  interrupt source and disables the INTR_S and INTR_TX interrupt sources.
 637:.\Generated_Source\PSoC4/Comm_EZI2C.c ****     *  The block is disabled before reconfiguration and enabled when
ARM GAS  C:\Users\TECHCO~1\AppData\Local\Temp\ccgevLFY.s 			page 30


 638:.\Generated_Source\PSoC4/Comm_EZI2C.c ****     *  it is completed.
 639:.\Generated_Source\PSoC4/Comm_EZI2C.c ****     *
 640:.\Generated_Source\PSoC4/Comm_EZI2C.c ****     * Parameters:
 641:.\Generated_Source\PSoC4/Comm_EZI2C.c ****     *  None
 642:.\Generated_Source\PSoC4/Comm_EZI2C.c ****     *
 643:.\Generated_Source\PSoC4/Comm_EZI2C.c ****     * Return:
 644:.\Generated_Source\PSoC4/Comm_EZI2C.c ****     *  None
 645:.\Generated_Source\PSoC4/Comm_EZI2C.c ****     *
 646:.\Generated_Source\PSoC4/Comm_EZI2C.c ****     *******************************************************************************/
 647:.\Generated_Source\PSoC4/Comm_EZI2C.c ****     void Comm_EzI2CSaveConfig(void)
 648:.\Generated_Source\PSoC4/Comm_EZI2C.c ****     {
 1009              		.loc 1 648 0
 1010              		.cfi_startproc
 1011 0000 80B5     		push	{r7, lr}
 1012              		.cfi_def_cfa_offset 8
 1013              		.cfi_offset 7, -8
 1014              		.cfi_offset 14, -4
 1015 0002 00AF     		add	r7, sp, #0
 1016              		.cfi_def_cfa_register 7
 649:.\Generated_Source\PSoC4/Comm_EZI2C.c ****     #if(Comm_CY_SCBIP_V0)
 650:.\Generated_Source\PSoC4/Comm_EZI2C.c **** 
 651:.\Generated_Source\PSoC4/Comm_EZI2C.c ****         if(Comm_EZI2C_SCL_STRETCH_ENABLE)
 1017              		.loc 1 651 0
 1018 0004 044B     		ldr	r3, .L71
 1019 0006 1B68     		ldr	r3, [r3]
 1020 0008 4022     		mov	r2, #64
 1021 000a 1340     		and	r3, r2
 1022 000c 02D0     		beq	.L69
 652:.\Generated_Source\PSoC4/Comm_EZI2C.c ****         {
 653:.\Generated_Source\PSoC4/Comm_EZI2C.c ****             /* Enable wakeup interrupt source on address match */
 654:.\Generated_Source\PSoC4/Comm_EZI2C.c ****             Comm_SetI2CExtClkInterruptMode(Comm_INTR_I2C_EC_WAKE_UP);
 1023              		.loc 1 654 0
 1024 000e 034B     		ldr	r3, .L71+4
 1025 0010 0122     		mov	r2, #1
 1026 0012 1A60     		str	r2, [r3]
 1027              	.L69:
 655:.\Generated_Source\PSoC4/Comm_EZI2C.c ****         }
 656:.\Generated_Source\PSoC4/Comm_EZI2C.c ****         
 657:.\Generated_Source\PSoC4/Comm_EZI2C.c **** 
 658:.\Generated_Source\PSoC4/Comm_EZI2C.c ****     #else
 659:.\Generated_Source\PSoC4/Comm_EZI2C.c ****         uint8 enableInt;
 660:.\Generated_Source\PSoC4/Comm_EZI2C.c **** 
 661:.\Generated_Source\PSoC4/Comm_EZI2C.c ****         enableInt = (uint8) Comm_INTR_I2C_EC_WAKE_UP;
 662:.\Generated_Source\PSoC4/Comm_EZI2C.c **** 
 663:.\Generated_Source\PSoC4/Comm_EZI2C.c ****         if(Comm_EZI2C_SCL_STRETCH_ENABLE)
 664:.\Generated_Source\PSoC4/Comm_EZI2C.c ****         {
 665:.\Generated_Source\PSoC4/Comm_EZI2C.c ****         #if (Comm_SCB_CLK_INTERNAL)
 666:.\Generated_Source\PSoC4/Comm_EZI2C.c ****             /* Disable clock to internal address match logic. Ticket ID #187931 */
 667:.\Generated_Source\PSoC4/Comm_EZI2C.c ****             Comm_SCBCLK_Stop();
 668:.\Generated_Source\PSoC4/Comm_EZI2C.c ****         #endif /* (Comm_SCB_CLK_INTERNAL) */
 669:.\Generated_Source\PSoC4/Comm_EZI2C.c **** 
 670:.\Generated_Source\PSoC4/Comm_EZI2C.c ****             /* Enable interrupt source to wakeup device */
 671:.\Generated_Source\PSoC4/Comm_EZI2C.c ****             Comm_SetI2CExtClkInterruptMode(enableInt);
 672:.\Generated_Source\PSoC4/Comm_EZI2C.c ****         }
 673:.\Generated_Source\PSoC4/Comm_EZI2C.c ****         else
 674:.\Generated_Source\PSoC4/Comm_EZI2C.c ****         {
 675:.\Generated_Source\PSoC4/Comm_EZI2C.c ****             for(;;) /* Wait for end of transaction intended to slave */
ARM GAS  C:\Users\TECHCO~1\AppData\Local\Temp\ccgevLFY.s 			page 31


 676:.\Generated_Source\PSoC4/Comm_EZI2C.c ****             {
 677:.\Generated_Source\PSoC4/Comm_EZI2C.c ****                 if(0u == (Comm_GetI2CExtClkInterruptSource() & Comm_INTR_I2C_EC_WAKE_UP))
 678:.\Generated_Source\PSoC4/Comm_EZI2C.c ****                 {
 679:.\Generated_Source\PSoC4/Comm_EZI2C.c ****                     enableInt = CyEnterCriticalSection();
 680:.\Generated_Source\PSoC4/Comm_EZI2C.c **** 
 681:.\Generated_Source\PSoC4/Comm_EZI2C.c ****                     if(0u == (Comm_GetI2CExtClkInterruptSource() & Comm_INTR_I2C_EC_WAKE_UP))
 682:.\Generated_Source\PSoC4/Comm_EZI2C.c ****                     {
 683:.\Generated_Source\PSoC4/Comm_EZI2C.c ****                         /* Attempts to set NACK command before disable block */
 684:.\Generated_Source\PSoC4/Comm_EZI2C.c ****                         Comm_I2C_SLAVE_GENERATE_NACK;
 685:.\Generated_Source\PSoC4/Comm_EZI2C.c **** 
 686:.\Generated_Source\PSoC4/Comm_EZI2C.c ****                         if(0u == (Comm_GetI2CExtClkInterruptSource() & Comm_INTR_I2C_EC_WAKE_UP))
 687:.\Generated_Source\PSoC4/Comm_EZI2C.c ****                         {
 688:.\Generated_Source\PSoC4/Comm_EZI2C.c ****                             /* NACK command was set before. It is safe to disable block */
 689:.\Generated_Source\PSoC4/Comm_EZI2C.c ****                             Comm_CTRL_REG &= (uint32) ~Comm_CTRL_ENABLED;
 690:.\Generated_Source\PSoC4/Comm_EZI2C.c ****                             Comm_DisableInt();
 691:.\Generated_Source\PSoC4/Comm_EZI2C.c **** 
 692:.\Generated_Source\PSoC4/Comm_EZI2C.c ****                             CyExitCriticalSection(enableInt);
 693:.\Generated_Source\PSoC4/Comm_EZI2C.c ****                             break;
 694:.\Generated_Source\PSoC4/Comm_EZI2C.c ****                         }
 695:.\Generated_Source\PSoC4/Comm_EZI2C.c ****                         else
 696:.\Generated_Source\PSoC4/Comm_EZI2C.c ****                         {
 697:.\Generated_Source\PSoC4/Comm_EZI2C.c ****                             /* Clear NACK command to prevent data NACK */
 698:.\Generated_Source\PSoC4/Comm_EZI2C.c ****                             Comm_I2C_SLAVE_CLEAR_NACK;
 699:.\Generated_Source\PSoC4/Comm_EZI2C.c ****                         }
 700:.\Generated_Source\PSoC4/Comm_EZI2C.c ****                     }
 701:.\Generated_Source\PSoC4/Comm_EZI2C.c **** 
 702:.\Generated_Source\PSoC4/Comm_EZI2C.c ****                     CyExitCriticalSection(enableInt);
 703:.\Generated_Source\PSoC4/Comm_EZI2C.c ****                 }
 704:.\Generated_Source\PSoC4/Comm_EZI2C.c ****             }
 705:.\Generated_Source\PSoC4/Comm_EZI2C.c **** 
 706:.\Generated_Source\PSoC4/Comm_EZI2C.c ****             /* Disable all active mode interrupt sources */
 707:.\Generated_Source\PSoC4/Comm_EZI2C.c ****             Comm_SetTxInterruptMode(Comm_NO_INTR_SOURCES);
 708:.\Generated_Source\PSoC4/Comm_EZI2C.c ****             Comm_SetSlaveInterruptMode(Comm_NO_INTR_SOURCES);
 709:.\Generated_Source\PSoC4/Comm_EZI2C.c ****             Comm_ClearPendingInt();
 710:.\Generated_Source\PSoC4/Comm_EZI2C.c ****             Comm_EnableInt();
 711:.\Generated_Source\PSoC4/Comm_EZI2C.c **** 
 712:.\Generated_Source\PSoC4/Comm_EZI2C.c ****             /* Enable wakeup interrupt on address match */
 713:.\Generated_Source\PSoC4/Comm_EZI2C.c ****             Comm_SetI2CExtClkInterruptMode(Comm_INTR_I2C_EC_WAKE_UP);
 714:.\Generated_Source\PSoC4/Comm_EZI2C.c **** 
 715:.\Generated_Source\PSoC4/Comm_EZI2C.c ****             enableInt = CyEnterCriticalSection();
 716:.\Generated_Source\PSoC4/Comm_EZI2C.c **** 
 717:.\Generated_Source\PSoC4/Comm_EZI2C.c ****             Comm_CTRL_REG |= (uint32) Comm_CTRL_ENABLED;
 718:.\Generated_Source\PSoC4/Comm_EZI2C.c ****             Comm_I2C_SLAVE_GENERATE_NACK;
 719:.\Generated_Source\PSoC4/Comm_EZI2C.c **** 
 720:.\Generated_Source\PSoC4/Comm_EZI2C.c ****             CyExitCriticalSection(enableInt);
 721:.\Generated_Source\PSoC4/Comm_EZI2C.c ****         }
 722:.\Generated_Source\PSoC4/Comm_EZI2C.c ****         
 723:.\Generated_Source\PSoC4/Comm_EZI2C.c ****     #endif /* (Comm_CY_SCBIP_V0) */
 724:.\Generated_Source\PSoC4/Comm_EZI2C.c ****     }
 1028              		.loc 1 724 0
 1029 0014 BD46     		mov	sp, r7
 1030              		@ sp needed
 1031 0016 80BD     		pop	{r7, pc}
 1032              	.L72:
 1033              		.align	2
 1034              	.L71:
 1035 0018 480F0640 		.word	1074138952
ARM GAS  C:\Users\TECHCO~1\AppData\Local\Temp\ccgevLFY.s 			page 32


 1036 001c 880E0640 		.word	1074138760
 1037              		.cfi_endproc
 1038              	.LFE12:
 1039              		.size	Comm_EzI2CSaveConfig, .-Comm_EzI2CSaveConfig
 1040              		.section	.text.Comm_EzI2CRestoreConfig,"ax",%progbits
 1041              		.align	2
 1042              		.global	Comm_EzI2CRestoreConfig
 1043              		.code	16
 1044              		.thumb_func
 1045              		.type	Comm_EzI2CRestoreConfig, %function
 1046              	Comm_EzI2CRestoreConfig:
 1047              	.LFB13:
 725:.\Generated_Source\PSoC4/Comm_EZI2C.c **** 
 726:.\Generated_Source\PSoC4/Comm_EZI2C.c **** 
 727:.\Generated_Source\PSoC4/Comm_EZI2C.c ****     /*******************************************************************************
 728:.\Generated_Source\PSoC4/Comm_EZI2C.c ****     * Function Name: Comm_EzI2CRestoreConfig
 729:.\Generated_Source\PSoC4/Comm_EZI2C.c ****     ********************************************************************************
 730:.\Generated_Source\PSoC4/Comm_EZI2C.c ****     *
 731:.\Generated_Source\PSoC4/Comm_EZI2C.c ****     * Summary:
 732:.\Generated_Source\PSoC4/Comm_EZI2C.c ****     *  Clock stretching is  enabled: Disables the INTR_I2C_EC.WAKE_UP interrupt
 733:.\Generated_Source\PSoC4/Comm_EZI2C.c ****     *  source.
 734:.\Generated_Source\PSoC4/Comm_EZI2C.c ****     *  Clock stretching is disabled: Reconfigures the EZI2C component from
 735:.\Generated_Source\PSoC4/Comm_EZI2C.c ****     *  Deep Sleep (wake up on the address match) to active operation: disables
 736:.\Generated_Source\PSoC4/Comm_EZI2C.c ****     *  the INTR_I2C_EC.WAKE_UP interrupt source and restores the INTR_S
 737:.\Generated_Source\PSoC4/Comm_EZI2C.c ****     *  interrupt sources to operate in the active mode.
 738:.\Generated_Source\PSoC4/Comm_EZI2C.c ****     *  The block is disabled before reconfiguration and enabled when
 739:.\Generated_Source\PSoC4/Comm_EZI2C.c ****     *  it is completed.
 740:.\Generated_Source\PSoC4/Comm_EZI2C.c ****     *
 741:.\Generated_Source\PSoC4/Comm_EZI2C.c ****     * Parameters:
 742:.\Generated_Source\PSoC4/Comm_EZI2C.c ****     *  None
 743:.\Generated_Source\PSoC4/Comm_EZI2C.c ****     *
 744:.\Generated_Source\PSoC4/Comm_EZI2C.c ****     * Return:
 745:.\Generated_Source\PSoC4/Comm_EZI2C.c ****     *  None
 746:.\Generated_Source\PSoC4/Comm_EZI2C.c ****     *
 747:.\Generated_Source\PSoC4/Comm_EZI2C.c ****     *******************************************************************************/
 748:.\Generated_Source\PSoC4/Comm_EZI2C.c ****     void Comm_EzI2CRestoreConfig(void)
 749:.\Generated_Source\PSoC4/Comm_EZI2C.c ****     {
 1048              		.loc 1 749 0
 1049              		.cfi_startproc
 1050 0000 80B5     		push	{r7, lr}
 1051              		.cfi_def_cfa_offset 8
 1052              		.cfi_offset 7, -8
 1053              		.cfi_offset 14, -4
 1054 0002 00AF     		add	r7, sp, #0
 1055              		.cfi_def_cfa_register 7
 750:.\Generated_Source\PSoC4/Comm_EZI2C.c ****     #if(Comm_CY_SCBIP_V0)
 751:.\Generated_Source\PSoC4/Comm_EZI2C.c **** 
 752:.\Generated_Source\PSoC4/Comm_EZI2C.c ****         if(Comm_EZI2C_SCL_STRETCH_ENABLE)
 1056              		.loc 1 752 0
 1057 0004 044B     		ldr	r3, .L75
 1058 0006 1B68     		ldr	r3, [r3]
 1059 0008 4022     		mov	r2, #64
 1060 000a 1340     		and	r3, r2
 1061 000c 02D0     		beq	.L73
 753:.\Generated_Source\PSoC4/Comm_EZI2C.c ****         {
 754:.\Generated_Source\PSoC4/Comm_EZI2C.c ****             /* Disable wakeup interrupt on address match */
 755:.\Generated_Source\PSoC4/Comm_EZI2C.c ****             Comm_SetI2CExtClkInterruptMode(Comm_NO_INTR_SOURCES);
ARM GAS  C:\Users\TECHCO~1\AppData\Local\Temp\ccgevLFY.s 			page 33


 1062              		.loc 1 755 0
 1063 000e 034B     		ldr	r3, .L75+4
 1064 0010 0022     		mov	r2, #0
 1065 0012 1A60     		str	r2, [r3]
 1066              	.L73:
 756:.\Generated_Source\PSoC4/Comm_EZI2C.c ****         }
 757:.\Generated_Source\PSoC4/Comm_EZI2C.c ****         
 758:.\Generated_Source\PSoC4/Comm_EZI2C.c **** 
 759:.\Generated_Source\PSoC4/Comm_EZI2C.c ****     #else
 760:.\Generated_Source\PSoC4/Comm_EZI2C.c **** 
 761:.\Generated_Source\PSoC4/Comm_EZI2C.c ****         if(Comm_EZI2C_SCL_STRETCH_ENABLE)
 762:.\Generated_Source\PSoC4/Comm_EZI2C.c ****         {
 763:.\Generated_Source\PSoC4/Comm_EZI2C.c ****             /* Disable wakeup interrupt source on address match */
 764:.\Generated_Source\PSoC4/Comm_EZI2C.c ****             Comm_SetI2CExtClkInterruptMode(Comm_NO_INTR_SOURCES);
 765:.\Generated_Source\PSoC4/Comm_EZI2C.c **** 
 766:.\Generated_Source\PSoC4/Comm_EZI2C.c ****         #if (Comm_SCB_CLK_INTERNAL)
 767:.\Generated_Source\PSoC4/Comm_EZI2C.c ****             /* Enable clock to internal address match logic. Ticket ID #187931 */
 768:.\Generated_Source\PSoC4/Comm_EZI2C.c ****             Comm_SCBCLK_Start();
 769:.\Generated_Source\PSoC4/Comm_EZI2C.c ****         #endif /* (Comm_SCB_CLK_INTERNAL) */
 770:.\Generated_Source\PSoC4/Comm_EZI2C.c ****         }
 771:.\Generated_Source\PSoC4/Comm_EZI2C.c ****         else
 772:.\Generated_Source\PSoC4/Comm_EZI2C.c ****         {
 773:.\Generated_Source\PSoC4/Comm_EZI2C.c ****             /* NACK will be driven on the bus by wakeup or NACK command.
 774:.\Generated_Source\PSoC4/Comm_EZI2C.c ****             * It is safe to disable block to restore active mode configuration.
 775:.\Generated_Source\PSoC4/Comm_EZI2C.c ****             */
 776:.\Generated_Source\PSoC4/Comm_EZI2C.c ****             Comm_CTRL_REG &= (uint32) ~Comm_CTRL_ENABLED;
 777:.\Generated_Source\PSoC4/Comm_EZI2C.c **** 
 778:.\Generated_Source\PSoC4/Comm_EZI2C.c ****             /* Restore active mode interrupt sources */
 779:.\Generated_Source\PSoC4/Comm_EZI2C.c ****             Comm_SetI2CExtClkInterruptMode(Comm_NO_INTR_SOURCES);
 780:.\Generated_Source\PSoC4/Comm_EZI2C.c ****             Comm_SetSlaveInterruptMode(Comm_EZI2C_INTR_SLAVE_MASK |
 781:.\Generated_Source\PSoC4/Comm_EZI2C.c ****                                                    Comm_INTR_SLAVE_I2C_START);
 782:.\Generated_Source\PSoC4/Comm_EZI2C.c ****             Comm_ClearPendingInt();
 783:.\Generated_Source\PSoC4/Comm_EZI2C.c **** 
 784:.\Generated_Source\PSoC4/Comm_EZI2C.c ****             Comm_CTRL_REG |= (uint32) Comm_CTRL_ENABLED;
 785:.\Generated_Source\PSoC4/Comm_EZI2C.c ****         }
 786:.\Generated_Source\PSoC4/Comm_EZI2C.c ****         
 787:.\Generated_Source\PSoC4/Comm_EZI2C.c **** 
 788:.\Generated_Source\PSoC4/Comm_EZI2C.c ****     #endif /* (Comm_CY_SCBIP_V0) */
 789:.\Generated_Source\PSoC4/Comm_EZI2C.c ****     }
 1067              		.loc 1 789 0
 1068 0014 BD46     		mov	sp, r7
 1069              		@ sp needed
 1070 0016 80BD     		pop	{r7, pc}
 1071              	.L76:
 1072              		.align	2
 1073              	.L75:
 1074 0018 480F0640 		.word	1074138952
 1075 001c 880E0640 		.word	1074138760
 1076              		.cfi_endproc
 1077              	.LFE13:
 1078              		.size	Comm_EzI2CRestoreConfig, .-Comm_EzI2CRestoreConfig
 1079              		.text
 1080              	.Letext0:
 1081              		.file 2 "Generated_Source\\PSoC4/cytypes.h"
 1082              		.file 3 ".\\Generated_Source\\PSoC4\\Comm_EZI2C.h"
 1083              		.file 4 ".\\Generated_Source\\PSoC4\\Comm_PVT.h"