ARM GAS  C:\Users\TECHCO~1\AppData\Local\Temp\cc2DaD6G.s 			page 1


   1              		.cpu cortex-m0
   2              		.fpu softvfp
   3              		.eabi_attribute 20, 1
   4              		.eabi_attribute 21, 1
   5              		.eabi_attribute 23, 3
   6              		.eabi_attribute 24, 1
   7              		.eabi_attribute 25, 1
   8              		.eabi_attribute 26, 1
   9              		.eabi_attribute 30, 6
  10              		.eabi_attribute 34, 0
  11              		.eabi_attribute 18, 4
  12              		.code	16
  13              		.file	"Comm.c"
  14              		.text
  15              	.Ltext0:
  16              		.cfi_sections	.debug_frame
  17              		.global	Comm_scbMode
  18              		.data
  19              		.type	Comm_scbMode, %object
  20              		.size	Comm_scbMode, 1
  21              	Comm_scbMode:
  22 0000 FF       		.byte	-1
  23              		.comm	Comm_scbEnableWake,1,1
  24              		.comm	Comm_scbEnableIntr,1,1
  25              		.comm	Comm_mode,1,1
  26              		.comm	Comm_acceptAddr,1,1
  27              		.comm	Comm_rxBuffer,4,4
  28              		.comm	Comm_rxDataBits,1,1
  29              		.comm	Comm_rxBufferSize,4,4
  30              		.comm	Comm_txBuffer,4,4
  31              		.comm	Comm_txDataBits,1,1
  32              		.comm	Comm_txBufferSize,4,4
  33              		.comm	Comm_numberOfAddr,1,1
  34              		.comm	Comm_subAddrSize,1,1
  35              		.global	Comm_initVar
  36              		.bss
  37              		.type	Comm_initVar, %object
  38              		.size	Comm_initVar, 1
  39              	Comm_initVar:
  40 0000 00       		.space	1
  41              		.global	Comm_customIntrHandler
  42 0001 000000   		.align	2
  43              		.type	Comm_customIntrHandler, %object
  44              		.size	Comm_customIntrHandler, 4
  45              	Comm_customIntrHandler:
  46 0004 00000000 		.space	4
  47              		.section	.text.Comm_Init,"ax",%progbits
  48              		.align	2
  49              		.global	Comm_Init
  50              		.code	16
  51              		.thumb_func
  52              		.type	Comm_Init, %function
  53              	Comm_Init:
  54              	.LFB0:
  55              		.file 1 ".\\Generated_Source\\PSoC4\\Comm.c"
   1:.\Generated_Source\PSoC4/Comm.c **** /*******************************************************************************
   2:.\Generated_Source\PSoC4/Comm.c **** * File Name: Comm.c
ARM GAS  C:\Users\TECHCO~1\AppData\Local\Temp\cc2DaD6G.s 			page 2


   3:.\Generated_Source\PSoC4/Comm.c **** * Version 3.10
   4:.\Generated_Source\PSoC4/Comm.c **** *
   5:.\Generated_Source\PSoC4/Comm.c **** * Description:
   6:.\Generated_Source\PSoC4/Comm.c **** *  This file provides the source code to the API for the SCB Component.
   7:.\Generated_Source\PSoC4/Comm.c **** *
   8:.\Generated_Source\PSoC4/Comm.c **** * Note:
   9:.\Generated_Source\PSoC4/Comm.c **** *
  10:.\Generated_Source\PSoC4/Comm.c **** *******************************************************************************
  11:.\Generated_Source\PSoC4/Comm.c **** * Copyright 2013-2015, Cypress Semiconductor Corporation.  All rights reserved.
  12:.\Generated_Source\PSoC4/Comm.c **** * You may use this file only in accordance with the license, terms, conditions,
  13:.\Generated_Source\PSoC4/Comm.c **** * disclaimers, and limitations in the end user license agreement accompanying
  14:.\Generated_Source\PSoC4/Comm.c **** * the software package with which this file was provided.
  15:.\Generated_Source\PSoC4/Comm.c **** *******************************************************************************/
  16:.\Generated_Source\PSoC4/Comm.c **** 
  17:.\Generated_Source\PSoC4/Comm.c **** #include "Comm_PVT.h"
  18:.\Generated_Source\PSoC4/Comm.c **** 
  19:.\Generated_Source\PSoC4/Comm.c **** #if (Comm_SCB_MODE_I2C_INC)
  20:.\Generated_Source\PSoC4/Comm.c ****     #include "Comm_I2C_PVT.h"
  21:.\Generated_Source\PSoC4/Comm.c **** #endif /* (Comm_SCB_MODE_I2C_INC) */
  22:.\Generated_Source\PSoC4/Comm.c **** 
  23:.\Generated_Source\PSoC4/Comm.c **** #if (Comm_SCB_MODE_EZI2C_INC)
  24:.\Generated_Source\PSoC4/Comm.c ****     #include "Comm_EZI2C_PVT.h"
  25:.\Generated_Source\PSoC4/Comm.c **** #endif /* (Comm_SCB_MODE_EZI2C_INC) */
  26:.\Generated_Source\PSoC4/Comm.c **** 
  27:.\Generated_Source\PSoC4/Comm.c **** #if (Comm_SCB_MODE_SPI_INC || Comm_SCB_MODE_UART_INC)
  28:.\Generated_Source\PSoC4/Comm.c ****     #include "Comm_SPI_UART_PVT.h"
  29:.\Generated_Source\PSoC4/Comm.c **** #endif /* (Comm_SCB_MODE_SPI_INC || Comm_SCB_MODE_UART_INC) */
  30:.\Generated_Source\PSoC4/Comm.c **** 
  31:.\Generated_Source\PSoC4/Comm.c **** 
  32:.\Generated_Source\PSoC4/Comm.c **** /***************************************
  33:.\Generated_Source\PSoC4/Comm.c **** *    Run Time Configuration Vars
  34:.\Generated_Source\PSoC4/Comm.c **** ***************************************/
  35:.\Generated_Source\PSoC4/Comm.c **** 
  36:.\Generated_Source\PSoC4/Comm.c **** /* Stores internal component configuration for Unconfigured mode */
  37:.\Generated_Source\PSoC4/Comm.c **** #if (Comm_SCB_MODE_UNCONFIG_CONST_CFG)
  38:.\Generated_Source\PSoC4/Comm.c ****     /* Common configuration variables */
  39:.\Generated_Source\PSoC4/Comm.c ****     uint8 Comm_scbMode = Comm_SCB_MODE_UNCONFIG;
  40:.\Generated_Source\PSoC4/Comm.c ****     uint8 Comm_scbEnableWake;
  41:.\Generated_Source\PSoC4/Comm.c ****     uint8 Comm_scbEnableIntr;
  42:.\Generated_Source\PSoC4/Comm.c **** 
  43:.\Generated_Source\PSoC4/Comm.c ****     /* I2C configuration variables */
  44:.\Generated_Source\PSoC4/Comm.c ****     uint8 Comm_mode;
  45:.\Generated_Source\PSoC4/Comm.c ****     uint8 Comm_acceptAddr;
  46:.\Generated_Source\PSoC4/Comm.c **** 
  47:.\Generated_Source\PSoC4/Comm.c ****     /* SPI/UART configuration variables */
  48:.\Generated_Source\PSoC4/Comm.c ****     volatile uint8 * Comm_rxBuffer;
  49:.\Generated_Source\PSoC4/Comm.c ****     uint8  Comm_rxDataBits;
  50:.\Generated_Source\PSoC4/Comm.c ****     uint32 Comm_rxBufferSize;
  51:.\Generated_Source\PSoC4/Comm.c **** 
  52:.\Generated_Source\PSoC4/Comm.c ****     volatile uint8 * Comm_txBuffer;
  53:.\Generated_Source\PSoC4/Comm.c ****     uint8  Comm_txDataBits;
  54:.\Generated_Source\PSoC4/Comm.c ****     uint32 Comm_txBufferSize;
  55:.\Generated_Source\PSoC4/Comm.c **** 
  56:.\Generated_Source\PSoC4/Comm.c ****     /* EZI2C configuration variables */
  57:.\Generated_Source\PSoC4/Comm.c ****     uint8 Comm_numberOfAddr;
  58:.\Generated_Source\PSoC4/Comm.c ****     uint8 Comm_subAddrSize;
  59:.\Generated_Source\PSoC4/Comm.c **** #endif /* (Comm_SCB_MODE_UNCONFIG_CONST_CFG) */
ARM GAS  C:\Users\TECHCO~1\AppData\Local\Temp\cc2DaD6G.s 			page 3


  60:.\Generated_Source\PSoC4/Comm.c **** 
  61:.\Generated_Source\PSoC4/Comm.c **** 
  62:.\Generated_Source\PSoC4/Comm.c **** /***************************************
  63:.\Generated_Source\PSoC4/Comm.c **** *     Common SCB Vars
  64:.\Generated_Source\PSoC4/Comm.c **** ***************************************/
  65:.\Generated_Source\PSoC4/Comm.c **** 
  66:.\Generated_Source\PSoC4/Comm.c **** uint8 Comm_initVar = 0u;
  67:.\Generated_Source\PSoC4/Comm.c **** 
  68:.\Generated_Source\PSoC4/Comm.c **** #if (Comm_SCB_IRQ_INTERNAL)
  69:.\Generated_Source\PSoC4/Comm.c **** #if !defined (CY_REMOVE_Comm_CUSTOM_INTR_HANDLER)
  70:.\Generated_Source\PSoC4/Comm.c ****     void (*Comm_customIntrHandler)(void) = NULL;
  71:.\Generated_Source\PSoC4/Comm.c **** #endif /* !defined (CY_REMOVE_Comm_CUSTOM_INTR_HANDLER) */
  72:.\Generated_Source\PSoC4/Comm.c **** #endif /* (Comm_SCB_IRQ_INTERNAL) */
  73:.\Generated_Source\PSoC4/Comm.c **** 
  74:.\Generated_Source\PSoC4/Comm.c **** 
  75:.\Generated_Source\PSoC4/Comm.c **** /***************************************
  76:.\Generated_Source\PSoC4/Comm.c **** *    Private Function Prototypes
  77:.\Generated_Source\PSoC4/Comm.c **** ***************************************/
  78:.\Generated_Source\PSoC4/Comm.c **** 
  79:.\Generated_Source\PSoC4/Comm.c **** static void Comm_ScbEnableIntr(void);
  80:.\Generated_Source\PSoC4/Comm.c **** static void Comm_ScbModeStop(void);
  81:.\Generated_Source\PSoC4/Comm.c **** static void Comm_ScbModePostEnable(void);
  82:.\Generated_Source\PSoC4/Comm.c **** 
  83:.\Generated_Source\PSoC4/Comm.c **** 
  84:.\Generated_Source\PSoC4/Comm.c **** /*******************************************************************************
  85:.\Generated_Source\PSoC4/Comm.c **** * Function Name: Comm_Init
  86:.\Generated_Source\PSoC4/Comm.c **** ********************************************************************************
  87:.\Generated_Source\PSoC4/Comm.c **** *
  88:.\Generated_Source\PSoC4/Comm.c **** * Summary:
  89:.\Generated_Source\PSoC4/Comm.c **** *  Initializes the SCB component to operate in one of the selected
  90:.\Generated_Source\PSoC4/Comm.c **** *  configurations: I2C, SPI, UART or EZI2C.
  91:.\Generated_Source\PSoC4/Comm.c **** *  When the configuration is set to "Unconfigured SCB", this function does
  92:.\Generated_Source\PSoC4/Comm.c **** *  not do any initialization. Use mode-specific initialization APIs instead:
  93:.\Generated_Source\PSoC4/Comm.c **** *  SCB_I2CInit, SCB_SpiInit, SCB_UartInit or SCB_EzI2CInit.
  94:.\Generated_Source\PSoC4/Comm.c **** *
  95:.\Generated_Source\PSoC4/Comm.c **** * Parameters:
  96:.\Generated_Source\PSoC4/Comm.c **** *  None
  97:.\Generated_Source\PSoC4/Comm.c **** *
  98:.\Generated_Source\PSoC4/Comm.c **** * Return:
  99:.\Generated_Source\PSoC4/Comm.c **** *  None
 100:.\Generated_Source\PSoC4/Comm.c **** *
 101:.\Generated_Source\PSoC4/Comm.c **** *******************************************************************************/
 102:.\Generated_Source\PSoC4/Comm.c **** void Comm_Init(void)
 103:.\Generated_Source\PSoC4/Comm.c **** {
  56              		.loc 1 103 0
  57              		.cfi_startproc
  58 0000 80B5     		push	{r7, lr}
  59              		.cfi_def_cfa_offset 8
  60              		.cfi_offset 7, -8
  61              		.cfi_offset 14, -4
  62 0002 00AF     		add	r7, sp, #0
  63              		.cfi_def_cfa_register 7
 104:.\Generated_Source\PSoC4/Comm.c **** #if (Comm_SCB_MODE_UNCONFIG_CONST_CFG)
 105:.\Generated_Source\PSoC4/Comm.c ****     if (Comm_SCB_MODE_UNCONFIG_RUNTM_CFG)
  64              		.loc 1 105 0
  65 0004 044B     		ldr	r3, .L3
  66 0006 1B78     		ldrb	r3, [r3]
ARM GAS  C:\Users\TECHCO~1\AppData\Local\Temp\cc2DaD6G.s 			page 4


  67 0008 FF2B     		cmp	r3, #255
  68 000a 02D1     		bne	.L1
 106:.\Generated_Source\PSoC4/Comm.c ****     {
 107:.\Generated_Source\PSoC4/Comm.c ****         Comm_initVar = 0u;
  69              		.loc 1 107 0
  70 000c 034B     		ldr	r3, .L3+4
  71 000e 0022     		mov	r2, #0
  72 0010 1A70     		strb	r2, [r3]
  73              	.L1:
 108:.\Generated_Source\PSoC4/Comm.c ****     }
 109:.\Generated_Source\PSoC4/Comm.c ****     else
 110:.\Generated_Source\PSoC4/Comm.c ****     {
 111:.\Generated_Source\PSoC4/Comm.c ****         /* Initialization was done before this function call */
 112:.\Generated_Source\PSoC4/Comm.c ****     }
 113:.\Generated_Source\PSoC4/Comm.c **** 
 114:.\Generated_Source\PSoC4/Comm.c **** #elif (Comm_SCB_MODE_I2C_CONST_CFG)
 115:.\Generated_Source\PSoC4/Comm.c ****     Comm_I2CInit();
 116:.\Generated_Source\PSoC4/Comm.c **** 
 117:.\Generated_Source\PSoC4/Comm.c **** #elif (Comm_SCB_MODE_SPI_CONST_CFG)
 118:.\Generated_Source\PSoC4/Comm.c ****     Comm_SpiInit();
 119:.\Generated_Source\PSoC4/Comm.c **** 
 120:.\Generated_Source\PSoC4/Comm.c **** #elif (Comm_SCB_MODE_UART_CONST_CFG)
 121:.\Generated_Source\PSoC4/Comm.c ****     Comm_UartInit();
 122:.\Generated_Source\PSoC4/Comm.c **** 
 123:.\Generated_Source\PSoC4/Comm.c **** #elif (Comm_SCB_MODE_EZI2C_CONST_CFG)
 124:.\Generated_Source\PSoC4/Comm.c ****     Comm_EzI2CInit();
 125:.\Generated_Source\PSoC4/Comm.c **** 
 126:.\Generated_Source\PSoC4/Comm.c **** #endif /* (Comm_SCB_MODE_UNCONFIG_CONST_CFG) */
 127:.\Generated_Source\PSoC4/Comm.c **** }
  74              		.loc 1 127 0
  75 0012 BD46     		mov	sp, r7
  76              		@ sp needed
  77 0014 80BD     		pop	{r7, pc}
  78              	.L4:
  79 0016 C046     		.align	2
  80              	.L3:
  81 0018 00000000 		.word	Comm_scbMode
  82 001c 00000000 		.word	Comm_initVar
  83              		.cfi_endproc
  84              	.LFE0:
  85              		.size	Comm_Init, .-Comm_Init
  86              		.section	.text.Comm_Enable,"ax",%progbits
  87              		.align	2
  88              		.global	Comm_Enable
  89              		.code	16
  90              		.thumb_func
  91              		.type	Comm_Enable, %function
  92              	Comm_Enable:
  93              	.LFB1:
 128:.\Generated_Source\PSoC4/Comm.c **** 
 129:.\Generated_Source\PSoC4/Comm.c **** 
 130:.\Generated_Source\PSoC4/Comm.c **** /*******************************************************************************
 131:.\Generated_Source\PSoC4/Comm.c **** * Function Name: Comm_Enable
 132:.\Generated_Source\PSoC4/Comm.c **** ********************************************************************************
 133:.\Generated_Source\PSoC4/Comm.c **** *
 134:.\Generated_Source\PSoC4/Comm.c **** * Summary:
 135:.\Generated_Source\PSoC4/Comm.c **** *  Enables the SCB component operation.
ARM GAS  C:\Users\TECHCO~1\AppData\Local\Temp\cc2DaD6G.s 			page 5


 136:.\Generated_Source\PSoC4/Comm.c **** *  The SCB configuration should be not changed when the component is enabled.
 137:.\Generated_Source\PSoC4/Comm.c **** *  Any configuration changes should be made after disabling the component.
 138:.\Generated_Source\PSoC4/Comm.c **** *
 139:.\Generated_Source\PSoC4/Comm.c **** * Parameters:
 140:.\Generated_Source\PSoC4/Comm.c **** *  None
 141:.\Generated_Source\PSoC4/Comm.c **** *
 142:.\Generated_Source\PSoC4/Comm.c **** * Return:
 143:.\Generated_Source\PSoC4/Comm.c **** *  None
 144:.\Generated_Source\PSoC4/Comm.c **** *
 145:.\Generated_Source\PSoC4/Comm.c **** *******************************************************************************/
 146:.\Generated_Source\PSoC4/Comm.c **** void Comm_Enable(void)
 147:.\Generated_Source\PSoC4/Comm.c **** {
  94              		.loc 1 147 0
  95              		.cfi_startproc
  96 0000 80B5     		push	{r7, lr}
  97              		.cfi_def_cfa_offset 8
  98              		.cfi_offset 7, -8
  99              		.cfi_offset 14, -4
 100 0002 00AF     		add	r7, sp, #0
 101              		.cfi_def_cfa_register 7
 148:.\Generated_Source\PSoC4/Comm.c **** #if (Comm_SCB_MODE_UNCONFIG_CONST_CFG)
 149:.\Generated_Source\PSoC4/Comm.c ****     /* Enable SCB block, only if it is already configured */
 150:.\Generated_Source\PSoC4/Comm.c ****     if (!Comm_SCB_MODE_UNCONFIG_RUNTM_CFG)
 102              		.loc 1 150 0
 103 0004 084B     		ldr	r3, .L7
 104 0006 1B78     		ldrb	r3, [r3]
 105 0008 FF2B     		cmp	r3, #255
 106 000a 0AD0     		beq	.L5
 151:.\Generated_Source\PSoC4/Comm.c ****     {
 152:.\Generated_Source\PSoC4/Comm.c ****         Comm_CTRL_REG |= Comm_CTRL_ENABLED;
 107              		.loc 1 152 0
 108 000c 074B     		ldr	r3, .L7+4
 109 000e 074A     		ldr	r2, .L7+4
 110 0010 1268     		ldr	r2, [r2]
 111 0012 8021     		mov	r1, #128
 112 0014 0906     		lsl	r1, r1, #24
 113 0016 0A43     		orr	r2, r1
 114 0018 1A60     		str	r2, [r3]
 153:.\Generated_Source\PSoC4/Comm.c **** 
 154:.\Generated_Source\PSoC4/Comm.c ****         Comm_ScbEnableIntr();
 115              		.loc 1 154 0
 116 001a FFF7FEFF 		bl	Comm_ScbEnableIntr
 155:.\Generated_Source\PSoC4/Comm.c **** 
 156:.\Generated_Source\PSoC4/Comm.c ****         /* Call PostEnable function specific to current operation mode */
 157:.\Generated_Source\PSoC4/Comm.c ****         Comm_ScbModePostEnable();
 117              		.loc 1 157 0
 118 001e FFF7FEFF 		bl	Comm_ScbModePostEnable
 119              	.L5:
 158:.\Generated_Source\PSoC4/Comm.c ****     }
 159:.\Generated_Source\PSoC4/Comm.c **** #else
 160:.\Generated_Source\PSoC4/Comm.c ****     Comm_CTRL_REG |= Comm_CTRL_ENABLED;
 161:.\Generated_Source\PSoC4/Comm.c **** 
 162:.\Generated_Source\PSoC4/Comm.c ****     Comm_ScbEnableIntr();
 163:.\Generated_Source\PSoC4/Comm.c **** 
 164:.\Generated_Source\PSoC4/Comm.c ****     /* Call PostEnable function specific to current operation mode */
 165:.\Generated_Source\PSoC4/Comm.c ****     Comm_ScbModePostEnable();
 166:.\Generated_Source\PSoC4/Comm.c **** #endif /* (Comm_SCB_MODE_UNCONFIG_CONST_CFG) */
ARM GAS  C:\Users\TECHCO~1\AppData\Local\Temp\cc2DaD6G.s 			page 6


 167:.\Generated_Source\PSoC4/Comm.c **** }
 120              		.loc 1 167 0
 121 0022 BD46     		mov	sp, r7
 122              		@ sp needed
 123 0024 80BD     		pop	{r7, pc}
 124              	.L8:
 125 0026 C046     		.align	2
 126              	.L7:
 127 0028 00000000 		.word	Comm_scbMode
 128 002c 00000640 		.word	1074135040
 129              		.cfi_endproc
 130              	.LFE1:
 131              		.size	Comm_Enable, .-Comm_Enable
 132              		.section	.text.Comm_Start,"ax",%progbits
 133              		.align	2
 134              		.global	Comm_Start
 135              		.code	16
 136              		.thumb_func
 137              		.type	Comm_Start, %function
 138              	Comm_Start:
 139              	.LFB2:
 168:.\Generated_Source\PSoC4/Comm.c **** 
 169:.\Generated_Source\PSoC4/Comm.c **** 
 170:.\Generated_Source\PSoC4/Comm.c **** /*******************************************************************************
 171:.\Generated_Source\PSoC4/Comm.c **** * Function Name: Comm_Start
 172:.\Generated_Source\PSoC4/Comm.c **** ********************************************************************************
 173:.\Generated_Source\PSoC4/Comm.c **** *
 174:.\Generated_Source\PSoC4/Comm.c **** * Summary:
 175:.\Generated_Source\PSoC4/Comm.c **** *  Invokes SCB_Init() and SCB_Enable().
 176:.\Generated_Source\PSoC4/Comm.c **** *  After this function call, the component is enabled and ready for operation.
 177:.\Generated_Source\PSoC4/Comm.c **** *  When configuration is set to "Unconfigured SCB", the component must first be
 178:.\Generated_Source\PSoC4/Comm.c **** *  initialized to operate in one of the following configurations: I2C, SPI, UART
 179:.\Generated_Source\PSoC4/Comm.c **** *  or EZ I2C. Otherwise this function does not enable the component.
 180:.\Generated_Source\PSoC4/Comm.c **** *
 181:.\Generated_Source\PSoC4/Comm.c **** * Parameters:
 182:.\Generated_Source\PSoC4/Comm.c **** *  None
 183:.\Generated_Source\PSoC4/Comm.c **** *
 184:.\Generated_Source\PSoC4/Comm.c **** * Return:
 185:.\Generated_Source\PSoC4/Comm.c **** *  None
 186:.\Generated_Source\PSoC4/Comm.c **** *
 187:.\Generated_Source\PSoC4/Comm.c **** * Global variables:
 188:.\Generated_Source\PSoC4/Comm.c **** *  Comm_initVar - used to check initial configuration, modified
 189:.\Generated_Source\PSoC4/Comm.c **** *  on first function call.
 190:.\Generated_Source\PSoC4/Comm.c **** *
 191:.\Generated_Source\PSoC4/Comm.c **** *******************************************************************************/
 192:.\Generated_Source\PSoC4/Comm.c **** void Comm_Start(void)
 193:.\Generated_Source\PSoC4/Comm.c **** {
 140              		.loc 1 193 0
 141              		.cfi_startproc
 142 0000 80B5     		push	{r7, lr}
 143              		.cfi_def_cfa_offset 8
 144              		.cfi_offset 7, -8
 145              		.cfi_offset 14, -4
 146 0002 00AF     		add	r7, sp, #0
 147              		.cfi_def_cfa_register 7
 194:.\Generated_Source\PSoC4/Comm.c ****     if (0u == Comm_initVar)
 148              		.loc 1 194 0
ARM GAS  C:\Users\TECHCO~1\AppData\Local\Temp\cc2DaD6G.s 			page 7


 149 0004 064B     		ldr	r3, .L11
 150 0006 1B78     		ldrb	r3, [r3]
 151 0008 002B     		cmp	r3, #0
 152 000a 04D1     		bne	.L10
 195:.\Generated_Source\PSoC4/Comm.c ****     {
 196:.\Generated_Source\PSoC4/Comm.c ****         Comm_Init();
 153              		.loc 1 196 0
 154 000c FFF7FEFF 		bl	Comm_Init
 197:.\Generated_Source\PSoC4/Comm.c ****         Comm_initVar = 1u; /* Component was initialized */
 155              		.loc 1 197 0
 156 0010 034B     		ldr	r3, .L11
 157 0012 0122     		mov	r2, #1
 158 0014 1A70     		strb	r2, [r3]
 159              	.L10:
 198:.\Generated_Source\PSoC4/Comm.c ****     }
 199:.\Generated_Source\PSoC4/Comm.c **** 
 200:.\Generated_Source\PSoC4/Comm.c ****     Comm_Enable();
 160              		.loc 1 200 0
 161 0016 FFF7FEFF 		bl	Comm_Enable
 201:.\Generated_Source\PSoC4/Comm.c **** }
 162              		.loc 1 201 0
 163 001a BD46     		mov	sp, r7
 164              		@ sp needed
 165 001c 80BD     		pop	{r7, pc}
 166              	.L12:
 167 001e C046     		.align	2
 168              	.L11:
 169 0020 00000000 		.word	Comm_initVar
 170              		.cfi_endproc
 171              	.LFE2:
 172              		.size	Comm_Start, .-Comm_Start
 173              		.section	.text.Comm_Stop,"ax",%progbits
 174              		.align	2
 175              		.global	Comm_Stop
 176              		.code	16
 177              		.thumb_func
 178              		.type	Comm_Stop, %function
 179              	Comm_Stop:
 180              	.LFB3:
 202:.\Generated_Source\PSoC4/Comm.c **** 
 203:.\Generated_Source\PSoC4/Comm.c **** 
 204:.\Generated_Source\PSoC4/Comm.c **** /*******************************************************************************
 205:.\Generated_Source\PSoC4/Comm.c **** * Function Name: Comm_Stop
 206:.\Generated_Source\PSoC4/Comm.c **** ********************************************************************************
 207:.\Generated_Source\PSoC4/Comm.c **** *
 208:.\Generated_Source\PSoC4/Comm.c **** * Summary:
 209:.\Generated_Source\PSoC4/Comm.c **** *  Disables the SCB component and its interrupt.
 210:.\Generated_Source\PSoC4/Comm.c **** *  It also disables all TX interrupt sources so as not to cause an unexpected
 211:.\Generated_Source\PSoC4/Comm.c **** *  interrupt trigger because after the component is enabled, the TX FIFO 
 212:.\Generated_Source\PSoC4/Comm.c **** *  is empty.
 213:.\Generated_Source\PSoC4/Comm.c **** *
 214:.\Generated_Source\PSoC4/Comm.c **** * Parameters:
 215:.\Generated_Source\PSoC4/Comm.c **** *  None
 216:.\Generated_Source\PSoC4/Comm.c **** *
 217:.\Generated_Source\PSoC4/Comm.c **** * Return:
 218:.\Generated_Source\PSoC4/Comm.c **** *  None
 219:.\Generated_Source\PSoC4/Comm.c **** * 
ARM GAS  C:\Users\TECHCO~1\AppData\Local\Temp\cc2DaD6G.s 			page 8


 220:.\Generated_Source\PSoC4/Comm.c **** *******************************************************************************/
 221:.\Generated_Source\PSoC4/Comm.c **** void Comm_Stop(void)
 222:.\Generated_Source\PSoC4/Comm.c **** {
 181              		.loc 1 222 0
 182              		.cfi_startproc
 183 0000 80B5     		push	{r7, lr}
 184              		.cfi_def_cfa_offset 8
 185              		.cfi_offset 7, -8
 186              		.cfi_offset 14, -4
 187 0002 00AF     		add	r7, sp, #0
 188              		.cfi_def_cfa_register 7
 223:.\Generated_Source\PSoC4/Comm.c **** #if (Comm_SCB_IRQ_INTERNAL)
 224:.\Generated_Source\PSoC4/Comm.c ****     Comm_DisableInt();
 189              		.loc 1 224 0
 190 0004 0A20     		mov	r0, #10
 191 0006 FFF7FEFF 		bl	CyIntDisable
 225:.\Generated_Source\PSoC4/Comm.c **** #endif /* (Comm_SCB_IRQ_INTERNAL) */
 226:.\Generated_Source\PSoC4/Comm.c **** 
 227:.\Generated_Source\PSoC4/Comm.c ****     /* Call Stop function specific to current operation mode */
 228:.\Generated_Source\PSoC4/Comm.c ****     Comm_ScbModeStop();
 192              		.loc 1 228 0
 193 000a FFF7FEFF 		bl	Comm_ScbModeStop
 229:.\Generated_Source\PSoC4/Comm.c **** 
 230:.\Generated_Source\PSoC4/Comm.c ****     /* Disable SCB IP */
 231:.\Generated_Source\PSoC4/Comm.c ****     Comm_CTRL_REG &= (uint32) ~Comm_CTRL_ENABLED;
 194              		.loc 1 231 0
 195 000e 074B     		ldr	r3, .L14
 196 0010 064A     		ldr	r2, .L14
 197 0012 1268     		ldr	r2, [r2]
 198 0014 5200     		lsl	r2, r2, #1
 199 0016 5208     		lsr	r2, r2, #1
 200 0018 1A60     		str	r2, [r3]
 232:.\Generated_Source\PSoC4/Comm.c **** 
 233:.\Generated_Source\PSoC4/Comm.c ****     /* Disable all TX interrupt sources so as not to cause an unexpected
 234:.\Generated_Source\PSoC4/Comm.c ****     * interrupt trigger because after the component is enabled, the TX FIFO
 235:.\Generated_Source\PSoC4/Comm.c ****     * is empty.
 236:.\Generated_Source\PSoC4/Comm.c ****     * For SCB IP v0, it is critical as it does not mask-out interrupt
 237:.\Generated_Source\PSoC4/Comm.c ****     * sources when they are disabled. This can cause a code lock-up in the
 238:.\Generated_Source\PSoC4/Comm.c ****     * interrupt handler because TX FIFO cannot be loaded after the block
 239:.\Generated_Source\PSoC4/Comm.c ****     * is disabled.
 240:.\Generated_Source\PSoC4/Comm.c ****     */
 241:.\Generated_Source\PSoC4/Comm.c ****     Comm_SetTxInterruptMode(Comm_NO_INTR_SOURCES);
 201              		.loc 1 241 0
 202 001a 054B     		ldr	r3, .L14+4
 203 001c 0022     		mov	r2, #0
 204 001e 1A60     		str	r2, [r3]
 242:.\Generated_Source\PSoC4/Comm.c **** 
 243:.\Generated_Source\PSoC4/Comm.c **** #if (Comm_SCB_IRQ_INTERNAL)
 244:.\Generated_Source\PSoC4/Comm.c ****     Comm_ClearPendingInt();
 205              		.loc 1 244 0
 206 0020 0A20     		mov	r0, #10
 207 0022 FFF7FEFF 		bl	CyIntClearPending
 245:.\Generated_Source\PSoC4/Comm.c **** #endif /* (Comm_SCB_IRQ_INTERNAL) */
 246:.\Generated_Source\PSoC4/Comm.c **** }
 208              		.loc 1 246 0
 209 0026 BD46     		mov	sp, r7
 210              		@ sp needed
ARM GAS  C:\Users\TECHCO~1\AppData\Local\Temp\cc2DaD6G.s 			page 9


 211 0028 80BD     		pop	{r7, pc}
 212              	.L15:
 213 002a C046     		.align	2
 214              	.L14:
 215 002c 00000640 		.word	1074135040
 216 0030 880F0640 		.word	1074139016
 217              		.cfi_endproc
 218              	.LFE3:
 219              		.size	Comm_Stop, .-Comm_Stop
 220              		.section	.text.Comm_SetRxFifoLevel,"ax",%progbits
 221              		.align	2
 222              		.global	Comm_SetRxFifoLevel
 223              		.code	16
 224              		.thumb_func
 225              		.type	Comm_SetRxFifoLevel, %function
 226              	Comm_SetRxFifoLevel:
 227              	.LFB4:
 247:.\Generated_Source\PSoC4/Comm.c **** 
 248:.\Generated_Source\PSoC4/Comm.c **** 
 249:.\Generated_Source\PSoC4/Comm.c **** /*******************************************************************************
 250:.\Generated_Source\PSoC4/Comm.c **** * Function Name: Comm_SetRxFifoLevel
 251:.\Generated_Source\PSoC4/Comm.c **** ********************************************************************************
 252:.\Generated_Source\PSoC4/Comm.c **** *
 253:.\Generated_Source\PSoC4/Comm.c **** * Summary:
 254:.\Generated_Source\PSoC4/Comm.c **** *  Sets level in the RX FIFO to generate a RX level interrupt.
 255:.\Generated_Source\PSoC4/Comm.c **** *  When the RX FIFO has more entries than the RX FIFO level an RX level
 256:.\Generated_Source\PSoC4/Comm.c **** *  interrupt request is generated.
 257:.\Generated_Source\PSoC4/Comm.c **** *
 258:.\Generated_Source\PSoC4/Comm.c **** * Parameters:
 259:.\Generated_Source\PSoC4/Comm.c **** *  level: Level in the RX FIFO to generate RX level interrupt.
 260:.\Generated_Source\PSoC4/Comm.c **** *         The range of valid level values is between 0 and RX FIFO depth - 1.
 261:.\Generated_Source\PSoC4/Comm.c **** *
 262:.\Generated_Source\PSoC4/Comm.c **** * Return:
 263:.\Generated_Source\PSoC4/Comm.c **** *  None
 264:.\Generated_Source\PSoC4/Comm.c **** *
 265:.\Generated_Source\PSoC4/Comm.c **** *******************************************************************************/
 266:.\Generated_Source\PSoC4/Comm.c **** void Comm_SetRxFifoLevel(uint32 level)
 267:.\Generated_Source\PSoC4/Comm.c **** {
 228              		.loc 1 267 0
 229              		.cfi_startproc
 230 0000 80B5     		push	{r7, lr}
 231              		.cfi_def_cfa_offset 8
 232              		.cfi_offset 7, -8
 233              		.cfi_offset 14, -4
 234 0002 84B0     		sub	sp, sp, #16
 235              		.cfi_def_cfa_offset 24
 236 0004 00AF     		add	r7, sp, #0
 237              		.cfi_def_cfa_register 7
 238 0006 7860     		str	r0, [r7, #4]
 268:.\Generated_Source\PSoC4/Comm.c ****     uint32 rxFifoCtrl;
 269:.\Generated_Source\PSoC4/Comm.c **** 
 270:.\Generated_Source\PSoC4/Comm.c ****     rxFifoCtrl = Comm_RX_FIFO_CTRL_REG;
 239              		.loc 1 270 0
 240 0008 094B     		ldr	r3, .L17
 241 000a 1B68     		ldr	r3, [r3]
 242 000c FB60     		str	r3, [r7, #12]
 271:.\Generated_Source\PSoC4/Comm.c **** 
ARM GAS  C:\Users\TECHCO~1\AppData\Local\Temp\cc2DaD6G.s 			page 10


 272:.\Generated_Source\PSoC4/Comm.c ****     rxFifoCtrl &= ((uint32) ~Comm_RX_FIFO_CTRL_TRIGGER_LEVEL_MASK); /* Clear level mask bits */
 243              		.loc 1 272 0
 244 000e FB68     		ldr	r3, [r7, #12]
 245 0010 0722     		mov	r2, #7
 246 0012 9343     		bic	r3, r2
 247 0014 FB60     		str	r3, [r7, #12]
 273:.\Generated_Source\PSoC4/Comm.c ****     rxFifoCtrl |= ((uint32) (Comm_RX_FIFO_CTRL_TRIGGER_LEVEL_MASK & level));
 248              		.loc 1 273 0
 249 0016 7B68     		ldr	r3, [r7, #4]
 250 0018 0722     		mov	r2, #7
 251 001a 1340     		and	r3, r2
 252 001c FA68     		ldr	r2, [r7, #12]
 253 001e 1343     		orr	r3, r2
 254 0020 FB60     		str	r3, [r7, #12]
 274:.\Generated_Source\PSoC4/Comm.c **** 
 275:.\Generated_Source\PSoC4/Comm.c ****     Comm_RX_FIFO_CTRL_REG = rxFifoCtrl;
 255              		.loc 1 275 0
 256 0022 034B     		ldr	r3, .L17
 257 0024 FA68     		ldr	r2, [r7, #12]
 258 0026 1A60     		str	r2, [r3]
 276:.\Generated_Source\PSoC4/Comm.c **** }
 259              		.loc 1 276 0
 260 0028 BD46     		mov	sp, r7
 261 002a 04B0     		add	sp, sp, #16
 262              		@ sp needed
 263 002c 80BD     		pop	{r7, pc}
 264              	.L18:
 265 002e C046     		.align	2
 266              	.L17:
 267 0030 04030640 		.word	1074135812
 268              		.cfi_endproc
 269              	.LFE4:
 270              		.size	Comm_SetRxFifoLevel, .-Comm_SetRxFifoLevel
 271              		.section	.text.Comm_SetTxFifoLevel,"ax",%progbits
 272              		.align	2
 273              		.global	Comm_SetTxFifoLevel
 274              		.code	16
 275              		.thumb_func
 276              		.type	Comm_SetTxFifoLevel, %function
 277              	Comm_SetTxFifoLevel:
 278              	.LFB5:
 277:.\Generated_Source\PSoC4/Comm.c **** 
 278:.\Generated_Source\PSoC4/Comm.c **** 
 279:.\Generated_Source\PSoC4/Comm.c **** /*******************************************************************************
 280:.\Generated_Source\PSoC4/Comm.c **** * Function Name: Comm_SetTxFifoLevel
 281:.\Generated_Source\PSoC4/Comm.c **** ********************************************************************************
 282:.\Generated_Source\PSoC4/Comm.c **** *
 283:.\Generated_Source\PSoC4/Comm.c **** * Summary:
 284:.\Generated_Source\PSoC4/Comm.c **** *  Sets level in the TX FIFO to generate a TX level interrupt.
 285:.\Generated_Source\PSoC4/Comm.c **** *  When the TX FIFO has more entries than the TX FIFO level an TX level
 286:.\Generated_Source\PSoC4/Comm.c **** *  interrupt request is generated.
 287:.\Generated_Source\PSoC4/Comm.c **** *
 288:.\Generated_Source\PSoC4/Comm.c **** * Parameters:
 289:.\Generated_Source\PSoC4/Comm.c **** *  level: Level in the TX FIFO to generate TX level interrupt.
 290:.\Generated_Source\PSoC4/Comm.c **** *         The range of valid level values is between 0 and TX FIFO depth - 1.
 291:.\Generated_Source\PSoC4/Comm.c **** *
 292:.\Generated_Source\PSoC4/Comm.c **** * Return:
ARM GAS  C:\Users\TECHCO~1\AppData\Local\Temp\cc2DaD6G.s 			page 11


 293:.\Generated_Source\PSoC4/Comm.c **** *  None
 294:.\Generated_Source\PSoC4/Comm.c **** *
 295:.\Generated_Source\PSoC4/Comm.c **** *******************************************************************************/
 296:.\Generated_Source\PSoC4/Comm.c **** void Comm_SetTxFifoLevel(uint32 level)
 297:.\Generated_Source\PSoC4/Comm.c **** {
 279              		.loc 1 297 0
 280              		.cfi_startproc
 281 0000 80B5     		push	{r7, lr}
 282              		.cfi_def_cfa_offset 8
 283              		.cfi_offset 7, -8
 284              		.cfi_offset 14, -4
 285 0002 84B0     		sub	sp, sp, #16
 286              		.cfi_def_cfa_offset 24
 287 0004 00AF     		add	r7, sp, #0
 288              		.cfi_def_cfa_register 7
 289 0006 7860     		str	r0, [r7, #4]
 298:.\Generated_Source\PSoC4/Comm.c ****     uint32 txFifoCtrl;
 299:.\Generated_Source\PSoC4/Comm.c **** 
 300:.\Generated_Source\PSoC4/Comm.c ****     txFifoCtrl = Comm_TX_FIFO_CTRL_REG;
 290              		.loc 1 300 0
 291 0008 094B     		ldr	r3, .L20
 292 000a 1B68     		ldr	r3, [r3]
 293 000c FB60     		str	r3, [r7, #12]
 301:.\Generated_Source\PSoC4/Comm.c **** 
 302:.\Generated_Source\PSoC4/Comm.c ****     txFifoCtrl &= ((uint32) ~Comm_TX_FIFO_CTRL_TRIGGER_LEVEL_MASK); /* Clear level mask bits */
 294              		.loc 1 302 0
 295 000e FB68     		ldr	r3, [r7, #12]
 296 0010 0722     		mov	r2, #7
 297 0012 9343     		bic	r3, r2
 298 0014 FB60     		str	r3, [r7, #12]
 303:.\Generated_Source\PSoC4/Comm.c ****     txFifoCtrl |= ((uint32) (Comm_TX_FIFO_CTRL_TRIGGER_LEVEL_MASK & level));
 299              		.loc 1 303 0
 300 0016 7B68     		ldr	r3, [r7, #4]
 301 0018 0722     		mov	r2, #7
 302 001a 1340     		and	r3, r2
 303 001c FA68     		ldr	r2, [r7, #12]
 304 001e 1343     		orr	r3, r2
 305 0020 FB60     		str	r3, [r7, #12]
 304:.\Generated_Source\PSoC4/Comm.c **** 
 305:.\Generated_Source\PSoC4/Comm.c ****     Comm_TX_FIFO_CTRL_REG = txFifoCtrl;
 306              		.loc 1 305 0
 307 0022 034B     		ldr	r3, .L20
 308 0024 FA68     		ldr	r2, [r7, #12]
 309 0026 1A60     		str	r2, [r3]
 306:.\Generated_Source\PSoC4/Comm.c **** }
 310              		.loc 1 306 0
 311 0028 BD46     		mov	sp, r7
 312 002a 04B0     		add	sp, sp, #16
 313              		@ sp needed
 314 002c 80BD     		pop	{r7, pc}
 315              	.L21:
 316 002e C046     		.align	2
 317              	.L20:
 318 0030 04020640 		.word	1074135556
 319              		.cfi_endproc
 320              	.LFE5:
 321              		.size	Comm_SetTxFifoLevel, .-Comm_SetTxFifoLevel
ARM GAS  C:\Users\TECHCO~1\AppData\Local\Temp\cc2DaD6G.s 			page 12


 322              		.section	.text.Comm_SetCustomInterruptHandler,"ax",%progbits
 323              		.align	2
 324              		.global	Comm_SetCustomInterruptHandler
 325              		.code	16
 326              		.thumb_func
 327              		.type	Comm_SetCustomInterruptHandler, %function
 328              	Comm_SetCustomInterruptHandler:
 329              	.LFB6:
 307:.\Generated_Source\PSoC4/Comm.c **** 
 308:.\Generated_Source\PSoC4/Comm.c **** 
 309:.\Generated_Source\PSoC4/Comm.c **** #if (Comm_SCB_IRQ_INTERNAL)
 310:.\Generated_Source\PSoC4/Comm.c ****     /*******************************************************************************
 311:.\Generated_Source\PSoC4/Comm.c ****     * Function Name: Comm_SetCustomInterruptHandler
 312:.\Generated_Source\PSoC4/Comm.c ****     ********************************************************************************
 313:.\Generated_Source\PSoC4/Comm.c ****     *
 314:.\Generated_Source\PSoC4/Comm.c ****     * Summary:
 315:.\Generated_Source\PSoC4/Comm.c ****     *  Registers a function to be called by the internal interrupt handler.
 316:.\Generated_Source\PSoC4/Comm.c ****     *  First the function that is registered is called, then the internal interrupt
 317:.\Generated_Source\PSoC4/Comm.c ****     *  handler performs any operation such as software buffer management functions
 318:.\Generated_Source\PSoC4/Comm.c ****     *  before the interrupt returns.  It is the user's responsibility not to break
 319:.\Generated_Source\PSoC4/Comm.c ****     *  the software buffer operations. Only one custom handler is supported, which
 320:.\Generated_Source\PSoC4/Comm.c ****     *  is the function provided by the most recent call.
 321:.\Generated_Source\PSoC4/Comm.c ****     *  At the initialization time no custom handler is registered.
 322:.\Generated_Source\PSoC4/Comm.c ****     *
 323:.\Generated_Source\PSoC4/Comm.c ****     * Parameters:
 324:.\Generated_Source\PSoC4/Comm.c ****     *  func: Pointer to the function to register.
 325:.\Generated_Source\PSoC4/Comm.c ****     *        The value NULL indicates to remove the current custom interrupt
 326:.\Generated_Source\PSoC4/Comm.c ****     *        handler.
 327:.\Generated_Source\PSoC4/Comm.c ****     *
 328:.\Generated_Source\PSoC4/Comm.c ****     * Return:
 329:.\Generated_Source\PSoC4/Comm.c ****     *  None
 330:.\Generated_Source\PSoC4/Comm.c ****     *
 331:.\Generated_Source\PSoC4/Comm.c ****     *******************************************************************************/
 332:.\Generated_Source\PSoC4/Comm.c ****     void Comm_SetCustomInterruptHandler(void (*func)(void))
 333:.\Generated_Source\PSoC4/Comm.c ****     {
 330              		.loc 1 333 0
 331              		.cfi_startproc
 332 0000 80B5     		push	{r7, lr}
 333              		.cfi_def_cfa_offset 8
 334              		.cfi_offset 7, -8
 335              		.cfi_offset 14, -4
 336 0002 82B0     		sub	sp, sp, #8
 337              		.cfi_def_cfa_offset 16
 338 0004 00AF     		add	r7, sp, #0
 339              		.cfi_def_cfa_register 7
 340 0006 7860     		str	r0, [r7, #4]
 334:.\Generated_Source\PSoC4/Comm.c ****     #if !defined (CY_REMOVE_Comm_CUSTOM_INTR_HANDLER)
 335:.\Generated_Source\PSoC4/Comm.c ****         Comm_customIntrHandler = func; /* Register interrupt handler */
 341              		.loc 1 335 0
 342 0008 024B     		ldr	r3, .L23
 343 000a 7A68     		ldr	r2, [r7, #4]
 344 000c 1A60     		str	r2, [r3]
 336:.\Generated_Source\PSoC4/Comm.c ****     #else
 337:.\Generated_Source\PSoC4/Comm.c ****         if (NULL != func)
 338:.\Generated_Source\PSoC4/Comm.c ****         {
 339:.\Generated_Source\PSoC4/Comm.c ****             /* Suppress compiler warning */
 340:.\Generated_Source\PSoC4/Comm.c ****         }
ARM GAS  C:\Users\TECHCO~1\AppData\Local\Temp\cc2DaD6G.s 			page 13


 341:.\Generated_Source\PSoC4/Comm.c ****     #endif /* !defined (CY_REMOVE_Comm_CUSTOM_INTR_HANDLER) */
 342:.\Generated_Source\PSoC4/Comm.c ****     }
 345              		.loc 1 342 0
 346 000e BD46     		mov	sp, r7
 347 0010 02B0     		add	sp, sp, #8
 348              		@ sp needed
 349 0012 80BD     		pop	{r7, pc}
 350              	.L24:
 351              		.align	2
 352              	.L23:
 353 0014 00000000 		.word	Comm_customIntrHandler
 354              		.cfi_endproc
 355              	.LFE6:
 356              		.size	Comm_SetCustomInterruptHandler, .-Comm_SetCustomInterruptHandler
 357              		.section	.text.Comm_ScbEnableIntr,"ax",%progbits
 358              		.align	2
 359              		.code	16
 360              		.thumb_func
 361              		.type	Comm_ScbEnableIntr, %function
 362              	Comm_ScbEnableIntr:
 363              	.LFB7:
 343:.\Generated_Source\PSoC4/Comm.c **** #endif /* (Comm_SCB_IRQ_INTERNAL) */
 344:.\Generated_Source\PSoC4/Comm.c **** 
 345:.\Generated_Source\PSoC4/Comm.c **** 
 346:.\Generated_Source\PSoC4/Comm.c **** /*******************************************************************************
 347:.\Generated_Source\PSoC4/Comm.c **** * Function Name: Comm_ScbModeEnableIntr
 348:.\Generated_Source\PSoC4/Comm.c **** ********************************************************************************
 349:.\Generated_Source\PSoC4/Comm.c **** *
 350:.\Generated_Source\PSoC4/Comm.c **** * Summary:
 351:.\Generated_Source\PSoC4/Comm.c **** *  Enables an interrupt for a specific mode.
 352:.\Generated_Source\PSoC4/Comm.c **** *
 353:.\Generated_Source\PSoC4/Comm.c **** * Parameters:
 354:.\Generated_Source\PSoC4/Comm.c **** *  None
 355:.\Generated_Source\PSoC4/Comm.c **** *
 356:.\Generated_Source\PSoC4/Comm.c **** * Return:
 357:.\Generated_Source\PSoC4/Comm.c **** *  None
 358:.\Generated_Source\PSoC4/Comm.c **** *
 359:.\Generated_Source\PSoC4/Comm.c **** *******************************************************************************/
 360:.\Generated_Source\PSoC4/Comm.c **** static void Comm_ScbEnableIntr(void)
 361:.\Generated_Source\PSoC4/Comm.c **** {
 364              		.loc 1 361 0
 365              		.cfi_startproc
 366 0000 80B5     		push	{r7, lr}
 367              		.cfi_def_cfa_offset 8
 368              		.cfi_offset 7, -8
 369              		.cfi_offset 14, -4
 370 0002 00AF     		add	r7, sp, #0
 371              		.cfi_def_cfa_register 7
 362:.\Generated_Source\PSoC4/Comm.c **** #if (Comm_SCB_IRQ_INTERNAL)
 363:.\Generated_Source\PSoC4/Comm.c ****     /* Enable interrupt in NVIC */
 364:.\Generated_Source\PSoC4/Comm.c ****     #if (Comm_SCB_MODE_UNCONFIG_CONST_CFG)
 365:.\Generated_Source\PSoC4/Comm.c ****         if (0u != Comm_scbEnableIntr)
 372              		.loc 1 365 0
 373 0004 044B     		ldr	r3, .L27
 374 0006 1B78     		ldrb	r3, [r3]
 375 0008 002B     		cmp	r3, #0
 376 000a 02D0     		beq	.L25
ARM GAS  C:\Users\TECHCO~1\AppData\Local\Temp\cc2DaD6G.s 			page 14


 366:.\Generated_Source\PSoC4/Comm.c ****         {
 367:.\Generated_Source\PSoC4/Comm.c ****             Comm_EnableInt();
 377              		.loc 1 367 0
 378 000c 0A20     		mov	r0, #10
 379 000e FFF7FEFF 		bl	CyIntEnable
 380              	.L25:
 368:.\Generated_Source\PSoC4/Comm.c ****         }
 369:.\Generated_Source\PSoC4/Comm.c **** 
 370:.\Generated_Source\PSoC4/Comm.c ****     #else
 371:.\Generated_Source\PSoC4/Comm.c ****         Comm_EnableInt();
 372:.\Generated_Source\PSoC4/Comm.c **** 
 373:.\Generated_Source\PSoC4/Comm.c ****     #endif /* (Comm_SCB_MODE_UNCONFIG_CONST_CFG) */
 374:.\Generated_Source\PSoC4/Comm.c **** #endif /* (Comm_SCB_IRQ_INTERNAL) */
 375:.\Generated_Source\PSoC4/Comm.c **** }
 381              		.loc 1 375 0
 382 0012 BD46     		mov	sp, r7
 383              		@ sp needed
 384 0014 80BD     		pop	{r7, pc}
 385              	.L28:
 386 0016 C046     		.align	2
 387              	.L27:
 388 0018 00000000 		.word	Comm_scbEnableIntr
 389              		.cfi_endproc
 390              	.LFE7:
 391              		.size	Comm_ScbEnableIntr, .-Comm_ScbEnableIntr
 392              		.section	.text.Comm_ScbModePostEnable,"ax",%progbits
 393              		.align	2
 394              		.code	16
 395              		.thumb_func
 396              		.type	Comm_ScbModePostEnable, %function
 397              	Comm_ScbModePostEnable:
 398              	.LFB8:
 376:.\Generated_Source\PSoC4/Comm.c **** 
 377:.\Generated_Source\PSoC4/Comm.c **** 
 378:.\Generated_Source\PSoC4/Comm.c **** /*******************************************************************************
 379:.\Generated_Source\PSoC4/Comm.c **** * Function Name: Comm_ScbModePostEnable
 380:.\Generated_Source\PSoC4/Comm.c **** ********************************************************************************
 381:.\Generated_Source\PSoC4/Comm.c **** *
 382:.\Generated_Source\PSoC4/Comm.c **** * Summary:
 383:.\Generated_Source\PSoC4/Comm.c **** *  Calls the PostEnable function for a specific operation mode.
 384:.\Generated_Source\PSoC4/Comm.c **** *
 385:.\Generated_Source\PSoC4/Comm.c **** * Parameters:
 386:.\Generated_Source\PSoC4/Comm.c **** *  None
 387:.\Generated_Source\PSoC4/Comm.c **** *
 388:.\Generated_Source\PSoC4/Comm.c **** * Return:
 389:.\Generated_Source\PSoC4/Comm.c **** *  None
 390:.\Generated_Source\PSoC4/Comm.c **** *
 391:.\Generated_Source\PSoC4/Comm.c **** *******************************************************************************/
 392:.\Generated_Source\PSoC4/Comm.c **** static void Comm_ScbModePostEnable(void)
 393:.\Generated_Source\PSoC4/Comm.c **** {
 399              		.loc 1 393 0
 400              		.cfi_startproc
 401 0000 80B5     		push	{r7, lr}
 402              		.cfi_def_cfa_offset 8
 403              		.cfi_offset 7, -8
 404              		.cfi_offset 14, -4
 405 0002 00AF     		add	r7, sp, #0
ARM GAS  C:\Users\TECHCO~1\AppData\Local\Temp\cc2DaD6G.s 			page 15


 406              		.cfi_def_cfa_register 7
 394:.\Generated_Source\PSoC4/Comm.c **** #if (Comm_SCB_MODE_UNCONFIG_CONST_CFG)
 395:.\Generated_Source\PSoC4/Comm.c **** #if (!Comm_CY_SCBIP_V1)
 396:.\Generated_Source\PSoC4/Comm.c ****     if (Comm_SCB_MODE_SPI_RUNTM_CFG)
 407              		.loc 1 396 0
 408 0004 074B     		ldr	r3, .L32
 409 0006 1B78     		ldrb	r3, [r3]
 410 0008 022B     		cmp	r3, #2
 411 000a 02D1     		bne	.L30
 397:.\Generated_Source\PSoC4/Comm.c ****     {
 398:.\Generated_Source\PSoC4/Comm.c ****         Comm_SpiPostEnable();
 412              		.loc 1 398 0
 413 000c FFF7FEFF 		bl	Comm_SpiPostEnable
 414 0010 05E0     		b	.L29
 415              	.L30:
 399:.\Generated_Source\PSoC4/Comm.c ****     }
 400:.\Generated_Source\PSoC4/Comm.c ****     else if (Comm_SCB_MODE_UART_RUNTM_CFG)
 416              		.loc 1 400 0
 417 0012 044B     		ldr	r3, .L32
 418 0014 1B78     		ldrb	r3, [r3]
 419 0016 042B     		cmp	r3, #4
 420 0018 01D1     		bne	.L29
 401:.\Generated_Source\PSoC4/Comm.c ****     {
 402:.\Generated_Source\PSoC4/Comm.c ****         Comm_UartPostEnable();
 421              		.loc 1 402 0
 422 001a FFF7FEFF 		bl	Comm_UartPostEnable
 423              	.L29:
 403:.\Generated_Source\PSoC4/Comm.c ****     }
 404:.\Generated_Source\PSoC4/Comm.c ****     else
 405:.\Generated_Source\PSoC4/Comm.c ****     {
 406:.\Generated_Source\PSoC4/Comm.c ****         /* Unknown mode: do nothing */
 407:.\Generated_Source\PSoC4/Comm.c ****     }
 408:.\Generated_Source\PSoC4/Comm.c **** #endif /* (!Comm_CY_SCBIP_V1) */
 409:.\Generated_Source\PSoC4/Comm.c **** 
 410:.\Generated_Source\PSoC4/Comm.c **** #elif (Comm_SCB_MODE_SPI_CONST_CFG)
 411:.\Generated_Source\PSoC4/Comm.c ****     Comm_SpiPostEnable();
 412:.\Generated_Source\PSoC4/Comm.c **** 
 413:.\Generated_Source\PSoC4/Comm.c **** #elif (Comm_SCB_MODE_UART_CONST_CFG)
 414:.\Generated_Source\PSoC4/Comm.c ****     Comm_UartPostEnable();
 415:.\Generated_Source\PSoC4/Comm.c **** 
 416:.\Generated_Source\PSoC4/Comm.c **** #else
 417:.\Generated_Source\PSoC4/Comm.c ****     /* Unknown mode: do nothing */
 418:.\Generated_Source\PSoC4/Comm.c **** #endif /* (Comm_SCB_MODE_UNCONFIG_CONST_CFG) */
 419:.\Generated_Source\PSoC4/Comm.c **** }
 424              		.loc 1 419 0
 425 001e BD46     		mov	sp, r7
 426              		@ sp needed
 427 0020 80BD     		pop	{r7, pc}
 428              	.L33:
 429 0022 C046     		.align	2
 430              	.L32:
 431 0024 00000000 		.word	Comm_scbMode
 432              		.cfi_endproc
 433              	.LFE8:
 434              		.size	Comm_ScbModePostEnable, .-Comm_ScbModePostEnable
 435              		.section	.text.Comm_ScbModeStop,"ax",%progbits
 436              		.align	2
ARM GAS  C:\Users\TECHCO~1\AppData\Local\Temp\cc2DaD6G.s 			page 16


 437              		.code	16
 438              		.thumb_func
 439              		.type	Comm_ScbModeStop, %function
 440              	Comm_ScbModeStop:
 441              	.LFB9:
 420:.\Generated_Source\PSoC4/Comm.c **** 
 421:.\Generated_Source\PSoC4/Comm.c **** 
 422:.\Generated_Source\PSoC4/Comm.c **** /*******************************************************************************
 423:.\Generated_Source\PSoC4/Comm.c **** * Function Name: Comm_ScbModeStop
 424:.\Generated_Source\PSoC4/Comm.c **** ********************************************************************************
 425:.\Generated_Source\PSoC4/Comm.c **** *
 426:.\Generated_Source\PSoC4/Comm.c **** * Summary:
 427:.\Generated_Source\PSoC4/Comm.c **** *  Calls the Stop function for a specific operation mode.
 428:.\Generated_Source\PSoC4/Comm.c **** *
 429:.\Generated_Source\PSoC4/Comm.c **** * Parameters:
 430:.\Generated_Source\PSoC4/Comm.c **** *  None
 431:.\Generated_Source\PSoC4/Comm.c **** *
 432:.\Generated_Source\PSoC4/Comm.c **** * Return:
 433:.\Generated_Source\PSoC4/Comm.c **** *  None
 434:.\Generated_Source\PSoC4/Comm.c **** *
 435:.\Generated_Source\PSoC4/Comm.c **** *******************************************************************************/
 436:.\Generated_Source\PSoC4/Comm.c **** static void Comm_ScbModeStop(void)
 437:.\Generated_Source\PSoC4/Comm.c **** {
 442              		.loc 1 437 0
 443              		.cfi_startproc
 444 0000 80B5     		push	{r7, lr}
 445              		.cfi_def_cfa_offset 8
 446              		.cfi_offset 7, -8
 447              		.cfi_offset 14, -4
 448 0002 00AF     		add	r7, sp, #0
 449              		.cfi_def_cfa_register 7
 438:.\Generated_Source\PSoC4/Comm.c **** #if (Comm_SCB_MODE_UNCONFIG_CONST_CFG)
 439:.\Generated_Source\PSoC4/Comm.c ****     if (Comm_SCB_MODE_I2C_RUNTM_CFG)
 450              		.loc 1 439 0
 451 0004 0E4B     		ldr	r3, .L39
 452 0006 1B78     		ldrb	r3, [r3]
 453 0008 012B     		cmp	r3, #1
 454 000a 02D1     		bne	.L35
 440:.\Generated_Source\PSoC4/Comm.c ****     {
 441:.\Generated_Source\PSoC4/Comm.c ****         Comm_I2CStop();
 455              		.loc 1 441 0
 456 000c FFF7FEFF 		bl	Comm_I2CStop
 457 0010 13E0     		b	.L34
 458              	.L35:
 442:.\Generated_Source\PSoC4/Comm.c ****     }
 443:.\Generated_Source\PSoC4/Comm.c ****     else if (Comm_SCB_MODE_EZI2C_RUNTM_CFG)
 459              		.loc 1 443 0
 460 0012 0B4B     		ldr	r3, .L39
 461 0014 1B78     		ldrb	r3, [r3]
 462 0016 082B     		cmp	r3, #8
 463 0018 02D1     		bne	.L37
 444:.\Generated_Source\PSoC4/Comm.c ****     {
 445:.\Generated_Source\PSoC4/Comm.c ****         Comm_EzI2CStop();
 464              		.loc 1 445 0
 465 001a FFF7FEFF 		bl	Comm_EzI2CStop
 466 001e 0CE0     		b	.L34
 467              	.L37:
ARM GAS  C:\Users\TECHCO~1\AppData\Local\Temp\cc2DaD6G.s 			page 17


 446:.\Generated_Source\PSoC4/Comm.c ****     }
 447:.\Generated_Source\PSoC4/Comm.c **** #if (!Comm_CY_SCBIP_V1)
 448:.\Generated_Source\PSoC4/Comm.c ****     else if (Comm_SCB_MODE_SPI_RUNTM_CFG)
 468              		.loc 1 448 0
 469 0020 074B     		ldr	r3, .L39
 470 0022 1B78     		ldrb	r3, [r3]
 471 0024 022B     		cmp	r3, #2
 472 0026 02D1     		bne	.L38
 449:.\Generated_Source\PSoC4/Comm.c ****     {
 450:.\Generated_Source\PSoC4/Comm.c ****         Comm_SpiStop();
 473              		.loc 1 450 0
 474 0028 FFF7FEFF 		bl	Comm_SpiStop
 475 002c 05E0     		b	.L34
 476              	.L38:
 451:.\Generated_Source\PSoC4/Comm.c ****     }
 452:.\Generated_Source\PSoC4/Comm.c ****     else if (Comm_SCB_MODE_UART_RUNTM_CFG)
 477              		.loc 1 452 0
 478 002e 044B     		ldr	r3, .L39
 479 0030 1B78     		ldrb	r3, [r3]
 480 0032 042B     		cmp	r3, #4
 481 0034 01D1     		bne	.L34
 453:.\Generated_Source\PSoC4/Comm.c ****     {
 454:.\Generated_Source\PSoC4/Comm.c ****         Comm_UartStop();
 482              		.loc 1 454 0
 483 0036 FFF7FEFF 		bl	Comm_UartStop
 484              	.L34:
 455:.\Generated_Source\PSoC4/Comm.c ****     }
 456:.\Generated_Source\PSoC4/Comm.c **** #endif /* (!Comm_CY_SCBIP_V1) */
 457:.\Generated_Source\PSoC4/Comm.c ****     else
 458:.\Generated_Source\PSoC4/Comm.c ****     {
 459:.\Generated_Source\PSoC4/Comm.c ****         /* Unknown mode: do nothing */
 460:.\Generated_Source\PSoC4/Comm.c ****     }
 461:.\Generated_Source\PSoC4/Comm.c **** #elif (Comm_SCB_MODE_I2C_CONST_CFG)
 462:.\Generated_Source\PSoC4/Comm.c ****     Comm_I2CStop();
 463:.\Generated_Source\PSoC4/Comm.c **** 
 464:.\Generated_Source\PSoC4/Comm.c **** #elif (Comm_SCB_MODE_EZI2C_CONST_CFG)
 465:.\Generated_Source\PSoC4/Comm.c ****     Comm_EzI2CStop();
 466:.\Generated_Source\PSoC4/Comm.c **** 
 467:.\Generated_Source\PSoC4/Comm.c **** #elif (Comm_SCB_MODE_SPI_CONST_CFG)
 468:.\Generated_Source\PSoC4/Comm.c ****     Comm_SpiStop();
 469:.\Generated_Source\PSoC4/Comm.c **** 
 470:.\Generated_Source\PSoC4/Comm.c **** #elif (Comm_SCB_MODE_UART_CONST_CFG)
 471:.\Generated_Source\PSoC4/Comm.c ****     Comm_UartStop();
 472:.\Generated_Source\PSoC4/Comm.c **** 
 473:.\Generated_Source\PSoC4/Comm.c **** #else
 474:.\Generated_Source\PSoC4/Comm.c ****     /* Unknown mode: do nothing */
 475:.\Generated_Source\PSoC4/Comm.c **** #endif /* (Comm_SCB_MODE_UNCONFIG_CONST_CFG) */
 476:.\Generated_Source\PSoC4/Comm.c **** }
 485              		.loc 1 476 0
 486 003a BD46     		mov	sp, r7
 487              		@ sp needed
 488 003c 80BD     		pop	{r7, pc}
 489              	.L40:
 490 003e C046     		.align	2
 491              	.L39:
 492 0040 00000000 		.word	Comm_scbMode
 493              		.cfi_endproc
ARM GAS  C:\Users\TECHCO~1\AppData\Local\Temp\cc2DaD6G.s 			page 18


 494              	.LFE9:
 495              		.size	Comm_ScbModeStop, .-Comm_ScbModeStop
 496              		.section	.text.Comm_SetPins,"ax",%progbits
 497              		.align	2
 498              		.global	Comm_SetPins
 499              		.code	16
 500              		.thumb_func
 501              		.type	Comm_SetPins, %function
 502              	Comm_SetPins:
 503              	.LFB10:
 477:.\Generated_Source\PSoC4/Comm.c **** 
 478:.\Generated_Source\PSoC4/Comm.c **** 
 479:.\Generated_Source\PSoC4/Comm.c **** #if (Comm_SCB_MODE_UNCONFIG_CONST_CFG)
 480:.\Generated_Source\PSoC4/Comm.c ****     /*******************************************************************************
 481:.\Generated_Source\PSoC4/Comm.c ****     * Function Name: Comm_SetPins
 482:.\Generated_Source\PSoC4/Comm.c ****     ********************************************************************************
 483:.\Generated_Source\PSoC4/Comm.c ****     *
 484:.\Generated_Source\PSoC4/Comm.c ****     * Summary:
 485:.\Generated_Source\PSoC4/Comm.c ****     *  Sets the pins settings accordingly to the selected operation mode.
 486:.\Generated_Source\PSoC4/Comm.c ****     *  Only available in the Unconfigured operation mode. The mode specific
 487:.\Generated_Source\PSoC4/Comm.c ****     *  initialization function calls it.
 488:.\Generated_Source\PSoC4/Comm.c ****     *  Pins configuration is set by PSoC Creator when a specific mode of operation
 489:.\Generated_Source\PSoC4/Comm.c ****     *  is selected in design time.
 490:.\Generated_Source\PSoC4/Comm.c ****     *
 491:.\Generated_Source\PSoC4/Comm.c ****     * Parameters:
 492:.\Generated_Source\PSoC4/Comm.c ****     *  mode:      Mode of SCB operation.
 493:.\Generated_Source\PSoC4/Comm.c ****     *  subMode:   Sub-mode of SCB operation. It is only required for SPI and UART
 494:.\Generated_Source\PSoC4/Comm.c ****     *             modes.
 495:.\Generated_Source\PSoC4/Comm.c ****     *  uartEnableMask: enables TX or RX direction and RTS and CTS signals.
 496:.\Generated_Source\PSoC4/Comm.c ****     *
 497:.\Generated_Source\PSoC4/Comm.c ****     * Return:
 498:.\Generated_Source\PSoC4/Comm.c ****     *  None
 499:.\Generated_Source\PSoC4/Comm.c ****     *
 500:.\Generated_Source\PSoC4/Comm.c ****     *******************************************************************************/
 501:.\Generated_Source\PSoC4/Comm.c ****     void Comm_SetPins(uint32 mode, uint32 subMode, uint32 uartEnableMask)
 502:.\Generated_Source\PSoC4/Comm.c ****     {
 504              		.loc 1 502 0
 505              		.cfi_startproc
 506 0000 80B5     		push	{r7, lr}
 507              		.cfi_def_cfa_offset 8
 508              		.cfi_offset 7, -8
 509              		.cfi_offset 14, -4
 510 0002 94B0     		sub	sp, sp, #80
 511              		.cfi_def_cfa_offset 88
 512 0004 00AF     		add	r7, sp, #0
 513              		.cfi_def_cfa_register 7
 514 0006 F860     		str	r0, [r7, #12]
 515 0008 B960     		str	r1, [r7, #8]
 516 000a 7A60     		str	r2, [r7, #4]
 503:.\Generated_Source\PSoC4/Comm.c ****         uint32 hsiomSel [Comm_SCB_PINS_NUMBER];
 504:.\Generated_Source\PSoC4/Comm.c ****         uint32 pinsDm   [Comm_SCB_PINS_NUMBER];
 505:.\Generated_Source\PSoC4/Comm.c **** 
 506:.\Generated_Source\PSoC4/Comm.c ****     #if (!Comm_CY_SCBIP_V1)
 507:.\Generated_Source\PSoC4/Comm.c ****         uint32 pinsInBuf = 0u;
 517              		.loc 1 507 0
 518 000c 0023     		mov	r3, #0
 519 000e FB64     		str	r3, [r7, #76]
ARM GAS  C:\Users\TECHCO~1\AppData\Local\Temp\cc2DaD6G.s 			page 19


 508:.\Generated_Source\PSoC4/Comm.c ****     #endif /* (!Comm_CY_SCBIP_V1) */
 509:.\Generated_Source\PSoC4/Comm.c **** 
 510:.\Generated_Source\PSoC4/Comm.c ****         uint32 i;
 511:.\Generated_Source\PSoC4/Comm.c **** 
 512:.\Generated_Source\PSoC4/Comm.c ****         /* Set default HSIOM to GPIO and Drive Mode to Analog Hi-Z */
 513:.\Generated_Source\PSoC4/Comm.c ****         for (i = 0u; i < Comm_SCB_PINS_NUMBER; i++)
 520              		.loc 1 513 0
 521 0010 0023     		mov	r3, #0
 522 0012 BB64     		str	r3, [r7, #72]
 523 0014 0EE0     		b	.L42
 524              	.L43:
 514:.\Generated_Source\PSoC4/Comm.c ****         {
 515:.\Generated_Source\PSoC4/Comm.c ****             hsiomSel[i]  = Comm_HSIOM_DEF_SEL;
 525              		.loc 1 515 0 discriminator 3
 526 0016 2C23     		mov	r3, #44
 527 0018 FB18     		add	r3, r7, r3
 528 001a BA6C     		ldr	r2, [r7, #72]
 529 001c 9200     		lsl	r2, r2, #2
 530 001e 0021     		mov	r1, #0
 531 0020 D150     		str	r1, [r2, r3]
 516:.\Generated_Source\PSoC4/Comm.c ****             pinsDm[i]    = Comm_PIN_DM_ALG_HIZ;
 532              		.loc 1 516 0 discriminator 3
 533 0022 1023     		mov	r3, #16
 534 0024 FB18     		add	r3, r7, r3
 535 0026 BA6C     		ldr	r2, [r7, #72]
 536 0028 9200     		lsl	r2, r2, #2
 537 002a 0021     		mov	r1, #0
 538 002c D150     		str	r1, [r2, r3]
 513:.\Generated_Source\PSoC4/Comm.c ****         {
 539              		.loc 1 513 0 discriminator 3
 540 002e BB6C     		ldr	r3, [r7, #72]
 541 0030 0133     		add	r3, r3, #1
 542 0032 BB64     		str	r3, [r7, #72]
 543              	.L42:
 513:.\Generated_Source\PSoC4/Comm.c ****         {
 544              		.loc 1 513 0 is_stmt 0 discriminator 1
 545 0034 BB6C     		ldr	r3, [r7, #72]
 546 0036 062B     		cmp	r3, #6
 547 0038 EDD9     		bls	.L43
 517:.\Generated_Source\PSoC4/Comm.c ****         }
 518:.\Generated_Source\PSoC4/Comm.c **** 
 519:.\Generated_Source\PSoC4/Comm.c ****         if ((Comm_SCB_MODE_I2C   == mode) ||
 548              		.loc 1 519 0 is_stmt 1
 549 003a FB68     		ldr	r3, [r7, #12]
 550 003c 012B     		cmp	r3, #1
 551 003e 02D0     		beq	.L44
 552              		.loc 1 519 0 is_stmt 0 discriminator 1
 553 0040 FB68     		ldr	r3, [r7, #12]
 554 0042 082B     		cmp	r3, #8
 555 0044 10D1     		bne	.L45
 556              	.L44:
 520:.\Generated_Source\PSoC4/Comm.c ****            (Comm_SCB_MODE_EZI2C == mode))
 521:.\Generated_Source\PSoC4/Comm.c ****         {
 522:.\Generated_Source\PSoC4/Comm.c ****             hsiomSel[Comm_RX_SCL_MOSI_PIN_INDEX] = Comm_HSIOM_I2C_SEL;
 557              		.loc 1 522 0 is_stmt 1
 558 0046 2C23     		mov	r3, #44
 559 0048 FB18     		add	r3, r7, r3
ARM GAS  C:\Users\TECHCO~1\AppData\Local\Temp\cc2DaD6G.s 			page 20


 560 004a 0E22     		mov	r2, #14
 561 004c 1A60     		str	r2, [r3]
 523:.\Generated_Source\PSoC4/Comm.c ****             hsiomSel[Comm_TX_SDA_MISO_PIN_INDEX] = Comm_HSIOM_I2C_SEL;
 562              		.loc 1 523 0
 563 004e 2C23     		mov	r3, #44
 564 0050 FB18     		add	r3, r7, r3
 565 0052 0E22     		mov	r2, #14
 566 0054 5A60     		str	r2, [r3, #4]
 524:.\Generated_Source\PSoC4/Comm.c **** 
 525:.\Generated_Source\PSoC4/Comm.c ****             pinsDm[Comm_RX_SCL_MOSI_PIN_INDEX] = Comm_PIN_DM_OD_LO;
 567              		.loc 1 525 0
 568 0056 1023     		mov	r3, #16
 569 0058 FB18     		add	r3, r7, r3
 570 005a 0422     		mov	r2, #4
 571 005c 1A60     		str	r2, [r3]
 526:.\Generated_Source\PSoC4/Comm.c ****             pinsDm[Comm_TX_SDA_MISO_PIN_INDEX] = Comm_PIN_DM_OD_LO;
 572              		.loc 1 526 0
 573 005e 1023     		mov	r3, #16
 574 0060 FB18     		add	r3, r7, r3
 575 0062 0422     		mov	r2, #4
 576 0064 5A60     		str	r2, [r3, #4]
 577 0066 5BE0     		b	.L46
 578              	.L45:
 527:.\Generated_Source\PSoC4/Comm.c ****         }
 528:.\Generated_Source\PSoC4/Comm.c ****     #if (!Comm_CY_SCBIP_V1)
 529:.\Generated_Source\PSoC4/Comm.c ****         else if (Comm_SCB_MODE_SPI == mode)
 579              		.loc 1 529 0
 580 0068 FB68     		ldr	r3, [r7, #12]
 581 006a 022B     		cmp	r3, #2
 582 006c 30D1     		bne	.L47
 530:.\Generated_Source\PSoC4/Comm.c ****         {
 531:.\Generated_Source\PSoC4/Comm.c ****             hsiomSel[Comm_RX_SCL_MOSI_PIN_INDEX] = Comm_HSIOM_SPI_SEL;
 583              		.loc 1 531 0
 584 006e 2C23     		mov	r3, #44
 585 0070 FB18     		add	r3, r7, r3
 586 0072 0F22     		mov	r2, #15
 587 0074 1A60     		str	r2, [r3]
 532:.\Generated_Source\PSoC4/Comm.c ****             hsiomSel[Comm_TX_SDA_MISO_PIN_INDEX] = Comm_HSIOM_SPI_SEL;
 588              		.loc 1 532 0
 589 0076 2C23     		mov	r3, #44
 590 0078 FB18     		add	r3, r7, r3
 591 007a 0F22     		mov	r2, #15
 592 007c 5A60     		str	r2, [r3, #4]
 533:.\Generated_Source\PSoC4/Comm.c ****             hsiomSel[Comm_SCLK_PIN_INDEX] = Comm_HSIOM_SPI_SEL;
 593              		.loc 1 533 0
 594 007e 2C23     		mov	r3, #44
 595 0080 FB18     		add	r3, r7, r3
 596 0082 0F22     		mov	r2, #15
 597 0084 9A60     		str	r2, [r3, #8]
 534:.\Generated_Source\PSoC4/Comm.c **** 
 535:.\Generated_Source\PSoC4/Comm.c ****             if (Comm_SPI_SLAVE == subMode)
 598              		.loc 1 535 0
 599 0086 BB68     		ldr	r3, [r7, #8]
 600 0088 002B     		cmp	r3, #0
 601 008a 10D1     		bne	.L48
 536:.\Generated_Source\PSoC4/Comm.c ****             {
 537:.\Generated_Source\PSoC4/Comm.c ****                 /* Slave */
ARM GAS  C:\Users\TECHCO~1\AppData\Local\Temp\cc2DaD6G.s 			page 21


 538:.\Generated_Source\PSoC4/Comm.c ****                 pinsDm[Comm_RX_SCL_MOSI_PIN_INDEX] = Comm_PIN_DM_DIG_HIZ;
 602              		.loc 1 538 0
 603 008c 1023     		mov	r3, #16
 604 008e FB18     		add	r3, r7, r3
 605 0090 0122     		mov	r2, #1
 606 0092 1A60     		str	r2, [r3]
 539:.\Generated_Source\PSoC4/Comm.c ****                 pinsDm[Comm_TX_SDA_MISO_PIN_INDEX] = Comm_PIN_DM_STRONG;
 607              		.loc 1 539 0
 608 0094 1023     		mov	r3, #16
 609 0096 FB18     		add	r3, r7, r3
 610 0098 0622     		mov	r2, #6
 611 009a 5A60     		str	r2, [r3, #4]
 540:.\Generated_Source\PSoC4/Comm.c ****                 pinsDm[Comm_SCLK_PIN_INDEX] = Comm_PIN_DM_DIG_HIZ;
 612              		.loc 1 540 0
 613 009c 1023     		mov	r3, #16
 614 009e FB18     		add	r3, r7, r3
 615 00a0 0122     		mov	r2, #1
 616 00a2 9A60     		str	r2, [r3, #8]
 541:.\Generated_Source\PSoC4/Comm.c **** 
 542:.\Generated_Source\PSoC4/Comm.c ****             #if (Comm_SS0_PIN)
 543:.\Generated_Source\PSoC4/Comm.c ****                 /* Only SS0 is valid choice for Slave */
 544:.\Generated_Source\PSoC4/Comm.c ****                 hsiomSel[Comm_SS0_PIN_INDEX] = Comm_HSIOM_SPI_SEL;
 545:.\Generated_Source\PSoC4/Comm.c ****                 pinsDm  [Comm_SS0_PIN_INDEX] = Comm_PIN_DM_DIG_HIZ;
 546:.\Generated_Source\PSoC4/Comm.c ****             #endif /* (Comm_SS0_PIN) */
 547:.\Generated_Source\PSoC4/Comm.c **** 
 548:.\Generated_Source\PSoC4/Comm.c ****             #if (Comm_TX_SDA_MISO_PIN)
 549:.\Generated_Source\PSoC4/Comm.c ****                 /* Disable input buffer */
 550:.\Generated_Source\PSoC4/Comm.c ****                  pinsInBuf |= Comm_TX_SDA_MISO_PIN_MASK;
 617              		.loc 1 550 0
 618 00a4 FB6C     		ldr	r3, [r7, #76]
 619 00a6 0222     		mov	r2, #2
 620 00a8 1343     		orr	r3, r2
 621 00aa FB64     		str	r3, [r7, #76]
 622 00ac 38E0     		b	.L46
 623              	.L48:
 551:.\Generated_Source\PSoC4/Comm.c ****             #endif /* (Comm_TX_SDA_MISO_PIN) */
 552:.\Generated_Source\PSoC4/Comm.c ****             }
 553:.\Generated_Source\PSoC4/Comm.c ****             else /* (Master) */
 554:.\Generated_Source\PSoC4/Comm.c ****             {
 555:.\Generated_Source\PSoC4/Comm.c ****                 pinsDm[Comm_RX_SCL_MOSI_PIN_INDEX] = Comm_PIN_DM_STRONG;
 624              		.loc 1 555 0
 625 00ae 1023     		mov	r3, #16
 626 00b0 FB18     		add	r3, r7, r3
 627 00b2 0622     		mov	r2, #6
 628 00b4 1A60     		str	r2, [r3]
 556:.\Generated_Source\PSoC4/Comm.c ****                 pinsDm[Comm_TX_SDA_MISO_PIN_INDEX] = Comm_PIN_DM_DIG_HIZ;
 629              		.loc 1 556 0
 630 00b6 1023     		mov	r3, #16
 631 00b8 FB18     		add	r3, r7, r3
 632 00ba 0122     		mov	r2, #1
 633 00bc 5A60     		str	r2, [r3, #4]
 557:.\Generated_Source\PSoC4/Comm.c ****                 pinsDm[Comm_SCLK_PIN_INDEX] = Comm_PIN_DM_STRONG;
 634              		.loc 1 557 0
 635 00be 1023     		mov	r3, #16
 636 00c0 FB18     		add	r3, r7, r3
 637 00c2 0622     		mov	r2, #6
 638 00c4 9A60     		str	r2, [r3, #8]
ARM GAS  C:\Users\TECHCO~1\AppData\Local\Temp\cc2DaD6G.s 			page 22


 558:.\Generated_Source\PSoC4/Comm.c **** 
 559:.\Generated_Source\PSoC4/Comm.c ****             #if (Comm_SS0_PIN)
 560:.\Generated_Source\PSoC4/Comm.c ****                 hsiomSel [Comm_SS0_PIN_INDEX] = Comm_HSIOM_SPI_SEL;
 561:.\Generated_Source\PSoC4/Comm.c ****                 pinsDm   [Comm_SS0_PIN_INDEX] = Comm_PIN_DM_STRONG;
 562:.\Generated_Source\PSoC4/Comm.c ****                 pinsInBuf |= Comm_SS0_PIN_MASK;
 563:.\Generated_Source\PSoC4/Comm.c ****             #endif /* (Comm_SS0_PIN) */
 564:.\Generated_Source\PSoC4/Comm.c **** 
 565:.\Generated_Source\PSoC4/Comm.c ****             #if (Comm_SS1_PIN)
 566:.\Generated_Source\PSoC4/Comm.c ****                 hsiomSel [Comm_SS1_PIN_INDEX] = Comm_HSIOM_SPI_SEL;
 567:.\Generated_Source\PSoC4/Comm.c ****                 pinsDm   [Comm_SS1_PIN_INDEX] = Comm_PIN_DM_STRONG;
 568:.\Generated_Source\PSoC4/Comm.c ****                 pinsInBuf |= Comm_SS1_PIN_MASK;
 569:.\Generated_Source\PSoC4/Comm.c ****             #endif /* (Comm_SS1_PIN) */
 570:.\Generated_Source\PSoC4/Comm.c **** 
 571:.\Generated_Source\PSoC4/Comm.c ****             #if (Comm_SS2_PIN)
 572:.\Generated_Source\PSoC4/Comm.c ****                 hsiomSel [Comm_SS2_PIN_INDEX] = Comm_HSIOM_SPI_SEL;
 573:.\Generated_Source\PSoC4/Comm.c ****                 pinsDm   [Comm_SS2_PIN_INDEX] = Comm_PIN_DM_STRONG;
 574:.\Generated_Source\PSoC4/Comm.c ****                 pinsInBuf |= Comm_SS2_PIN_MASK;
 575:.\Generated_Source\PSoC4/Comm.c ****             #endif /* (Comm_SS2_PIN) */
 576:.\Generated_Source\PSoC4/Comm.c **** 
 577:.\Generated_Source\PSoC4/Comm.c ****             #if (Comm_SS3_PIN)
 578:.\Generated_Source\PSoC4/Comm.c ****                 hsiomSel [Comm_SS3_PIN_INDEX] = Comm_HSIOM_SPI_SEL;
 579:.\Generated_Source\PSoC4/Comm.c ****                 pinsDm   [Comm_SS3_PIN_INDEX] = Comm_PIN_DM_STRONG;
 580:.\Generated_Source\PSoC4/Comm.c ****                 pinsInBuf |= Comm_SS3_PIN_MASK;
 581:.\Generated_Source\PSoC4/Comm.c ****             #endif /* (Comm_SS3_PIN) */
 582:.\Generated_Source\PSoC4/Comm.c **** 
 583:.\Generated_Source\PSoC4/Comm.c ****                 /* Disable input buffers */
 584:.\Generated_Source\PSoC4/Comm.c ****             #if (Comm_RX_SCL_MOSI_PIN)
 585:.\Generated_Source\PSoC4/Comm.c ****                 pinsInBuf |= Comm_RX_SCL_MOSI_PIN_MASK;
 639              		.loc 1 585 0
 640 00c6 FB6C     		ldr	r3, [r7, #76]
 641 00c8 0122     		mov	r2, #1
 642 00ca 1343     		orr	r3, r2
 643 00cc FB64     		str	r3, [r7, #76]
 644 00ce 27E0     		b	.L46
 645              	.L47:
 586:.\Generated_Source\PSoC4/Comm.c ****             #endif /* (Comm_RX_SCL_MOSI_PIN) */
 587:.\Generated_Source\PSoC4/Comm.c **** 
 588:.\Generated_Source\PSoC4/Comm.c ****              #if (Comm_RX_WAKE_SCL_MOSI_PIN)
 589:.\Generated_Source\PSoC4/Comm.c ****                 pinsInBuf |= Comm_RX_WAKE_SCL_MOSI_PIN_MASK;
 590:.\Generated_Source\PSoC4/Comm.c ****             #endif /* (Comm_RX_WAKE_SCL_MOSI_PIN) */
 591:.\Generated_Source\PSoC4/Comm.c **** 
 592:.\Generated_Source\PSoC4/Comm.c ****             #if (Comm_SCLK_PIN)
 593:.\Generated_Source\PSoC4/Comm.c ****                 pinsInBuf |= Comm_SCLK_PIN_MASK;
 594:.\Generated_Source\PSoC4/Comm.c ****             #endif /* (Comm_SCLK_PIN) */
 595:.\Generated_Source\PSoC4/Comm.c ****             }
 596:.\Generated_Source\PSoC4/Comm.c ****         }
 597:.\Generated_Source\PSoC4/Comm.c ****         else /* UART */
 598:.\Generated_Source\PSoC4/Comm.c ****         {
 599:.\Generated_Source\PSoC4/Comm.c ****             if (Comm_UART_MODE_SMARTCARD == subMode)
 646              		.loc 1 599 0
 647 00d0 BB68     		ldr	r3, [r7, #8]
 648 00d2 012B     		cmp	r3, #1
 649 00d4 08D1     		bne	.L50
 600:.\Generated_Source\PSoC4/Comm.c ****             {
 601:.\Generated_Source\PSoC4/Comm.c ****                 /* SmartCard */
 602:.\Generated_Source\PSoC4/Comm.c ****                 hsiomSel[Comm_TX_SDA_MISO_PIN_INDEX] = Comm_HSIOM_UART_SEL;
 650              		.loc 1 602 0
ARM GAS  C:\Users\TECHCO~1\AppData\Local\Temp\cc2DaD6G.s 			page 23


 651 00d6 2C23     		mov	r3, #44
 652 00d8 FB18     		add	r3, r7, r3
 653 00da 0922     		mov	r2, #9
 654 00dc 5A60     		str	r2, [r3, #4]
 603:.\Generated_Source\PSoC4/Comm.c ****                 pinsDm  [Comm_TX_SDA_MISO_PIN_INDEX] = Comm_PIN_DM_OD_LO;
 655              		.loc 1 603 0
 656 00de 1023     		mov	r3, #16
 657 00e0 FB18     		add	r3, r7, r3
 658 00e2 0422     		mov	r2, #4
 659 00e4 5A60     		str	r2, [r3, #4]
 660 00e6 1BE0     		b	.L46
 661              	.L50:
 604:.\Generated_Source\PSoC4/Comm.c ****             }
 605:.\Generated_Source\PSoC4/Comm.c ****             else /* Standard or IrDA */
 606:.\Generated_Source\PSoC4/Comm.c ****             {
 607:.\Generated_Source\PSoC4/Comm.c ****                 if (0u != (Comm_UART_RX_PIN_ENABLE & uartEnableMask))
 662              		.loc 1 607 0
 663 00e8 7B68     		ldr	r3, [r7, #4]
 664 00ea 0122     		mov	r2, #1
 665 00ec 1340     		and	r3, r2
 666 00ee 07D0     		beq	.L51
 608:.\Generated_Source\PSoC4/Comm.c ****                 {
 609:.\Generated_Source\PSoC4/Comm.c ****                     hsiomSel[Comm_RX_SCL_MOSI_PIN_INDEX] = Comm_HSIOM_UART_SEL;
 667              		.loc 1 609 0
 668 00f0 2C23     		mov	r3, #44
 669 00f2 FB18     		add	r3, r7, r3
 670 00f4 0922     		mov	r2, #9
 671 00f6 1A60     		str	r2, [r3]
 610:.\Generated_Source\PSoC4/Comm.c ****                     pinsDm  [Comm_RX_SCL_MOSI_PIN_INDEX] = Comm_PIN_DM_DIG_HIZ;
 672              		.loc 1 610 0
 673 00f8 1023     		mov	r3, #16
 674 00fa FB18     		add	r3, r7, r3
 675 00fc 0122     		mov	r2, #1
 676 00fe 1A60     		str	r2, [r3]
 677              	.L51:
 611:.\Generated_Source\PSoC4/Comm.c ****                 }
 612:.\Generated_Source\PSoC4/Comm.c **** 
 613:.\Generated_Source\PSoC4/Comm.c ****                 if (0u != (Comm_UART_TX_PIN_ENABLE & uartEnableMask))
 678              		.loc 1 613 0
 679 0100 7B68     		ldr	r3, [r7, #4]
 680 0102 0222     		mov	r2, #2
 681 0104 1340     		and	r3, r2
 682 0106 0BD0     		beq	.L46
 614:.\Generated_Source\PSoC4/Comm.c ****                 {
 615:.\Generated_Source\PSoC4/Comm.c ****                     hsiomSel[Comm_TX_SDA_MISO_PIN_INDEX] = Comm_HSIOM_UART_SEL;
 683              		.loc 1 615 0
 684 0108 2C23     		mov	r3, #44
 685 010a FB18     		add	r3, r7, r3
 686 010c 0922     		mov	r2, #9
 687 010e 5A60     		str	r2, [r3, #4]
 616:.\Generated_Source\PSoC4/Comm.c ****                     pinsDm  [Comm_TX_SDA_MISO_PIN_INDEX] = Comm_PIN_DM_STRONG;
 688              		.loc 1 616 0
 689 0110 1023     		mov	r3, #16
 690 0112 FB18     		add	r3, r7, r3
 691 0114 0622     		mov	r2, #6
 692 0116 5A60     		str	r2, [r3, #4]
 617:.\Generated_Source\PSoC4/Comm.c **** 
ARM GAS  C:\Users\TECHCO~1\AppData\Local\Temp\cc2DaD6G.s 			page 24


 618:.\Generated_Source\PSoC4/Comm.c ****                 #if (Comm_TX_SDA_MISO_PIN)
 619:.\Generated_Source\PSoC4/Comm.c ****                      pinsInBuf |= Comm_TX_SDA_MISO_PIN_MASK;
 693              		.loc 1 619 0
 694 0118 FB6C     		ldr	r3, [r7, #76]
 695 011a 0222     		mov	r2, #2
 696 011c 1343     		orr	r3, r2
 697 011e FB64     		str	r3, [r7, #76]
 698              	.L46:
 620:.\Generated_Source\PSoC4/Comm.c ****                 #endif /* (Comm_TX_SDA_MISO_PIN) */
 621:.\Generated_Source\PSoC4/Comm.c ****                 }
 622:.\Generated_Source\PSoC4/Comm.c **** 
 623:.\Generated_Source\PSoC4/Comm.c ****             #if !(Comm_CY_SCBIP_V0 || Comm_CY_SCBIP_V1)
 624:.\Generated_Source\PSoC4/Comm.c ****                 if (Comm_UART_MODE_STD == subMode)
 625:.\Generated_Source\PSoC4/Comm.c ****                 {
 626:.\Generated_Source\PSoC4/Comm.c ****                     if (0u != (Comm_UART_CTS_PIN_ENABLE & uartEnableMask))
 627:.\Generated_Source\PSoC4/Comm.c ****                     {
 628:.\Generated_Source\PSoC4/Comm.c ****                         /* CTS input is multiplexed with SCLK */
 629:.\Generated_Source\PSoC4/Comm.c ****                         hsiomSel[Comm_SCLK_PIN_INDEX] = Comm_HSIOM_UART_SEL;
 630:.\Generated_Source\PSoC4/Comm.c ****                         pinsDm  [Comm_SCLK_PIN_INDEX] = Comm_PIN_DM_DIG_HIZ;
 631:.\Generated_Source\PSoC4/Comm.c ****                     }
 632:.\Generated_Source\PSoC4/Comm.c **** 
 633:.\Generated_Source\PSoC4/Comm.c ****                     if (0u != (Comm_UART_RTS_PIN_ENABLE & uartEnableMask))
 634:.\Generated_Source\PSoC4/Comm.c ****                     {
 635:.\Generated_Source\PSoC4/Comm.c ****                         /* RTS output is multiplexed with SS0 */
 636:.\Generated_Source\PSoC4/Comm.c ****                         hsiomSel[Comm_SS0_PIN_INDEX] = Comm_HSIOM_UART_SEL;
 637:.\Generated_Source\PSoC4/Comm.c ****                         pinsDm  [Comm_SS0_PIN_INDEX] = Comm_PIN_DM_STRONG;
 638:.\Generated_Source\PSoC4/Comm.c **** 
 639:.\Generated_Source\PSoC4/Comm.c ****                     #if (Comm_SS0_PIN)
 640:.\Generated_Source\PSoC4/Comm.c ****                         /* Disable input buffer */
 641:.\Generated_Source\PSoC4/Comm.c ****                         pinsInBuf |= Comm_SS0_PIN_MASK;
 642:.\Generated_Source\PSoC4/Comm.c ****                     #endif /* (Comm_SS0_PIN) */
 643:.\Generated_Source\PSoC4/Comm.c ****                     }
 644:.\Generated_Source\PSoC4/Comm.c ****                 }
 645:.\Generated_Source\PSoC4/Comm.c ****             #endif /* !(Comm_CY_SCBIP_V0 || Comm_CY_SCBIP_V1) */
 646:.\Generated_Source\PSoC4/Comm.c ****             }
 647:.\Generated_Source\PSoC4/Comm.c ****         }
 648:.\Generated_Source\PSoC4/Comm.c ****     #endif /* (!Comm_CY_SCBIP_V1) */
 649:.\Generated_Source\PSoC4/Comm.c **** 
 650:.\Generated_Source\PSoC4/Comm.c ****     /* Configure pins: set HSIOM, DM and InputBufEnable */
 651:.\Generated_Source\PSoC4/Comm.c ****     /* Note: the DR register settings do not effect the pin output if HSIOM is other than GPIO */
 652:.\Generated_Source\PSoC4/Comm.c **** 
 653:.\Generated_Source\PSoC4/Comm.c ****     #if (Comm_RX_WAKE_SCL_MOSI_PIN)
 654:.\Generated_Source\PSoC4/Comm.c ****         Comm_SET_HSIOM_SEL(Comm_RX_WAKE_SCL_MOSI_HSIOM_REG,
 655:.\Generated_Source\PSoC4/Comm.c ****                                        Comm_RX_WAKE_SCL_MOSI_HSIOM_MASK,
 656:.\Generated_Source\PSoC4/Comm.c ****                                        Comm_RX_WAKE_SCL_MOSI_HSIOM_POS,
 657:.\Generated_Source\PSoC4/Comm.c ****                                        hsiomSel[Comm_RX_WAKE_SCL_MOSI_PIN_INDEX]);
 658:.\Generated_Source\PSoC4/Comm.c **** 
 659:.\Generated_Source\PSoC4/Comm.c ****         Comm_uart_rx_wake_i2c_scl_spi_mosi_SetDriveMode((uint8)
 660:.\Generated_Source\PSoC4/Comm.c ****                                                                pinsDm[Comm_RX_WAKE_SCL_MOSI_PIN_IND
 661:.\Generated_Source\PSoC4/Comm.c **** 
 662:.\Generated_Source\PSoC4/Comm.c ****         Comm_SET_INP_DIS(Comm_uart_rx_wake_i2c_scl_spi_mosi_INP_DIS,
 663:.\Generated_Source\PSoC4/Comm.c ****                                      Comm_uart_rx_wake_i2c_scl_spi_mosi_MASK,
 664:.\Generated_Source\PSoC4/Comm.c ****                                      (0u != (pinsInBuf & Comm_RX_WAKE_SCL_MOSI_PIN_MASK)));
 665:.\Generated_Source\PSoC4/Comm.c **** 
 666:.\Generated_Source\PSoC4/Comm.c ****          /* Set interrupt on falling edge */
 667:.\Generated_Source\PSoC4/Comm.c ****         Comm_SET_INCFG_TYPE(Comm_RX_WAKE_SCL_MOSI_INTCFG_REG,
 668:.\Generated_Source\PSoC4/Comm.c ****                                         Comm_RX_WAKE_SCL_MOSI_INTCFG_TYPE_MASK,
ARM GAS  C:\Users\TECHCO~1\AppData\Local\Temp\cc2DaD6G.s 			page 25


 669:.\Generated_Source\PSoC4/Comm.c ****                                         Comm_RX_WAKE_SCL_MOSI_INTCFG_TYPE_POS,
 670:.\Generated_Source\PSoC4/Comm.c ****                                         Comm_INTCFG_TYPE_FALLING_EDGE);
 671:.\Generated_Source\PSoC4/Comm.c ****     #endif /* (Comm_RX_WAKE_SCL_MOSI_PIN) */
 672:.\Generated_Source\PSoC4/Comm.c **** 
 673:.\Generated_Source\PSoC4/Comm.c ****     #if (Comm_RX_SCL_MOSI_PIN)
 674:.\Generated_Source\PSoC4/Comm.c ****         Comm_SET_HSIOM_SEL(Comm_RX_SCL_MOSI_HSIOM_REG,
 699              		.loc 1 674 0
 700 0120 244A     		ldr	r2, .L56
 701 0122 244B     		ldr	r3, .L56
 702 0124 1B68     		ldr	r3, [r3]
 703 0126 0F21     		mov	r1, #15
 704 0128 8B43     		bic	r3, r1
 705 012a 191C     		mov	r1, r3
 706 012c 2C23     		mov	r3, #44
 707 012e FB18     		add	r3, r7, r3
 708 0130 1B68     		ldr	r3, [r3]
 709 0132 0B43     		orr	r3, r1
 710 0134 1360     		str	r3, [r2]
 675:.\Generated_Source\PSoC4/Comm.c ****                                        Comm_RX_SCL_MOSI_HSIOM_MASK,
 676:.\Generated_Source\PSoC4/Comm.c ****                                        Comm_RX_SCL_MOSI_HSIOM_POS,
 677:.\Generated_Source\PSoC4/Comm.c ****                                         hsiomSel[Comm_RX_SCL_MOSI_PIN_INDEX]);
 678:.\Generated_Source\PSoC4/Comm.c **** 
 679:.\Generated_Source\PSoC4/Comm.c ****         Comm_uart_rx_i2c_scl_spi_mosi_SetDriveMode((uint8) pinsDm[Comm_RX_SCL_MOSI_PIN_INDEX]);
 711              		.loc 1 679 0
 712 0136 1023     		mov	r3, #16
 713 0138 FB18     		add	r3, r7, r3
 714 013a 1B68     		ldr	r3, [r3]
 715 013c DBB2     		uxtb	r3, r3
 716 013e 181C     		mov	r0, r3
 717 0140 FFF7FEFF 		bl	Comm_uart_rx_i2c_scl_spi_mosi_SetDriveMode
 680:.\Generated_Source\PSoC4/Comm.c **** 
 681:.\Generated_Source\PSoC4/Comm.c ****     #if (!Comm_CY_SCBIP_V1)
 682:.\Generated_Source\PSoC4/Comm.c ****         Comm_SET_INP_DIS(Comm_uart_rx_i2c_scl_spi_mosi_INP_DIS,
 718              		.loc 1 682 0
 719 0144 FB6C     		ldr	r3, [r7, #76]
 720 0146 0122     		mov	r2, #1
 721 0148 1340     		and	r3, r2
 722 014a 06D0     		beq	.L52
 723              		.loc 1 682 0 is_stmt 0 discriminator 1
 724 014c 1A4B     		ldr	r3, .L56+4
 725 014e 1A4A     		ldr	r2, .L56+4
 726 0150 1268     		ldr	r2, [r2]
 727 0152 0121     		mov	r1, #1
 728 0154 0A43     		orr	r2, r1
 729 0156 1A60     		str	r2, [r3]
 730 0158 05E0     		b	.L53
 731              	.L52:
 732              		.loc 1 682 0 discriminator 2
 733 015a 174B     		ldr	r3, .L56+4
 734 015c 164A     		ldr	r2, .L56+4
 735 015e 1268     		ldr	r2, [r2]
 736 0160 0121     		mov	r1, #1
 737 0162 8A43     		bic	r2, r1
 738 0164 1A60     		str	r2, [r3]
 739              	.L53:
 683:.\Generated_Source\PSoC4/Comm.c ****                                      Comm_uart_rx_i2c_scl_spi_mosi_MASK,
 684:.\Generated_Source\PSoC4/Comm.c ****                                      (0u != (pinsInBuf & Comm_RX_SCL_MOSI_PIN_MASK)));
ARM GAS  C:\Users\TECHCO~1\AppData\Local\Temp\cc2DaD6G.s 			page 26


 685:.\Generated_Source\PSoC4/Comm.c ****     #endif /* (!Comm_CY_SCBIP_V1) */
 686:.\Generated_Source\PSoC4/Comm.c ****     #endif /* (Comm_RX_SCL_MOSI_PIN) */
 687:.\Generated_Source\PSoC4/Comm.c **** 
 688:.\Generated_Source\PSoC4/Comm.c ****     #if (Comm_TX_SDA_MISO_PIN)
 689:.\Generated_Source\PSoC4/Comm.c ****         Comm_SET_HSIOM_SEL(Comm_TX_SDA_MISO_HSIOM_REG,
 740              		.loc 1 689 0 is_stmt 1
 741 0166 134A     		ldr	r2, .L56
 742 0168 124B     		ldr	r3, .L56
 743 016a 1B68     		ldr	r3, [r3]
 744 016c F021     		mov	r1, #240
 745 016e 8B43     		bic	r3, r1
 746 0170 191C     		mov	r1, r3
 747 0172 2C23     		mov	r3, #44
 748 0174 FB18     		add	r3, r7, r3
 749 0176 5B68     		ldr	r3, [r3, #4]
 750 0178 1B01     		lsl	r3, r3, #4
 751 017a 0B43     		orr	r3, r1
 752 017c 1360     		str	r3, [r2]
 690:.\Generated_Source\PSoC4/Comm.c ****                                        Comm_TX_SDA_MISO_HSIOM_MASK,
 691:.\Generated_Source\PSoC4/Comm.c ****                                        Comm_TX_SDA_MISO_HSIOM_POS,
 692:.\Generated_Source\PSoC4/Comm.c ****                                         hsiomSel[Comm_TX_SDA_MISO_PIN_INDEX]);
 693:.\Generated_Source\PSoC4/Comm.c **** 
 694:.\Generated_Source\PSoC4/Comm.c ****         Comm_uart_tx_i2c_sda_spi_miso_SetDriveMode((uint8) pinsDm[Comm_TX_SDA_MISO_PIN_INDEX]);
 753              		.loc 1 694 0
 754 017e 1023     		mov	r3, #16
 755 0180 FB18     		add	r3, r7, r3
 756 0182 5B68     		ldr	r3, [r3, #4]
 757 0184 DBB2     		uxtb	r3, r3
 758 0186 181C     		mov	r0, r3
 759 0188 FFF7FEFF 		bl	Comm_uart_tx_i2c_sda_spi_miso_SetDriveMode
 695:.\Generated_Source\PSoC4/Comm.c **** 
 696:.\Generated_Source\PSoC4/Comm.c ****     #if (!Comm_CY_SCBIP_V1)
 697:.\Generated_Source\PSoC4/Comm.c ****         Comm_SET_INP_DIS(Comm_uart_tx_i2c_sda_spi_miso_INP_DIS,
 760              		.loc 1 697 0
 761 018c FB6C     		ldr	r3, [r7, #76]
 762 018e 0222     		mov	r2, #2
 763 0190 1340     		and	r3, r2
 764 0192 06D0     		beq	.L54
 765              		.loc 1 697 0 is_stmt 0 discriminator 1
 766 0194 084B     		ldr	r3, .L56+4
 767 0196 084A     		ldr	r2, .L56+4
 768 0198 1268     		ldr	r2, [r2]
 769 019a 0221     		mov	r1, #2
 770 019c 0A43     		orr	r2, r1
 771 019e 1A60     		str	r2, [r3]
 772 01a0 05E0     		b	.L41
 773              	.L54:
 774              		.loc 1 697 0 discriminator 2
 775 01a2 054B     		ldr	r3, .L56+4
 776 01a4 044A     		ldr	r2, .L56+4
 777 01a6 1268     		ldr	r2, [r2]
 778 01a8 0221     		mov	r1, #2
 779 01aa 8A43     		bic	r2, r1
 780 01ac 1A60     		str	r2, [r3]
 781              	.L41:
 698:.\Generated_Source\PSoC4/Comm.c ****                                      Comm_uart_tx_i2c_sda_spi_miso_MASK,
 699:.\Generated_Source\PSoC4/Comm.c ****                                     (0u != (pinsInBuf & Comm_TX_SDA_MISO_PIN_MASK)));
ARM GAS  C:\Users\TECHCO~1\AppData\Local\Temp\cc2DaD6G.s 			page 27


 700:.\Generated_Source\PSoC4/Comm.c ****     #endif /* (!Comm_CY_SCBIP_V1) */
 701:.\Generated_Source\PSoC4/Comm.c ****     #endif /* (Comm_RX_SCL_MOSI_PIN) */
 702:.\Generated_Source\PSoC4/Comm.c **** 
 703:.\Generated_Source\PSoC4/Comm.c ****     #if (Comm_SCLK_PIN)
 704:.\Generated_Source\PSoC4/Comm.c ****         Comm_SET_HSIOM_SEL(Comm_SCLK_HSIOM_REG,
 705:.\Generated_Source\PSoC4/Comm.c ****                                        Comm_SCLK_HSIOM_MASK,
 706:.\Generated_Source\PSoC4/Comm.c ****                                        Comm_SCLK_HSIOM_POS,
 707:.\Generated_Source\PSoC4/Comm.c ****                                        hsiomSel[Comm_SCLK_PIN_INDEX]);
 708:.\Generated_Source\PSoC4/Comm.c **** 
 709:.\Generated_Source\PSoC4/Comm.c ****         Comm_spi_sclk_SetDriveMode((uint8) pinsDm[Comm_SCLK_PIN_INDEX]);
 710:.\Generated_Source\PSoC4/Comm.c **** 
 711:.\Generated_Source\PSoC4/Comm.c ****         Comm_SET_INP_DIS(Comm_spi_sclk_INP_DIS,
 712:.\Generated_Source\PSoC4/Comm.c ****                                      Comm_spi_sclk_MASK,
 713:.\Generated_Source\PSoC4/Comm.c ****                                      (0u != (pinsInBuf & Comm_SCLK_PIN_MASK)));
 714:.\Generated_Source\PSoC4/Comm.c ****     #endif /* (Comm_SCLK_PIN) */
 715:.\Generated_Source\PSoC4/Comm.c **** 
 716:.\Generated_Source\PSoC4/Comm.c ****     #if (Comm_SS0_PIN)
 717:.\Generated_Source\PSoC4/Comm.c ****         Comm_SET_HSIOM_SEL(Comm_SS0_HSIOM_REG,
 718:.\Generated_Source\PSoC4/Comm.c ****                                        Comm_SS0_HSIOM_MASK,
 719:.\Generated_Source\PSoC4/Comm.c ****                                        Comm_SS0_HSIOM_POS,
 720:.\Generated_Source\PSoC4/Comm.c ****                                        hsiomSel[Comm_SS0_PIN_INDEX]);
 721:.\Generated_Source\PSoC4/Comm.c **** 
 722:.\Generated_Source\PSoC4/Comm.c ****         Comm_spi_ss0_SetDriveMode((uint8) pinsDm[Comm_SS0_PIN_INDEX]);
 723:.\Generated_Source\PSoC4/Comm.c **** 
 724:.\Generated_Source\PSoC4/Comm.c ****         Comm_SET_INP_DIS(Comm_spi_ss0_INP_DIS,
 725:.\Generated_Source\PSoC4/Comm.c ****                                      Comm_spi_ss0_MASK,
 726:.\Generated_Source\PSoC4/Comm.c ****                                      (0u != (pinsInBuf & Comm_SS0_PIN_MASK)));
 727:.\Generated_Source\PSoC4/Comm.c ****     #endif /* (Comm_SS0_PIN) */
 728:.\Generated_Source\PSoC4/Comm.c **** 
 729:.\Generated_Source\PSoC4/Comm.c ****     #if (Comm_SS1_PIN)
 730:.\Generated_Source\PSoC4/Comm.c ****         Comm_SET_HSIOM_SEL(Comm_SS1_HSIOM_REG,
 731:.\Generated_Source\PSoC4/Comm.c ****                                        Comm_SS1_HSIOM_MASK,
 732:.\Generated_Source\PSoC4/Comm.c ****                                        Comm_SS1_HSIOM_POS,
 733:.\Generated_Source\PSoC4/Comm.c ****                                        hsiomSel[Comm_SS1_PIN_INDEX]);
 734:.\Generated_Source\PSoC4/Comm.c **** 
 735:.\Generated_Source\PSoC4/Comm.c ****         Comm_spi_ss1_SetDriveMode((uint8) pinsDm[Comm_SS1_PIN_INDEX]);
 736:.\Generated_Source\PSoC4/Comm.c **** 
 737:.\Generated_Source\PSoC4/Comm.c ****         Comm_SET_INP_DIS(Comm_spi_ss1_INP_DIS,
 738:.\Generated_Source\PSoC4/Comm.c ****                                      Comm_spi_ss1_MASK,
 739:.\Generated_Source\PSoC4/Comm.c ****                                      (0u != (pinsInBuf & Comm_SS1_PIN_MASK)));
 740:.\Generated_Source\PSoC4/Comm.c ****     #endif /* (Comm_SS1_PIN) */
 741:.\Generated_Source\PSoC4/Comm.c **** 
 742:.\Generated_Source\PSoC4/Comm.c ****     #if (Comm_SS2_PIN)
 743:.\Generated_Source\PSoC4/Comm.c ****         Comm_SET_HSIOM_SEL(Comm_SS2_HSIOM_REG,
 744:.\Generated_Source\PSoC4/Comm.c ****                                        Comm_SS2_HSIOM_MASK,
 745:.\Generated_Source\PSoC4/Comm.c ****                                        Comm_SS2_HSIOM_POS,
 746:.\Generated_Source\PSoC4/Comm.c ****                                        hsiomSel[Comm_SS2_PIN_INDEX]);
 747:.\Generated_Source\PSoC4/Comm.c **** 
 748:.\Generated_Source\PSoC4/Comm.c ****         Comm_spi_ss2_SetDriveMode((uint8) pinsDm[Comm_SS2_PIN_INDEX]);
 749:.\Generated_Source\PSoC4/Comm.c **** 
 750:.\Generated_Source\PSoC4/Comm.c ****         Comm_SET_INP_DIS(Comm_spi_ss2_INP_DIS,
 751:.\Generated_Source\PSoC4/Comm.c ****                                      Comm_spi_ss2_MASK,
 752:.\Generated_Source\PSoC4/Comm.c ****                                      (0u != (pinsInBuf & Comm_SS2_PIN_MASK)));
 753:.\Generated_Source\PSoC4/Comm.c ****     #endif /* (Comm_SS2_PIN) */
 754:.\Generated_Source\PSoC4/Comm.c **** 
 755:.\Generated_Source\PSoC4/Comm.c ****     #if (Comm_SS3_PIN)
 756:.\Generated_Source\PSoC4/Comm.c ****         Comm_SET_HSIOM_SEL(Comm_SS3_HSIOM_REG,
ARM GAS  C:\Users\TECHCO~1\AppData\Local\Temp\cc2DaD6G.s 			page 28


 757:.\Generated_Source\PSoC4/Comm.c ****                                        Comm_SS3_HSIOM_MASK,
 758:.\Generated_Source\PSoC4/Comm.c ****                                        Comm_SS3_HSIOM_POS,
 759:.\Generated_Source\PSoC4/Comm.c ****                                        hsiomSel[Comm_SS3_PIN_INDEX]);
 760:.\Generated_Source\PSoC4/Comm.c **** 
 761:.\Generated_Source\PSoC4/Comm.c ****         Comm_spi_ss3_SetDriveMode((uint8) pinsDm[Comm_SS3_PIN_INDEX]);
 762:.\Generated_Source\PSoC4/Comm.c **** 
 763:.\Generated_Source\PSoC4/Comm.c ****         Comm_SET_INP_DIS(Comm_spi_ss3_INP_DIS,
 764:.\Generated_Source\PSoC4/Comm.c ****                                      Comm_spi_ss3_MASK,
 765:.\Generated_Source\PSoC4/Comm.c ****                                      (0u != (pinsInBuf & Comm_SS3_PIN_MASK)));
 766:.\Generated_Source\PSoC4/Comm.c ****     #endif /* (Comm_SS3_PIN) */
 767:.\Generated_Source\PSoC4/Comm.c ****     }
 782              		.loc 1 767 0 is_stmt 1
 783 01ae BD46     		mov	sp, r7
 784 01b0 14B0     		add	sp, sp, #80
 785              		@ sp needed
 786 01b2 80BD     		pop	{r7, pc}
 787              	.L57:
 788              		.align	2
 789              	.L56:
 790 01b4 10000140 		.word	1073807376
 791 01b8 18040440 		.word	1074005016
 792              		.cfi_endproc
 793              	.LFE10:
 794              		.size	Comm_SetPins, .-Comm_SetPins
 795              		.section	.text.Comm_I2CSlaveNackGeneration,"ax",%progbits
 796              		.align	2
 797              		.global	Comm_I2CSlaveNackGeneration
 798              		.code	16
 799              		.thumb_func
 800              		.type	Comm_I2CSlaveNackGeneration, %function
 801              	Comm_I2CSlaveNackGeneration:
 802              	.LFB11:
 768:.\Generated_Source\PSoC4/Comm.c **** 
 769:.\Generated_Source\PSoC4/Comm.c **** #endif /* (Comm_SCB_MODE_UNCONFIG_CONST_CFG) */
 770:.\Generated_Source\PSoC4/Comm.c **** 
 771:.\Generated_Source\PSoC4/Comm.c **** 
 772:.\Generated_Source\PSoC4/Comm.c **** #if (Comm_CY_SCBIP_V0 || Comm_CY_SCBIP_V1)
 773:.\Generated_Source\PSoC4/Comm.c ****     /*******************************************************************************
 774:.\Generated_Source\PSoC4/Comm.c ****     * Function Name: Comm_I2CSlaveNackGeneration
 775:.\Generated_Source\PSoC4/Comm.c ****     ********************************************************************************
 776:.\Generated_Source\PSoC4/Comm.c ****     *
 777:.\Generated_Source\PSoC4/Comm.c ****     * Summary:
 778:.\Generated_Source\PSoC4/Comm.c ****     *  Sets command to generate NACK to the address or data.
 779:.\Generated_Source\PSoC4/Comm.c ****     *
 780:.\Generated_Source\PSoC4/Comm.c ****     * Parameters:
 781:.\Generated_Source\PSoC4/Comm.c ****     *  None
 782:.\Generated_Source\PSoC4/Comm.c ****     *
 783:.\Generated_Source\PSoC4/Comm.c ****     * Return:
 784:.\Generated_Source\PSoC4/Comm.c ****     *  None
 785:.\Generated_Source\PSoC4/Comm.c ****     *
 786:.\Generated_Source\PSoC4/Comm.c ****     *******************************************************************************/
 787:.\Generated_Source\PSoC4/Comm.c ****     void Comm_I2CSlaveNackGeneration(void)
 788:.\Generated_Source\PSoC4/Comm.c ****     {
 803              		.loc 1 788 0
 804              		.cfi_startproc
 805 0000 80B5     		push	{r7, lr}
 806              		.cfi_def_cfa_offset 8
ARM GAS  C:\Users\TECHCO~1\AppData\Local\Temp\cc2DaD6G.s 			page 29


 807              		.cfi_offset 7, -8
 808              		.cfi_offset 14, -4
 809 0002 00AF     		add	r7, sp, #0
 810              		.cfi_def_cfa_register 7
 789:.\Generated_Source\PSoC4/Comm.c ****         /* Check for EC_AM toggle condition: EC_AM and clock stretching for address are enabled */
 790:.\Generated_Source\PSoC4/Comm.c ****         if ((0u != (Comm_CTRL_REG & Comm_CTRL_EC_AM_MODE)) &&
 811              		.loc 1 790 0
 812 0004 0E4B     		ldr	r3, .L60
 813 0006 1A68     		ldr	r2, [r3]
 814 0008 8023     		mov	r3, #128
 815 000a 5B00     		lsl	r3, r3, #1
 816 000c 1340     		and	r3, r2
 817 000e 12D0     		beq	.L59
 791:.\Generated_Source\PSoC4/Comm.c ****             (0u == (Comm_I2C_CTRL_REG & Comm_I2C_CTRL_S_NOT_READY_ADDR_NACK)))
 818              		.loc 1 791 0 discriminator 1
 819 0010 0C4B     		ldr	r3, .L60+4
 820 0012 1A68     		ldr	r2, [r3]
 821 0014 8023     		mov	r3, #128
 822 0016 DB01     		lsl	r3, r3, #7
 823 0018 1340     		and	r3, r2
 790:.\Generated_Source\PSoC4/Comm.c ****             (0u == (Comm_I2C_CTRL_REG & Comm_I2C_CTRL_S_NOT_READY_ADDR_NACK)))
 824              		.loc 1 790 0 discriminator 1
 825 001a 0CD1     		bne	.L59
 792:.\Generated_Source\PSoC4/Comm.c ****         {
 793:.\Generated_Source\PSoC4/Comm.c ****             /* Toggle EC_AM before NACK generation */
 794:.\Generated_Source\PSoC4/Comm.c ****             Comm_CTRL_REG &= ~Comm_CTRL_EC_AM_MODE;
 826              		.loc 1 794 0
 827 001c 084B     		ldr	r3, .L60
 828 001e 084A     		ldr	r2, .L60
 829 0020 1268     		ldr	r2, [r2]
 830 0022 0949     		ldr	r1, .L60+8
 831 0024 0A40     		and	r2, r1
 832 0026 1A60     		str	r2, [r3]
 795:.\Generated_Source\PSoC4/Comm.c ****             Comm_CTRL_REG |=  Comm_CTRL_EC_AM_MODE;
 833              		.loc 1 795 0
 834 0028 054B     		ldr	r3, .L60
 835 002a 054A     		ldr	r2, .L60
 836 002c 1268     		ldr	r2, [r2]
 837 002e 8021     		mov	r1, #128
 838 0030 4900     		lsl	r1, r1, #1
 839 0032 0A43     		orr	r2, r1
 840 0034 1A60     		str	r2, [r3]
 841              	.L59:
 796:.\Generated_Source\PSoC4/Comm.c ****         }
 797:.\Generated_Source\PSoC4/Comm.c **** 
 798:.\Generated_Source\PSoC4/Comm.c ****         Comm_I2C_SLAVE_CMD_REG = Comm_I2C_SLAVE_CMD_S_NACK;
 842              		.loc 1 798 0
 843 0036 054B     		ldr	r3, .L60+12
 844 0038 0222     		mov	r2, #2
 845 003a 1A60     		str	r2, [r3]
 799:.\Generated_Source\PSoC4/Comm.c ****     }
 846              		.loc 1 799 0
 847 003c BD46     		mov	sp, r7
 848              		@ sp needed
 849 003e 80BD     		pop	{r7, pc}
 850              	.L61:
 851              		.align	2
ARM GAS  C:\Users\TECHCO~1\AppData\Local\Temp\cc2DaD6G.s 			page 30


 852              	.L60:
 853 0040 00000640 		.word	1074135040
 854 0044 60000640 		.word	1074135136
 855 0048 FFFEFFFF 		.word	-257
 856 004c 6C000640 		.word	1074135148
 857              		.cfi_endproc
 858              	.LFE11:
 859              		.size	Comm_I2CSlaveNackGeneration, .-Comm_I2CSlaveNackGeneration
 860              		.text
 861              	.Letext0:
 862              		.file 2 "Generated_Source\\PSoC4/cytypes.h"