ARM GAS  C:\Users\TECHCO~1\AppData\Local\Temp\ccXA5msw.s 			page 1


   1              		.cpu cortex-m0
   2              		.fpu softvfp
   3              		.eabi_attribute 20, 1
   4              		.eabi_attribute 21, 1
   5              		.eabi_attribute 23, 3
   6              		.eabi_attribute 24, 1
   7              		.eabi_attribute 25, 1
   8              		.eabi_attribute 26, 1
   9              		.eabi_attribute 30, 6
  10              		.eabi_attribute 34, 0
  11              		.eabi_attribute 18, 4
  12              		.code	16
  13              		.file	"Comm_SPI_UART_INT.c"
  14              		.text
  15              	.Ltext0:
  16              		.cfi_sections	.debug_frame
  17              		.section	.text.Comm_SPI_UART_ISR,"ax",%progbits
  18              		.align	2
  19              		.global	Comm_SPI_UART_ISR
  20              		.code	16
  21              		.thumb_func
  22              		.type	Comm_SPI_UART_ISR, %function
  23              	Comm_SPI_UART_ISR:
  24              	.LFB0:
  25              		.file 1 ".\\Generated_Source\\PSoC4\\Comm_SPI_UART_INT.c"
   1:.\Generated_Source\PSoC4/Comm_SPI_UART_INT.c **** /*******************************************************************************
   2:.\Generated_Source\PSoC4/Comm_SPI_UART_INT.c **** * File Name: Comm_SPI_UART_INT.c
   3:.\Generated_Source\PSoC4/Comm_SPI_UART_INT.c **** * Version 3.10
   4:.\Generated_Source\PSoC4/Comm_SPI_UART_INT.c **** *
   5:.\Generated_Source\PSoC4/Comm_SPI_UART_INT.c **** * Description:
   6:.\Generated_Source\PSoC4/Comm_SPI_UART_INT.c **** *  This file provides the source code to the Interrupt Service Routine for
   7:.\Generated_Source\PSoC4/Comm_SPI_UART_INT.c **** *  the SCB Component in SPI and UART modes.
   8:.\Generated_Source\PSoC4/Comm_SPI_UART_INT.c **** *
   9:.\Generated_Source\PSoC4/Comm_SPI_UART_INT.c **** * Note:
  10:.\Generated_Source\PSoC4/Comm_SPI_UART_INT.c **** *
  11:.\Generated_Source\PSoC4/Comm_SPI_UART_INT.c **** ********************************************************************************
  12:.\Generated_Source\PSoC4/Comm_SPI_UART_INT.c **** * Copyright 2013-2015, Cypress Semiconductor Corporation.  All rights reserved.
  13:.\Generated_Source\PSoC4/Comm_SPI_UART_INT.c **** * You may use this file only in accordance with the license, terms, conditions,
  14:.\Generated_Source\PSoC4/Comm_SPI_UART_INT.c **** * disclaimers, and limitations in the end user license agreement accompanying
  15:.\Generated_Source\PSoC4/Comm_SPI_UART_INT.c **** * the software package with which this file was provided.
  16:.\Generated_Source\PSoC4/Comm_SPI_UART_INT.c **** *******************************************************************************/
  17:.\Generated_Source\PSoC4/Comm_SPI_UART_INT.c **** 
  18:.\Generated_Source\PSoC4/Comm_SPI_UART_INT.c **** #include "Comm_PVT.h"
  19:.\Generated_Source\PSoC4/Comm_SPI_UART_INT.c **** #include "Comm_SPI_UART_PVT.h"
  20:.\Generated_Source\PSoC4/Comm_SPI_UART_INT.c **** 
  21:.\Generated_Source\PSoC4/Comm_SPI_UART_INT.c **** 
  22:.\Generated_Source\PSoC4/Comm_SPI_UART_INT.c **** #if (Comm_SCB_IRQ_INTERNAL)
  23:.\Generated_Source\PSoC4/Comm_SPI_UART_INT.c **** /*******************************************************************************
  24:.\Generated_Source\PSoC4/Comm_SPI_UART_INT.c **** * Function Name: Comm_SPI_UART_ISR
  25:.\Generated_Source\PSoC4/Comm_SPI_UART_INT.c **** ********************************************************************************
  26:.\Generated_Source\PSoC4/Comm_SPI_UART_INT.c **** *
  27:.\Generated_Source\PSoC4/Comm_SPI_UART_INT.c **** * Summary:
  28:.\Generated_Source\PSoC4/Comm_SPI_UART_INT.c **** *  Handles the Interrupt Service Routine for the SCB SPI or UART modes.
  29:.\Generated_Source\PSoC4/Comm_SPI_UART_INT.c **** *
  30:.\Generated_Source\PSoC4/Comm_SPI_UART_INT.c **** * Parameters:
  31:.\Generated_Source\PSoC4/Comm_SPI_UART_INT.c **** *  None
  32:.\Generated_Source\PSoC4/Comm_SPI_UART_INT.c **** *
ARM GAS  C:\Users\TECHCO~1\AppData\Local\Temp\ccXA5msw.s 			page 2


  33:.\Generated_Source\PSoC4/Comm_SPI_UART_INT.c **** * Return:
  34:.\Generated_Source\PSoC4/Comm_SPI_UART_INT.c **** *  None
  35:.\Generated_Source\PSoC4/Comm_SPI_UART_INT.c **** *
  36:.\Generated_Source\PSoC4/Comm_SPI_UART_INT.c **** *******************************************************************************/
  37:.\Generated_Source\PSoC4/Comm_SPI_UART_INT.c **** CY_ISR(Comm_SPI_UART_ISR)
  38:.\Generated_Source\PSoC4/Comm_SPI_UART_INT.c **** {
  26              		.loc 1 38 0
  27              		.cfi_startproc
  28 0000 90B5     		push	{r4, r7, lr}
  29              		.cfi_def_cfa_offset 12
  30              		.cfi_offset 4, -12
  31              		.cfi_offset 7, -8
  32              		.cfi_offset 14, -4
  33 0002 83B0     		sub	sp, sp, #12
  34              		.cfi_def_cfa_offset 24
  35 0004 00AF     		add	r7, sp, #0
  36              		.cfi_def_cfa_register 7
  39:.\Generated_Source\PSoC4/Comm_SPI_UART_INT.c **** #if (Comm_INTERNAL_RX_SW_BUFFER_CONST)
  40:.\Generated_Source\PSoC4/Comm_SPI_UART_INT.c ****     uint32 locHead;
  41:.\Generated_Source\PSoC4/Comm_SPI_UART_INT.c **** #endif /* (Comm_INTERNAL_RX_SW_BUFFER_CONST) */
  42:.\Generated_Source\PSoC4/Comm_SPI_UART_INT.c **** 
  43:.\Generated_Source\PSoC4/Comm_SPI_UART_INT.c **** #if (Comm_INTERNAL_TX_SW_BUFFER_CONST)
  44:.\Generated_Source\PSoC4/Comm_SPI_UART_INT.c ****     uint32 locTail;
  45:.\Generated_Source\PSoC4/Comm_SPI_UART_INT.c **** #endif /* (Comm_INTERNAL_TX_SW_BUFFER_CONST) */
  46:.\Generated_Source\PSoC4/Comm_SPI_UART_INT.c **** 
  47:.\Generated_Source\PSoC4/Comm_SPI_UART_INT.c **** #ifdef Comm_SPI_UART_ISR_ENTRY_CALLBACK
  48:.\Generated_Source\PSoC4/Comm_SPI_UART_INT.c ****     Comm_SPI_UART_ISR_EntryCallback();
  49:.\Generated_Source\PSoC4/Comm_SPI_UART_INT.c **** #endif /* Comm_SPI_UART_ISR_ENTRY_CALLBACK */
  50:.\Generated_Source\PSoC4/Comm_SPI_UART_INT.c **** 
  51:.\Generated_Source\PSoC4/Comm_SPI_UART_INT.c ****     if (NULL != Comm_customIntrHandler)
  37              		.loc 1 51 0
  38 0006 3C4B     		ldr	r3, .L16
  39 0008 1B68     		ldr	r3, [r3]
  40 000a 002B     		cmp	r3, #0
  41 000c 02D0     		beq	.L2
  52:.\Generated_Source\PSoC4/Comm_SPI_UART_INT.c ****     {
  53:.\Generated_Source\PSoC4/Comm_SPI_UART_INT.c ****         Comm_customIntrHandler();
  42              		.loc 1 53 0
  43 000e 3A4B     		ldr	r3, .L16
  44 0010 1B68     		ldr	r3, [r3]
  45 0012 9847     		blx	r3
  46              	.L2:
  54:.\Generated_Source\PSoC4/Comm_SPI_UART_INT.c ****     }
  55:.\Generated_Source\PSoC4/Comm_SPI_UART_INT.c **** 
  56:.\Generated_Source\PSoC4/Comm_SPI_UART_INT.c ****     if (Comm_CHECK_SPI_WAKE_ENABLE)
  47              		.loc 1 56 0
  48 0014 394B     		ldr	r3, .L16+4
  49 0016 1B78     		ldrb	r3, [r3]
  50 0018 002B     		cmp	r3, #0
  51 001a 02D0     		beq	.L3
  57:.\Generated_Source\PSoC4/Comm_SPI_UART_INT.c ****     {
  58:.\Generated_Source\PSoC4/Comm_SPI_UART_INT.c ****         /* Clear SPI wakeup source */
  59:.\Generated_Source\PSoC4/Comm_SPI_UART_INT.c ****         Comm_ClearSpiExtClkInterruptSource(Comm_INTR_SPI_EC_WAKE_UP);
  52              		.loc 1 59 0
  53 001c 384B     		ldr	r3, .L16+8
  54 001e 0122     		mov	r2, #1
  55 0020 1A60     		str	r2, [r3]
ARM GAS  C:\Users\TECHCO~1\AppData\Local\Temp\ccXA5msw.s 			page 3


  56              	.L3:
  60:.\Generated_Source\PSoC4/Comm_SPI_UART_INT.c ****     }
  61:.\Generated_Source\PSoC4/Comm_SPI_UART_INT.c ****     
  62:.\Generated_Source\PSoC4/Comm_SPI_UART_INT.c **** 
  63:.\Generated_Source\PSoC4/Comm_SPI_UART_INT.c ****     if (Comm_CHECK_RX_SW_BUFFER)
  57              		.loc 1 63 0
  58 0022 384B     		ldr	r3, .L16+12
  59 0024 1B68     		ldr	r3, [r3]
  60 0026 002B     		cmp	r3, #0
  61 0028 2DD0     		beq	.L4
  64:.\Generated_Source\PSoC4/Comm_SPI_UART_INT.c ****     {
  65:.\Generated_Source\PSoC4/Comm_SPI_UART_INT.c ****         if (Comm_CHECK_INTR_RX_MASKED(Comm_INTR_RX_NOT_EMPTY))
  62              		.loc 1 65 0
  63 002a 374B     		ldr	r3, .L16+16
  64 002c 1B68     		ldr	r3, [r3]
  65 002e 0422     		mov	r2, #4
  66 0030 1340     		and	r3, r2
  67 0032 28D0     		beq	.L4
  68              	.L8:
  66:.\Generated_Source\PSoC4/Comm_SPI_UART_INT.c ****         {
  67:.\Generated_Source\PSoC4/Comm_SPI_UART_INT.c ****             do
  68:.\Generated_Source\PSoC4/Comm_SPI_UART_INT.c ****             {
  69:.\Generated_Source\PSoC4/Comm_SPI_UART_INT.c ****                 /* Move local head index */
  70:.\Generated_Source\PSoC4/Comm_SPI_UART_INT.c ****                 locHead = (Comm_rxBufferHead + 1u);
  69              		.loc 1 70 0
  70 0034 354B     		ldr	r3, .L16+20
  71 0036 1B68     		ldr	r3, [r3]
  72 0038 0133     		add	r3, r3, #1
  73 003a 7B60     		str	r3, [r7, #4]
  71:.\Generated_Source\PSoC4/Comm_SPI_UART_INT.c **** 
  72:.\Generated_Source\PSoC4/Comm_SPI_UART_INT.c ****                 /* Adjust local head index */
  73:.\Generated_Source\PSoC4/Comm_SPI_UART_INT.c ****                 if (Comm_INTERNAL_RX_BUFFER_SIZE == locHead)
  74              		.loc 1 73 0
  75 003c 344B     		ldr	r3, .L16+24
  76 003e 1B68     		ldr	r3, [r3]
  77 0040 5A1C     		add	r2, r3, #1
  78 0042 7B68     		ldr	r3, [r7, #4]
  79 0044 9A42     		cmp	r2, r3
  80 0046 01D1     		bne	.L5
  74:.\Generated_Source\PSoC4/Comm_SPI_UART_INT.c ****                 {
  75:.\Generated_Source\PSoC4/Comm_SPI_UART_INT.c ****                     locHead = 0u;
  81              		.loc 1 75 0
  82 0048 0023     		mov	r3, #0
  83 004a 7B60     		str	r3, [r7, #4]
  84              	.L5:
  76:.\Generated_Source\PSoC4/Comm_SPI_UART_INT.c ****                 }
  77:.\Generated_Source\PSoC4/Comm_SPI_UART_INT.c **** 
  78:.\Generated_Source\PSoC4/Comm_SPI_UART_INT.c ****                 if (locHead == Comm_rxBufferTail)
  85              		.loc 1 78 0
  86 004c 314B     		ldr	r3, .L16+28
  87 004e 1B68     		ldr	r3, [r3]
  88 0050 7A68     		ldr	r2, [r7, #4]
  89 0052 9A42     		cmp	r2, r3
  90 0054 05D1     		bne	.L6
  79:.\Generated_Source\PSoC4/Comm_SPI_UART_INT.c ****                 {
  80:.\Generated_Source\PSoC4/Comm_SPI_UART_INT.c ****                     if (Comm_CHECK_UART_RTS_CONTROL_FLOW)
  81:.\Generated_Source\PSoC4/Comm_SPI_UART_INT.c ****                     {
ARM GAS  C:\Users\TECHCO~1\AppData\Local\Temp\ccXA5msw.s 			page 4


  82:.\Generated_Source\PSoC4/Comm_SPI_UART_INT.c ****                         /* There is no space in the software buffer - disable the
  83:.\Generated_Source\PSoC4/Comm_SPI_UART_INT.c ****                         * RX Not Empty interrupt source. The data elements are
  84:.\Generated_Source\PSoC4/Comm_SPI_UART_INT.c ****                         * still being received into the RX FIFO until the RTS signal
  85:.\Generated_Source\PSoC4/Comm_SPI_UART_INT.c ****                         * stops the transmitter. After the data element is read from the
  86:.\Generated_Source\PSoC4/Comm_SPI_UART_INT.c ****                         * buffer, the RX Not Empty interrupt source is enabled to
  87:.\Generated_Source\PSoC4/Comm_SPI_UART_INT.c ****                         * move the next data element in the software buffer.
  88:.\Generated_Source\PSoC4/Comm_SPI_UART_INT.c ****                         */
  89:.\Generated_Source\PSoC4/Comm_SPI_UART_INT.c ****                         Comm_INTR_RX_MASK_REG &= ~Comm_INTR_RX_NOT_EMPTY;
  90:.\Generated_Source\PSoC4/Comm_SPI_UART_INT.c ****                         break;
  91:.\Generated_Source\PSoC4/Comm_SPI_UART_INT.c ****                     }
  92:.\Generated_Source\PSoC4/Comm_SPI_UART_INT.c ****                     else
  93:.\Generated_Source\PSoC4/Comm_SPI_UART_INT.c ****                     {
  94:.\Generated_Source\PSoC4/Comm_SPI_UART_INT.c ****                         /* Overflow: through away received data element */
  95:.\Generated_Source\PSoC4/Comm_SPI_UART_INT.c ****                         (void) Comm_RX_FIFO_RD_REG;
  91              		.loc 1 95 0
  92 0056 304B     		ldr	r3, .L16+32
  93 0058 1B68     		ldr	r3, [r3]
  96:.\Generated_Source\PSoC4/Comm_SPI_UART_INT.c ****                         Comm_rxBufferOverflow = (uint8) Comm_INTR_RX_OVERFLOW;
  94              		.loc 1 96 0
  95 005a 304B     		ldr	r3, .L16+36
  96 005c 2022     		mov	r2, #32
  97 005e 1A70     		strb	r2, [r3]
  98 0060 09E0     		b	.L7
  99              	.L6:
  97:.\Generated_Source\PSoC4/Comm_SPI_UART_INT.c ****                     }
  98:.\Generated_Source\PSoC4/Comm_SPI_UART_INT.c ****                     
  99:.\Generated_Source\PSoC4/Comm_SPI_UART_INT.c ****                 }
 100:.\Generated_Source\PSoC4/Comm_SPI_UART_INT.c ****                 else
 101:.\Generated_Source\PSoC4/Comm_SPI_UART_INT.c ****                 {
 102:.\Generated_Source\PSoC4/Comm_SPI_UART_INT.c ****                     /* Store received data */
 103:.\Generated_Source\PSoC4/Comm_SPI_UART_INT.c ****                     Comm_PutWordInRxBuffer(locHead, Comm_RX_FIFO_RD_REG);
 100              		.loc 1 103 0
 101 0062 2D4B     		ldr	r3, .L16+32
 102 0064 1B68     		ldr	r3, [r3]
 103 0066 7A68     		ldr	r2, [r7, #4]
 104 0068 101C     		mov	r0, r2
 105 006a 191C     		mov	r1, r3
 106 006c FFF7FEFF 		bl	Comm_PutWordInRxBuffer
 104:.\Generated_Source\PSoC4/Comm_SPI_UART_INT.c **** 
 105:.\Generated_Source\PSoC4/Comm_SPI_UART_INT.c ****                     /* Move head index */
 106:.\Generated_Source\PSoC4/Comm_SPI_UART_INT.c ****                     Comm_rxBufferHead = locHead;
 107              		.loc 1 106 0
 108 0070 264B     		ldr	r3, .L16+20
 109 0072 7A68     		ldr	r2, [r7, #4]
 110 0074 1A60     		str	r2, [r3]
 111              	.L7:
 107:.\Generated_Source\PSoC4/Comm_SPI_UART_INT.c ****                 }
 108:.\Generated_Source\PSoC4/Comm_SPI_UART_INT.c ****             }
 109:.\Generated_Source\PSoC4/Comm_SPI_UART_INT.c ****             while(0u != Comm_GET_RX_FIFO_ENTRIES);
 112              		.loc 1 109 0
 113 0076 2A4B     		ldr	r3, .L16+40
 114 0078 1B68     		ldr	r3, [r3]
 115 007a 0F22     		mov	r2, #15
 116 007c 1340     		and	r3, r2
 117 007e D9D1     		bne	.L8
 110:.\Generated_Source\PSoC4/Comm_SPI_UART_INT.c **** 
 111:.\Generated_Source\PSoC4/Comm_SPI_UART_INT.c ****             Comm_ClearRxInterruptSource(Comm_INTR_RX_NOT_EMPTY);
ARM GAS  C:\Users\TECHCO~1\AppData\Local\Temp\ccXA5msw.s 			page 5


 118              		.loc 1 111 0
 119 0080 284B     		ldr	r3, .L16+44
 120 0082 0422     		mov	r2, #4
 121 0084 1A60     		str	r2, [r3]
 122              	.L4:
 112:.\Generated_Source\PSoC4/Comm_SPI_UART_INT.c ****         }
 113:.\Generated_Source\PSoC4/Comm_SPI_UART_INT.c ****     }
 114:.\Generated_Source\PSoC4/Comm_SPI_UART_INT.c ****     
 115:.\Generated_Source\PSoC4/Comm_SPI_UART_INT.c **** 
 116:.\Generated_Source\PSoC4/Comm_SPI_UART_INT.c **** 
 117:.\Generated_Source\PSoC4/Comm_SPI_UART_INT.c ****     if (Comm_CHECK_TX_SW_BUFFER)
 123              		.loc 1 117 0
 124 0086 284B     		ldr	r3, .L16+48
 125 0088 1B68     		ldr	r3, [r3]
 126 008a 002B     		cmp	r3, #0
 127 008c 30D0     		beq	.L1
 118:.\Generated_Source\PSoC4/Comm_SPI_UART_INT.c ****     {
 119:.\Generated_Source\PSoC4/Comm_SPI_UART_INT.c ****         if (Comm_CHECK_INTR_TX_MASKED(Comm_INTR_TX_NOT_FULL))
 128              		.loc 1 119 0
 129 008e 274B     		ldr	r3, .L16+52
 130 0090 1B68     		ldr	r3, [r3]
 131 0092 0222     		mov	r2, #2
 132 0094 1340     		and	r3, r2
 133 0096 2BD0     		beq	.L1
 134              	.L14:
 120:.\Generated_Source\PSoC4/Comm_SPI_UART_INT.c ****         {
 121:.\Generated_Source\PSoC4/Comm_SPI_UART_INT.c ****             do
 122:.\Generated_Source\PSoC4/Comm_SPI_UART_INT.c ****             {
 123:.\Generated_Source\PSoC4/Comm_SPI_UART_INT.c ****                 /* Check for room in TX software buffer */
 124:.\Generated_Source\PSoC4/Comm_SPI_UART_INT.c ****                 if (Comm_txBufferHead != Comm_txBufferTail)
 135              		.loc 1 124 0
 136 0098 254B     		ldr	r3, .L16+56
 137 009a 1A68     		ldr	r2, [r3]
 138 009c 254B     		ldr	r3, .L16+60
 139 009e 1B68     		ldr	r3, [r3]
 140 00a0 9A42     		cmp	r2, r3
 141 00a2 15D0     		beq	.L10
 125:.\Generated_Source\PSoC4/Comm_SPI_UART_INT.c ****                 {
 126:.\Generated_Source\PSoC4/Comm_SPI_UART_INT.c ****                     /* Move local tail index */
 127:.\Generated_Source\PSoC4/Comm_SPI_UART_INT.c ****                     locTail = (Comm_txBufferTail + 1u);
 142              		.loc 1 127 0
 143 00a4 234B     		ldr	r3, .L16+60
 144 00a6 1B68     		ldr	r3, [r3]
 145 00a8 0133     		add	r3, r3, #1
 146 00aa 3B60     		str	r3, [r7]
 128:.\Generated_Source\PSoC4/Comm_SPI_UART_INT.c **** 
 129:.\Generated_Source\PSoC4/Comm_SPI_UART_INT.c ****                     /* Adjust local tail index */
 130:.\Generated_Source\PSoC4/Comm_SPI_UART_INT.c ****                     if (Comm_TX_BUFFER_SIZE == locTail)
 147              		.loc 1 130 0
 148 00ac 224B     		ldr	r3, .L16+64
 149 00ae 1A68     		ldr	r2, [r3]
 150 00b0 3B68     		ldr	r3, [r7]
 151 00b2 9A42     		cmp	r2, r3
 152 00b4 01D1     		bne	.L11
 131:.\Generated_Source\PSoC4/Comm_SPI_UART_INT.c ****                     {
 132:.\Generated_Source\PSoC4/Comm_SPI_UART_INT.c ****                         locTail = 0u;
 153              		.loc 1 132 0
ARM GAS  C:\Users\TECHCO~1\AppData\Local\Temp\ccXA5msw.s 			page 6


 154 00b6 0023     		mov	r3, #0
 155 00b8 3B60     		str	r3, [r7]
 156              	.L11:
 133:.\Generated_Source\PSoC4/Comm_SPI_UART_INT.c ****                     }
 134:.\Generated_Source\PSoC4/Comm_SPI_UART_INT.c **** 
 135:.\Generated_Source\PSoC4/Comm_SPI_UART_INT.c ****                     /* Put data into TX FIFO */
 136:.\Generated_Source\PSoC4/Comm_SPI_UART_INT.c ****                     Comm_TX_FIFO_WR_REG = Comm_GetWordFromTxBuffer(locTail);
 157              		.loc 1 136 0
 158 00ba 204C     		ldr	r4, .L16+68
 159 00bc 3B68     		ldr	r3, [r7]
 160 00be 181C     		mov	r0, r3
 161 00c0 FFF7FEFF 		bl	Comm_GetWordFromTxBuffer
 162 00c4 031C     		mov	r3, r0
 163 00c6 2360     		str	r3, [r4]
 137:.\Generated_Source\PSoC4/Comm_SPI_UART_INT.c **** 
 138:.\Generated_Source\PSoC4/Comm_SPI_UART_INT.c ****                     /* Move tail index */
 139:.\Generated_Source\PSoC4/Comm_SPI_UART_INT.c ****                     Comm_txBufferTail = locTail;
 164              		.loc 1 139 0
 165 00c8 1A4B     		ldr	r3, .L16+60
 166 00ca 3A68     		ldr	r2, [r7]
 167 00cc 1A60     		str	r2, [r3]
 168 00ce 06E0     		b	.L15
 169              	.L10:
 140:.\Generated_Source\PSoC4/Comm_SPI_UART_INT.c ****                 }
 141:.\Generated_Source\PSoC4/Comm_SPI_UART_INT.c ****                 else
 142:.\Generated_Source\PSoC4/Comm_SPI_UART_INT.c ****                 {
 143:.\Generated_Source\PSoC4/Comm_SPI_UART_INT.c ****                     /* TX software buffer is empty: complete transfer */
 144:.\Generated_Source\PSoC4/Comm_SPI_UART_INT.c ****                     Comm_DISABLE_INTR_TX(Comm_INTR_TX_NOT_FULL);
 170              		.loc 1 144 0
 171 00d0 1B4B     		ldr	r3, .L16+72
 172 00d2 1B4A     		ldr	r2, .L16+72
 173 00d4 1268     		ldr	r2, [r2]
 174 00d6 0221     		mov	r1, #2
 175 00d8 8A43     		bic	r2, r1
 176 00da 1A60     		str	r2, [r3]
 145:.\Generated_Source\PSoC4/Comm_SPI_UART_INT.c ****                     break;
 177              		.loc 1 145 0
 178 00dc 05E0     		b	.L13
 179              	.L15:
 146:.\Generated_Source\PSoC4/Comm_SPI_UART_INT.c ****                 }
 147:.\Generated_Source\PSoC4/Comm_SPI_UART_INT.c ****             }
 148:.\Generated_Source\PSoC4/Comm_SPI_UART_INT.c ****             while (Comm_SPI_UART_FIFO_SIZE != Comm_GET_TX_FIFO_ENTRIES);
 180              		.loc 1 148 0
 181 00de 194B     		ldr	r3, .L16+76
 182 00e0 1B68     		ldr	r3, [r3]
 183 00e2 0F22     		mov	r2, #15
 184 00e4 1340     		and	r3, r2
 185 00e6 082B     		cmp	r3, #8
 186 00e8 D6D1     		bne	.L14
 187              	.L13:
 149:.\Generated_Source\PSoC4/Comm_SPI_UART_INT.c **** 
 150:.\Generated_Source\PSoC4/Comm_SPI_UART_INT.c ****             Comm_ClearTxInterruptSource(Comm_INTR_TX_NOT_FULL);
 188              		.loc 1 150 0
 189 00ea 174B     		ldr	r3, .L16+80
 190 00ec 0222     		mov	r2, #2
 191 00ee 1A60     		str	r2, [r3]
 192              	.L1:
ARM GAS  C:\Users\TECHCO~1\AppData\Local\Temp\ccXA5msw.s 			page 7


 151:.\Generated_Source\PSoC4/Comm_SPI_UART_INT.c ****         }
 152:.\Generated_Source\PSoC4/Comm_SPI_UART_INT.c ****     }
 153:.\Generated_Source\PSoC4/Comm_SPI_UART_INT.c ****     
 154:.\Generated_Source\PSoC4/Comm_SPI_UART_INT.c ****     
 155:.\Generated_Source\PSoC4/Comm_SPI_UART_INT.c **** #ifdef Comm_SPI_UART_ISR_EXIT_CALLBACK
 156:.\Generated_Source\PSoC4/Comm_SPI_UART_INT.c ****     Comm_SPI_UART_ISR_ExitCallback();
 157:.\Generated_Source\PSoC4/Comm_SPI_UART_INT.c **** #endif /* Comm_SPI_UART_ISR_EXIT_CALLBACK */
 158:.\Generated_Source\PSoC4/Comm_SPI_UART_INT.c ****     
 159:.\Generated_Source\PSoC4/Comm_SPI_UART_INT.c **** }
 193              		.loc 1 159 0
 194 00f0 BD46     		mov	sp, r7
 195 00f2 03B0     		add	sp, sp, #12
 196              		@ sp needed
 197 00f4 90BD     		pop	{r4, r7, pc}
 198              	.L17:
 199 00f6 C046     		.align	2
 200              	.L16:
 201 00f8 00000000 		.word	Comm_customIntrHandler
 202 00fc 00000000 		.word	Comm_scbEnableWake
 203 0100 C00E0640 		.word	1074138816
 204 0104 00000000 		.word	Comm_rxBuffer
 205 0108 CC0F0640 		.word	1074139084
 206 010c 00000000 		.word	Comm_rxBufferHead
 207 0110 00000000 		.word	Comm_rxBufferSize
 208 0114 00000000 		.word	Comm_rxBufferTail
 209 0118 40030640 		.word	1074135872
 210 011c 00000000 		.word	Comm_rxBufferOverflow
 211 0120 08030640 		.word	1074135816
 212 0124 C00F0640 		.word	1074139072
 213 0128 00000000 		.word	Comm_txBuffer
 214 012c 8C0F0640 		.word	1074139020
 215 0130 00000000 		.word	Comm_txBufferHead
 216 0134 00000000 		.word	Comm_txBufferTail
 217 0138 00000000 		.word	Comm_txBufferSize
 218 013c 40020640 		.word	1074135616
 219 0140 880F0640 		.word	1074139016
 220 0144 08020640 		.word	1074135560
 221 0148 800F0640 		.word	1074139008
 222              		.cfi_endproc
 223              	.LFE0:
 224              		.size	Comm_SPI_UART_ISR, .-Comm_SPI_UART_ISR
 225              		.text
 226              	.Letext0:
 227              		.file 2 "Generated_Source\\PSoC4/cytypes.h"
 228              		.file 3 ".\\Generated_Source\\PSoC4\\Comm_PVT.h"
 229              		.file 4 ".\\Generated_Source\\PSoC4\\Comm_SPI_UART_PVT.h"