ARM GAS  C:\Users\TECHCO~1\AppData\Local\Temp\ccJdjAYV.s 			page 1


   1              		.cpu cortex-m0
   2              		.fpu softvfp
   3              		.eabi_attribute 20, 1
   4              		.eabi_attribute 21, 1
   5              		.eabi_attribute 23, 3
   6              		.eabi_attribute 24, 1
   7              		.eabi_attribute 25, 1
   8              		.eabi_attribute 26, 1
   9              		.eabi_attribute 30, 6
  10              		.eabi_attribute 34, 0
  11              		.eabi_attribute 18, 4
  12              		.code	16
  13              		.file	"Comm_I2C_SLAVE.c"
  14              		.text
  15              	.Ltext0:
  16              		.cfi_sections	.debug_frame
  17              		.comm	Comm_slStatus,1,1
  18              		.comm	Comm_slWrBufPtr,4,4
  19              		.comm	Comm_slWrBufSize,4,4
  20              		.comm	Comm_slWrBufIndex,4,4
  21              		.comm	Comm_slRdBufPtr,4,4
  22              		.comm	Comm_slRdBufSize,4,4
  23              		.comm	Comm_slRdBufIndex,4,4
  24              		.comm	Comm_slRdBufIndexTmp,4,4
  25              		.comm	Comm_slOverFlowCount,1,1
  26              		.global	Comm_customAddressHandler
  27              		.bss
  28              		.align	2
  29              		.type	Comm_customAddressHandler, %object
  30              		.size	Comm_customAddressHandler, 4
  31              	Comm_customAddressHandler:
  32 0000 00000000 		.space	4
  33              		.section	.text.Comm_SetI2cAddressCustomInterruptHandler,"ax",%progbits
  34              		.align	2
  35              		.global	Comm_SetI2cAddressCustomInterruptHandler
  36              		.code	16
  37              		.thumb_func
  38              		.type	Comm_SetI2cAddressCustomInterruptHandler, %function
  39              	Comm_SetI2cAddressCustomInterruptHandler:
  40              	.LFB0:
  41              		.file 1 ".\\Generated_Source\\PSoC4\\Comm_I2C_SLAVE.c"
   1:.\Generated_Source\PSoC4/Comm_I2C_SLAVE.c **** /*******************************************************************************
   2:.\Generated_Source\PSoC4/Comm_I2C_SLAVE.c **** * File Name: Comm_I2C_SLAVE.c
   3:.\Generated_Source\PSoC4/Comm_I2C_SLAVE.c **** * Version 3.10
   4:.\Generated_Source\PSoC4/Comm_I2C_SLAVE.c **** *
   5:.\Generated_Source\PSoC4/Comm_I2C_SLAVE.c **** * Description:
   6:.\Generated_Source\PSoC4/Comm_I2C_SLAVE.c **** *  This file provides the source code to the API for the SCB Component in
   7:.\Generated_Source\PSoC4/Comm_I2C_SLAVE.c **** *  I2C Slave mode.
   8:.\Generated_Source\PSoC4/Comm_I2C_SLAVE.c **** *
   9:.\Generated_Source\PSoC4/Comm_I2C_SLAVE.c **** * Note:
  10:.\Generated_Source\PSoC4/Comm_I2C_SLAVE.c **** *
  11:.\Generated_Source\PSoC4/Comm_I2C_SLAVE.c **** *******************************************************************************
  12:.\Generated_Source\PSoC4/Comm_I2C_SLAVE.c **** * Copyright 2013-2015, Cypress Semiconductor Corporation.  All rights reserved.
  13:.\Generated_Source\PSoC4/Comm_I2C_SLAVE.c **** * You may use this file only in accordance with the license, terms, conditions,
  14:.\Generated_Source\PSoC4/Comm_I2C_SLAVE.c **** * disclaimers, and limitations in the end user license agreement accompanying
  15:.\Generated_Source\PSoC4/Comm_I2C_SLAVE.c **** * the software package with which this file was provided.
  16:.\Generated_Source\PSoC4/Comm_I2C_SLAVE.c **** *******************************************************************************/
ARM GAS  C:\Users\TECHCO~1\AppData\Local\Temp\ccJdjAYV.s 			page 2


  17:.\Generated_Source\PSoC4/Comm_I2C_SLAVE.c **** 
  18:.\Generated_Source\PSoC4/Comm_I2C_SLAVE.c **** #include "Comm_I2C_PVT.h"
  19:.\Generated_Source\PSoC4/Comm_I2C_SLAVE.c **** 
  20:.\Generated_Source\PSoC4/Comm_I2C_SLAVE.c **** #if(Comm_I2C_SLAVE_CONST)
  21:.\Generated_Source\PSoC4/Comm_I2C_SLAVE.c **** 
  22:.\Generated_Source\PSoC4/Comm_I2C_SLAVE.c **** /***************************************
  23:.\Generated_Source\PSoC4/Comm_I2C_SLAVE.c **** *      I2C Slave Private Vars
  24:.\Generated_Source\PSoC4/Comm_I2C_SLAVE.c **** ***************************************/
  25:.\Generated_Source\PSoC4/Comm_I2C_SLAVE.c **** 
  26:.\Generated_Source\PSoC4/Comm_I2C_SLAVE.c **** volatile uint8 Comm_slStatus;          /* Slave Status */
  27:.\Generated_Source\PSoC4/Comm_I2C_SLAVE.c **** 
  28:.\Generated_Source\PSoC4/Comm_I2C_SLAVE.c **** /* Receive buffer variables */
  29:.\Generated_Source\PSoC4/Comm_I2C_SLAVE.c **** volatile uint8 * Comm_slWrBufPtr;      /* Pointer to Receive buffer  */
  30:.\Generated_Source\PSoC4/Comm_I2C_SLAVE.c **** volatile uint32  Comm_slWrBufSize;     /* Slave Receive buffer size  */
  31:.\Generated_Source\PSoC4/Comm_I2C_SLAVE.c **** volatile uint32  Comm_slWrBufIndex;    /* Slave Receive buffer Index */
  32:.\Generated_Source\PSoC4/Comm_I2C_SLAVE.c **** 
  33:.\Generated_Source\PSoC4/Comm_I2C_SLAVE.c **** /* Transmit buffer variables */
  34:.\Generated_Source\PSoC4/Comm_I2C_SLAVE.c **** volatile uint8 * Comm_slRdBufPtr;      /* Pointer to Transmit buffer  */
  35:.\Generated_Source\PSoC4/Comm_I2C_SLAVE.c **** volatile uint32  Comm_slRdBufSize;     /* Slave Transmit buffer size  */
  36:.\Generated_Source\PSoC4/Comm_I2C_SLAVE.c **** volatile uint32  Comm_slRdBufIndex;    /* Slave Transmit buffer Index */
  37:.\Generated_Source\PSoC4/Comm_I2C_SLAVE.c **** volatile uint32  Comm_slRdBufIndexTmp; /* Slave Transmit buffer Index Tmp */
  38:.\Generated_Source\PSoC4/Comm_I2C_SLAVE.c **** volatile uint8   Comm_slOverFlowCount; /* Slave Transmit Overflow counter */
  39:.\Generated_Source\PSoC4/Comm_I2C_SLAVE.c **** 
  40:.\Generated_Source\PSoC4/Comm_I2C_SLAVE.c **** #if (Comm_I2C_CUSTOM_ADDRESS_HANDLER_CONST)
  41:.\Generated_Source\PSoC4/Comm_I2C_SLAVE.c **** 
  42:.\Generated_Source\PSoC4/Comm_I2C_SLAVE.c ****     uint32 (*Comm_customAddressHandler)(void) = NULL;
  43:.\Generated_Source\PSoC4/Comm_I2C_SLAVE.c **** 
  44:.\Generated_Source\PSoC4/Comm_I2C_SLAVE.c **** 
  45:.\Generated_Source\PSoC4/Comm_I2C_SLAVE.c ****     /*******************************************************************************
  46:.\Generated_Source\PSoC4/Comm_I2C_SLAVE.c ****     * Function Name: Comm_SetI2cAddressCustomInterruptHandler
  47:.\Generated_Source\PSoC4/Comm_I2C_SLAVE.c ****     ********************************************************************************
  48:.\Generated_Source\PSoC4/Comm_I2C_SLAVE.c ****     *
  49:.\Generated_Source\PSoC4/Comm_I2C_SLAVE.c ****     * Summary:
  50:.\Generated_Source\PSoC4/Comm_I2C_SLAVE.c ****     *  Registers a function to be called by the I2C slave interrupt handler during
  51:.\Generated_Source\PSoC4/Comm_I2C_SLAVE.c ****     *  the I2C interrupt address processing. This function should be used when
  52:.\Generated_Source\PSoC4/Comm_I2C_SLAVE.c ****     *  multiple I2C addresses need to be decoded or general call address supported.
  53:.\Generated_Source\PSoC4/Comm_I2C_SLAVE.c ****     *  The registered function must return decision whether to ACK or NACK address.
  54:.\Generated_Source\PSoC4/Comm_I2C_SLAVE.c ****     *  Only one I2C address handler is supported, which is the function provided
  55:.\Generated_Source\PSoC4/Comm_I2C_SLAVE.c ****     *  by the most recent call.
  56:.\Generated_Source\PSoC4/Comm_I2C_SLAVE.c ****     *  At initialization time no I2C address handler is registered.
  57:.\Generated_Source\PSoC4/Comm_I2C_SLAVE.c ****     *
  58:.\Generated_Source\PSoC4/Comm_I2C_SLAVE.c ****     * Parameters:
  59:.\Generated_Source\PSoC4/Comm_I2C_SLAVE.c ****     *  func: Pointer to the function to register.
  60:.\Generated_Source\PSoC4/Comm_I2C_SLAVE.c ****     *        The value NULL indicates to remove the current custom interrupt
  61:.\Generated_Source\PSoC4/Comm_I2C_SLAVE.c ****     *        handler.
  62:.\Generated_Source\PSoC4/Comm_I2C_SLAVE.c ****     *
  63:.\Generated_Source\PSoC4/Comm_I2C_SLAVE.c ****     * Return:
  64:.\Generated_Source\PSoC4/Comm_I2C_SLAVE.c ****     *  None
  65:.\Generated_Source\PSoC4/Comm_I2C_SLAVE.c ****     *
  66:.\Generated_Source\PSoC4/Comm_I2C_SLAVE.c ****     *******************************************************************************/
  67:.\Generated_Source\PSoC4/Comm_I2C_SLAVE.c ****     void Comm_SetI2cAddressCustomInterruptHandler(uint32 (*func) (void))
  68:.\Generated_Source\PSoC4/Comm_I2C_SLAVE.c ****     {
  42              		.loc 1 68 0
  43              		.cfi_startproc
  44 0000 80B5     		push	{r7, lr}
  45              		.cfi_def_cfa_offset 8
  46              		.cfi_offset 7, -8
ARM GAS  C:\Users\TECHCO~1\AppData\Local\Temp\ccJdjAYV.s 			page 3


  47              		.cfi_offset 14, -4
  48 0002 82B0     		sub	sp, sp, #8
  49              		.cfi_def_cfa_offset 16
  50 0004 00AF     		add	r7, sp, #0
  51              		.cfi_def_cfa_register 7
  52 0006 7860     		str	r0, [r7, #4]
  69:.\Generated_Source\PSoC4/Comm_I2C_SLAVE.c ****         /* Register custom address handler */
  70:.\Generated_Source\PSoC4/Comm_I2C_SLAVE.c ****         Comm_customAddressHandler = func;
  53              		.loc 1 70 0
  54 0008 024B     		ldr	r3, .L2
  55 000a 7A68     		ldr	r2, [r7, #4]
  56 000c 1A60     		str	r2, [r3]
  71:.\Generated_Source\PSoC4/Comm_I2C_SLAVE.c ****     }
  57              		.loc 1 71 0
  58 000e BD46     		mov	sp, r7
  59 0010 02B0     		add	sp, sp, #8
  60              		@ sp needed
  61 0012 80BD     		pop	{r7, pc}
  62              	.L3:
  63              		.align	2
  64              	.L2:
  65 0014 00000000 		.word	Comm_customAddressHandler
  66              		.cfi_endproc
  67              	.LFE0:
  68              		.size	Comm_SetI2cAddressCustomInterruptHandler, .-Comm_SetI2cAddressCustomInterruptHandler
  69              		.section	.text.Comm_I2CSlaveStatus,"ax",%progbits
  70              		.align	2
  71              		.global	Comm_I2CSlaveStatus
  72              		.code	16
  73              		.thumb_func
  74              		.type	Comm_I2CSlaveStatus, %function
  75              	Comm_I2CSlaveStatus:
  76              	.LFB1:
  72:.\Generated_Source\PSoC4/Comm_I2C_SLAVE.c **** #endif /* (Comm_I2C_CUSTOM_ADDRESS_HANDLER_CONST) */
  73:.\Generated_Source\PSoC4/Comm_I2C_SLAVE.c **** 
  74:.\Generated_Source\PSoC4/Comm_I2C_SLAVE.c **** 
  75:.\Generated_Source\PSoC4/Comm_I2C_SLAVE.c **** /*******************************************************************************
  76:.\Generated_Source\PSoC4/Comm_I2C_SLAVE.c **** * Function Name: Comm_I2CSlaveStatus
  77:.\Generated_Source\PSoC4/Comm_I2C_SLAVE.c **** ********************************************************************************
  78:.\Generated_Source\PSoC4/Comm_I2C_SLAVE.c **** *
  79:.\Generated_Source\PSoC4/Comm_I2C_SLAVE.c **** * Summary:
  80:.\Generated_Source\PSoC4/Comm_I2C_SLAVE.c **** *  Returns the I2C slave's communication status.
  81:.\Generated_Source\PSoC4/Comm_I2C_SLAVE.c **** *
  82:.\Generated_Source\PSoC4/Comm_I2C_SLAVE.c **** * Parameters:
  83:.\Generated_Source\PSoC4/Comm_I2C_SLAVE.c **** *  None
  84:.\Generated_Source\PSoC4/Comm_I2C_SLAVE.c **** *
  85:.\Generated_Source\PSoC4/Comm_I2C_SLAVE.c **** * Return:
  86:.\Generated_Source\PSoC4/Comm_I2C_SLAVE.c **** *  Current status of I2C slave.
  87:.\Generated_Source\PSoC4/Comm_I2C_SLAVE.c **** *
  88:.\Generated_Source\PSoC4/Comm_I2C_SLAVE.c **** * Global variables:
  89:.\Generated_Source\PSoC4/Comm_I2C_SLAVE.c **** *  Comm_slStatus - used to store current status of I2C slave.
  90:.\Generated_Source\PSoC4/Comm_I2C_SLAVE.c **** *
  91:.\Generated_Source\PSoC4/Comm_I2C_SLAVE.c **** *******************************************************************************/
  92:.\Generated_Source\PSoC4/Comm_I2C_SLAVE.c **** uint32 Comm_I2CSlaveStatus(void)
  93:.\Generated_Source\PSoC4/Comm_I2C_SLAVE.c **** {
  77              		.loc 1 93 0
  78              		.cfi_startproc
ARM GAS  C:\Users\TECHCO~1\AppData\Local\Temp\ccJdjAYV.s 			page 4


  79 0000 80B5     		push	{r7, lr}
  80              		.cfi_def_cfa_offset 8
  81              		.cfi_offset 7, -8
  82              		.cfi_offset 14, -4
  83 0002 00AF     		add	r7, sp, #0
  84              		.cfi_def_cfa_register 7
  94:.\Generated_Source\PSoC4/Comm_I2C_SLAVE.c ****     return((uint32) Comm_slStatus);
  85              		.loc 1 94 0
  86 0004 024B     		ldr	r3, .L6
  87 0006 1B78     		ldrb	r3, [r3]
  88 0008 DBB2     		uxtb	r3, r3
  95:.\Generated_Source\PSoC4/Comm_I2C_SLAVE.c **** }
  89              		.loc 1 95 0
  90 000a 181C     		mov	r0, r3
  91 000c BD46     		mov	sp, r7
  92              		@ sp needed
  93 000e 80BD     		pop	{r7, pc}
  94              	.L7:
  95              		.align	2
  96              	.L6:
  97 0010 00000000 		.word	Comm_slStatus
  98              		.cfi_endproc
  99              	.LFE1:
 100              		.size	Comm_I2CSlaveStatus, .-Comm_I2CSlaveStatus
 101              		.section	.text.Comm_I2CSlaveClearReadStatus,"ax",%progbits
 102              		.align	2
 103              		.global	Comm_I2CSlaveClearReadStatus
 104              		.code	16
 105              		.thumb_func
 106              		.type	Comm_I2CSlaveClearReadStatus, %function
 107              	Comm_I2CSlaveClearReadStatus:
 108              	.LFB2:
  96:.\Generated_Source\PSoC4/Comm_I2C_SLAVE.c **** 
  97:.\Generated_Source\PSoC4/Comm_I2C_SLAVE.c **** 
  98:.\Generated_Source\PSoC4/Comm_I2C_SLAVE.c **** /*******************************************************************************
  99:.\Generated_Source\PSoC4/Comm_I2C_SLAVE.c **** * Function Name: Comm_I2CSlaveClearReadStatus
 100:.\Generated_Source\PSoC4/Comm_I2C_SLAVE.c **** ********************************************************************************
 101:.\Generated_Source\PSoC4/Comm_I2C_SLAVE.c **** *
 102:.\Generated_Source\PSoC4/Comm_I2C_SLAVE.c **** * Summary:
 103:.\Generated_Source\PSoC4/Comm_I2C_SLAVE.c **** *  Clears the read status flags and returns their values. No other status flags
 104:.\Generated_Source\PSoC4/Comm_I2C_SLAVE.c **** *  are affected.
 105:.\Generated_Source\PSoC4/Comm_I2C_SLAVE.c **** *
 106:.\Generated_Source\PSoC4/Comm_I2C_SLAVE.c **** * Parameters:
 107:.\Generated_Source\PSoC4/Comm_I2C_SLAVE.c **** *  None
 108:.\Generated_Source\PSoC4/Comm_I2C_SLAVE.c **** *
 109:.\Generated_Source\PSoC4/Comm_I2C_SLAVE.c **** * Return:
 110:.\Generated_Source\PSoC4/Comm_I2C_SLAVE.c **** *  Current read status of I2C slave.
 111:.\Generated_Source\PSoC4/Comm_I2C_SLAVE.c **** *
 112:.\Generated_Source\PSoC4/Comm_I2C_SLAVE.c **** * Global variables:
 113:.\Generated_Source\PSoC4/Comm_I2C_SLAVE.c **** *  Comm_slStatus  - used to store current status of I2C slave.
 114:.\Generated_Source\PSoC4/Comm_I2C_SLAVE.c **** *
 115:.\Generated_Source\PSoC4/Comm_I2C_SLAVE.c **** *******************************************************************************/
 116:.\Generated_Source\PSoC4/Comm_I2C_SLAVE.c **** uint32 Comm_I2CSlaveClearReadStatus(void)
 117:.\Generated_Source\PSoC4/Comm_I2C_SLAVE.c **** {
 109              		.loc 1 117 0
 110              		.cfi_startproc
 111 0000 80B5     		push	{r7, lr}
ARM GAS  C:\Users\TECHCO~1\AppData\Local\Temp\ccJdjAYV.s 			page 5


 112              		.cfi_def_cfa_offset 8
 113              		.cfi_offset 7, -8
 114              		.cfi_offset 14, -4
 115 0002 82B0     		sub	sp, sp, #8
 116              		.cfi_def_cfa_offset 16
 117 0004 00AF     		add	r7, sp, #0
 118              		.cfi_def_cfa_register 7
 118:.\Generated_Source\PSoC4/Comm_I2C_SLAVE.c ****     uint32 status;
 119:.\Generated_Source\PSoC4/Comm_I2C_SLAVE.c **** 
 120:.\Generated_Source\PSoC4/Comm_I2C_SLAVE.c ****     Comm_DisableInt();  /* Lock from interruption */
 119              		.loc 1 120 0
 120 0006 0A20     		mov	r0, #10
 121 0008 FFF7FEFF 		bl	CyIntDisable
 121:.\Generated_Source\PSoC4/Comm_I2C_SLAVE.c **** 
 122:.\Generated_Source\PSoC4/Comm_I2C_SLAVE.c ****     /* Mask of transfer complete flag and error status */
 123:.\Generated_Source\PSoC4/Comm_I2C_SLAVE.c ****     status = ((uint32) Comm_slStatus & Comm_I2C_SSTAT_RD_MASK);
 122              		.loc 1 123 0
 123 000c 0B4B     		ldr	r3, .L10
 124 000e 1B78     		ldrb	r3, [r3]
 125 0010 DBB2     		uxtb	r3, r3
 126 0012 1A1C     		mov	r2, r3
 127 0014 0F23     		mov	r3, #15
 128 0016 1340     		and	r3, r2
 129 0018 7B60     		str	r3, [r7, #4]
 124:.\Generated_Source\PSoC4/Comm_I2C_SLAVE.c ****     Comm_slStatus &= (uint8) ~Comm_I2C_SSTAT_RD_CLEAR;
 130              		.loc 1 124 0
 131 001a 084B     		ldr	r3, .L10
 132 001c 1B78     		ldrb	r3, [r3]
 133 001e DBB2     		uxtb	r3, r3
 134 0020 0D22     		mov	r2, #13
 135 0022 9343     		bic	r3, r2
 136 0024 DAB2     		uxtb	r2, r3
 137 0026 054B     		ldr	r3, .L10
 138 0028 1A70     		strb	r2, [r3]
 125:.\Generated_Source\PSoC4/Comm_I2C_SLAVE.c **** 
 126:.\Generated_Source\PSoC4/Comm_I2C_SLAVE.c ****     Comm_EnableInt();   /* Release lock */
 139              		.loc 1 126 0
 140 002a 0A20     		mov	r0, #10
 141 002c FFF7FEFF 		bl	CyIntEnable
 127:.\Generated_Source\PSoC4/Comm_I2C_SLAVE.c **** 
 128:.\Generated_Source\PSoC4/Comm_I2C_SLAVE.c ****     return(status);
 142              		.loc 1 128 0
 143 0030 7B68     		ldr	r3, [r7, #4]
 129:.\Generated_Source\PSoC4/Comm_I2C_SLAVE.c **** }
 144              		.loc 1 129 0
 145 0032 181C     		mov	r0, r3
 146 0034 BD46     		mov	sp, r7
 147 0036 02B0     		add	sp, sp, #8
 148              		@ sp needed
 149 0038 80BD     		pop	{r7, pc}
 150              	.L11:
 151 003a C046     		.align	2
 152              	.L10:
 153 003c 00000000 		.word	Comm_slStatus
 154              		.cfi_endproc
 155              	.LFE2:
 156              		.size	Comm_I2CSlaveClearReadStatus, .-Comm_I2CSlaveClearReadStatus
ARM GAS  C:\Users\TECHCO~1\AppData\Local\Temp\ccJdjAYV.s 			page 6


 157              		.section	.text.Comm_I2CSlaveClearWriteStatus,"ax",%progbits
 158              		.align	2
 159              		.global	Comm_I2CSlaveClearWriteStatus
 160              		.code	16
 161              		.thumb_func
 162              		.type	Comm_I2CSlaveClearWriteStatus, %function
 163              	Comm_I2CSlaveClearWriteStatus:
 164              	.LFB3:
 130:.\Generated_Source\PSoC4/Comm_I2C_SLAVE.c **** 
 131:.\Generated_Source\PSoC4/Comm_I2C_SLAVE.c **** 
 132:.\Generated_Source\PSoC4/Comm_I2C_SLAVE.c **** /*******************************************************************************
 133:.\Generated_Source\PSoC4/Comm_I2C_SLAVE.c **** * Function Name: Comm_I2CSlaveClearWriteStatus
 134:.\Generated_Source\PSoC4/Comm_I2C_SLAVE.c **** ********************************************************************************
 135:.\Generated_Source\PSoC4/Comm_I2C_SLAVE.c **** *
 136:.\Generated_Source\PSoC4/Comm_I2C_SLAVE.c **** * Summary:
 137:.\Generated_Source\PSoC4/Comm_I2C_SLAVE.c **** *  Clears the write status flags and returns their values. No other status flags
 138:.\Generated_Source\PSoC4/Comm_I2C_SLAVE.c **** *  are affected.
 139:.\Generated_Source\PSoC4/Comm_I2C_SLAVE.c **** *
 140:.\Generated_Source\PSoC4/Comm_I2C_SLAVE.c **** * Parameters:
 141:.\Generated_Source\PSoC4/Comm_I2C_SLAVE.c **** *  None
 142:.\Generated_Source\PSoC4/Comm_I2C_SLAVE.c **** *
 143:.\Generated_Source\PSoC4/Comm_I2C_SLAVE.c **** * Return:
 144:.\Generated_Source\PSoC4/Comm_I2C_SLAVE.c **** *  Current write status of I2C slave.
 145:.\Generated_Source\PSoC4/Comm_I2C_SLAVE.c **** *
 146:.\Generated_Source\PSoC4/Comm_I2C_SLAVE.c **** * Global variables:
 147:.\Generated_Source\PSoC4/Comm_I2C_SLAVE.c **** *  Comm_slStatus  - used to store current status of I2C slave.
 148:.\Generated_Source\PSoC4/Comm_I2C_SLAVE.c **** *
 149:.\Generated_Source\PSoC4/Comm_I2C_SLAVE.c **** *******************************************************************************/
 150:.\Generated_Source\PSoC4/Comm_I2C_SLAVE.c **** uint32 Comm_I2CSlaveClearWriteStatus(void)
 151:.\Generated_Source\PSoC4/Comm_I2C_SLAVE.c **** {
 165              		.loc 1 151 0
 166              		.cfi_startproc
 167 0000 80B5     		push	{r7, lr}
 168              		.cfi_def_cfa_offset 8
 169              		.cfi_offset 7, -8
 170              		.cfi_offset 14, -4
 171 0002 82B0     		sub	sp, sp, #8
 172              		.cfi_def_cfa_offset 16
 173 0004 00AF     		add	r7, sp, #0
 174              		.cfi_def_cfa_register 7
 152:.\Generated_Source\PSoC4/Comm_I2C_SLAVE.c ****     uint32 status;
 153:.\Generated_Source\PSoC4/Comm_I2C_SLAVE.c **** 
 154:.\Generated_Source\PSoC4/Comm_I2C_SLAVE.c ****     Comm_DisableInt();  /* Lock from interruption */
 175              		.loc 1 154 0
 176 0006 0A20     		mov	r0, #10
 177 0008 FFF7FEFF 		bl	CyIntDisable
 155:.\Generated_Source\PSoC4/Comm_I2C_SLAVE.c **** 
 156:.\Generated_Source\PSoC4/Comm_I2C_SLAVE.c ****     /* Mask of transfer complete flag and Error status */
 157:.\Generated_Source\PSoC4/Comm_I2C_SLAVE.c ****     status = ((uint32) Comm_slStatus & Comm_I2C_SSTAT_WR_MASK);
 178              		.loc 1 157 0
 179 000c 0B4B     		ldr	r3, .L14
 180 000e 1B78     		ldrb	r3, [r3]
 181 0010 DBB2     		uxtb	r3, r3
 182 0012 1A1C     		mov	r2, r3
 183 0014 F023     		mov	r3, #240
 184 0016 1340     		and	r3, r2
 185 0018 7B60     		str	r3, [r7, #4]
ARM GAS  C:\Users\TECHCO~1\AppData\Local\Temp\ccJdjAYV.s 			page 7


 158:.\Generated_Source\PSoC4/Comm_I2C_SLAVE.c ****     Comm_slStatus &= (uint8) ~Comm_I2C_SSTAT_WR_CLEAR;
 186              		.loc 1 158 0
 187 001a 084B     		ldr	r3, .L14
 188 001c 1B78     		ldrb	r3, [r3]
 189 001e DBB2     		uxtb	r3, r3
 190 0020 2F22     		mov	r2, #47
 191 0022 1340     		and	r3, r2
 192 0024 DAB2     		uxtb	r2, r3
 193 0026 054B     		ldr	r3, .L14
 194 0028 1A70     		strb	r2, [r3]
 159:.\Generated_Source\PSoC4/Comm_I2C_SLAVE.c **** 
 160:.\Generated_Source\PSoC4/Comm_I2C_SLAVE.c ****     Comm_EnableInt();   /* Release lock */
 195              		.loc 1 160 0
 196 002a 0A20     		mov	r0, #10
 197 002c FFF7FEFF 		bl	CyIntEnable
 161:.\Generated_Source\PSoC4/Comm_I2C_SLAVE.c **** 
 162:.\Generated_Source\PSoC4/Comm_I2C_SLAVE.c ****     return(status);
 198              		.loc 1 162 0
 199 0030 7B68     		ldr	r3, [r7, #4]
 163:.\Generated_Source\PSoC4/Comm_I2C_SLAVE.c **** }
 200              		.loc 1 163 0
 201 0032 181C     		mov	r0, r3
 202 0034 BD46     		mov	sp, r7
 203 0036 02B0     		add	sp, sp, #8
 204              		@ sp needed
 205 0038 80BD     		pop	{r7, pc}
 206              	.L15:
 207 003a C046     		.align	2
 208              	.L14:
 209 003c 00000000 		.word	Comm_slStatus
 210              		.cfi_endproc
 211              	.LFE3:
 212              		.size	Comm_I2CSlaveClearWriteStatus, .-Comm_I2CSlaveClearWriteStatus
 213              		.section	.text.Comm_I2CSlaveSetAddress,"ax",%progbits
 214              		.align	2
 215              		.global	Comm_I2CSlaveSetAddress
 216              		.code	16
 217              		.thumb_func
 218              		.type	Comm_I2CSlaveSetAddress, %function
 219              	Comm_I2CSlaveSetAddress:
 220              	.LFB4:
 164:.\Generated_Source\PSoC4/Comm_I2C_SLAVE.c **** 
 165:.\Generated_Source\PSoC4/Comm_I2C_SLAVE.c **** 
 166:.\Generated_Source\PSoC4/Comm_I2C_SLAVE.c **** /*******************************************************************************
 167:.\Generated_Source\PSoC4/Comm_I2C_SLAVE.c **** * Function Name: Comm_I2CSlaveSetAddress
 168:.\Generated_Source\PSoC4/Comm_I2C_SLAVE.c **** ********************************************************************************
 169:.\Generated_Source\PSoC4/Comm_I2C_SLAVE.c **** *
 170:.\Generated_Source\PSoC4/Comm_I2C_SLAVE.c **** * Summary:
 171:.\Generated_Source\PSoC4/Comm_I2C_SLAVE.c **** *  Sets the I2C slave address.
 172:.\Generated_Source\PSoC4/Comm_I2C_SLAVE.c **** *
 173:.\Generated_Source\PSoC4/Comm_I2C_SLAVE.c **** * Parameters:
 174:.\Generated_Source\PSoC4/Comm_I2C_SLAVE.c **** *  address: I2C slave address for the primary device. This value may be any
 175:.\Generated_Source\PSoC4/Comm_I2C_SLAVE.c **** *  address between 0 and 127.
 176:.\Generated_Source\PSoC4/Comm_I2C_SLAVE.c **** *
 177:.\Generated_Source\PSoC4/Comm_I2C_SLAVE.c **** * Return:
 178:.\Generated_Source\PSoC4/Comm_I2C_SLAVE.c **** *  None
 179:.\Generated_Source\PSoC4/Comm_I2C_SLAVE.c **** *
ARM GAS  C:\Users\TECHCO~1\AppData\Local\Temp\ccJdjAYV.s 			page 8


 180:.\Generated_Source\PSoC4/Comm_I2C_SLAVE.c **** *******************************************************************************/
 181:.\Generated_Source\PSoC4/Comm_I2C_SLAVE.c **** void Comm_I2CSlaveSetAddress(uint32 address)
 182:.\Generated_Source\PSoC4/Comm_I2C_SLAVE.c **** {
 221              		.loc 1 182 0
 222              		.cfi_startproc
 223 0000 80B5     		push	{r7, lr}
 224              		.cfi_def_cfa_offset 8
 225              		.cfi_offset 7, -8
 226              		.cfi_offset 14, -4
 227 0002 84B0     		sub	sp, sp, #16
 228              		.cfi_def_cfa_offset 24
 229 0004 00AF     		add	r7, sp, #0
 230              		.cfi_def_cfa_register 7
 231 0006 7860     		str	r0, [r7, #4]
 183:.\Generated_Source\PSoC4/Comm_I2C_SLAVE.c ****     uint32 matchReg;
 184:.\Generated_Source\PSoC4/Comm_I2C_SLAVE.c **** 
 185:.\Generated_Source\PSoC4/Comm_I2C_SLAVE.c ****     matchReg = Comm_RX_MATCH_REG;
 232              		.loc 1 185 0
 233 0008 094B     		ldr	r3, .L17
 234 000a 1B68     		ldr	r3, [r3]
 235 000c FB60     		str	r3, [r7, #12]
 186:.\Generated_Source\PSoC4/Comm_I2C_SLAVE.c **** 
 187:.\Generated_Source\PSoC4/Comm_I2C_SLAVE.c ****     matchReg &= ((uint32) ~Comm_RX_MATCH_ADDR_MASK); /* Clear address bits */
 236              		.loc 1 187 0
 237 000e FB68     		ldr	r3, [r7, #12]
 238 0010 FF22     		mov	r2, #255
 239 0012 9343     		bic	r3, r2
 240 0014 FB60     		str	r3, [r7, #12]
 188:.\Generated_Source\PSoC4/Comm_I2C_SLAVE.c ****     matchReg |= ((uint32)  Comm_GET_I2C_8BIT_ADDRESS(address));
 241              		.loc 1 188 0
 242 0016 7B68     		ldr	r3, [r7, #4]
 243 0018 5B00     		lsl	r3, r3, #1
 244 001a FF22     		mov	r2, #255
 245 001c 1340     		and	r3, r2
 246 001e FA68     		ldr	r2, [r7, #12]
 247 0020 1343     		orr	r3, r2
 248 0022 FB60     		str	r3, [r7, #12]
 189:.\Generated_Source\PSoC4/Comm_I2C_SLAVE.c **** 
 190:.\Generated_Source\PSoC4/Comm_I2C_SLAVE.c ****     Comm_RX_MATCH_REG = matchReg;
 249              		.loc 1 190 0
 250 0024 024B     		ldr	r3, .L17
 251 0026 FA68     		ldr	r2, [r7, #12]
 252 0028 1A60     		str	r2, [r3]
 191:.\Generated_Source\PSoC4/Comm_I2C_SLAVE.c **** }
 253              		.loc 1 191 0
 254 002a BD46     		mov	sp, r7
 255 002c 04B0     		add	sp, sp, #16
 256              		@ sp needed
 257 002e 80BD     		pop	{r7, pc}
 258              	.L18:
 259              		.align	2
 260              	.L17:
 261 0030 10030640 		.word	1074135824
 262              		.cfi_endproc
 263              	.LFE4:
 264              		.size	Comm_I2CSlaveSetAddress, .-Comm_I2CSlaveSetAddress
 265              		.section	.text.Comm_I2CSlaveSetAddressMask,"ax",%progbits
ARM GAS  C:\Users\TECHCO~1\AppData\Local\Temp\ccJdjAYV.s 			page 9


 266              		.align	2
 267              		.global	Comm_I2CSlaveSetAddressMask
 268              		.code	16
 269              		.thumb_func
 270              		.type	Comm_I2CSlaveSetAddressMask, %function
 271              	Comm_I2CSlaveSetAddressMask:
 272              	.LFB5:
 192:.\Generated_Source\PSoC4/Comm_I2C_SLAVE.c **** 
 193:.\Generated_Source\PSoC4/Comm_I2C_SLAVE.c **** 
 194:.\Generated_Source\PSoC4/Comm_I2C_SLAVE.c **** /*******************************************************************************
 195:.\Generated_Source\PSoC4/Comm_I2C_SLAVE.c **** * Function Name: Comm_I2CSlaveSetAddressMask
 196:.\Generated_Source\PSoC4/Comm_I2C_SLAVE.c **** ********************************************************************************
 197:.\Generated_Source\PSoC4/Comm_I2C_SLAVE.c **** *
 198:.\Generated_Source\PSoC4/Comm_I2C_SLAVE.c **** * Summary:
 199:.\Generated_Source\PSoC4/Comm_I2C_SLAVE.c **** *  Sets the I2C slave address mask.
 200:.\Generated_Source\PSoC4/Comm_I2C_SLAVE.c **** *
 201:.\Generated_Source\PSoC4/Comm_I2C_SLAVE.c **** * Parameters:
 202:.\Generated_Source\PSoC4/Comm_I2C_SLAVE.c **** *  addressMask: Address mask.
 203:.\Generated_Source\PSoC4/Comm_I2C_SLAVE.c **** *   0 - address bit does not care while comparison.
 204:.\Generated_Source\PSoC4/Comm_I2C_SLAVE.c **** *   1 - address bit is significant while comparison.
 205:.\Generated_Source\PSoC4/Comm_I2C_SLAVE.c **** *
 206:.\Generated_Source\PSoC4/Comm_I2C_SLAVE.c **** * Return:
 207:.\Generated_Source\PSoC4/Comm_I2C_SLAVE.c **** *  None
 208:.\Generated_Source\PSoC4/Comm_I2C_SLAVE.c **** *
 209:.\Generated_Source\PSoC4/Comm_I2C_SLAVE.c **** *******************************************************************************/
 210:.\Generated_Source\PSoC4/Comm_I2C_SLAVE.c **** void Comm_I2CSlaveSetAddressMask(uint32 addressMask)
 211:.\Generated_Source\PSoC4/Comm_I2C_SLAVE.c **** {
 273              		.loc 1 211 0
 274              		.cfi_startproc
 275 0000 80B5     		push	{r7, lr}
 276              		.cfi_def_cfa_offset 8
 277              		.cfi_offset 7, -8
 278              		.cfi_offset 14, -4
 279 0002 84B0     		sub	sp, sp, #16
 280              		.cfi_def_cfa_offset 24
 281 0004 00AF     		add	r7, sp, #0
 282              		.cfi_def_cfa_register 7
 283 0006 7860     		str	r0, [r7, #4]
 212:.\Generated_Source\PSoC4/Comm_I2C_SLAVE.c ****     uint32 matchReg;
 213:.\Generated_Source\PSoC4/Comm_I2C_SLAVE.c **** 
 214:.\Generated_Source\PSoC4/Comm_I2C_SLAVE.c ****     matchReg = Comm_RX_MATCH_REG;
 284              		.loc 1 214 0
 285 0008 084B     		ldr	r3, .L20
 286 000a 1B68     		ldr	r3, [r3]
 287 000c FB60     		str	r3, [r7, #12]
 215:.\Generated_Source\PSoC4/Comm_I2C_SLAVE.c **** 
 216:.\Generated_Source\PSoC4/Comm_I2C_SLAVE.c ****     matchReg &= ((uint32) ~Comm_RX_MATCH_MASK_MASK); /* Clear address mask bits */
 288              		.loc 1 216 0
 289 000e FB68     		ldr	r3, [r7, #12]
 290 0010 074A     		ldr	r2, .L20+4
 291 0012 1340     		and	r3, r2
 292 0014 FB60     		str	r3, [r7, #12]
 217:.\Generated_Source\PSoC4/Comm_I2C_SLAVE.c ****     matchReg |= ((uint32) (addressMask << Comm_RX_MATCH_MASK_POS));
 293              		.loc 1 217 0
 294 0016 7B68     		ldr	r3, [r7, #4]
 295 0018 1B04     		lsl	r3, r3, #16
 296 001a FA68     		ldr	r2, [r7, #12]
ARM GAS  C:\Users\TECHCO~1\AppData\Local\Temp\ccJdjAYV.s 			page 10


 297 001c 1343     		orr	r3, r2
 298 001e FB60     		str	r3, [r7, #12]
 218:.\Generated_Source\PSoC4/Comm_I2C_SLAVE.c **** 
 219:.\Generated_Source\PSoC4/Comm_I2C_SLAVE.c ****     Comm_RX_MATCH_REG = matchReg;
 299              		.loc 1 219 0
 300 0020 024B     		ldr	r3, .L20
 301 0022 FA68     		ldr	r2, [r7, #12]
 302 0024 1A60     		str	r2, [r3]
 220:.\Generated_Source\PSoC4/Comm_I2C_SLAVE.c **** }
 303              		.loc 1 220 0
 304 0026 BD46     		mov	sp, r7
 305 0028 04B0     		add	sp, sp, #16
 306              		@ sp needed
 307 002a 80BD     		pop	{r7, pc}
 308              	.L21:
 309              		.align	2
 310              	.L20:
 311 002c 10030640 		.word	1074135824
 312 0030 FFFF00FF 		.word	-16711681
 313              		.cfi_endproc
 314              	.LFE5:
 315              		.size	Comm_I2CSlaveSetAddressMask, .-Comm_I2CSlaveSetAddressMask
 316              		.section	.text.Comm_I2CSlaveInitReadBuf,"ax",%progbits
 317              		.align	2
 318              		.global	Comm_I2CSlaveInitReadBuf
 319              		.code	16
 320              		.thumb_func
 321              		.type	Comm_I2CSlaveInitReadBuf, %function
 322              	Comm_I2CSlaveInitReadBuf:
 323              	.LFB6:
 221:.\Generated_Source\PSoC4/Comm_I2C_SLAVE.c **** 
 222:.\Generated_Source\PSoC4/Comm_I2C_SLAVE.c **** 
 223:.\Generated_Source\PSoC4/Comm_I2C_SLAVE.c **** /*******************************************************************************
 224:.\Generated_Source\PSoC4/Comm_I2C_SLAVE.c **** * Function Name: Comm_I2CSlaveInitReadBuf
 225:.\Generated_Source\PSoC4/Comm_I2C_SLAVE.c **** ********************************************************************************
 226:.\Generated_Source\PSoC4/Comm_I2C_SLAVE.c **** *
 227:.\Generated_Source\PSoC4/Comm_I2C_SLAVE.c **** * Summary:
 228:.\Generated_Source\PSoC4/Comm_I2C_SLAVE.c **** *  Sets the buffer pointer and size of the read buffer. This function also
 229:.\Generated_Source\PSoC4/Comm_I2C_SLAVE.c **** *  resets the transfer count returned with the I2C_SlaveGetReadBufSize function.
 230:.\Generated_Source\PSoC4/Comm_I2C_SLAVE.c **** *
 231:.\Generated_Source\PSoC4/Comm_I2C_SLAVE.c **** * Parameters:
 232:.\Generated_Source\PSoC4/Comm_I2C_SLAVE.c **** *  readBuf:  Pointer to the data buffer to be read by the master.
 233:.\Generated_Source\PSoC4/Comm_I2C_SLAVE.c **** *  bufSize:  Size of the read buffer exposed to the I2C master.
 234:.\Generated_Source\PSoC4/Comm_I2C_SLAVE.c **** *
 235:.\Generated_Source\PSoC4/Comm_I2C_SLAVE.c **** * Return:
 236:.\Generated_Source\PSoC4/Comm_I2C_SLAVE.c **** *  None
 237:.\Generated_Source\PSoC4/Comm_I2C_SLAVE.c **** *
 238:.\Generated_Source\PSoC4/Comm_I2C_SLAVE.c **** * Global variables:
 239:.\Generated_Source\PSoC4/Comm_I2C_SLAVE.c **** *  Comm_slRdBufPtr   - used to store pointer to slave read buffer.
 240:.\Generated_Source\PSoC4/Comm_I2C_SLAVE.c **** *  Comm_slRdBufSize  - used to store salve read buffer size.
 241:.\Generated_Source\PSoC4/Comm_I2C_SLAVE.c **** *  Comm_slRdBufIndex - used to store current index within slave
 242:.\Generated_Source\PSoC4/Comm_I2C_SLAVE.c **** *  read buffer.
 243:.\Generated_Source\PSoC4/Comm_I2C_SLAVE.c **** *
 244:.\Generated_Source\PSoC4/Comm_I2C_SLAVE.c **** * Side Effects:
 245:.\Generated_Source\PSoC4/Comm_I2C_SLAVE.c **** *  If this function is called during a bus transaction, data from the previous
 246:.\Generated_Source\PSoC4/Comm_I2C_SLAVE.c **** *  buffer location and the beginning of current buffer may be transmitted.
 247:.\Generated_Source\PSoC4/Comm_I2C_SLAVE.c **** *
ARM GAS  C:\Users\TECHCO~1\AppData\Local\Temp\ccJdjAYV.s 			page 11


 248:.\Generated_Source\PSoC4/Comm_I2C_SLAVE.c **** *******************************************************************************/
 249:.\Generated_Source\PSoC4/Comm_I2C_SLAVE.c **** void Comm_I2CSlaveInitReadBuf(uint8 * rdBuf, uint32 bufSize)
 250:.\Generated_Source\PSoC4/Comm_I2C_SLAVE.c **** {
 324              		.loc 1 250 0
 325              		.cfi_startproc
 326 0000 80B5     		push	{r7, lr}
 327              		.cfi_def_cfa_offset 8
 328              		.cfi_offset 7, -8
 329              		.cfi_offset 14, -4
 330 0002 82B0     		sub	sp, sp, #8
 331              		.cfi_def_cfa_offset 16
 332 0004 00AF     		add	r7, sp, #0
 333              		.cfi_def_cfa_register 7
 334 0006 7860     		str	r0, [r7, #4]
 335 0008 3960     		str	r1, [r7]
 251:.\Generated_Source\PSoC4/Comm_I2C_SLAVE.c ****     /* Check for proper buffer */
 252:.\Generated_Source\PSoC4/Comm_I2C_SLAVE.c ****     if(NULL != rdBuf)
 336              		.loc 1 252 0
 337 000a 7B68     		ldr	r3, [r7, #4]
 338 000c 002B     		cmp	r3, #0
 339 000e 11D0     		beq	.L22
 253:.\Generated_Source\PSoC4/Comm_I2C_SLAVE.c ****     {
 254:.\Generated_Source\PSoC4/Comm_I2C_SLAVE.c ****         Comm_DisableInt();  /* Lock from interruption */
 340              		.loc 1 254 0
 341 0010 0A20     		mov	r0, #10
 342 0012 FFF7FEFF 		bl	CyIntDisable
 255:.\Generated_Source\PSoC4/Comm_I2C_SLAVE.c **** 
 256:.\Generated_Source\PSoC4/Comm_I2C_SLAVE.c ****         Comm_slRdBufPtr      = (volatile uint8 *) rdBuf; /* Set buffer pointer  */
 343              		.loc 1 256 0
 344 0016 094B     		ldr	r3, .L24
 345 0018 7A68     		ldr	r2, [r7, #4]
 346 001a 1A60     		str	r2, [r3]
 257:.\Generated_Source\PSoC4/Comm_I2C_SLAVE.c ****         Comm_slRdBufSize     = bufSize;                  /* Set buffer size     */
 347              		.loc 1 257 0
 348 001c 084B     		ldr	r3, .L24+4
 349 001e 3A68     		ldr	r2, [r7]
 350 0020 1A60     		str	r2, [r3]
 258:.\Generated_Source\PSoC4/Comm_I2C_SLAVE.c ****         Comm_slRdBufIndex    = 0u;                       /* Clear buffer index  */
 351              		.loc 1 258 0
 352 0022 084B     		ldr	r3, .L24+8
 353 0024 0022     		mov	r2, #0
 354 0026 1A60     		str	r2, [r3]
 259:.\Generated_Source\PSoC4/Comm_I2C_SLAVE.c ****         Comm_slRdBufIndexTmp = 0u;                       /* Clear buffer index  */
 355              		.loc 1 259 0
 356 0028 074B     		ldr	r3, .L24+12
 357 002a 0022     		mov	r2, #0
 358 002c 1A60     		str	r2, [r3]
 260:.\Generated_Source\PSoC4/Comm_I2C_SLAVE.c **** 
 261:.\Generated_Source\PSoC4/Comm_I2C_SLAVE.c ****         Comm_EnableInt();   /* Release lock */
 359              		.loc 1 261 0
 360 002e 0A20     		mov	r0, #10
 361 0030 FFF7FEFF 		bl	CyIntEnable
 362              	.L22:
 262:.\Generated_Source\PSoC4/Comm_I2C_SLAVE.c ****     }
 263:.\Generated_Source\PSoC4/Comm_I2C_SLAVE.c **** }
 363              		.loc 1 263 0
 364 0034 BD46     		mov	sp, r7
ARM GAS  C:\Users\TECHCO~1\AppData\Local\Temp\ccJdjAYV.s 			page 12


 365 0036 02B0     		add	sp, sp, #8
 366              		@ sp needed
 367 0038 80BD     		pop	{r7, pc}
 368              	.L25:
 369 003a C046     		.align	2
 370              	.L24:
 371 003c 00000000 		.word	Comm_slRdBufPtr
 372 0040 00000000 		.word	Comm_slRdBufSize
 373 0044 00000000 		.word	Comm_slRdBufIndex
 374 0048 00000000 		.word	Comm_slRdBufIndexTmp
 375              		.cfi_endproc
 376              	.LFE6:
 377              		.size	Comm_I2CSlaveInitReadBuf, .-Comm_I2CSlaveInitReadBuf
 378              		.section	.text.Comm_I2CSlaveInitWriteBuf,"ax",%progbits
 379              		.align	2
 380              		.global	Comm_I2CSlaveInitWriteBuf
 381              		.code	16
 382              		.thumb_func
 383              		.type	Comm_I2CSlaveInitWriteBuf, %function
 384              	Comm_I2CSlaveInitWriteBuf:
 385              	.LFB7:
 264:.\Generated_Source\PSoC4/Comm_I2C_SLAVE.c **** 
 265:.\Generated_Source\PSoC4/Comm_I2C_SLAVE.c **** 
 266:.\Generated_Source\PSoC4/Comm_I2C_SLAVE.c **** /*******************************************************************************
 267:.\Generated_Source\PSoC4/Comm_I2C_SLAVE.c **** * Function Name: Comm_I2CSlaveInitWriteBuf
 268:.\Generated_Source\PSoC4/Comm_I2C_SLAVE.c **** ********************************************************************************
 269:.\Generated_Source\PSoC4/Comm_I2C_SLAVE.c **** *
 270:.\Generated_Source\PSoC4/Comm_I2C_SLAVE.c **** * Summary:
 271:.\Generated_Source\PSoC4/Comm_I2C_SLAVE.c **** *  Sets the buffer pointer and size of the read buffer. This function also
 272:.\Generated_Source\PSoC4/Comm_I2C_SLAVE.c **** *  resets the transfer count returned with the I2C_SlaveGetReadBufSize function.
 273:.\Generated_Source\PSoC4/Comm_I2C_SLAVE.c **** *
 274:.\Generated_Source\PSoC4/Comm_I2C_SLAVE.c **** * Parameters:
 275:.\Generated_Source\PSoC4/Comm_I2C_SLAVE.c **** *  writeBuf:  Pointer to the data buffer to be read by the master.
 276:.\Generated_Source\PSoC4/Comm_I2C_SLAVE.c **** *  bufSize:  Size of the buffer exposed to the I2C master.
 277:.\Generated_Source\PSoC4/Comm_I2C_SLAVE.c **** *
 278:.\Generated_Source\PSoC4/Comm_I2C_SLAVE.c **** * Return:
 279:.\Generated_Source\PSoC4/Comm_I2C_SLAVE.c **** *  None
 280:.\Generated_Source\PSoC4/Comm_I2C_SLAVE.c **** *
 281:.\Generated_Source\PSoC4/Comm_I2C_SLAVE.c **** * Global variables:
 282:.\Generated_Source\PSoC4/Comm_I2C_SLAVE.c **** *  Comm_slWrBufPtr   - used to store pointer to slave write buffer.
 283:.\Generated_Source\PSoC4/Comm_I2C_SLAVE.c **** *  Comm_slWrBufSize  - used to store salve write buffer size.
 284:.\Generated_Source\PSoC4/Comm_I2C_SLAVE.c **** *  Comm_slWrBufIndex - used to store current index within slave
 285:.\Generated_Source\PSoC4/Comm_I2C_SLAVE.c **** *  write buffer.
 286:.\Generated_Source\PSoC4/Comm_I2C_SLAVE.c **** *
 287:.\Generated_Source\PSoC4/Comm_I2C_SLAVE.c **** * Side Effects:
 288:.\Generated_Source\PSoC4/Comm_I2C_SLAVE.c **** *  If this function is called during a bus transaction, data from the previous
 289:.\Generated_Source\PSoC4/Comm_I2C_SLAVE.c **** *  buffer location and the beginning of current buffer may be transmitted.
 290:.\Generated_Source\PSoC4/Comm_I2C_SLAVE.c **** *
 291:.\Generated_Source\PSoC4/Comm_I2C_SLAVE.c **** *******************************************************************************/
 292:.\Generated_Source\PSoC4/Comm_I2C_SLAVE.c **** void Comm_I2CSlaveInitWriteBuf(uint8 * wrBuf, uint32 bufSize)
 293:.\Generated_Source\PSoC4/Comm_I2C_SLAVE.c **** {
 386              		.loc 1 293 0
 387              		.cfi_startproc
 388 0000 80B5     		push	{r7, lr}
 389              		.cfi_def_cfa_offset 8
 390              		.cfi_offset 7, -8
 391              		.cfi_offset 14, -4
ARM GAS  C:\Users\TECHCO~1\AppData\Local\Temp\ccJdjAYV.s 			page 13


 392 0002 82B0     		sub	sp, sp, #8
 393              		.cfi_def_cfa_offset 16
 394 0004 00AF     		add	r7, sp, #0
 395              		.cfi_def_cfa_register 7
 396 0006 7860     		str	r0, [r7, #4]
 397 0008 3960     		str	r1, [r7]
 294:.\Generated_Source\PSoC4/Comm_I2C_SLAVE.c ****     /* Check buffer pointer */
 295:.\Generated_Source\PSoC4/Comm_I2C_SLAVE.c ****     if(NULL != wrBuf)
 398              		.loc 1 295 0
 399 000a 7B68     		ldr	r3, [r7, #4]
 400 000c 002B     		cmp	r3, #0
 401 000e 0ED0     		beq	.L26
 296:.\Generated_Source\PSoC4/Comm_I2C_SLAVE.c ****     {
 297:.\Generated_Source\PSoC4/Comm_I2C_SLAVE.c ****         Comm_DisableInt();  /* Lock from interruption */
 402              		.loc 1 297 0
 403 0010 0A20     		mov	r0, #10
 404 0012 FFF7FEFF 		bl	CyIntDisable
 298:.\Generated_Source\PSoC4/Comm_I2C_SLAVE.c **** 
 299:.\Generated_Source\PSoC4/Comm_I2C_SLAVE.c ****         Comm_slWrBufPtr   = (volatile uint8 *) wrBuf; /* Set buffer pointer  */
 405              		.loc 1 299 0
 406 0016 074B     		ldr	r3, .L28
 407 0018 7A68     		ldr	r2, [r7, #4]
 408 001a 1A60     		str	r2, [r3]
 300:.\Generated_Source\PSoC4/Comm_I2C_SLAVE.c ****         Comm_slWrBufSize  = bufSize;                  /* Set buffer size     */
 409              		.loc 1 300 0
 410 001c 064B     		ldr	r3, .L28+4
 411 001e 3A68     		ldr	r2, [r7]
 412 0020 1A60     		str	r2, [r3]
 301:.\Generated_Source\PSoC4/Comm_I2C_SLAVE.c ****         Comm_slWrBufIndex = 0u;                       /* Clear buffer index  */
 413              		.loc 1 301 0
 414 0022 064B     		ldr	r3, .L28+8
 415 0024 0022     		mov	r2, #0
 416 0026 1A60     		str	r2, [r3]
 302:.\Generated_Source\PSoC4/Comm_I2C_SLAVE.c **** 
 303:.\Generated_Source\PSoC4/Comm_I2C_SLAVE.c ****         Comm_EnableInt();   /* Release lock */
 417              		.loc 1 303 0
 418 0028 0A20     		mov	r0, #10
 419 002a FFF7FEFF 		bl	CyIntEnable
 420              	.L26:
 304:.\Generated_Source\PSoC4/Comm_I2C_SLAVE.c ****     }
 305:.\Generated_Source\PSoC4/Comm_I2C_SLAVE.c **** }
 421              		.loc 1 305 0
 422 002e BD46     		mov	sp, r7
 423 0030 02B0     		add	sp, sp, #8
 424              		@ sp needed
 425 0032 80BD     		pop	{r7, pc}
 426              	.L29:
 427              		.align	2
 428              	.L28:
 429 0034 00000000 		.word	Comm_slWrBufPtr
 430 0038 00000000 		.word	Comm_slWrBufSize
 431 003c 00000000 		.word	Comm_slWrBufIndex
 432              		.cfi_endproc
 433              	.LFE7:
 434              		.size	Comm_I2CSlaveInitWriteBuf, .-Comm_I2CSlaveInitWriteBuf
 435              		.section	.text.Comm_I2CSlaveGetReadBufSize,"ax",%progbits
 436              		.align	2
ARM GAS  C:\Users\TECHCO~1\AppData\Local\Temp\ccJdjAYV.s 			page 14


 437              		.global	Comm_I2CSlaveGetReadBufSize
 438              		.code	16
 439              		.thumb_func
 440              		.type	Comm_I2CSlaveGetReadBufSize, %function
 441              	Comm_I2CSlaveGetReadBufSize:
 442              	.LFB8:
 306:.\Generated_Source\PSoC4/Comm_I2C_SLAVE.c **** 
 307:.\Generated_Source\PSoC4/Comm_I2C_SLAVE.c **** 
 308:.\Generated_Source\PSoC4/Comm_I2C_SLAVE.c **** /*******************************************************************************
 309:.\Generated_Source\PSoC4/Comm_I2C_SLAVE.c **** * Function Name: Comm_I2CSlaveGetReadBufSize
 310:.\Generated_Source\PSoC4/Comm_I2C_SLAVE.c **** ********************************************************************************
 311:.\Generated_Source\PSoC4/Comm_I2C_SLAVE.c **** *
 312:.\Generated_Source\PSoC4/Comm_I2C_SLAVE.c **** * Summary:
 313:.\Generated_Source\PSoC4/Comm_I2C_SLAVE.c **** *  Returns the number of bytes read by the I2C master since an
 314:.\Generated_Source\PSoC4/Comm_I2C_SLAVE.c **** *  I2C_SlaveInitReadBuf or I2C_SlaveClearReadBuf function was executed.
 315:.\Generated_Source\PSoC4/Comm_I2C_SLAVE.c **** *  The maximum return value will be the size of the read buffer.
 316:.\Generated_Source\PSoC4/Comm_I2C_SLAVE.c **** *
 317:.\Generated_Source\PSoC4/Comm_I2C_SLAVE.c **** * Parameters:
 318:.\Generated_Source\PSoC4/Comm_I2C_SLAVE.c **** *  None
 319:.\Generated_Source\PSoC4/Comm_I2C_SLAVE.c **** *
 320:.\Generated_Source\PSoC4/Comm_I2C_SLAVE.c **** * Return:
 321:.\Generated_Source\PSoC4/Comm_I2C_SLAVE.c **** *  Bytes read by master.
 322:.\Generated_Source\PSoC4/Comm_I2C_SLAVE.c **** *
 323:.\Generated_Source\PSoC4/Comm_I2C_SLAVE.c **** * Global variables:
 324:.\Generated_Source\PSoC4/Comm_I2C_SLAVE.c **** *  Comm_slRdBufIndex - used to store current index within slave
 325:.\Generated_Source\PSoC4/Comm_I2C_SLAVE.c **** *  read buffer.
 326:.\Generated_Source\PSoC4/Comm_I2C_SLAVE.c **** *
 327:.\Generated_Source\PSoC4/Comm_I2C_SLAVE.c **** *******************************************************************************/
 328:.\Generated_Source\PSoC4/Comm_I2C_SLAVE.c **** uint32 Comm_I2CSlaveGetReadBufSize(void)
 329:.\Generated_Source\PSoC4/Comm_I2C_SLAVE.c **** {
 443              		.loc 1 329 0
 444              		.cfi_startproc
 445 0000 80B5     		push	{r7, lr}
 446              		.cfi_def_cfa_offset 8
 447              		.cfi_offset 7, -8
 448              		.cfi_offset 14, -4
 449 0002 00AF     		add	r7, sp, #0
 450              		.cfi_def_cfa_register 7
 330:.\Generated_Source\PSoC4/Comm_I2C_SLAVE.c ****     return(Comm_slRdBufIndex);
 451              		.loc 1 330 0
 452 0004 024B     		ldr	r3, .L32
 453 0006 1B68     		ldr	r3, [r3]
 331:.\Generated_Source\PSoC4/Comm_I2C_SLAVE.c **** }
 454              		.loc 1 331 0
 455 0008 181C     		mov	r0, r3
 456 000a BD46     		mov	sp, r7
 457              		@ sp needed
 458 000c 80BD     		pop	{r7, pc}
 459              	.L33:
 460 000e C046     		.align	2
 461              	.L32:
 462 0010 00000000 		.word	Comm_slRdBufIndex
 463              		.cfi_endproc
 464              	.LFE8:
 465              		.size	Comm_I2CSlaveGetReadBufSize, .-Comm_I2CSlaveGetReadBufSize
 466              		.section	.text.Comm_I2CSlaveGetWriteBufSize,"ax",%progbits
 467              		.align	2
ARM GAS  C:\Users\TECHCO~1\AppData\Local\Temp\ccJdjAYV.s 			page 15


 468              		.global	Comm_I2CSlaveGetWriteBufSize
 469              		.code	16
 470              		.thumb_func
 471              		.type	Comm_I2CSlaveGetWriteBufSize, %function
 472              	Comm_I2CSlaveGetWriteBufSize:
 473              	.LFB9:
 332:.\Generated_Source\PSoC4/Comm_I2C_SLAVE.c **** 
 333:.\Generated_Source\PSoC4/Comm_I2C_SLAVE.c **** 
 334:.\Generated_Source\PSoC4/Comm_I2C_SLAVE.c **** /*******************************************************************************
 335:.\Generated_Source\PSoC4/Comm_I2C_SLAVE.c **** * Function Name: Comm_I2CSlaveGetWriteBufSize
 336:.\Generated_Source\PSoC4/Comm_I2C_SLAVE.c **** ********************************************************************************
 337:.\Generated_Source\PSoC4/Comm_I2C_SLAVE.c **** *
 338:.\Generated_Source\PSoC4/Comm_I2C_SLAVE.c **** * Summary:
 339:.\Generated_Source\PSoC4/Comm_I2C_SLAVE.c **** *  Returns the number of bytes written by the I2C master since an
 340:.\Generated_Source\PSoC4/Comm_I2C_SLAVE.c **** *  I2C_SlaveInitWriteBuf or I2C_SlaveClearWriteBuf function was executed.
 341:.\Generated_Source\PSoC4/Comm_I2C_SLAVE.c **** *  The maximum return value will be the size of the write buffer.
 342:.\Generated_Source\PSoC4/Comm_I2C_SLAVE.c **** *
 343:.\Generated_Source\PSoC4/Comm_I2C_SLAVE.c **** * Parameters:
 344:.\Generated_Source\PSoC4/Comm_I2C_SLAVE.c **** *  None
 345:.\Generated_Source\PSoC4/Comm_I2C_SLAVE.c **** *
 346:.\Generated_Source\PSoC4/Comm_I2C_SLAVE.c **** * Return:
 347:.\Generated_Source\PSoC4/Comm_I2C_SLAVE.c **** *  Bytes written by master.
 348:.\Generated_Source\PSoC4/Comm_I2C_SLAVE.c **** *
 349:.\Generated_Source\PSoC4/Comm_I2C_SLAVE.c **** * Global variables:
 350:.\Generated_Source\PSoC4/Comm_I2C_SLAVE.c **** *  Comm_slWrBufIndex - used to store current index within slave
 351:.\Generated_Source\PSoC4/Comm_I2C_SLAVE.c **** *  write buffer.
 352:.\Generated_Source\PSoC4/Comm_I2C_SLAVE.c **** *
 353:.\Generated_Source\PSoC4/Comm_I2C_SLAVE.c **** *******************************************************************************/
 354:.\Generated_Source\PSoC4/Comm_I2C_SLAVE.c **** uint32 Comm_I2CSlaveGetWriteBufSize(void)
 355:.\Generated_Source\PSoC4/Comm_I2C_SLAVE.c **** {
 474              		.loc 1 355 0
 475              		.cfi_startproc
 476 0000 80B5     		push	{r7, lr}
 477              		.cfi_def_cfa_offset 8
 478              		.cfi_offset 7, -8
 479              		.cfi_offset 14, -4
 480 0002 00AF     		add	r7, sp, #0
 481              		.cfi_def_cfa_register 7
 356:.\Generated_Source\PSoC4/Comm_I2C_SLAVE.c ****     return(Comm_slWrBufIndex);
 482              		.loc 1 356 0
 483 0004 024B     		ldr	r3, .L36
 484 0006 1B68     		ldr	r3, [r3]
 357:.\Generated_Source\PSoC4/Comm_I2C_SLAVE.c **** }
 485              		.loc 1 357 0
 486 0008 181C     		mov	r0, r3
 487 000a BD46     		mov	sp, r7
 488              		@ sp needed
 489 000c 80BD     		pop	{r7, pc}
 490              	.L37:
 491 000e C046     		.align	2
 492              	.L36:
 493 0010 00000000 		.word	Comm_slWrBufIndex
 494              		.cfi_endproc
 495              	.LFE9:
 496              		.size	Comm_I2CSlaveGetWriteBufSize, .-Comm_I2CSlaveGetWriteBufSize
 497              		.section	.text.Comm_I2CSlaveClearReadBuf,"ax",%progbits
 498              		.align	2
ARM GAS  C:\Users\TECHCO~1\AppData\Local\Temp\ccJdjAYV.s 			page 16


 499              		.global	Comm_I2CSlaveClearReadBuf
 500              		.code	16
 501              		.thumb_func
 502              		.type	Comm_I2CSlaveClearReadBuf, %function
 503              	Comm_I2CSlaveClearReadBuf:
 504              	.LFB10:
 358:.\Generated_Source\PSoC4/Comm_I2C_SLAVE.c **** 
 359:.\Generated_Source\PSoC4/Comm_I2C_SLAVE.c **** 
 360:.\Generated_Source\PSoC4/Comm_I2C_SLAVE.c **** /*******************************************************************************
 361:.\Generated_Source\PSoC4/Comm_I2C_SLAVE.c **** * Function Name: Comm_I2CSlaveClearReadBuf
 362:.\Generated_Source\PSoC4/Comm_I2C_SLAVE.c **** ********************************************************************************
 363:.\Generated_Source\PSoC4/Comm_I2C_SLAVE.c **** *
 364:.\Generated_Source\PSoC4/Comm_I2C_SLAVE.c **** * Summary:
 365:.\Generated_Source\PSoC4/Comm_I2C_SLAVE.c **** *  Resets the read pointer to the first byte in the read buffer. The next byte
 366:.\Generated_Source\PSoC4/Comm_I2C_SLAVE.c **** *  read by the master will be the first byte in the read buffer.
 367:.\Generated_Source\PSoC4/Comm_I2C_SLAVE.c **** *
 368:.\Generated_Source\PSoC4/Comm_I2C_SLAVE.c **** * Parameters:
 369:.\Generated_Source\PSoC4/Comm_I2C_SLAVE.c **** *  None
 370:.\Generated_Source\PSoC4/Comm_I2C_SLAVE.c **** *
 371:.\Generated_Source\PSoC4/Comm_I2C_SLAVE.c **** * Return:
 372:.\Generated_Source\PSoC4/Comm_I2C_SLAVE.c **** *  None
 373:.\Generated_Source\PSoC4/Comm_I2C_SLAVE.c **** *
 374:.\Generated_Source\PSoC4/Comm_I2C_SLAVE.c **** * Global variables:
 375:.\Generated_Source\PSoC4/Comm_I2C_SLAVE.c **** *  Comm_slRdBufIndex - used to store current index within slave
 376:.\Generated_Source\PSoC4/Comm_I2C_SLAVE.c **** *  read buffer.
 377:.\Generated_Source\PSoC4/Comm_I2C_SLAVE.c **** *
 378:.\Generated_Source\PSoC4/Comm_I2C_SLAVE.c **** *******************************************************************************/
 379:.\Generated_Source\PSoC4/Comm_I2C_SLAVE.c **** void Comm_I2CSlaveClearReadBuf(void)
 380:.\Generated_Source\PSoC4/Comm_I2C_SLAVE.c **** {
 505              		.loc 1 380 0
 506              		.cfi_startproc
 507 0000 80B5     		push	{r7, lr}
 508              		.cfi_def_cfa_offset 8
 509              		.cfi_offset 7, -8
 510              		.cfi_offset 14, -4
 511 0002 00AF     		add	r7, sp, #0
 512              		.cfi_def_cfa_register 7
 381:.\Generated_Source\PSoC4/Comm_I2C_SLAVE.c ****     Comm_slRdBufIndex = 0u;
 513              		.loc 1 381 0
 514 0004 024B     		ldr	r3, .L39
 515 0006 0022     		mov	r2, #0
 516 0008 1A60     		str	r2, [r3]
 382:.\Generated_Source\PSoC4/Comm_I2C_SLAVE.c **** }
 517              		.loc 1 382 0
 518 000a BD46     		mov	sp, r7
 519              		@ sp needed
 520 000c 80BD     		pop	{r7, pc}
 521              	.L40:
 522 000e C046     		.align	2
 523              	.L39:
 524 0010 00000000 		.word	Comm_slRdBufIndex
 525              		.cfi_endproc
 526              	.LFE10:
 527              		.size	Comm_I2CSlaveClearReadBuf, .-Comm_I2CSlaveClearReadBuf
 528              		.section	.text.Comm_I2CSlaveClearWriteBuf,"ax",%progbits
 529              		.align	2
 530              		.global	Comm_I2CSlaveClearWriteBuf
ARM GAS  C:\Users\TECHCO~1\AppData\Local\Temp\ccJdjAYV.s 			page 17


 531              		.code	16
 532              		.thumb_func
 533              		.type	Comm_I2CSlaveClearWriteBuf, %function
 534              	Comm_I2CSlaveClearWriteBuf:
 535              	.LFB11:
 383:.\Generated_Source\PSoC4/Comm_I2C_SLAVE.c **** 
 384:.\Generated_Source\PSoC4/Comm_I2C_SLAVE.c **** 
 385:.\Generated_Source\PSoC4/Comm_I2C_SLAVE.c **** /*******************************************************************************
 386:.\Generated_Source\PSoC4/Comm_I2C_SLAVE.c **** * Function Name: Comm_I2CSlaveClearWriteBuf
 387:.\Generated_Source\PSoC4/Comm_I2C_SLAVE.c **** ********************************************************************************
 388:.\Generated_Source\PSoC4/Comm_I2C_SLAVE.c **** *
 389:.\Generated_Source\PSoC4/Comm_I2C_SLAVE.c **** * Summary:
 390:.\Generated_Source\PSoC4/Comm_I2C_SLAVE.c **** *  Resets the write pointer to the first byte in the write buffer. The next byte
 391:.\Generated_Source\PSoC4/Comm_I2C_SLAVE.c **** *  written by the master will be the first byte in the write buffer.
 392:.\Generated_Source\PSoC4/Comm_I2C_SLAVE.c **** *
 393:.\Generated_Source\PSoC4/Comm_I2C_SLAVE.c **** * Parameters:
 394:.\Generated_Source\PSoC4/Comm_I2C_SLAVE.c **** *  None
 395:.\Generated_Source\PSoC4/Comm_I2C_SLAVE.c **** *
 396:.\Generated_Source\PSoC4/Comm_I2C_SLAVE.c **** * Return:
 397:.\Generated_Source\PSoC4/Comm_I2C_SLAVE.c **** *  None
 398:.\Generated_Source\PSoC4/Comm_I2C_SLAVE.c **** *
 399:.\Generated_Source\PSoC4/Comm_I2C_SLAVE.c **** * Global variables:
 400:.\Generated_Source\PSoC4/Comm_I2C_SLAVE.c **** *  Comm_slWrBufIndex - used to store current index within slave
 401:.\Generated_Source\PSoC4/Comm_I2C_SLAVE.c **** *  write buffer.
 402:.\Generated_Source\PSoC4/Comm_I2C_SLAVE.c **** *
 403:.\Generated_Source\PSoC4/Comm_I2C_SLAVE.c **** *******************************************************************************/
 404:.\Generated_Source\PSoC4/Comm_I2C_SLAVE.c **** void Comm_I2CSlaveClearWriteBuf(void)
 405:.\Generated_Source\PSoC4/Comm_I2C_SLAVE.c **** {
 536              		.loc 1 405 0
 537              		.cfi_startproc
 538 0000 80B5     		push	{r7, lr}
 539              		.cfi_def_cfa_offset 8
 540              		.cfi_offset 7, -8
 541              		.cfi_offset 14, -4
 542 0002 00AF     		add	r7, sp, #0
 543              		.cfi_def_cfa_register 7
 406:.\Generated_Source\PSoC4/Comm_I2C_SLAVE.c ****     Comm_slWrBufIndex = 0u;
 544              		.loc 1 406 0
 545 0004 024B     		ldr	r3, .L42
 546 0006 0022     		mov	r2, #0
 547 0008 1A60     		str	r2, [r3]
 407:.\Generated_Source\PSoC4/Comm_I2C_SLAVE.c **** }
 548              		.loc 1 407 0
 549 000a BD46     		mov	sp, r7
 550              		@ sp needed
 551 000c 80BD     		pop	{r7, pc}
 552              	.L43:
 553 000e C046     		.align	2
 554              	.L42:
 555 0010 00000000 		.word	Comm_slWrBufIndex
 556              		.cfi_endproc
 557              	.LFE11:
 558              		.size	Comm_I2CSlaveClearWriteBuf, .-Comm_I2CSlaveClearWriteBuf
 559              		.text
 560              	.Letext0:
 561              		.file 2 "Generated_Source\\PSoC4/cytypes.h"