ARM GAS  C:\Users\TECHCO~1\AppData\Local\Temp\ccbjY4Mk.s 			page 1


   1              		.cpu cortex-m0
   2              		.fpu softvfp
   3              		.eabi_attribute 20, 1
   4              		.eabi_attribute 21, 1
   5              		.eabi_attribute 23, 3
   6              		.eabi_attribute 24, 1
   7              		.eabi_attribute 25, 1
   8              		.eabi_attribute 26, 1
   9              		.eabi_attribute 30, 6
  10              		.eabi_attribute 34, 0
  11              		.eabi_attribute 18, 4
  12              		.code	16
  13              		.file	"cyfitter_cfg.c"
  14              		.text
  15              	.Ltext0:
  16              		.cfi_sections	.debug_frame
  17              		.section	.text.CYMEMZERO,"ax",%progbits
  18              		.align	2
  19              		.code	16
  20              		.thumb_func
  21              		.type	CYMEMZERO, %function
  22              	CYMEMZERO:
  23              	.LFB0:
  24              		.file 1 ".\\Generated_Source\\PSoC4\\cyfitter_cfg.c"
   1:.\Generated_Source\PSoC4/cyfitter_cfg.c **** /*******************************************************************************
   2:.\Generated_Source\PSoC4/cyfitter_cfg.c **** * File Name: cyfitter_cfg.c
   3:.\Generated_Source\PSoC4/cyfitter_cfg.c **** * 
   4:.\Generated_Source\PSoC4/cyfitter_cfg.c **** * PSoC Creator  3.3 SP2
   5:.\Generated_Source\PSoC4/cyfitter_cfg.c **** *
   6:.\Generated_Source\PSoC4/cyfitter_cfg.c **** * Description:
   7:.\Generated_Source\PSoC4/cyfitter_cfg.c **** * This file contains device initialization code.
   8:.\Generated_Source\PSoC4/cyfitter_cfg.c **** * Except for the user defined sections in CyClockStartupError(), this file should not be modified.
   9:.\Generated_Source\PSoC4/cyfitter_cfg.c **** * This file is automatically generated by PSoC Creator.
  10:.\Generated_Source\PSoC4/cyfitter_cfg.c **** *
  11:.\Generated_Source\PSoC4/cyfitter_cfg.c **** ********************************************************************************
  12:.\Generated_Source\PSoC4/cyfitter_cfg.c **** * Copyright (c) 2007-2016 Cypress Semiconductor.  All rights reserved.
  13:.\Generated_Source\PSoC4/cyfitter_cfg.c **** * You may use this file only in accordance with the license, terms, conditions, 
  14:.\Generated_Source\PSoC4/cyfitter_cfg.c **** * disclaimers, and limitations in the end user license agreement accompanying 
  15:.\Generated_Source\PSoC4/cyfitter_cfg.c **** * the software package with which this file was provided.
  16:.\Generated_Source\PSoC4/cyfitter_cfg.c **** ********************************************************************************/
  17:.\Generated_Source\PSoC4/cyfitter_cfg.c **** 
  18:.\Generated_Source\PSoC4/cyfitter_cfg.c **** #include <string.h>
  19:.\Generated_Source\PSoC4/cyfitter_cfg.c **** #include "cytypes.h"
  20:.\Generated_Source\PSoC4/cyfitter_cfg.c **** #include "cydevice_trm.h"
  21:.\Generated_Source\PSoC4/cyfitter_cfg.c **** #include "cyfitter.h"
  22:.\Generated_Source\PSoC4/cyfitter_cfg.c **** #include "CyLib.h"
  23:.\Generated_Source\PSoC4/cyfitter_cfg.c **** #include "cyfitter_cfg.h"
  24:.\Generated_Source\PSoC4/cyfitter_cfg.c **** 
  25:.\Generated_Source\PSoC4/cyfitter_cfg.c **** 
  26:.\Generated_Source\PSoC4/cyfitter_cfg.c **** #if defined(__GNUC__) || defined(__ARMCC_VERSION)
  27:.\Generated_Source\PSoC4/cyfitter_cfg.c ****     #define CYPACKED 
  28:.\Generated_Source\PSoC4/cyfitter_cfg.c ****     #define CYPACKED_ATTR __attribute__ ((packed))
  29:.\Generated_Source\PSoC4/cyfitter_cfg.c ****     #define CYALIGNED __attribute__ ((aligned))
  30:.\Generated_Source\PSoC4/cyfitter_cfg.c ****     #define CY_CFG_UNUSED __attribute__ ((unused))
  31:.\Generated_Source\PSoC4/cyfitter_cfg.c ****     #ifndef CY_CFG_SECTION
  32:.\Generated_Source\PSoC4/cyfitter_cfg.c ****         #define CY_CFG_SECTION __attribute__ ((section(".psocinit")))
  33:.\Generated_Source\PSoC4/cyfitter_cfg.c ****     #endif
ARM GAS  C:\Users\TECHCO~1\AppData\Local\Temp\ccbjY4Mk.s 			page 2


  34:.\Generated_Source\PSoC4/cyfitter_cfg.c ****     
  35:.\Generated_Source\PSoC4/cyfitter_cfg.c ****     #if defined(__ARMCC_VERSION)
  36:.\Generated_Source\PSoC4/cyfitter_cfg.c ****         #define CY_CFG_MEMORY_BARRIER() __memory_changed()
  37:.\Generated_Source\PSoC4/cyfitter_cfg.c ****     #else
  38:.\Generated_Source\PSoC4/cyfitter_cfg.c ****         #define CY_CFG_MEMORY_BARRIER() __sync_synchronize()
  39:.\Generated_Source\PSoC4/cyfitter_cfg.c ****     #endif
  40:.\Generated_Source\PSoC4/cyfitter_cfg.c ****     
  41:.\Generated_Source\PSoC4/cyfitter_cfg.c **** #elif defined(__ICCARM__)
  42:.\Generated_Source\PSoC4/cyfitter_cfg.c ****     #include <intrinsics.h>
  43:.\Generated_Source\PSoC4/cyfitter_cfg.c **** 
  44:.\Generated_Source\PSoC4/cyfitter_cfg.c ****     #define CYPACKED __packed
  45:.\Generated_Source\PSoC4/cyfitter_cfg.c ****     #define CYPACKED_ATTR 
  46:.\Generated_Source\PSoC4/cyfitter_cfg.c ****     #define CYALIGNED _Pragma("data_alignment=4")
  47:.\Generated_Source\PSoC4/cyfitter_cfg.c ****     #define CY_CFG_UNUSED _Pragma("diag_suppress=Pe177")
  48:.\Generated_Source\PSoC4/cyfitter_cfg.c ****     #define CY_CFG_SECTION _Pragma("location=\".psocinit\"")
  49:.\Generated_Source\PSoC4/cyfitter_cfg.c ****     
  50:.\Generated_Source\PSoC4/cyfitter_cfg.c ****     #define CY_CFG_MEMORY_BARRIER() __DMB()
  51:.\Generated_Source\PSoC4/cyfitter_cfg.c ****     
  52:.\Generated_Source\PSoC4/cyfitter_cfg.c **** #else
  53:.\Generated_Source\PSoC4/cyfitter_cfg.c ****     #error Unsupported toolchain
  54:.\Generated_Source\PSoC4/cyfitter_cfg.c **** #endif
  55:.\Generated_Source\PSoC4/cyfitter_cfg.c **** 
  56:.\Generated_Source\PSoC4/cyfitter_cfg.c **** 
  57:.\Generated_Source\PSoC4/cyfitter_cfg.c **** CY_CFG_UNUSED
  58:.\Generated_Source\PSoC4/cyfitter_cfg.c **** static void CYMEMZERO(void *s, size_t n);
  59:.\Generated_Source\PSoC4/cyfitter_cfg.c **** CY_CFG_UNUSED
  60:.\Generated_Source\PSoC4/cyfitter_cfg.c **** static void CYMEMZERO(void *s, size_t n)
  61:.\Generated_Source\PSoC4/cyfitter_cfg.c **** {
  25              		.loc 1 61 0
  26              		.cfi_startproc
  27 0000 80B5     		push	{r7, lr}
  28              		.cfi_def_cfa_offset 8
  29              		.cfi_offset 7, -8
  30              		.cfi_offset 14, -4
  31 0002 82B0     		sub	sp, sp, #8
  32              		.cfi_def_cfa_offset 16
  33 0004 00AF     		add	r7, sp, #0
  34              		.cfi_def_cfa_register 7
  35 0006 7860     		str	r0, [r7, #4]
  36 0008 3960     		str	r1, [r7]
  62:.\Generated_Source\PSoC4/cyfitter_cfg.c **** 	(void)memset(s, 0, n);
  37              		.loc 1 62 0
  38 000a 7A68     		ldr	r2, [r7, #4]
  39 000c 3B68     		ldr	r3, [r7]
  40 000e 101C     		mov	r0, r2
  41 0010 0021     		mov	r1, #0
  42 0012 1A1C     		mov	r2, r3
  43 0014 FFF7FEFF 		bl	memset
  63:.\Generated_Source\PSoC4/cyfitter_cfg.c **** }
  44              		.loc 1 63 0
  45 0018 BD46     		mov	sp, r7
  46 001a 02B0     		add	sp, sp, #8
  47              		@ sp needed
  48 001c 80BD     		pop	{r7, pc}
  49              		.cfi_endproc
  50              	.LFE0:
  51              		.size	CYMEMZERO, .-CYMEMZERO
ARM GAS  C:\Users\TECHCO~1\AppData\Local\Temp\ccbjY4Mk.s 			page 3


  52 001e C046     		.section	.text.CYCONFIGCPY,"ax",%progbits
  53              		.align	2
  54              		.code	16
  55              		.thumb_func
  56              		.type	CYCONFIGCPY, %function
  57              	CYCONFIGCPY:
  58              	.LFB1:
  64:.\Generated_Source\PSoC4/cyfitter_cfg.c **** CY_CFG_UNUSED
  65:.\Generated_Source\PSoC4/cyfitter_cfg.c **** static void CYCONFIGCPY(void *dest, const void *src, size_t n);
  66:.\Generated_Source\PSoC4/cyfitter_cfg.c **** CY_CFG_UNUSED
  67:.\Generated_Source\PSoC4/cyfitter_cfg.c **** static void CYCONFIGCPY(void *dest, const void *src, size_t n)
  68:.\Generated_Source\PSoC4/cyfitter_cfg.c **** {
  59              		.loc 1 68 0
  60              		.cfi_startproc
  61 0000 80B5     		push	{r7, lr}
  62              		.cfi_def_cfa_offset 8
  63              		.cfi_offset 7, -8
  64              		.cfi_offset 14, -4
  65 0002 84B0     		sub	sp, sp, #16
  66              		.cfi_def_cfa_offset 24
  67 0004 00AF     		add	r7, sp, #0
  68              		.cfi_def_cfa_register 7
  69 0006 F860     		str	r0, [r7, #12]
  70 0008 B960     		str	r1, [r7, #8]
  71 000a 7A60     		str	r2, [r7, #4]
  69:.\Generated_Source\PSoC4/cyfitter_cfg.c **** 	(void)memcpy(dest, src, n);
  72              		.loc 1 69 0
  73 000c F968     		ldr	r1, [r7, #12]
  74 000e BA68     		ldr	r2, [r7, #8]
  75 0010 7B68     		ldr	r3, [r7, #4]
  76 0012 081C     		mov	r0, r1
  77 0014 111C     		mov	r1, r2
  78 0016 1A1C     		mov	r2, r3
  79 0018 FFF7FEFF 		bl	memcpy
  70:.\Generated_Source\PSoC4/cyfitter_cfg.c **** }
  80              		.loc 1 70 0
  81 001c BD46     		mov	sp, r7
  82 001e 04B0     		add	sp, sp, #16
  83              		@ sp needed
  84 0020 80BD     		pop	{r7, pc}
  85              		.cfi_endproc
  86              	.LFE1:
  87              		.size	CYCONFIGCPY, .-CYCONFIGCPY
  88 0022 C046     		.section	.text.CYCONFIGCPYCODE,"ax",%progbits
  89              		.align	2
  90              		.code	16
  91              		.thumb_func
  92              		.type	CYCONFIGCPYCODE, %function
  93              	CYCONFIGCPYCODE:
  94              	.LFB2:
  71:.\Generated_Source\PSoC4/cyfitter_cfg.c **** CY_CFG_UNUSED
  72:.\Generated_Source\PSoC4/cyfitter_cfg.c **** static void CYCONFIGCPYCODE(void *dest, const void *src, size_t n);
  73:.\Generated_Source\PSoC4/cyfitter_cfg.c **** CY_CFG_UNUSED
  74:.\Generated_Source\PSoC4/cyfitter_cfg.c **** static void CYCONFIGCPYCODE(void *dest, const void *src, size_t n)
  75:.\Generated_Source\PSoC4/cyfitter_cfg.c **** {
  95              		.loc 1 75 0
  96              		.cfi_startproc
ARM GAS  C:\Users\TECHCO~1\AppData\Local\Temp\ccbjY4Mk.s 			page 4


  97 0000 80B5     		push	{r7, lr}
  98              		.cfi_def_cfa_offset 8
  99              		.cfi_offset 7, -8
 100              		.cfi_offset 14, -4
 101 0002 84B0     		sub	sp, sp, #16
 102              		.cfi_def_cfa_offset 24
 103 0004 00AF     		add	r7, sp, #0
 104              		.cfi_def_cfa_register 7
 105 0006 F860     		str	r0, [r7, #12]
 106 0008 B960     		str	r1, [r7, #8]
 107 000a 7A60     		str	r2, [r7, #4]
  76:.\Generated_Source\PSoC4/cyfitter_cfg.c **** 	(void)memcpy(dest, src, n);
 108              		.loc 1 76 0
 109 000c F968     		ldr	r1, [r7, #12]
 110 000e BA68     		ldr	r2, [r7, #8]
 111 0010 7B68     		ldr	r3, [r7, #4]
 112 0012 081C     		mov	r0, r1
 113 0014 111C     		mov	r1, r2
 114 0016 1A1C     		mov	r2, r3
 115 0018 FFF7FEFF 		bl	memcpy
  77:.\Generated_Source\PSoC4/cyfitter_cfg.c **** }
 116              		.loc 1 77 0
 117 001c BD46     		mov	sp, r7
 118 001e 04B0     		add	sp, sp, #16
 119              		@ sp needed
 120 0020 80BD     		pop	{r7, pc}
 121              		.cfi_endproc
 122              	.LFE2:
 123              		.size	CYCONFIGCPYCODE, .-CYCONFIGCPYCODE
 124 0022 C046     		.section	.text.cfg_write_bytes32,"ax",%progbits
 125              		.align	2
 126              		.code	16
 127              		.thumb_func
 128              		.type	cfg_write_bytes32, %function
 129              	cfg_write_bytes32:
 130              	.LFB3:
  78:.\Generated_Source\PSoC4/cyfitter_cfg.c **** 
  79:.\Generated_Source\PSoC4/cyfitter_cfg.c **** 
  80:.\Generated_Source\PSoC4/cyfitter_cfg.c **** 
  81:.\Generated_Source\PSoC4/cyfitter_cfg.c **** /* Clock startup error codes                                                   */
  82:.\Generated_Source\PSoC4/cyfitter_cfg.c **** #define CYCLOCKSTART_NO_ERROR    0u
  83:.\Generated_Source\PSoC4/cyfitter_cfg.c **** #define CYCLOCKSTART_XTAL_ERROR  1u
  84:.\Generated_Source\PSoC4/cyfitter_cfg.c **** #define CYCLOCKSTART_32KHZ_ERROR 2u
  85:.\Generated_Source\PSoC4/cyfitter_cfg.c **** #define CYCLOCKSTART_PLL_ERROR   3u
  86:.\Generated_Source\PSoC4/cyfitter_cfg.c **** 
  87:.\Generated_Source\PSoC4/cyfitter_cfg.c **** #ifdef CY_NEED_CYCLOCKSTARTUPERROR
  88:.\Generated_Source\PSoC4/cyfitter_cfg.c **** /*******************************************************************************
  89:.\Generated_Source\PSoC4/cyfitter_cfg.c **** * Function Name: CyClockStartupError
  90:.\Generated_Source\PSoC4/cyfitter_cfg.c **** ********************************************************************************
  91:.\Generated_Source\PSoC4/cyfitter_cfg.c **** * Summary:
  92:.\Generated_Source\PSoC4/cyfitter_cfg.c **** *  If an error is encountered during clock configuration (crystal startup error,
  93:.\Generated_Source\PSoC4/cyfitter_cfg.c **** *  PLL lock error, etc.), the system will end up here.  Unless reimplemented by
  94:.\Generated_Source\PSoC4/cyfitter_cfg.c **** *  the customer, this function will stop in an infinite loop.
  95:.\Generated_Source\PSoC4/cyfitter_cfg.c **** *
  96:.\Generated_Source\PSoC4/cyfitter_cfg.c **** * Parameters:
  97:.\Generated_Source\PSoC4/cyfitter_cfg.c **** *   void
  98:.\Generated_Source\PSoC4/cyfitter_cfg.c **** *
ARM GAS  C:\Users\TECHCO~1\AppData\Local\Temp\ccbjY4Mk.s 			page 5


  99:.\Generated_Source\PSoC4/cyfitter_cfg.c **** * Return:
 100:.\Generated_Source\PSoC4/cyfitter_cfg.c **** *   void
 101:.\Generated_Source\PSoC4/cyfitter_cfg.c **** *
 102:.\Generated_Source\PSoC4/cyfitter_cfg.c **** *******************************************************************************/
 103:.\Generated_Source\PSoC4/cyfitter_cfg.c **** CY_CFG_UNUSED
 104:.\Generated_Source\PSoC4/cyfitter_cfg.c **** static void CyClockStartupError(uint8 errorCode);
 105:.\Generated_Source\PSoC4/cyfitter_cfg.c **** CY_CFG_UNUSED
 106:.\Generated_Source\PSoC4/cyfitter_cfg.c **** static void CyClockStartupError(uint8 errorCode)
 107:.\Generated_Source\PSoC4/cyfitter_cfg.c **** {
 108:.\Generated_Source\PSoC4/cyfitter_cfg.c ****     /* To remove the compiler warning if errorCode not used.                */
 109:.\Generated_Source\PSoC4/cyfitter_cfg.c ****     errorCode = errorCode;
 110:.\Generated_Source\PSoC4/cyfitter_cfg.c **** 
 111:.\Generated_Source\PSoC4/cyfitter_cfg.c ****     /* `#START CyClockStartupError` */
 112:.\Generated_Source\PSoC4/cyfitter_cfg.c **** 
 113:.\Generated_Source\PSoC4/cyfitter_cfg.c ****     /* If we have a clock startup error (bad MHz crystal, PLL lock, etc.),  */
 114:.\Generated_Source\PSoC4/cyfitter_cfg.c ****     /* we will end up here to allow the customer to implement something to  */
 115:.\Generated_Source\PSoC4/cyfitter_cfg.c ****     /* deal with the clock condition.                                       */
 116:.\Generated_Source\PSoC4/cyfitter_cfg.c **** 
 117:.\Generated_Source\PSoC4/cyfitter_cfg.c ****     /* `#END` */
 118:.\Generated_Source\PSoC4/cyfitter_cfg.c **** 
 119:.\Generated_Source\PSoC4/cyfitter_cfg.c ****     /* If nothing else, stop here since the clocks have not started         */
 120:.\Generated_Source\PSoC4/cyfitter_cfg.c ****     /* correctly.                                                           */
 121:.\Generated_Source\PSoC4/cyfitter_cfg.c ****     while(1) {}
 122:.\Generated_Source\PSoC4/cyfitter_cfg.c **** }
 123:.\Generated_Source\PSoC4/cyfitter_cfg.c **** #endif
 124:.\Generated_Source\PSoC4/cyfitter_cfg.c **** 
 125:.\Generated_Source\PSoC4/cyfitter_cfg.c **** #define CY_CFG_BASE_ADDR_COUNT 10u
 126:.\Generated_Source\PSoC4/cyfitter_cfg.c **** CYPACKED typedef struct
 127:.\Generated_Source\PSoC4/cyfitter_cfg.c **** {
 128:.\Generated_Source\PSoC4/cyfitter_cfg.c **** 	uint8 offset;
 129:.\Generated_Source\PSoC4/cyfitter_cfg.c **** 	uint8 value;
 130:.\Generated_Source\PSoC4/cyfitter_cfg.c **** } CYPACKED_ATTR cy_cfg_addrvalue_t;
 131:.\Generated_Source\PSoC4/cyfitter_cfg.c **** 
 132:.\Generated_Source\PSoC4/cyfitter_cfg.c **** 
 133:.\Generated_Source\PSoC4/cyfitter_cfg.c **** 
 134:.\Generated_Source\PSoC4/cyfitter_cfg.c **** /*******************************************************************************
 135:.\Generated_Source\PSoC4/cyfitter_cfg.c **** * Function Name: cfg_write_bytes32
 136:.\Generated_Source\PSoC4/cyfitter_cfg.c **** ********************************************************************************
 137:.\Generated_Source\PSoC4/cyfitter_cfg.c **** * Summary:
 138:.\Generated_Source\PSoC4/cyfitter_cfg.c **** *  This function is used for setting up the chip configuration areas that
 139:.\Generated_Source\PSoC4/cyfitter_cfg.c **** *  contain relatively sparse data.
 140:.\Generated_Source\PSoC4/cyfitter_cfg.c **** *
 141:.\Generated_Source\PSoC4/cyfitter_cfg.c **** * Parameters:
 142:.\Generated_Source\PSoC4/cyfitter_cfg.c **** *   void
 143:.\Generated_Source\PSoC4/cyfitter_cfg.c **** *
 144:.\Generated_Source\PSoC4/cyfitter_cfg.c **** * Return:
 145:.\Generated_Source\PSoC4/cyfitter_cfg.c **** *   void
 146:.\Generated_Source\PSoC4/cyfitter_cfg.c **** *
 147:.\Generated_Source\PSoC4/cyfitter_cfg.c **** *******************************************************************************/
 148:.\Generated_Source\PSoC4/cyfitter_cfg.c **** static void cfg_write_bytes32(const uint32 addr_table[], const cy_cfg_addrvalue_t data_table[]);
 149:.\Generated_Source\PSoC4/cyfitter_cfg.c **** static void cfg_write_bytes32(const uint32 addr_table[], const cy_cfg_addrvalue_t data_table[])
 150:.\Generated_Source\PSoC4/cyfitter_cfg.c **** {
 131              		.loc 1 150 0
 132              		.cfi_startproc
 133 0000 80B5     		push	{r7, lr}
 134              		.cfi_def_cfa_offset 8
 135              		.cfi_offset 7, -8
ARM GAS  C:\Users\TECHCO~1\AppData\Local\Temp\ccbjY4Mk.s 			page 6


 136              		.cfi_offset 14, -4
 137 0002 86B0     		sub	sp, sp, #24
 138              		.cfi_def_cfa_offset 32
 139 0004 00AF     		add	r7, sp, #0
 140              		.cfi_def_cfa_register 7
 141 0006 7860     		str	r0, [r7, #4]
 142 0008 3960     		str	r1, [r7]
 151:.\Generated_Source\PSoC4/cyfitter_cfg.c **** 	/* For 32-bit little-endian architectures */
 152:.\Generated_Source\PSoC4/cyfitter_cfg.c **** 	uint32 i, j = 0u;
 143              		.loc 1 152 0
 144 000a 0023     		mov	r3, #0
 145 000c 3B61     		str	r3, [r7, #16]
 153:.\Generated_Source\PSoC4/cyfitter_cfg.c **** 	for (i = 0u; i < CY_CFG_BASE_ADDR_COUNT; i++)
 146              		.loc 1 153 0
 147 000e 0023     		mov	r3, #0
 148 0010 7B61     		str	r3, [r7, #20]
 149 0012 2FE0     		b	.L5
 150              	.L8:
 151              	.LBB2:
 154:.\Generated_Source\PSoC4/cyfitter_cfg.c **** 	{
 155:.\Generated_Source\PSoC4/cyfitter_cfg.c **** 		uint32 baseAddr = addr_table[i];
 152              		.loc 1 155 0
 153 0014 7B69     		ldr	r3, [r7, #20]
 154 0016 9B00     		lsl	r3, r3, #2
 155 0018 7A68     		ldr	r2, [r7, #4]
 156 001a D318     		add	r3, r2, r3
 157 001c 1B68     		ldr	r3, [r3]
 158 001e BB60     		str	r3, [r7, #8]
 156:.\Generated_Source\PSoC4/cyfitter_cfg.c **** 		uint8 count = (uint8)baseAddr;
 159              		.loc 1 156 0
 160 0020 0F23     		mov	r3, #15
 161 0022 FB18     		add	r3, r7, r3
 162 0024 BA68     		ldr	r2, [r7, #8]
 163 0026 1A70     		strb	r2, [r3]
 157:.\Generated_Source\PSoC4/cyfitter_cfg.c **** 		baseAddr &= 0xFFFFFF00u;
 164              		.loc 1 157 0
 165 0028 BB68     		ldr	r3, [r7, #8]
 166 002a FF22     		mov	r2, #255
 167 002c 9343     		bic	r3, r2
 168 002e BB60     		str	r3, [r7, #8]
 158:.\Generated_Source\PSoC4/cyfitter_cfg.c **** 		while (count != 0u)
 169              		.loc 1 158 0
 170 0030 18E0     		b	.L6
 171              	.L7:
 159:.\Generated_Source\PSoC4/cyfitter_cfg.c **** 		{
 160:.\Generated_Source\PSoC4/cyfitter_cfg.c **** 			CY_SET_XTND_REG8((void CYFAR *)(baseAddr + data_table[j].offset), data_table[j].value);
 172              		.loc 1 160 0
 173 0032 3B69     		ldr	r3, [r7, #16]
 174 0034 5B00     		lsl	r3, r3, #1
 175 0036 3A68     		ldr	r2, [r7]
 176 0038 D318     		add	r3, r2, r3
 177 003a 1B78     		ldrb	r3, [r3]
 178 003c 1A1C     		mov	r2, r3
 179 003e BB68     		ldr	r3, [r7, #8]
 180 0040 D318     		add	r3, r2, r3
 181 0042 191C     		mov	r1, r3
 182 0044 3B69     		ldr	r3, [r7, #16]
ARM GAS  C:\Users\TECHCO~1\AppData\Local\Temp\ccbjY4Mk.s 			page 7


 183 0046 5B00     		lsl	r3, r3, #1
 184 0048 3A68     		ldr	r2, [r7]
 185 004a D318     		add	r3, r2, r3
 186 004c 5B78     		ldrb	r3, [r3, #1]
 187 004e 0B70     		strb	r3, [r1]
 161:.\Generated_Source\PSoC4/cyfitter_cfg.c **** 			j++;
 188              		.loc 1 161 0
 189 0050 3B69     		ldr	r3, [r7, #16]
 190 0052 0133     		add	r3, r3, #1
 191 0054 3B61     		str	r3, [r7, #16]
 162:.\Generated_Source\PSoC4/cyfitter_cfg.c **** 			count--;
 192              		.loc 1 162 0
 193 0056 0F23     		mov	r3, #15
 194 0058 FB18     		add	r3, r7, r3
 195 005a 1A78     		ldrb	r2, [r3]
 196 005c 0F23     		mov	r3, #15
 197 005e FB18     		add	r3, r7, r3
 198 0060 013A     		sub	r2, r2, #1
 199 0062 1A70     		strb	r2, [r3]
 200              	.L6:
 158:.\Generated_Source\PSoC4/cyfitter_cfg.c **** 		{
 201              		.loc 1 158 0
 202 0064 0F23     		mov	r3, #15
 203 0066 FB18     		add	r3, r7, r3
 204 0068 1B78     		ldrb	r3, [r3]
 205 006a 002B     		cmp	r3, #0
 206 006c E1D1     		bne	.L7
 207              	.LBE2:
 153:.\Generated_Source\PSoC4/cyfitter_cfg.c **** 	{
 208              		.loc 1 153 0 discriminator 2
 209 006e 7B69     		ldr	r3, [r7, #20]
 210 0070 0133     		add	r3, r3, #1
 211 0072 7B61     		str	r3, [r7, #20]
 212              	.L5:
 153:.\Generated_Source\PSoC4/cyfitter_cfg.c **** 	{
 213              		.loc 1 153 0 is_stmt 0 discriminator 1
 214 0074 7B69     		ldr	r3, [r7, #20]
 215 0076 092B     		cmp	r3, #9
 216 0078 CCD9     		bls	.L8
 163:.\Generated_Source\PSoC4/cyfitter_cfg.c **** 		}
 164:.\Generated_Source\PSoC4/cyfitter_cfg.c **** 	}
 165:.\Generated_Source\PSoC4/cyfitter_cfg.c **** }
 217              		.loc 1 165 0 is_stmt 1
 218 007a BD46     		mov	sp, r7
 219 007c 06B0     		add	sp, sp, #24
 220              		@ sp needed
 221 007e 80BD     		pop	{r7, pc}
 222              		.cfi_endproc
 223              	.LFE3:
 224              		.size	cfg_write_bytes32, .-cfg_write_bytes32
 225              		.section	.psocinit,"ax",%progbits
 226              		.align	2
 227              		.code	16
 228              		.thumb_func
 229              		.type	ClockSetup, %function
 230              	ClockSetup:
 231              	.LFB4:
ARM GAS  C:\Users\TECHCO~1\AppData\Local\Temp\ccbjY4Mk.s 			page 8


 166:.\Generated_Source\PSoC4/cyfitter_cfg.c **** 
 167:.\Generated_Source\PSoC4/cyfitter_cfg.c **** 
 168:.\Generated_Source\PSoC4/cyfitter_cfg.c **** /*******************************************************************************
 169:.\Generated_Source\PSoC4/cyfitter_cfg.c **** * Function Name: ClockSetup
 170:.\Generated_Source\PSoC4/cyfitter_cfg.c **** ********************************************************************************
 171:.\Generated_Source\PSoC4/cyfitter_cfg.c **** *
 172:.\Generated_Source\PSoC4/cyfitter_cfg.c **** * Summary:
 173:.\Generated_Source\PSoC4/cyfitter_cfg.c **** *   Performs the initialization of all of the clocks in the device based on the
 174:.\Generated_Source\PSoC4/cyfitter_cfg.c **** *   settings in the Clock tab of the DWR.  This includes enabling the requested
 175:.\Generated_Source\PSoC4/cyfitter_cfg.c **** *   clocks and setting the necessary dividers to produce the desired frequency. 
 176:.\Generated_Source\PSoC4/cyfitter_cfg.c **** *
 177:.\Generated_Source\PSoC4/cyfitter_cfg.c **** * Parameters:
 178:.\Generated_Source\PSoC4/cyfitter_cfg.c **** *   void
 179:.\Generated_Source\PSoC4/cyfitter_cfg.c **** *
 180:.\Generated_Source\PSoC4/cyfitter_cfg.c **** * Return:
 181:.\Generated_Source\PSoC4/cyfitter_cfg.c **** *   void
 182:.\Generated_Source\PSoC4/cyfitter_cfg.c **** *
 183:.\Generated_Source\PSoC4/cyfitter_cfg.c **** *******************************************************************************/
 184:.\Generated_Source\PSoC4/cyfitter_cfg.c **** static void ClockSetup(void);
 185:.\Generated_Source\PSoC4/cyfitter_cfg.c **** CY_CFG_SECTION
 186:.\Generated_Source\PSoC4/cyfitter_cfg.c **** static void ClockSetup(void)
 187:.\Generated_Source\PSoC4/cyfitter_cfg.c **** {
 232              		.loc 1 187 0
 233              		.cfi_startproc
 234 0000 80B5     		push	{r7, lr}
 235              		.cfi_def_cfa_offset 8
 236              		.cfi_offset 7, -8
 237              		.cfi_offset 14, -4
 238 0002 00AF     		add	r7, sp, #0
 239              		.cfi_def_cfa_register 7
 188:.\Generated_Source\PSoC4/cyfitter_cfg.c **** 	/* Enable HALF_EN before trimming for the flash accelerator. */
 189:.\Generated_Source\PSoC4/cyfitter_cfg.c **** 	CY_SET_REG32((void CYXDATA *)(CYREG_CLK_SELECT), (CY_GET_REG32((void *)CYREG_CLK_SELECT) | 0x00040
 240              		.loc 1 189 0
 241 0004 1E4B     		ldr	r3, .L10
 242 0006 1E4A     		ldr	r2, .L10
 243 0008 1268     		ldr	r2, [r2]
 244 000a 8021     		mov	r1, #128
 245 000c C902     		lsl	r1, r1, #11
 246 000e 0A43     		orr	r2, r1
 247 0010 1A60     		str	r2, [r3]
 190:.\Generated_Source\PSoC4/cyfitter_cfg.c **** 
 191:.\Generated_Source\PSoC4/cyfitter_cfg.c **** 	/* Setup and trim IMO based on desired frequency. */
 192:.\Generated_Source\PSoC4/cyfitter_cfg.c **** 	CySysClkWriteImoFreq(24u);
 248              		.loc 1 192 0
 249 0012 1820     		mov	r0, #24
 250 0014 FFF7FEFF 		bl	CySysClkWriteImoFreq
 193:.\Generated_Source\PSoC4/cyfitter_cfg.c **** 
 194:.\Generated_Source\PSoC4/cyfitter_cfg.c **** 	/* Disable HALF_EN since it is not required at this IMO frequency. */
 195:.\Generated_Source\PSoC4/cyfitter_cfg.c **** 	CY_SET_REG32((void CYXDATA *)(CYREG_CLK_SELECT), (CY_GET_REG32((void *)CYREG_CLK_SELECT) & 0xFFFBF
 251              		.loc 1 195 0
 252 0018 194B     		ldr	r3, .L10
 253 001a 194A     		ldr	r2, .L10
 254 001c 1268     		ldr	r2, [r2]
 255 001e 1949     		ldr	r1, .L10+4
 256 0020 0A40     		and	r2, r1
 257 0022 1A60     		str	r2, [r3]
 196:.\Generated_Source\PSoC4/cyfitter_cfg.c **** 	/* CYDEV_CLK_ILO_CONFIG Starting address: CYDEV_CLK_ILO_CONFIG */
ARM GAS  C:\Users\TECHCO~1\AppData\Local\Temp\ccbjY4Mk.s 			page 9


 197:.\Generated_Source\PSoC4/cyfitter_cfg.c **** 	CY_SET_XTND_REG32((void CYFAR *)(CYREG_CLK_ILO_CONFIG), 0x80000006u);
 258              		.loc 1 197 0
 259 0024 184B     		ldr	r3, .L10+8
 260 0026 194A     		ldr	r2, .L10+12
 261 0028 1A60     		str	r2, [r3]
 198:.\Generated_Source\PSoC4/cyfitter_cfg.c **** 
 199:.\Generated_Source\PSoC4/cyfitter_cfg.c **** 
 200:.\Generated_Source\PSoC4/cyfitter_cfg.c **** 	/* CYDEV_CLK_SELECT00 Starting address: CYDEV_CLK_SELECT00 */
 201:.\Generated_Source\PSoC4/cyfitter_cfg.c **** 	CY_SET_XTND_REG32((void CYFAR *)(CYREG_CLK_SELECT02), 0x00000010u);
 262              		.loc 1 201 0
 263 002a 194B     		ldr	r3, .L10+16
 264 002c 1022     		mov	r2, #16
 265 002e 1A60     		str	r2, [r3]
 202:.\Generated_Source\PSoC4/cyfitter_cfg.c **** 	CY_SET_XTND_REG32((void CYFAR *)(CYREG_CLK_SELECT08), 0x00000030u);
 266              		.loc 1 202 0
 267 0030 184B     		ldr	r3, .L10+20
 268 0032 3022     		mov	r2, #48
 269 0034 1A60     		str	r2, [r3]
 203:.\Generated_Source\PSoC4/cyfitter_cfg.c **** 	CY_SET_XTND_REG32((void CYFAR *)(CYREG_CLK_SELECT09), 0x00000020u);
 270              		.loc 1 203 0
 271 0036 184B     		ldr	r3, .L10+24
 272 0038 2022     		mov	r2, #32
 273 003a 1A60     		str	r2, [r3]
 204:.\Generated_Source\PSoC4/cyfitter_cfg.c **** 	CY_SET_XTND_REG32((void CYFAR *)(CYREG_CLK_SELECT10), 0x00000020u);
 274              		.loc 1 204 0
 275 003c 174B     		ldr	r3, .L10+28
 276 003e 2022     		mov	r2, #32
 277 0040 1A60     		str	r2, [r3]
 205:.\Generated_Source\PSoC4/cyfitter_cfg.c **** 	CY_SET_XTND_REG32((void CYFAR *)(CYREG_CLK_SELECT11), 0x00000030u);
 278              		.loc 1 205 0
 279 0042 174B     		ldr	r3, .L10+32
 280 0044 3022     		mov	r2, #48
 281 0046 1A60     		str	r2, [r3]
 206:.\Generated_Source\PSoC4/cyfitter_cfg.c **** 	CY_SET_XTND_REG32((void CYFAR *)(CYREG_CLK_SELECT13), 0x00000020u);
 282              		.loc 1 206 0
 283 0048 164B     		ldr	r3, .L10+36
 284 004a 2022     		mov	r2, #32
 285 004c 1A60     		str	r2, [r3]
 207:.\Generated_Source\PSoC4/cyfitter_cfg.c **** 	CY_SET_XTND_REG32((void CYFAR *)(CYREG_CLK_SELECT15), 0x00000030u);
 286              		.loc 1 207 0
 287 004e 164B     		ldr	r3, .L10+40
 288 0050 3022     		mov	r2, #48
 289 0052 1A60     		str	r2, [r3]
 208:.\Generated_Source\PSoC4/cyfitter_cfg.c **** 
 209:.\Generated_Source\PSoC4/cyfitter_cfg.c **** 	/* CYDEV_CLK_IMO_CONFIG Starting address: CYDEV_CLK_IMO_CONFIG */
 210:.\Generated_Source\PSoC4/cyfitter_cfg.c **** 	CY_SET_XTND_REG32((void CYFAR *)(CYREG_CLK_IMO_CONFIG), 0x80000000u);
 290              		.loc 1 210 0
 291 0054 154B     		ldr	r3, .L10+44
 292 0056 8022     		mov	r2, #128
 293 0058 1206     		lsl	r2, r2, #24
 294 005a 1A60     		str	r2, [r3]
 211:.\Generated_Source\PSoC4/cyfitter_cfg.c **** 
 212:.\Generated_Source\PSoC4/cyfitter_cfg.c **** 	/* CYDEV_CLK_SELECT Starting address: CYDEV_CLK_SELECT */
 213:.\Generated_Source\PSoC4/cyfitter_cfg.c **** 	CY_SET_XTND_REG32((void CYFAR *)(CYREG_CLK_SELECT), 0x00000000u);
 295              		.loc 1 213 0
 296 005c 084B     		ldr	r3, .L10
 297 005e 0022     		mov	r2, #0
ARM GAS  C:\Users\TECHCO~1\AppData\Local\Temp\ccbjY4Mk.s 			page 10


 298 0060 1A60     		str	r2, [r3]
 214:.\Generated_Source\PSoC4/cyfitter_cfg.c **** 
 215:.\Generated_Source\PSoC4/cyfitter_cfg.c **** 	/* CYDEV_CLK_DIVIDER_A00 Starting address: CYDEV_CLK_DIVIDER_A00 */
 216:.\Generated_Source\PSoC4/cyfitter_cfg.c **** 	CY_SET_XTND_REG32((void CYFAR *)(CYREG_CLK_DIVIDER_A00), 0x80000000u);
 299              		.loc 1 216 0
 300 0062 134B     		ldr	r3, .L10+48
 301 0064 8022     		mov	r2, #128
 302 0066 1206     		lsl	r2, r2, #24
 303 0068 1A60     		str	r2, [r3]
 217:.\Generated_Source\PSoC4/cyfitter_cfg.c **** 
 218:.\Generated_Source\PSoC4/cyfitter_cfg.c **** 	/* CYDEV_CLK_DIVIDER_B00 Starting address: CYDEV_CLK_DIVIDER_B00 */
 219:.\Generated_Source\PSoC4/cyfitter_cfg.c **** 	CY_SET_XTND_REG32((void CYFAR *)(CYREG_CLK_DIVIDER_B00), 0x80000002u);
 304              		.loc 1 219 0
 305 006a 124B     		ldr	r3, .L10+52
 306 006c 124A     		ldr	r2, .L10+56
 307 006e 1A60     		str	r2, [r3]
 220:.\Generated_Source\PSoC4/cyfitter_cfg.c **** 
 221:.\Generated_Source\PSoC4/cyfitter_cfg.c **** 	/* CYDEV_CLK_DIVIDER_C00 Starting address: CYDEV_CLK_DIVIDER_C00 */
 222:.\Generated_Source\PSoC4/cyfitter_cfg.c **** 	CY_SET_XTND_REG32((void CYFAR *)(CYREG_CLK_DIVIDER_C00), 0x80000002u);
 308              		.loc 1 222 0
 309 0070 124B     		ldr	r3, .L10+60
 310 0072 114A     		ldr	r2, .L10+56
 311 0074 1A60     		str	r2, [r3]
 223:.\Generated_Source\PSoC4/cyfitter_cfg.c **** 
 224:.\Generated_Source\PSoC4/cyfitter_cfg.c **** 	CY_SET_XTND_REG32((void CYFAR *)(CYREG_WDT_CONFIG), 0x00000000u);
 312              		.loc 1 224 0
 313 0076 124B     		ldr	r3, .L10+64
 314 0078 0022     		mov	r2, #0
 315 007a 1A60     		str	r2, [r3]
 225:.\Generated_Source\PSoC4/cyfitter_cfg.c **** }
 316              		.loc 1 225 0
 317 007c BD46     		mov	sp, r7
 318              		@ sp needed
 319 007e 80BD     		pop	{r7, pc}
 320              	.L11:
 321              		.align	2
 322              	.L10:
 323 0080 00010B40 		.word	1074462976
 324 0084 FFFFFBFF 		.word	-262145
 325 0088 04010B40 		.word	1074462980
 326 008c 06000080 		.word	-2147483642
 327 0090 08020240 		.word	1073873416
 328 0094 20020240 		.word	1073873440
 329 0098 24020240 		.word	1073873444
 330 009c 28020240 		.word	1073873448
 331 00a0 2C020240 		.word	1073873452
 332 00a4 34020240 		.word	1073873460
 333 00a8 3C020240 		.word	1073873468
 334 00ac 08010B40 		.word	1074462984
 335 00b0 00000240 		.word	1073872896
 336 00b4 40000240 		.word	1073872960
 337 00b8 02000080 		.word	-2147483646
 338 00bc 80000240 		.word	1073873024
 339 00c0 0C020B40 		.word	1074463244
 340              		.cfi_endproc
 341              	.LFE4:
 342              		.size	ClockSetup, .-ClockSetup
ARM GAS  C:\Users\TECHCO~1\AppData\Local\Temp\ccbjY4Mk.s 			page 11


 343              		.section	.text.AnalogSetDefault,"ax",%progbits
 344              		.align	2
 345              		.code	16
 346              		.thumb_func
 347              		.type	AnalogSetDefault, %function
 348              	AnalogSetDefault:
 349              	.LFB5:
 226:.\Generated_Source\PSoC4/cyfitter_cfg.c **** 
 227:.\Generated_Source\PSoC4/cyfitter_cfg.c **** 
 228:.\Generated_Source\PSoC4/cyfitter_cfg.c **** /* Analog API Functions */
 229:.\Generated_Source\PSoC4/cyfitter_cfg.c **** 
 230:.\Generated_Source\PSoC4/cyfitter_cfg.c **** 
 231:.\Generated_Source\PSoC4/cyfitter_cfg.c **** /*******************************************************************************
 232:.\Generated_Source\PSoC4/cyfitter_cfg.c **** * Function Name: AnalogSetDefault
 233:.\Generated_Source\PSoC4/cyfitter_cfg.c **** ********************************************************************************
 234:.\Generated_Source\PSoC4/cyfitter_cfg.c **** *
 235:.\Generated_Source\PSoC4/cyfitter_cfg.c **** * Summary:
 236:.\Generated_Source\PSoC4/cyfitter_cfg.c **** *  Sets up the analog portions of the chip to default values based on chip
 237:.\Generated_Source\PSoC4/cyfitter_cfg.c **** *  configuration options from the project.
 238:.\Generated_Source\PSoC4/cyfitter_cfg.c **** *
 239:.\Generated_Source\PSoC4/cyfitter_cfg.c **** * Parameters:
 240:.\Generated_Source\PSoC4/cyfitter_cfg.c **** *  void
 241:.\Generated_Source\PSoC4/cyfitter_cfg.c **** *
 242:.\Generated_Source\PSoC4/cyfitter_cfg.c **** * Return:
 243:.\Generated_Source\PSoC4/cyfitter_cfg.c **** *  void
 244:.\Generated_Source\PSoC4/cyfitter_cfg.c **** *
 245:.\Generated_Source\PSoC4/cyfitter_cfg.c **** *******************************************************************************/
 246:.\Generated_Source\PSoC4/cyfitter_cfg.c **** static void AnalogSetDefault(void);
 247:.\Generated_Source\PSoC4/cyfitter_cfg.c **** static void AnalogSetDefault(void)
 248:.\Generated_Source\PSoC4/cyfitter_cfg.c **** {
 350              		.loc 1 248 0
 351              		.cfi_startproc
 352 0000 80B5     		push	{r7, lr}
 353              		.cfi_def_cfa_offset 8
 354              		.cfi_offset 7, -8
 355              		.cfi_offset 14, -4
 356 0002 00AF     		add	r7, sp, #0
 357              		.cfi_def_cfa_register 7
 249:.\Generated_Source\PSoC4/cyfitter_cfg.c **** }
 358              		.loc 1 249 0
 359 0004 BD46     		mov	sp, r7
 360              		@ sp needed
 361 0006 80BD     		pop	{r7, pc}
 362              		.cfi_endproc
 363              	.LFE5:
 364              		.size	AnalogSetDefault, .-AnalogSetDefault
 365              		.section	.psocinit
 366              		.align	2
 367              		.global	cyfitter_cfg
 368              		.code	16
 369              		.thumb_func
 370              		.type	cyfitter_cfg, %function
 371              	cyfitter_cfg:
 372              	.LFB6:
 250:.\Generated_Source\PSoC4/cyfitter_cfg.c **** 
 251:.\Generated_Source\PSoC4/cyfitter_cfg.c **** #define CY_AMUX_UNUSED CYREG_CM0_ROM_DWT
 252:.\Generated_Source\PSoC4/cyfitter_cfg.c **** 
ARM GAS  C:\Users\TECHCO~1\AppData\Local\Temp\ccbjY4Mk.s 			page 12


 253:.\Generated_Source\PSoC4/cyfitter_cfg.c **** 
 254:.\Generated_Source\PSoC4/cyfitter_cfg.c **** /*******************************************************************************
 255:.\Generated_Source\PSoC4/cyfitter_cfg.c **** * Function Name: cyfitter_cfg
 256:.\Generated_Source\PSoC4/cyfitter_cfg.c **** ********************************************************************************
 257:.\Generated_Source\PSoC4/cyfitter_cfg.c **** * Summary:
 258:.\Generated_Source\PSoC4/cyfitter_cfg.c **** *  This function is called by the start-up code for the selected device. It
 259:.\Generated_Source\PSoC4/cyfitter_cfg.c **** *  performs all of the necessary device configuration based on the design
 260:.\Generated_Source\PSoC4/cyfitter_cfg.c **** *  settings.  This includes settings from the Design Wide Resources (DWR) such
 261:.\Generated_Source\PSoC4/cyfitter_cfg.c **** *  as Clocks and Pins as well as any component configuration that is necessary.
 262:.\Generated_Source\PSoC4/cyfitter_cfg.c **** *
 263:.\Generated_Source\PSoC4/cyfitter_cfg.c **** * Parameters:  
 264:.\Generated_Source\PSoC4/cyfitter_cfg.c **** *   void
 265:.\Generated_Source\PSoC4/cyfitter_cfg.c **** *
 266:.\Generated_Source\PSoC4/cyfitter_cfg.c **** * Return:
 267:.\Generated_Source\PSoC4/cyfitter_cfg.c **** *   void
 268:.\Generated_Source\PSoC4/cyfitter_cfg.c **** *
 269:.\Generated_Source\PSoC4/cyfitter_cfg.c **** *******************************************************************************/
 270:.\Generated_Source\PSoC4/cyfitter_cfg.c **** CY_CFG_SECTION
 271:.\Generated_Source\PSoC4/cyfitter_cfg.c **** void cyfitter_cfg(void)
 272:.\Generated_Source\PSoC4/cyfitter_cfg.c **** {
 373              		.loc 1 272 0
 374              		.cfi_startproc
 375 00c4 80B5     		push	{r7, lr}
 376              		.cfi_def_cfa_offset 8
 377              		.cfi_offset 7, -8
 378              		.cfi_offset 14, -4
 379 00c6 82B0     		sub	sp, sp, #8
 380              		.cfi_def_cfa_offset 16
 381 00c8 00AF     		add	r7, sp, #0
 382              		.cfi_def_cfa_register 7
 273:.\Generated_Source\PSoC4/cyfitter_cfg.c **** 	/* Disable interrupts by default. Let user enable if/when they want. */
 274:.\Generated_Source\PSoC4/cyfitter_cfg.c **** 	CyGlobalIntDisable;
 383              		.loc 1 274 0
 384              	@ 274 ".\Generated_Source\PSoC4\cyfitter_cfg.c" 1
 385 00ca 72B6     		CPSID   i
 386              	@ 0 "" 2
 387              		.code	16
 388              	.LBB3:
 275:.\Generated_Source\PSoC4/cyfitter_cfg.c **** 
 276:.\Generated_Source\PSoC4/cyfitter_cfg.c **** 	{
 277:.\Generated_Source\PSoC4/cyfitter_cfg.c **** 		static const uint32 CYCODE cy_cfg_addr_table[] = {
 278:.\Generated_Source\PSoC4/cyfitter_cfg.c **** 			0x400F0001u, /* Base address: 0x400F0000 Count: 1 */
 279:.\Generated_Source\PSoC4/cyfitter_cfg.c **** 			0x400F3036u, /* Base address: 0x400F3000 Count: 54 */
 280:.\Generated_Source\PSoC4/cyfitter_cfg.c **** 			0x400F3116u, /* Base address: 0x400F3100 Count: 22 */
 281:.\Generated_Source\PSoC4/cyfitter_cfg.c **** 			0x400F323Fu, /* Base address: 0x400F3200 Count: 63 */
 282:.\Generated_Source\PSoC4/cyfitter_cfg.c **** 			0x400F3323u, /* Base address: 0x400F3300 Count: 35 */
 283:.\Generated_Source\PSoC4/cyfitter_cfg.c **** 			0x400F4009u, /* Base address: 0x400F4000 Count: 9 */
 284:.\Generated_Source\PSoC4/cyfitter_cfg.c **** 			0x400F4105u, /* Base address: 0x400F4100 Count: 5 */
 285:.\Generated_Source\PSoC4/cyfitter_cfg.c **** 			0x400F4202u, /* Base address: 0x400F4200 Count: 2 */
 286:.\Generated_Source\PSoC4/cyfitter_cfg.c **** 			0x400F4311u, /* Base address: 0x400F4300 Count: 17 */
 287:.\Generated_Source\PSoC4/cyfitter_cfg.c **** 			0x400F6002u, /* Base address: 0x400F6000 Count: 2 */
 288:.\Generated_Source\PSoC4/cyfitter_cfg.c **** 		};
 289:.\Generated_Source\PSoC4/cyfitter_cfg.c **** 
 290:.\Generated_Source\PSoC4/cyfitter_cfg.c **** 		static const cy_cfg_addrvalue_t CYCODE cy_cfg_data_table[] = {
 291:.\Generated_Source\PSoC4/cyfitter_cfg.c **** 			{0x83u, 0x0Du},
 292:.\Generated_Source\PSoC4/cyfitter_cfg.c **** 			{0x40u, 0x20u},
 293:.\Generated_Source\PSoC4/cyfitter_cfg.c **** 			{0x41u, 0x03u},
ARM GAS  C:\Users\TECHCO~1\AppData\Local\Temp\ccbjY4Mk.s 			page 13


 294:.\Generated_Source\PSoC4/cyfitter_cfg.c **** 			{0x49u, 0xFFu},
 295:.\Generated_Source\PSoC4/cyfitter_cfg.c **** 			{0x4Au, 0xFFu},
 296:.\Generated_Source\PSoC4/cyfitter_cfg.c **** 			{0x4Bu, 0xFFu},
 297:.\Generated_Source\PSoC4/cyfitter_cfg.c **** 			{0x4Du, 0xA0u},
 298:.\Generated_Source\PSoC4/cyfitter_cfg.c **** 			{0x4Fu, 0x04u},
 299:.\Generated_Source\PSoC4/cyfitter_cfg.c **** 			{0x50u, 0x18u},
 300:.\Generated_Source\PSoC4/cyfitter_cfg.c **** 			{0x5Au, 0x04u},
 301:.\Generated_Source\PSoC4/cyfitter_cfg.c **** 			{0x5Bu, 0x04u},
 302:.\Generated_Source\PSoC4/cyfitter_cfg.c **** 			{0x5Du, 0x03u},
 303:.\Generated_Source\PSoC4/cyfitter_cfg.c **** 			{0x5Fu, 0x01u},
 304:.\Generated_Source\PSoC4/cyfitter_cfg.c **** 			{0x60u, 0x40u},
 305:.\Generated_Source\PSoC4/cyfitter_cfg.c **** 			{0x62u, 0xC0u},
 306:.\Generated_Source\PSoC4/cyfitter_cfg.c **** 			{0x64u, 0x40u},
 307:.\Generated_Source\PSoC4/cyfitter_cfg.c **** 			{0x65u, 0x40u},
 308:.\Generated_Source\PSoC4/cyfitter_cfg.c **** 			{0x66u, 0xC0u},
 309:.\Generated_Source\PSoC4/cyfitter_cfg.c **** 			{0x68u, 0xC0u},
 310:.\Generated_Source\PSoC4/cyfitter_cfg.c **** 			{0x6Au, 0xC0u},
 311:.\Generated_Source\PSoC4/cyfitter_cfg.c **** 			{0x6Cu, 0xC0u},
 312:.\Generated_Source\PSoC4/cyfitter_cfg.c **** 			{0x6Eu, 0xC0u},
 313:.\Generated_Source\PSoC4/cyfitter_cfg.c **** 			{0x86u, 0x02u},
 314:.\Generated_Source\PSoC4/cyfitter_cfg.c **** 			{0x9Au, 0x02u},
 315:.\Generated_Source\PSoC4/cyfitter_cfg.c **** 			{0xAEu, 0x01u},
 316:.\Generated_Source\PSoC4/cyfitter_cfg.c **** 			{0xB0u, 0x02u},
 317:.\Generated_Source\PSoC4/cyfitter_cfg.c **** 			{0xB4u, 0x01u},
 318:.\Generated_Source\PSoC4/cyfitter_cfg.c **** 			{0xC0u, 0x20u},
 319:.\Generated_Source\PSoC4/cyfitter_cfg.c **** 			{0xC1u, 0x03u},
 320:.\Generated_Source\PSoC4/cyfitter_cfg.c **** 			{0xC5u, 0x01u},
 321:.\Generated_Source\PSoC4/cyfitter_cfg.c **** 			{0xC6u, 0x20u},
 322:.\Generated_Source\PSoC4/cyfitter_cfg.c **** 			{0xC8u, 0x09u},
 323:.\Generated_Source\PSoC4/cyfitter_cfg.c **** 			{0xC9u, 0xFFu},
 324:.\Generated_Source\PSoC4/cyfitter_cfg.c **** 			{0xCAu, 0xFFu},
 325:.\Generated_Source\PSoC4/cyfitter_cfg.c **** 			{0xCBu, 0xFFu},
 326:.\Generated_Source\PSoC4/cyfitter_cfg.c **** 			{0xCDu, 0xAFu},
 327:.\Generated_Source\PSoC4/cyfitter_cfg.c **** 			{0xCEu, 0x0Fu},
 328:.\Generated_Source\PSoC4/cyfitter_cfg.c **** 			{0xCFu, 0x04u},
 329:.\Generated_Source\PSoC4/cyfitter_cfg.c **** 			{0xD0u, 0x18u},
 330:.\Generated_Source\PSoC4/cyfitter_cfg.c **** 			{0xD2u, 0x80u},
 331:.\Generated_Source\PSoC4/cyfitter_cfg.c **** 			{0xD8u, 0x04u},
 332:.\Generated_Source\PSoC4/cyfitter_cfg.c **** 			{0xDAu, 0x04u},
 333:.\Generated_Source\PSoC4/cyfitter_cfg.c **** 			{0xDBu, 0x04u},
 334:.\Generated_Source\PSoC4/cyfitter_cfg.c **** 			{0xDCu, 0x03u},
 335:.\Generated_Source\PSoC4/cyfitter_cfg.c **** 			{0xDDu, 0x33u},
 336:.\Generated_Source\PSoC4/cyfitter_cfg.c **** 			{0xDFu, 0x01u},
 337:.\Generated_Source\PSoC4/cyfitter_cfg.c **** 			{0xE0u, 0x40u},
 338:.\Generated_Source\PSoC4/cyfitter_cfg.c **** 			{0xE2u, 0xC0u},
 339:.\Generated_Source\PSoC4/cyfitter_cfg.c **** 			{0xE4u, 0x40u},
 340:.\Generated_Source\PSoC4/cyfitter_cfg.c **** 			{0xE5u, 0x40u},
 341:.\Generated_Source\PSoC4/cyfitter_cfg.c **** 			{0xE6u, 0xC0u},
 342:.\Generated_Source\PSoC4/cyfitter_cfg.c **** 			{0xE8u, 0xC0u},
 343:.\Generated_Source\PSoC4/cyfitter_cfg.c **** 			{0xEAu, 0xC0u},
 344:.\Generated_Source\PSoC4/cyfitter_cfg.c **** 			{0xECu, 0xC0u},
 345:.\Generated_Source\PSoC4/cyfitter_cfg.c **** 			{0xEEu, 0xC0u},
 346:.\Generated_Source\PSoC4/cyfitter_cfg.c **** 			{0x04u, 0x04u},
 347:.\Generated_Source\PSoC4/cyfitter_cfg.c **** 			{0x0Fu, 0x08u},
 348:.\Generated_Source\PSoC4/cyfitter_cfg.c **** 			{0x17u, 0x80u},
 349:.\Generated_Source\PSoC4/cyfitter_cfg.c **** 			{0x1Cu, 0x04u},
 350:.\Generated_Source\PSoC4/cyfitter_cfg.c **** 			{0x1Du, 0x20u},
ARM GAS  C:\Users\TECHCO~1\AppData\Local\Temp\ccbjY4Mk.s 			page 14


 351:.\Generated_Source\PSoC4/cyfitter_cfg.c **** 			{0x1Eu, 0x80u},
 352:.\Generated_Source\PSoC4/cyfitter_cfg.c **** 			{0x40u, 0x04u},
 353:.\Generated_Source\PSoC4/cyfitter_cfg.c **** 			{0x42u, 0x20u},
 354:.\Generated_Source\PSoC4/cyfitter_cfg.c **** 			{0x45u, 0x20u},
 355:.\Generated_Source\PSoC4/cyfitter_cfg.c **** 			{0x46u, 0x20u},
 356:.\Generated_Source\PSoC4/cyfitter_cfg.c **** 			{0x4Fu, 0x08u},
 357:.\Generated_Source\PSoC4/cyfitter_cfg.c **** 			{0x56u, 0x20u},
 358:.\Generated_Source\PSoC4/cyfitter_cfg.c **** 			{0x68u, 0x04u},
 359:.\Generated_Source\PSoC4/cyfitter_cfg.c **** 			{0x69u, 0x80u},
 360:.\Generated_Source\PSoC4/cyfitter_cfg.c **** 			{0x77u, 0x80u},
 361:.\Generated_Source\PSoC4/cyfitter_cfg.c **** 			{0x81u, 0x40u},
 362:.\Generated_Source\PSoC4/cyfitter_cfg.c **** 			{0x82u, 0x40u},
 363:.\Generated_Source\PSoC4/cyfitter_cfg.c **** 			{0x88u, 0x04u},
 364:.\Generated_Source\PSoC4/cyfitter_cfg.c **** 			{0xC0u, 0x20u},
 365:.\Generated_Source\PSoC4/cyfitter_cfg.c **** 			{0xC2u, 0x40u},
 366:.\Generated_Source\PSoC4/cyfitter_cfg.c **** 			{0xC4u, 0x80u},
 367:.\Generated_Source\PSoC4/cyfitter_cfg.c **** 			{0xD0u, 0x66u},
 368:.\Generated_Source\PSoC4/cyfitter_cfg.c **** 			{0x40u, 0x60u},
 369:.\Generated_Source\PSoC4/cyfitter_cfg.c **** 			{0x41u, 0x05u},
 370:.\Generated_Source\PSoC4/cyfitter_cfg.c **** 			{0x49u, 0xFFu},
 371:.\Generated_Source\PSoC4/cyfitter_cfg.c **** 			{0x4Au, 0xFFu},
 372:.\Generated_Source\PSoC4/cyfitter_cfg.c **** 			{0x4Bu, 0xFFu},
 373:.\Generated_Source\PSoC4/cyfitter_cfg.c **** 			{0x4Du, 0xA0u},
 374:.\Generated_Source\PSoC4/cyfitter_cfg.c **** 			{0x4Fu, 0x04u},
 375:.\Generated_Source\PSoC4/cyfitter_cfg.c **** 			{0x50u, 0x18u},
 376:.\Generated_Source\PSoC4/cyfitter_cfg.c **** 			{0x5Au, 0x04u},
 377:.\Generated_Source\PSoC4/cyfitter_cfg.c **** 			{0x5Bu, 0x04u},
 378:.\Generated_Source\PSoC4/cyfitter_cfg.c **** 			{0x5Du, 0x01u},
 379:.\Generated_Source\PSoC4/cyfitter_cfg.c **** 			{0x5Fu, 0x01u},
 380:.\Generated_Source\PSoC4/cyfitter_cfg.c **** 			{0x60u, 0x40u},
 381:.\Generated_Source\PSoC4/cyfitter_cfg.c **** 			{0x62u, 0xC0u},
 382:.\Generated_Source\PSoC4/cyfitter_cfg.c **** 			{0x64u, 0x40u},
 383:.\Generated_Source\PSoC4/cyfitter_cfg.c **** 			{0x65u, 0x40u},
 384:.\Generated_Source\PSoC4/cyfitter_cfg.c **** 			{0x66u, 0xC0u},
 385:.\Generated_Source\PSoC4/cyfitter_cfg.c **** 			{0x68u, 0xC0u},
 386:.\Generated_Source\PSoC4/cyfitter_cfg.c **** 			{0x6Au, 0xC0u},
 387:.\Generated_Source\PSoC4/cyfitter_cfg.c **** 			{0x6Cu, 0xC0u},
 388:.\Generated_Source\PSoC4/cyfitter_cfg.c **** 			{0x6Eu, 0xC0u},
 389:.\Generated_Source\PSoC4/cyfitter_cfg.c **** 			{0x86u, 0x06u},
 390:.\Generated_Source\PSoC4/cyfitter_cfg.c **** 			{0x8Eu, 0x02u},
 391:.\Generated_Source\PSoC4/cyfitter_cfg.c **** 			{0x92u, 0x01u},
 392:.\Generated_Source\PSoC4/cyfitter_cfg.c **** 			{0x9Bu, 0x01u},
 393:.\Generated_Source\PSoC4/cyfitter_cfg.c **** 			{0xA6u, 0x0Cu},
 394:.\Generated_Source\PSoC4/cyfitter_cfg.c **** 			{0xADu, 0x01u},
 395:.\Generated_Source\PSoC4/cyfitter_cfg.c **** 			{0xB0u, 0x04u},
 396:.\Generated_Source\PSoC4/cyfitter_cfg.c **** 			{0xB2u, 0x02u},
 397:.\Generated_Source\PSoC4/cyfitter_cfg.c **** 			{0xB4u, 0x01u},
 398:.\Generated_Source\PSoC4/cyfitter_cfg.c **** 			{0xB6u, 0x08u},
 399:.\Generated_Source\PSoC4/cyfitter_cfg.c **** 			{0xB7u, 0x01u},
 400:.\Generated_Source\PSoC4/cyfitter_cfg.c **** 			{0xBEu, 0x04u},
 401:.\Generated_Source\PSoC4/cyfitter_cfg.c **** 			{0xC0u, 0x20u},
 402:.\Generated_Source\PSoC4/cyfitter_cfg.c **** 			{0xC1u, 0x05u},
 403:.\Generated_Source\PSoC4/cyfitter_cfg.c **** 			{0xC5u, 0xD1u},
 404:.\Generated_Source\PSoC4/cyfitter_cfg.c **** 			{0xC7u, 0x20u},
 405:.\Generated_Source\PSoC4/cyfitter_cfg.c **** 			{0xC8u, 0x23u},
 406:.\Generated_Source\PSoC4/cyfitter_cfg.c **** 			{0xC9u, 0xFFu},
 407:.\Generated_Source\PSoC4/cyfitter_cfg.c **** 			{0xCAu, 0xFFu},
ARM GAS  C:\Users\TECHCO~1\AppData\Local\Temp\ccbjY4Mk.s 			page 15


 408:.\Generated_Source\PSoC4/cyfitter_cfg.c **** 			{0xCBu, 0xFFu},
 409:.\Generated_Source\PSoC4/cyfitter_cfg.c **** 			{0xCDu, 0xAFu},
 410:.\Generated_Source\PSoC4/cyfitter_cfg.c **** 			{0xCEu, 0x0Fu},
 411:.\Generated_Source\PSoC4/cyfitter_cfg.c **** 			{0xCFu, 0x04u},
 412:.\Generated_Source\PSoC4/cyfitter_cfg.c **** 			{0xD0u, 0x18u},
 413:.\Generated_Source\PSoC4/cyfitter_cfg.c **** 			{0xD2u, 0x80u},
 414:.\Generated_Source\PSoC4/cyfitter_cfg.c **** 			{0xD4u, 0x05u},
 415:.\Generated_Source\PSoC4/cyfitter_cfg.c **** 			{0xD8u, 0x04u},
 416:.\Generated_Source\PSoC4/cyfitter_cfg.c **** 			{0xD9u, 0x04u},
 417:.\Generated_Source\PSoC4/cyfitter_cfg.c **** 			{0xDAu, 0x04u},
 418:.\Generated_Source\PSoC4/cyfitter_cfg.c **** 			{0xDBu, 0x04u},
 419:.\Generated_Source\PSoC4/cyfitter_cfg.c **** 			{0xDCu, 0x11u},
 420:.\Generated_Source\PSoC4/cyfitter_cfg.c **** 			{0xDDu, 0x11u},
 421:.\Generated_Source\PSoC4/cyfitter_cfg.c **** 			{0xDFu, 0x01u},
 422:.\Generated_Source\PSoC4/cyfitter_cfg.c **** 			{0xE0u, 0x40u},
 423:.\Generated_Source\PSoC4/cyfitter_cfg.c **** 			{0xE2u, 0xC0u},
 424:.\Generated_Source\PSoC4/cyfitter_cfg.c **** 			{0xE4u, 0x40u},
 425:.\Generated_Source\PSoC4/cyfitter_cfg.c **** 			{0xE5u, 0x40u},
 426:.\Generated_Source\PSoC4/cyfitter_cfg.c **** 			{0xE6u, 0xC0u},
 427:.\Generated_Source\PSoC4/cyfitter_cfg.c **** 			{0xE8u, 0xC0u},
 428:.\Generated_Source\PSoC4/cyfitter_cfg.c **** 			{0xEAu, 0xC0u},
 429:.\Generated_Source\PSoC4/cyfitter_cfg.c **** 			{0xECu, 0xC0u},
 430:.\Generated_Source\PSoC4/cyfitter_cfg.c **** 			{0xEEu, 0xC0u},
 431:.\Generated_Source\PSoC4/cyfitter_cfg.c **** 			{0x00u, 0x04u},
 432:.\Generated_Source\PSoC4/cyfitter_cfg.c **** 			{0x02u, 0x02u},
 433:.\Generated_Source\PSoC4/cyfitter_cfg.c **** 			{0x09u, 0x02u},
 434:.\Generated_Source\PSoC4/cyfitter_cfg.c **** 			{0x10u, 0x20u},
 435:.\Generated_Source\PSoC4/cyfitter_cfg.c **** 			{0x18u, 0x04u},
 436:.\Generated_Source\PSoC4/cyfitter_cfg.c **** 			{0x19u, 0x44u},
 437:.\Generated_Source\PSoC4/cyfitter_cfg.c **** 			{0x1Au, 0x40u},
 438:.\Generated_Source\PSoC4/cyfitter_cfg.c **** 			{0x1Bu, 0x10u},
 439:.\Generated_Source\PSoC4/cyfitter_cfg.c **** 			{0x22u, 0x40u},
 440:.\Generated_Source\PSoC4/cyfitter_cfg.c **** 			{0x29u, 0x40u},
 441:.\Generated_Source\PSoC4/cyfitter_cfg.c **** 			{0x30u, 0x20u},
 442:.\Generated_Source\PSoC4/cyfitter_cfg.c **** 			{0x40u, 0x04u},
 443:.\Generated_Source\PSoC4/cyfitter_cfg.c **** 			{0x48u, 0x20u},
 444:.\Generated_Source\PSoC4/cyfitter_cfg.c **** 			{0x49u, 0x01u},
 445:.\Generated_Source\PSoC4/cyfitter_cfg.c **** 			{0x4Au, 0x02u},
 446:.\Generated_Source\PSoC4/cyfitter_cfg.c **** 			{0x4Eu, 0x02u},
 447:.\Generated_Source\PSoC4/cyfitter_cfg.c **** 			{0x4Fu, 0x20u},
 448:.\Generated_Source\PSoC4/cyfitter_cfg.c **** 			{0x52u, 0x02u},
 449:.\Generated_Source\PSoC4/cyfitter_cfg.c **** 			{0x59u, 0x05u},
 450:.\Generated_Source\PSoC4/cyfitter_cfg.c **** 			{0x5Au, 0x80u},
 451:.\Generated_Source\PSoC4/cyfitter_cfg.c **** 			{0x6Du, 0x10u},
 452:.\Generated_Source\PSoC4/cyfitter_cfg.c **** 			{0x6Fu, 0x01u},
 453:.\Generated_Source\PSoC4/cyfitter_cfg.c **** 			{0x71u, 0x02u},
 454:.\Generated_Source\PSoC4/cyfitter_cfg.c **** 			{0x87u, 0x01u},
 455:.\Generated_Source\PSoC4/cyfitter_cfg.c **** 			{0x89u, 0x10u},
 456:.\Generated_Source\PSoC4/cyfitter_cfg.c **** 			{0x96u, 0x40u},
 457:.\Generated_Source\PSoC4/cyfitter_cfg.c **** 			{0xAEu, 0x40u},
 458:.\Generated_Source\PSoC4/cyfitter_cfg.c **** 			{0xC0u, 0x05u},
 459:.\Generated_Source\PSoC4/cyfitter_cfg.c **** 			{0xC2u, 0x08u},
 460:.\Generated_Source\PSoC4/cyfitter_cfg.c **** 			{0xC4u, 0x04u},
 461:.\Generated_Source\PSoC4/cyfitter_cfg.c **** 			{0xCAu, 0x08u},
 462:.\Generated_Source\PSoC4/cyfitter_cfg.c **** 			{0xCCu, 0x04u},
 463:.\Generated_Source\PSoC4/cyfitter_cfg.c **** 			{0xD0u, 0x04u},
 464:.\Generated_Source\PSoC4/cyfitter_cfg.c **** 			{0xD2u, 0x38u},
ARM GAS  C:\Users\TECHCO~1\AppData\Local\Temp\ccbjY4Mk.s 			page 16


 465:.\Generated_Source\PSoC4/cyfitter_cfg.c **** 			{0xD6u, 0x0Bu},
 466:.\Generated_Source\PSoC4/cyfitter_cfg.c **** 			{0x5Du, 0x04u},
 467:.\Generated_Source\PSoC4/cyfitter_cfg.c **** 			{0x5Fu, 0x20u},
 468:.\Generated_Source\PSoC4/cyfitter_cfg.c **** 			{0x62u, 0x01u},
 469:.\Generated_Source\PSoC4/cyfitter_cfg.c **** 			{0x67u, 0x04u},
 470:.\Generated_Source\PSoC4/cyfitter_cfg.c **** 			{0x82u, 0x01u},
 471:.\Generated_Source\PSoC4/cyfitter_cfg.c **** 			{0x83u, 0x20u},
 472:.\Generated_Source\PSoC4/cyfitter_cfg.c **** 			{0xD6u, 0xA0u},
 473:.\Generated_Source\PSoC4/cyfitter_cfg.c **** 			{0xD8u, 0xC0u},
 474:.\Generated_Source\PSoC4/cyfitter_cfg.c **** 			{0xE2u, 0xA0u},
 475:.\Generated_Source\PSoC4/cyfitter_cfg.c **** 			{0x87u, 0x04u},
 476:.\Generated_Source\PSoC4/cyfitter_cfg.c **** 			{0x97u, 0x04u},
 477:.\Generated_Source\PSoC4/cyfitter_cfg.c **** 			{0xADu, 0x04u},
 478:.\Generated_Source\PSoC4/cyfitter_cfg.c **** 			{0xE2u, 0x40u},
 479:.\Generated_Source\PSoC4/cyfitter_cfg.c **** 			{0xEEu, 0x40u},
 480:.\Generated_Source\PSoC4/cyfitter_cfg.c **** 			{0x88u, 0x10u},
 481:.\Generated_Source\PSoC4/cyfitter_cfg.c **** 			{0xE0u, 0x04u},
 482:.\Generated_Source\PSoC4/cyfitter_cfg.c **** 			{0x18u, 0x08u},
 483:.\Generated_Source\PSoC4/cyfitter_cfg.c **** 			{0x1Bu, 0x04u},
 484:.\Generated_Source\PSoC4/cyfitter_cfg.c **** 			{0x1Cu, 0x01u},
 485:.\Generated_Source\PSoC4/cyfitter_cfg.c **** 			{0x1Fu, 0x01u},
 486:.\Generated_Source\PSoC4/cyfitter_cfg.c **** 			{0x50u, 0x04u},
 487:.\Generated_Source\PSoC4/cyfitter_cfg.c **** 			{0x54u, 0x01u},
 488:.\Generated_Source\PSoC4/cyfitter_cfg.c **** 			{0x60u, 0x01u},
 489:.\Generated_Source\PSoC4/cyfitter_cfg.c **** 			{0x63u, 0x08u},
 490:.\Generated_Source\PSoC4/cyfitter_cfg.c **** 			{0x64u, 0x10u},
 491:.\Generated_Source\PSoC4/cyfitter_cfg.c **** 			{0x67u, 0x02u},
 492:.\Generated_Source\PSoC4/cyfitter_cfg.c **** 			{0x88u, 0x01u},
 493:.\Generated_Source\PSoC4/cyfitter_cfg.c **** 			{0x98u, 0x10u},
 494:.\Generated_Source\PSoC4/cyfitter_cfg.c **** 			{0xC6u, 0x0Fu},
 495:.\Generated_Source\PSoC4/cyfitter_cfg.c **** 			{0xD4u, 0x04u},
 496:.\Generated_Source\PSoC4/cyfitter_cfg.c **** 			{0xD6u, 0x07u},
 497:.\Generated_Source\PSoC4/cyfitter_cfg.c **** 			{0xD8u, 0x03u},
 498:.\Generated_Source\PSoC4/cyfitter_cfg.c **** 			{0xE0u, 0x01u},
 499:.\Generated_Source\PSoC4/cyfitter_cfg.c **** 			{0x10u, 0x0Au},
 500:.\Generated_Source\PSoC4/cyfitter_cfg.c **** 			{0x11u, 0x01u},
 501:.\Generated_Source\PSoC4/cyfitter_cfg.c **** 		};
 502:.\Generated_Source\PSoC4/cyfitter_cfg.c **** 
 503:.\Generated_Source\PSoC4/cyfitter_cfg.c **** 
 504:.\Generated_Source\PSoC4/cyfitter_cfg.c **** 
 505:.\Generated_Source\PSoC4/cyfitter_cfg.c **** 		CYPACKED typedef struct {
 506:.\Generated_Source\PSoC4/cyfitter_cfg.c **** 			void CYFAR *address;
 507:.\Generated_Source\PSoC4/cyfitter_cfg.c **** 			uint16 size;
 508:.\Generated_Source\PSoC4/cyfitter_cfg.c **** 		} CYPACKED_ATTR cfg_memset_t;
 509:.\Generated_Source\PSoC4/cyfitter_cfg.c **** 
 510:.\Generated_Source\PSoC4/cyfitter_cfg.c **** 		static const cfg_memset_t CYCODE cfg_memset_list [] = {
 511:.\Generated_Source\PSoC4/cyfitter_cfg.c **** 			/* address, size */
 512:.\Generated_Source\PSoC4/cyfitter_cfg.c **** 			{(void CYFAR *)(CYDEV_UDB_P0_U0_BASE), 1024u},
 513:.\Generated_Source\PSoC4/cyfitter_cfg.c **** 			{(void CYFAR *)(CYDEV_UDB_DSI0_BASE), 1024u},
 514:.\Generated_Source\PSoC4/cyfitter_cfg.c **** 		};
 515:.\Generated_Source\PSoC4/cyfitter_cfg.c **** 
 516:.\Generated_Source\PSoC4/cyfitter_cfg.c **** 		uint8 CYDATA i;
 517:.\Generated_Source\PSoC4/cyfitter_cfg.c **** 
 518:.\Generated_Source\PSoC4/cyfitter_cfg.c **** 		/* Zero out critical memory blocks before beginning configuration */
 519:.\Generated_Source\PSoC4/cyfitter_cfg.c **** 		for (i = 0u; i < (sizeof(cfg_memset_list)/sizeof(cfg_memset_list[0])); i++)
 389              		.loc 1 519 0
 390 00cc FB1D     		add	r3, r7, #7
ARM GAS  C:\Users\TECHCO~1\AppData\Local\Temp\ccbjY4Mk.s 			page 17


 391 00ce 0022     		mov	r2, #0
 392 00d0 1A70     		strb	r2, [r3]
 393 00d2 23E0     		b	.L14
 394              	.L15:
 395              	.LBB4:
 520:.\Generated_Source\PSoC4/cyfitter_cfg.c **** 		{
 521:.\Generated_Source\PSoC4/cyfitter_cfg.c **** 			const cfg_memset_t CYCODE * CYDATA ms = &cfg_memset_list[i];
 396              		.loc 1 521 0 discriminator 3
 397 00d4 FB1D     		add	r3, r7, #7
 398 00d6 1A78     		ldrb	r2, [r3]
 399 00d8 131C     		mov	r3, r2
 400 00da 5B00     		lsl	r3, r3, #1
 401 00dc 9B18     		add	r3, r3, r2
 402 00de 5B00     		lsl	r3, r3, #1
 403 00e0 4B4A     		ldr	r2, .L16
 404 00e2 9B18     		add	r3, r3, r2
 405 00e4 3B60     		str	r3, [r7]
 522:.\Generated_Source\PSoC4/cyfitter_cfg.c **** 			CYMEMZERO(ms->address, (size_t)(uint32)(ms->size));
 406              		.loc 1 522 0 discriminator 3
 407 00e6 3B68     		ldr	r3, [r7]
 408 00e8 1A78     		ldrb	r2, [r3]
 409 00ea 5978     		ldrb	r1, [r3, #1]
 410 00ec 0902     		lsl	r1, r1, #8
 411 00ee 0A43     		orr	r2, r1
 412 00f0 9978     		ldrb	r1, [r3, #2]
 413 00f2 0904     		lsl	r1, r1, #16
 414 00f4 0A43     		orr	r2, r1
 415 00f6 DB78     		ldrb	r3, [r3, #3]
 416 00f8 1B06     		lsl	r3, r3, #24
 417 00fa 1343     		orr	r3, r2
 418 00fc 191C     		mov	r1, r3
 419 00fe 3B68     		ldr	r3, [r7]
 420 0100 1A79     		ldrb	r2, [r3, #4]
 421 0102 5B79     		ldrb	r3, [r3, #5]
 422 0104 1B02     		lsl	r3, r3, #8
 423 0106 1343     		orr	r3, r2
 424 0108 9BB2     		uxth	r3, r3
 425 010a 081C     		mov	r0, r1
 426 010c 191C     		mov	r1, r3
 427 010e FFF7FEFF 		bl	CYMEMZERO
 428              	.LBE4:
 519:.\Generated_Source\PSoC4/cyfitter_cfg.c **** 		{
 429              		.loc 1 519 0 discriminator 3
 430 0112 FB1D     		add	r3, r7, #7
 431 0114 1A78     		ldrb	r2, [r3]
 432 0116 FB1D     		add	r3, r7, #7
 433 0118 0132     		add	r2, r2, #1
 434 011a 1A70     		strb	r2, [r3]
 435              	.L14:
 519:.\Generated_Source\PSoC4/cyfitter_cfg.c **** 		{
 436              		.loc 1 519 0 is_stmt 0 discriminator 1
 437 011c FB1D     		add	r3, r7, #7
 438 011e 1B78     		ldrb	r3, [r3]
 439 0120 012B     		cmp	r3, #1
 440 0122 D7D9     		bls	.L15
 523:.\Generated_Source\PSoC4/cyfitter_cfg.c **** 		}
 524:.\Generated_Source\PSoC4/cyfitter_cfg.c **** 
ARM GAS  C:\Users\TECHCO~1\AppData\Local\Temp\ccbjY4Mk.s 			page 18


 525:.\Generated_Source\PSoC4/cyfitter_cfg.c **** 		cfg_write_bytes32(cy_cfg_addr_table, cy_cfg_data_table);
 441              		.loc 1 525 0 is_stmt 1
 442 0124 3B4A     		ldr	r2, .L16+4
 443 0126 3C4B     		ldr	r3, .L16+8
 444 0128 101C     		mov	r0, r2
 445 012a 191C     		mov	r1, r3
 446 012c FFF7FEFF 		bl	cfg_write_bytes32
 526:.\Generated_Source\PSoC4/cyfitter_cfg.c **** 
 527:.\Generated_Source\PSoC4/cyfitter_cfg.c **** 		/* Perform normal device configuration. Order is not critical for these items. */
 528:.\Generated_Source\PSoC4/cyfitter_cfg.c **** 		CY_SET_XTND_REG16((void CYFAR *)(CYREG_UDB_BCTL0_DRV), 0x0A00u);
 447              		.loc 1 528 0
 448 0130 3A4B     		ldr	r3, .L16+12
 449 0132 A022     		mov	r2, #160
 450 0134 1201     		lsl	r2, r2, #4
 451 0136 1A80     		strh	r2, [r3]
 529:.\Generated_Source\PSoC4/cyfitter_cfg.c **** 		CY_SET_XTND_REG8((void CYFAR *)(CYREG_UDB_BCTL0_DRV + 0x2u), 0x01u);
 452              		.loc 1 529 0
 453 0138 394B     		ldr	r3, .L16+16
 454 013a 0122     		mov	r2, #1
 455 013c 1A70     		strb	r2, [r3]
 530:.\Generated_Source\PSoC4/cyfitter_cfg.c **** 
 531:.\Generated_Source\PSoC4/cyfitter_cfg.c **** 		/* HSIOM Starting address: CYDEV_HSIOM_BASE */
 532:.\Generated_Source\PSoC4/cyfitter_cfg.c **** 		CY_SET_XTND_REG32((void CYFAR *)(CYDEV_HSIOM_BASE), 0x03330003u);
 456              		.loc 1 532 0
 457 013e 394B     		ldr	r3, .L16+20
 458 0140 394A     		ldr	r2, .L16+24
 459 0142 1A60     		str	r2, [r3]
 533:.\Generated_Source\PSoC4/cyfitter_cfg.c **** 		CY_SET_XTND_REG32((void CYFAR *)(CYREG_HSIOM_PORT_SEL3), 0x3333EE33u);
 460              		.loc 1 533 0
 461 0144 394B     		ldr	r3, .L16+28
 462 0146 3A4A     		ldr	r2, .L16+32
 463 0148 1A60     		str	r2, [r3]
 534:.\Generated_Source\PSoC4/cyfitter_cfg.c **** 		CY_SET_XTND_REG32((void CYFAR *)(CYREG_HSIOM_PORT_SEL4), 0x000000FFu);
 464              		.loc 1 534 0
 465 014a 3A4B     		ldr	r3, .L16+36
 466 014c FF22     		mov	r2, #255
 467 014e 1A60     		str	r2, [r3]
 535:.\Generated_Source\PSoC4/cyfitter_cfg.c **** 
 536:.\Generated_Source\PSoC4/cyfitter_cfg.c **** 		/* UDB_PA_0 Starting address: CYDEV_UDB_PA0_BASE */
 537:.\Generated_Source\PSoC4/cyfitter_cfg.c **** 		CY_SET_XTND_REG32((void CYFAR *)(CYDEV_UDB_PA0_BASE), 0x00990000u);
 468              		.loc 1 537 0
 469 0150 394B     		ldr	r3, .L16+40
 470 0152 9922     		mov	r2, #153
 471 0154 1204     		lsl	r2, r2, #16
 472 0156 1A60     		str	r2, [r3]
 538:.\Generated_Source\PSoC4/cyfitter_cfg.c **** 		CY_SET_XTND_REG32((void CYFAR *)(CYREG_UDB_PA0_CFG4), 0x80A80000u);
 473              		.loc 1 538 0
 474 0158 384B     		ldr	r3, .L16+44
 475 015a 394A     		ldr	r2, .L16+48
 476 015c 1A60     		str	r2, [r3]
 539:.\Generated_Source\PSoC4/cyfitter_cfg.c **** 		CY_SET_XTND_REG32((void CYFAR *)(CYREG_UDB_PA0_CFG8), 0x36030000u);
 477              		.loc 1 539 0
 478 015e 394B     		ldr	r3, .L16+52
 479 0160 394A     		ldr	r2, .L16+56
 480 0162 1A60     		str	r2, [r3]
 540:.\Generated_Source\PSoC4/cyfitter_cfg.c **** 
 541:.\Generated_Source\PSoC4/cyfitter_cfg.c **** 		/* UDB_PA_1 Starting address: CYDEV_UDB_PA1_BASE */
ARM GAS  C:\Users\TECHCO~1\AppData\Local\Temp\ccbjY4Mk.s 			page 19


 542:.\Generated_Source\PSoC4/cyfitter_cfg.c **** 		CY_SET_XTND_REG32((void CYFAR *)(CYDEV_UDB_PA1_BASE), 0x00990000u);
 481              		.loc 1 542 0
 482 0164 394B     		ldr	r3, .L16+60
 483 0166 9922     		mov	r2, #153
 484 0168 1204     		lsl	r2, r2, #16
 485 016a 1A60     		str	r2, [r3]
 543:.\Generated_Source\PSoC4/cyfitter_cfg.c **** 		CY_SET_XTND_REG32((void CYFAR *)(CYREG_UDB_PA1_CFG4), 0x02A20000u);
 486              		.loc 1 543 0
 487 016c 384B     		ldr	r3, .L16+64
 488 016e 394A     		ldr	r2, .L16+68
 489 0170 1A60     		str	r2, [r3]
 544:.\Generated_Source\PSoC4/cyfitter_cfg.c **** 
 545:.\Generated_Source\PSoC4/cyfitter_cfg.c **** 		/* UDB_PA_2 Starting address: CYDEV_UDB_PA2_BASE */
 546:.\Generated_Source\PSoC4/cyfitter_cfg.c **** 		CY_SET_XTND_REG32((void CYFAR *)(CYDEV_UDB_PA2_BASE), 0x00990000u);
 490              		.loc 1 546 0
 491 0172 394B     		ldr	r3, .L16+72
 492 0174 9922     		mov	r2, #153
 493 0176 1204     		lsl	r2, r2, #16
 494 0178 1A60     		str	r2, [r3]
 547:.\Generated_Source\PSoC4/cyfitter_cfg.c **** 
 548:.\Generated_Source\PSoC4/cyfitter_cfg.c **** 		/* UDB_PA_3 Starting address: CYDEV_UDB_PA3_BASE */
 549:.\Generated_Source\PSoC4/cyfitter_cfg.c **** 		CY_SET_XTND_REG32((void CYFAR *)(CYDEV_UDB_PA3_BASE), 0x00990000u);
 495              		.loc 1 549 0
 496 017a 384B     		ldr	r3, .L16+76
 497 017c 9922     		mov	r2, #153
 498 017e 1204     		lsl	r2, r2, #16
 499 0180 1A60     		str	r2, [r3]
 550:.\Generated_Source\PSoC4/cyfitter_cfg.c **** 		CY_SET_XTND_REG32((void CYFAR *)(CYREG_UDB_PA3_CFG8), 0x725C0000u);
 500              		.loc 1 550 0
 501 0182 374B     		ldr	r3, .L16+80
 502 0184 374A     		ldr	r2, .L16+84
 503 0186 1A60     		str	r2, [r3]
 551:.\Generated_Source\PSoC4/cyfitter_cfg.c **** 
 552:.\Generated_Source\PSoC4/cyfitter_cfg.c **** 		/* Enable digital routing */
 553:.\Generated_Source\PSoC4/cyfitter_cfg.c **** 		CY_SET_XTND_REG8((void *)CYREG_UDB_UDBIF_BANK_CTL, CY_GET_XTND_REG8((void *)CYREG_UDB_UDBIF_BANK_
 504              		.loc 1 553 0
 505 0188 374A     		ldr	r2, .L16+88
 506 018a 374B     		ldr	r3, .L16+88
 507 018c 1B78     		ldrb	r3, [r3]
 508 018e DBB2     		uxtb	r3, r3
 509 0190 0221     		mov	r1, #2
 510 0192 0B43     		orr	r3, r1
 511 0194 DBB2     		uxtb	r3, r3
 512 0196 1370     		strb	r3, [r2]
 554:.\Generated_Source\PSoC4/cyfitter_cfg.c **** 
 555:.\Generated_Source\PSoC4/cyfitter_cfg.c **** 		/* Enable UDB array */
 556:.\Generated_Source\PSoC4/cyfitter_cfg.c **** 		CY_SET_XTND_REG8((void *)CYREG_UDB_UDBIF_WAIT_CFG, (uint8)((CY_GET_XTND_REG8((void *)CYREG_UDB_UD
 513              		.loc 1 556 0
 514 0198 344A     		ldr	r2, .L16+92
 515 019a 344B     		ldr	r3, .L16+92
 516 019c 1B78     		ldrb	r3, [r3]
 517 019e DBB2     		uxtb	r3, r3
 518 01a0 3C21     		mov	r1, #60
 519 01a2 8B43     		bic	r3, r1
 520 01a4 DBB2     		uxtb	r3, r3
 521 01a6 1421     		mov	r1, #20
 522 01a8 0B43     		orr	r3, r1
ARM GAS  C:\Users\TECHCO~1\AppData\Local\Temp\ccbjY4Mk.s 			page 20


 523 01aa DBB2     		uxtb	r3, r3
 524 01ac 1370     		strb	r3, [r2]
 557:.\Generated_Source\PSoC4/cyfitter_cfg.c **** 		CY_SET_XTND_REG8((void *)CYREG_UDB_UDBIF_BANK_CTL, (uint8)(CY_GET_XTND_REG8((void *)CYREG_UDB_UDB
 525              		.loc 1 557 0
 526 01ae 2E4A     		ldr	r2, .L16+88
 527 01b0 2D4B     		ldr	r3, .L16+88
 528 01b2 1B78     		ldrb	r3, [r3]
 529 01b4 DBB2     		uxtb	r3, r3
 530 01b6 1621     		mov	r1, #22
 531 01b8 0B43     		orr	r3, r1
 532 01ba DBB2     		uxtb	r3, r3
 533 01bc 1370     		strb	r3, [r2]
 534              	.LBE3:
 558:.\Generated_Source\PSoC4/cyfitter_cfg.c **** 	}
 559:.\Generated_Source\PSoC4/cyfitter_cfg.c **** 
 560:.\Generated_Source\PSoC4/cyfitter_cfg.c **** 	/* Perform second pass device configuration. These items must be configured in specific order afte
 561:.\Generated_Source\PSoC4/cyfitter_cfg.c **** 	/* IOPINS0_0 Starting address: CYDEV_PRT0_BASE */
 562:.\Generated_Source\PSoC4/cyfitter_cfg.c **** 	CY_SET_XTND_REG32((void CYFAR *)(CYDEV_PRT0_BASE), 0x000000FFu);
 535              		.loc 1 562 0
 536 01be 2C4B     		ldr	r3, .L16+96
 537 01c0 FF22     		mov	r2, #255
 538 01c2 1A60     		str	r2, [r3]
 563:.\Generated_Source\PSoC4/cyfitter_cfg.c **** 	CY_SET_XTND_REG32((void CYFAR *)(CYREG_PRT0_PC), 0x005B6496u);
 539              		.loc 1 563 0
 540 01c4 2B4B     		ldr	r3, .L16+100
 541 01c6 2C4A     		ldr	r2, .L16+104
 542 01c8 1A60     		str	r2, [r3]
 564:.\Generated_Source\PSoC4/cyfitter_cfg.c **** 
 565:.\Generated_Source\PSoC4/cyfitter_cfg.c **** 	/* IOPINS0_1 Starting address: CYDEV_PRT1_BASE */
 566:.\Generated_Source\PSoC4/cyfitter_cfg.c **** 	CY_SET_XTND_REG32((void CYFAR *)(CYDEV_PRT1_BASE), 0x0000007Fu);
 543              		.loc 1 566 0
 544 01ca 2C4B     		ldr	r3, .L16+108
 545 01cc 7F22     		mov	r2, #127
 546 01ce 1A60     		str	r2, [r3]
 567:.\Generated_Source\PSoC4/cyfitter_cfg.c **** 	CY_SET_XTND_REG32((void CYFAR *)(CYREG_PRT1_PC), 0x001B2492u);
 547              		.loc 1 567 0
 548 01d0 2B4B     		ldr	r3, .L16+112
 549 01d2 2C4A     		ldr	r2, .L16+116
 550 01d4 1A60     		str	r2, [r3]
 568:.\Generated_Source\PSoC4/cyfitter_cfg.c **** 
 569:.\Generated_Source\PSoC4/cyfitter_cfg.c **** 	/* IOPINS0_2 Starting address: CYDEV_PRT2_BASE */
 570:.\Generated_Source\PSoC4/cyfitter_cfg.c **** 	CY_SET_XTND_REG32((void CYFAR *)(CYDEV_PRT2_BASE), 0x0000000Fu);
 551              		.loc 1 570 0
 552 01d6 2C4B     		ldr	r3, .L16+120
 553 01d8 0F22     		mov	r2, #15
 554 01da 1A60     		str	r2, [r3]
 571:.\Generated_Source\PSoC4/cyfitter_cfg.c **** 	CY_SET_XTND_REG32((void CYFAR *)(CYREG_PRT2_PC), 0x00000492u);
 555              		.loc 1 571 0
 556 01dc 2B4B     		ldr	r3, .L16+124
 557 01de 2C4A     		ldr	r2, .L16+128
 558 01e0 1A60     		str	r2, [r3]
 572:.\Generated_Source\PSoC4/cyfitter_cfg.c **** 
 573:.\Generated_Source\PSoC4/cyfitter_cfg.c **** 	/* IOPINS0_3 Starting address: CYDEV_PRT3_BASE */
 574:.\Generated_Source\PSoC4/cyfitter_cfg.c **** 	CY_SET_XTND_REG32((void CYFAR *)(CYDEV_PRT3_BASE), 0x000000F3u);
 559              		.loc 1 574 0
 560 01e2 2C4B     		ldr	r3, .L16+132
 561 01e4 F322     		mov	r2, #243
ARM GAS  C:\Users\TECHCO~1\AppData\Local\Temp\ccbjY4Mk.s 			page 21


 562 01e6 1A60     		str	r2, [r3]
 575:.\Generated_Source\PSoC4/cyfitter_cfg.c **** 	CY_SET_XTND_REG32((void CYFAR *)(CYREG_PRT3_PC), 0x00DB6DB6u);
 563              		.loc 1 575 0
 564 01e8 2B4B     		ldr	r3, .L16+136
 565 01ea 2C4A     		ldr	r2, .L16+140
 566 01ec 1A60     		str	r2, [r3]
 576:.\Generated_Source\PSoC4/cyfitter_cfg.c **** 
 577:.\Generated_Source\PSoC4/cyfitter_cfg.c **** 	/* IOPINS0_4 Starting address: CYDEV_PRT4_BASE */
 578:.\Generated_Source\PSoC4/cyfitter_cfg.c **** 	CY_SET_XTND_REG32((void CYFAR *)(CYDEV_PRT4_BASE), 0x00000003u);
 567              		.loc 1 578 0
 568 01ee 2C4B     		ldr	r3, .L16+144
 569 01f0 0322     		mov	r2, #3
 570 01f2 1A60     		str	r2, [r3]
 579:.\Generated_Source\PSoC4/cyfitter_cfg.c **** 	CY_SET_XTND_REG32((void CYFAR *)(CYREG_PRT4_PC), 0x00000001u);
 571              		.loc 1 579 0
 572 01f4 2B4B     		ldr	r3, .L16+148
 573 01f6 0122     		mov	r2, #1
 574 01f8 1A60     		str	r2, [r3]
 580:.\Generated_Source\PSoC4/cyfitter_cfg.c **** 	CY_SET_XTND_REG32((void CYFAR *)(CYREG_PRT4_PC2), 0x00000003u);
 575              		.loc 1 580 0
 576 01fa 2B4B     		ldr	r3, .L16+152
 577 01fc 0322     		mov	r2, #3
 578 01fe 1A60     		str	r2, [r3]
 581:.\Generated_Source\PSoC4/cyfitter_cfg.c **** 
 582:.\Generated_Source\PSoC4/cyfitter_cfg.c **** 
 583:.\Generated_Source\PSoC4/cyfitter_cfg.c **** 	/* Setup clocks based on selections from Clock DWR */
 584:.\Generated_Source\PSoC4/cyfitter_cfg.c **** 	ClockSetup();
 579              		.loc 1 584 0
 580 0200 FFF7FEFE 		bl	ClockSetup
 585:.\Generated_Source\PSoC4/cyfitter_cfg.c **** 
 586:.\Generated_Source\PSoC4/cyfitter_cfg.c **** 	/* Perform basic analog initialization to defaults */
 587:.\Generated_Source\PSoC4/cyfitter_cfg.c **** 	AnalogSetDefault();
 581              		.loc 1 587 0
 582 0204 FFF7FEFF 		bl	AnalogSetDefault
 588:.\Generated_Source\PSoC4/cyfitter_cfg.c **** 
 589:.\Generated_Source\PSoC4/cyfitter_cfg.c **** }
 583              		.loc 1 589 0
 584 0208 BD46     		mov	sp, r7
 585 020a 02B0     		add	sp, sp, #8
 586              		@ sp needed
 587 020c 80BD     		pop	{r7, pc}
 588              	.L17:
 589 020e C046     		.align	2
 590              	.L16:
 591 0210 00000000 		.word	cfg_memset_list.4739
 592 0214 0C000000 		.word	cy_cfg_addr_table.4733
 593 0218 34000000 		.word	cy_cfg_data_table.4734
 594 021c 00600F40 		.word	1074749440
 595 0220 02600F40 		.word	1074749442
 596 0224 00000140 		.word	1073807360
 597 0228 03003303 		.word	53673987
 598 022c 0C000140 		.word	1073807372
 599 0230 33EE3333 		.word	859041331
 600 0234 10000140 		.word	1073807376
 601 0238 00500F40 		.word	1074745344
 602 023c 04500F40 		.word	1074745348
 603 0240 0000A880 		.word	-2136473600
ARM GAS  C:\Users\TECHCO~1\AppData\Local\Temp\ccbjY4Mk.s 			page 22


 604 0244 08500F40 		.word	1074745352
 605 0248 00000336 		.word	906166272
 606 024c 10500F40 		.word	1074745360
 607 0250 14500F40 		.word	1074745364
 608 0254 0000A202 		.word	44171264
 609 0258 20500F40 		.word	1074745376
 610 025c 30500F40 		.word	1074745392
 611 0260 38500F40 		.word	1074745400
 612 0264 00005C72 		.word	1918631936
 613 0268 00700F40 		.word	1074753536
 614 026c 01700F40 		.word	1074753537
 615 0270 00000440 		.word	1074003968
 616 0274 08000440 		.word	1074003976
 617 0278 96645B00 		.word	5989526
 618 027c 00010440 		.word	1074004224
 619 0280 08010440 		.word	1074004232
 620 0284 92241B00 		.word	1778834
 621 0288 00020440 		.word	1074004480
 622 028c 08020440 		.word	1074004488
 623 0290 92040000 		.word	1170
 624 0294 00030440 		.word	1074004736
 625 0298 08030440 		.word	1074004744
 626 029c B66DDB00 		.word	14380470
 627 02a0 00040440 		.word	1074004992
 628 02a4 08040440 		.word	1074005000
 629 02a8 18040440 		.word	1074005016
 630              		.cfi_endproc
 631              	.LFE6:
 632              		.size	cyfitter_cfg, .-cyfitter_cfg
 633              		.section	.rodata
 634              		.align	2
 635              		.type	cfg_memset_list.4739, %object
 636              		.size	cfg_memset_list.4739, 12
 637              	cfg_memset_list.4739:
 638 0000 00300F40 		.word	1074737152
 639 0004 0004     		.short	1024
 640 0006 00400F40 		.4byte	1074741248
 641 000a 0004     		.short	1024
 642              		.align	2
 643              		.type	cy_cfg_addr_table.4733, %object
 644              		.size	cy_cfg_addr_table.4733, 40
 645              	cy_cfg_addr_table.4733:
 646 000c 01000F40 		.word	1074724865
 647 0010 36300F40 		.word	1074737206
 648 0014 16310F40 		.word	1074737430
 649 0018 3F320F40 		.word	1074737727
 650 001c 23330F40 		.word	1074737955
 651 0020 09400F40 		.word	1074741257
 652 0024 05410F40 		.word	1074741509
 653 0028 02420F40 		.word	1074741762
 654 002c 11430F40 		.word	1074742033
 655 0030 02600F40 		.word	1074749442
 656              		.align	2
 657              		.type	cy_cfg_data_table.4734, %object
 658              		.size	cy_cfg_data_table.4734, 420
 659              	cy_cfg_data_table.4734:
 660 0034 83       		.byte	-125
ARM GAS  C:\Users\TECHCO~1\AppData\Local\Temp\ccbjY4Mk.s 			page 23


 661 0035 0D       		.byte	13
 662 0036 40       		.byte	64
 663 0037 20       		.byte	32
 664 0038 41       		.byte	65
 665 0039 03       		.byte	3
 666 003a 49       		.byte	73
 667 003b FF       		.byte	-1
 668 003c 4A       		.byte	74
 669 003d FF       		.byte	-1
 670 003e 4B       		.byte	75
 671 003f FF       		.byte	-1
 672 0040 4D       		.byte	77
 673 0041 A0       		.byte	-96
 674 0042 4F       		.byte	79
 675 0043 04       		.byte	4
 676 0044 50       		.byte	80
 677 0045 18       		.byte	24
 678 0046 5A       		.byte	90
 679 0047 04       		.byte	4
 680 0048 5B       		.byte	91
 681 0049 04       		.byte	4
 682 004a 5D       		.byte	93
 683 004b 03       		.byte	3
 684 004c 5F       		.byte	95
 685 004d 01       		.byte	1
 686 004e 60       		.byte	96
 687 004f 40       		.byte	64
 688 0050 62       		.byte	98
 689 0051 C0       		.byte	-64
 690 0052 64       		.byte	100
 691 0053 40       		.byte	64
 692 0054 65       		.byte	101
 693 0055 40       		.byte	64
 694 0056 66       		.byte	102
 695 0057 C0       		.byte	-64
 696 0058 68       		.byte	104
 697 0059 C0       		.byte	-64
 698 005a 6A       		.byte	106
 699 005b C0       		.byte	-64
 700 005c 6C       		.byte	108
 701 005d C0       		.byte	-64
 702 005e 6E       		.byte	110
 703 005f C0       		.byte	-64
 704 0060 86       		.byte	-122
 705 0061 02       		.byte	2
 706 0062 9A       		.byte	-102
 707 0063 02       		.byte	2
 708 0064 AE       		.byte	-82
 709 0065 01       		.byte	1
 710 0066 B0       		.byte	-80
 711 0067 02       		.byte	2
 712 0068 B4       		.byte	-76
 713 0069 01       		.byte	1
 714 006a C0       		.byte	-64
 715 006b 20       		.byte	32
 716 006c C1       		.byte	-63
 717 006d 03       		.byte	3
ARM GAS  C:\Users\TECHCO~1\AppData\Local\Temp\ccbjY4Mk.s 			page 24


 718 006e C5       		.byte	-59
 719 006f 01       		.byte	1
 720 0070 C6       		.byte	-58
 721 0071 20       		.byte	32
 722 0072 C8       		.byte	-56
 723 0073 09       		.byte	9
 724 0074 C9       		.byte	-55
 725 0075 FF       		.byte	-1
 726 0076 CA       		.byte	-54
 727 0077 FF       		.byte	-1
 728 0078 CB       		.byte	-53
 729 0079 FF       		.byte	-1
 730 007a CD       		.byte	-51
 731 007b AF       		.byte	-81
 732 007c CE       		.byte	-50
 733 007d 0F       		.byte	15
 734 007e CF       		.byte	-49
 735 007f 04       		.byte	4
 736 0080 D0       		.byte	-48
 737 0081 18       		.byte	24
 738 0082 D2       		.byte	-46
 739 0083 80       		.byte	-128
 740 0084 D8       		.byte	-40
 741 0085 04       		.byte	4
 742 0086 DA       		.byte	-38
 743 0087 04       		.byte	4
 744 0088 DB       		.byte	-37
 745 0089 04       		.byte	4
 746 008a DC       		.byte	-36
 747 008b 03       		.byte	3
 748 008c DD       		.byte	-35
 749 008d 33       		.byte	51
 750 008e DF       		.byte	-33
 751 008f 01       		.byte	1
 752 0090 E0       		.byte	-32
 753 0091 40       		.byte	64
 754 0092 E2       		.byte	-30
 755 0093 C0       		.byte	-64
 756 0094 E4       		.byte	-28
 757 0095 40       		.byte	64
 758 0096 E5       		.byte	-27
 759 0097 40       		.byte	64
 760 0098 E6       		.byte	-26
 761 0099 C0       		.byte	-64
 762 009a E8       		.byte	-24
 763 009b C0       		.byte	-64
 764 009c EA       		.byte	-22
 765 009d C0       		.byte	-64
 766 009e EC       		.byte	-20
 767 009f C0       		.byte	-64
 768 00a0 EE       		.byte	-18
 769 00a1 C0       		.byte	-64
 770 00a2 04       		.byte	4
 771 00a3 04       		.byte	4
 772 00a4 0F       		.byte	15
 773 00a5 08       		.byte	8
 774 00a6 17       		.byte	23
ARM GAS  C:\Users\TECHCO~1\AppData\Local\Temp\ccbjY4Mk.s 			page 25


 775 00a7 80       		.byte	-128
 776 00a8 1C       		.byte	28
 777 00a9 04       		.byte	4
 778 00aa 1D       		.byte	29
 779 00ab 20       		.byte	32
 780 00ac 1E       		.byte	30
 781 00ad 80       		.byte	-128
 782 00ae 40       		.byte	64
 783 00af 04       		.byte	4
 784 00b0 42       		.byte	66
 785 00b1 20       		.byte	32
 786 00b2 45       		.byte	69
 787 00b3 20       		.byte	32
 788 00b4 46       		.byte	70
 789 00b5 20       		.byte	32
 790 00b6 4F       		.byte	79
 791 00b7 08       		.byte	8
 792 00b8 56       		.byte	86
 793 00b9 20       		.byte	32
 794 00ba 68       		.byte	104
 795 00bb 04       		.byte	4
 796 00bc 69       		.byte	105
 797 00bd 80       		.byte	-128
 798 00be 77       		.byte	119
 799 00bf 80       		.byte	-128
 800 00c0 81       		.byte	-127
 801 00c1 40       		.byte	64
 802 00c2 82       		.byte	-126
 803 00c3 40       		.byte	64
 804 00c4 88       		.byte	-120
 805 00c5 04       		.byte	4
 806 00c6 C0       		.byte	-64
 807 00c7 20       		.byte	32
 808 00c8 C2       		.byte	-62
 809 00c9 40       		.byte	64
 810 00ca C4       		.byte	-60
 811 00cb 80       		.byte	-128
 812 00cc D0       		.byte	-48
 813 00cd 66       		.byte	102
 814 00ce 40       		.byte	64
 815 00cf 60       		.byte	96
 816 00d0 41       		.byte	65
 817 00d1 05       		.byte	5
 818 00d2 49       		.byte	73
 819 00d3 FF       		.byte	-1
 820 00d4 4A       		.byte	74
 821 00d5 FF       		.byte	-1
 822 00d6 4B       		.byte	75
 823 00d7 FF       		.byte	-1
 824 00d8 4D       		.byte	77
 825 00d9 A0       		.byte	-96
 826 00da 4F       		.byte	79
 827 00db 04       		.byte	4
 828 00dc 50       		.byte	80
 829 00dd 18       		.byte	24
 830 00de 5A       		.byte	90
 831 00df 04       		.byte	4
ARM GAS  C:\Users\TECHCO~1\AppData\Local\Temp\ccbjY4Mk.s 			page 26


 832 00e0 5B       		.byte	91
 833 00e1 04       		.byte	4
 834 00e2 5D       		.byte	93
 835 00e3 01       		.byte	1
 836 00e4 5F       		.byte	95
 837 00e5 01       		.byte	1
 838 00e6 60       		.byte	96
 839 00e7 40       		.byte	64
 840 00e8 62       		.byte	98
 841 00e9 C0       		.byte	-64
 842 00ea 64       		.byte	100
 843 00eb 40       		.byte	64
 844 00ec 65       		.byte	101
 845 00ed 40       		.byte	64
 846 00ee 66       		.byte	102
 847 00ef C0       		.byte	-64
 848 00f0 68       		.byte	104
 849 00f1 C0       		.byte	-64
 850 00f2 6A       		.byte	106
 851 00f3 C0       		.byte	-64
 852 00f4 6C       		.byte	108
 853 00f5 C0       		.byte	-64
 854 00f6 6E       		.byte	110
 855 00f7 C0       		.byte	-64
 856 00f8 86       		.byte	-122
 857 00f9 06       		.byte	6
 858 00fa 8E       		.byte	-114
 859 00fb 02       		.byte	2
 860 00fc 92       		.byte	-110
 861 00fd 01       		.byte	1
 862 00fe 9B       		.byte	-101
 863 00ff 01       		.byte	1
 864 0100 A6       		.byte	-90
 865 0101 0C       		.byte	12
 866 0102 AD       		.byte	-83
 867 0103 01       		.byte	1
 868 0104 B0       		.byte	-80
 869 0105 04       		.byte	4
 870 0106 B2       		.byte	-78
 871 0107 02       		.byte	2
 872 0108 B4       		.byte	-76
 873 0109 01       		.byte	1
 874 010a B6       		.byte	-74
 875 010b 08       		.byte	8
 876 010c B7       		.byte	-73
 877 010d 01       		.byte	1
 878 010e BE       		.byte	-66
 879 010f 04       		.byte	4
 880 0110 C0       		.byte	-64
 881 0111 20       		.byte	32
 882 0112 C1       		.byte	-63
 883 0113 05       		.byte	5
 884 0114 C5       		.byte	-59
 885 0115 D1       		.byte	-47
 886 0116 C7       		.byte	-57
 887 0117 20       		.byte	32
 888 0118 C8       		.byte	-56
ARM GAS  C:\Users\TECHCO~1\AppData\Local\Temp\ccbjY4Mk.s 			page 27


 889 0119 23       		.byte	35
 890 011a C9       		.byte	-55
 891 011b FF       		.byte	-1
 892 011c CA       		.byte	-54
 893 011d FF       		.byte	-1
 894 011e CB       		.byte	-53
 895 011f FF       		.byte	-1
 896 0120 CD       		.byte	-51
 897 0121 AF       		.byte	-81
 898 0122 CE       		.byte	-50
 899 0123 0F       		.byte	15
 900 0124 CF       		.byte	-49
 901 0125 04       		.byte	4
 902 0126 D0       		.byte	-48
 903 0127 18       		.byte	24
 904 0128 D2       		.byte	-46
 905 0129 80       		.byte	-128
 906 012a D4       		.byte	-44
 907 012b 05       		.byte	5
 908 012c D8       		.byte	-40
 909 012d 04       		.byte	4
 910 012e D9       		.byte	-39
 911 012f 04       		.byte	4
 912 0130 DA       		.byte	-38
 913 0131 04       		.byte	4
 914 0132 DB       		.byte	-37
 915 0133 04       		.byte	4
 916 0134 DC       		.byte	-36
 917 0135 11       		.byte	17
 918 0136 DD       		.byte	-35
 919 0137 11       		.byte	17
 920 0138 DF       		.byte	-33
 921 0139 01       		.byte	1
 922 013a E0       		.byte	-32
 923 013b 40       		.byte	64
 924 013c E2       		.byte	-30
 925 013d C0       		.byte	-64
 926 013e E4       		.byte	-28
 927 013f 40       		.byte	64
 928 0140 E5       		.byte	-27
 929 0141 40       		.byte	64
 930 0142 E6       		.byte	-26
 931 0143 C0       		.byte	-64
 932 0144 E8       		.byte	-24
 933 0145 C0       		.byte	-64
 934 0146 EA       		.byte	-22
 935 0147 C0       		.byte	-64
 936 0148 EC       		.byte	-20
 937 0149 C0       		.byte	-64
 938 014a EE       		.byte	-18
 939 014b C0       		.byte	-64
 940 014c 00       		.byte	0
 941 014d 04       		.byte	4
 942 014e 02       		.byte	2
 943 014f 02       		.byte	2
 944 0150 09       		.byte	9
 945 0151 02       		.byte	2
ARM GAS  C:\Users\TECHCO~1\AppData\Local\Temp\ccbjY4Mk.s 			page 28


 946 0152 10       		.byte	16
 947 0153 20       		.byte	32
 948 0154 18       		.byte	24
 949 0155 04       		.byte	4
 950 0156 19       		.byte	25
 951 0157 44       		.byte	68
 952 0158 1A       		.byte	26
 953 0159 40       		.byte	64
 954 015a 1B       		.byte	27
 955 015b 10       		.byte	16
 956 015c 22       		.byte	34
 957 015d 40       		.byte	64
 958 015e 29       		.byte	41
 959 015f 40       		.byte	64
 960 0160 30       		.byte	48
 961 0161 20       		.byte	32
 962 0162 40       		.byte	64
 963 0163 04       		.byte	4
 964 0164 48       		.byte	72
 965 0165 20       		.byte	32
 966 0166 49       		.byte	73
 967 0167 01       		.byte	1
 968 0168 4A       		.byte	74
 969 0169 02       		.byte	2
 970 016a 4E       		.byte	78
 971 016b 02       		.byte	2
 972 016c 4F       		.byte	79
 973 016d 20       		.byte	32
 974 016e 52       		.byte	82
 975 016f 02       		.byte	2
 976 0170 59       		.byte	89
 977 0171 05       		.byte	5
 978 0172 5A       		.byte	90
 979 0173 80       		.byte	-128
 980 0174 6D       		.byte	109
 981 0175 10       		.byte	16
 982 0176 6F       		.byte	111
 983 0177 01       		.byte	1
 984 0178 71       		.byte	113
 985 0179 02       		.byte	2
 986 017a 87       		.byte	-121
 987 017b 01       		.byte	1
 988 017c 89       		.byte	-119
 989 017d 10       		.byte	16
 990 017e 96       		.byte	-106
 991 017f 40       		.byte	64
 992 0180 AE       		.byte	-82
 993 0181 40       		.byte	64
 994 0182 C0       		.byte	-64
 995 0183 05       		.byte	5
 996 0184 C2       		.byte	-62
 997 0185 08       		.byte	8
 998 0186 C4       		.byte	-60
 999 0187 04       		.byte	4
 1000 0188 CA       		.byte	-54
 1001 0189 08       		.byte	8
 1002 018a CC       		.byte	-52
ARM GAS  C:\Users\TECHCO~1\AppData\Local\Temp\ccbjY4Mk.s 			page 29


 1003 018b 04       		.byte	4
 1004 018c D0       		.byte	-48
 1005 018d 04       		.byte	4
 1006 018e D2       		.byte	-46
 1007 018f 38       		.byte	56
 1008 0190 D6       		.byte	-42
 1009 0191 0B       		.byte	11
 1010 0192 5D       		.byte	93
 1011 0193 04       		.byte	4
 1012 0194 5F       		.byte	95
 1013 0195 20       		.byte	32
 1014 0196 62       		.byte	98
 1015 0197 01       		.byte	1
 1016 0198 67       		.byte	103
 1017 0199 04       		.byte	4
 1018 019a 82       		.byte	-126
 1019 019b 01       		.byte	1
 1020 019c 83       		.byte	-125
 1021 019d 20       		.byte	32
 1022 019e D6       		.byte	-42
 1023 019f A0       		.byte	-96
 1024 01a0 D8       		.byte	-40
 1025 01a1 C0       		.byte	-64
 1026 01a2 E2       		.byte	-30
 1027 01a3 A0       		.byte	-96
 1028 01a4 87       		.byte	-121
 1029 01a5 04       		.byte	4
 1030 01a6 97       		.byte	-105
 1031 01a7 04       		.byte	4
 1032 01a8 AD       		.byte	-83
 1033 01a9 04       		.byte	4
 1034 01aa E2       		.byte	-30
 1035 01ab 40       		.byte	64
 1036 01ac EE       		.byte	-18
 1037 01ad 40       		.byte	64
 1038 01ae 88       		.byte	-120
 1039 01af 10       		.byte	16
 1040 01b0 E0       		.byte	-32
 1041 01b1 04       		.byte	4
 1042 01b2 18       		.byte	24
 1043 01b3 08       		.byte	8
 1044 01b4 1B       		.byte	27
 1045 01b5 04       		.byte	4
 1046 01b6 1C       		.byte	28
 1047 01b7 01       		.byte	1
 1048 01b8 1F       		.byte	31
 1049 01b9 01       		.byte	1
 1050 01ba 50       		.byte	80
 1051 01bb 04       		.byte	4
 1052 01bc 54       		.byte	84
 1053 01bd 01       		.byte	1
 1054 01be 60       		.byte	96
 1055 01bf 01       		.byte	1
 1056 01c0 63       		.byte	99
 1057 01c1 08       		.byte	8
 1058 01c2 64       		.byte	100
 1059 01c3 10       		.byte	16
ARM GAS  C:\Users\TECHCO~1\AppData\Local\Temp\ccbjY4Mk.s 			page 30


 1060 01c4 67       		.byte	103
 1061 01c5 02       		.byte	2
 1062 01c6 88       		.byte	-120
 1063 01c7 01       		.byte	1
 1064 01c8 98       		.byte	-104
 1065 01c9 10       		.byte	16
 1066 01ca C6       		.byte	-58
 1067 01cb 0F       		.byte	15
 1068 01cc D4       		.byte	-44
 1069 01cd 04       		.byte	4
 1070 01ce D6       		.byte	-42
 1071 01cf 07       		.byte	7
 1072 01d0 D8       		.byte	-40
 1073 01d1 03       		.byte	3
 1074 01d2 E0       		.byte	-32
 1075 01d3 01       		.byte	1
 1076 01d4 10       		.byte	16
 1077 01d5 0A       		.byte	10
 1078 01d6 11       		.byte	17
 1079 01d7 01       		.byte	1
 1080              		.text
 1081              	.Letext0:
 1082              		.file 2 "c:\\program files\\cypress\\psoc creator\\3.3\\psoc creator\\import\\gnu\\arm\\4.9.3\\lib
 1083              		.file 3 ".\\Generated_Source\\PSoC4\\cytypes.h"