ARM GAS  C:\Users\TECHCO~1\AppData\Local\Temp\ccKF7qbd.s 			page 1


   1              		.cpu cortex-m0
   2              		.fpu softvfp
   3              		.eabi_attribute 20, 1
   4              		.eabi_attribute 21, 1
   5              		.eabi_attribute 23, 3
   6              		.eabi_attribute 24, 1
   7              		.eabi_attribute 25, 1
   8              		.eabi_attribute 26, 1
   9              		.eabi_attribute 30, 6
  10              		.eabi_attribute 34, 0
  11              		.eabi_attribute 18, 4
  12              		.code	16
  13              		.file	"DIR_REG_1_PM.c"
  14              		.text
  15              	.Ltext0:
  16              		.cfi_sections	.debug_frame
  17              		.bss
  18              		.align	2
  19              	DIR_REG_1_backup:
  20 0000 00       		.space	1
  21 0001 000000   		.section	.text.DIR_REG_1_SaveConfig,"ax",%progbits
  22              		.align	2
  23              		.global	DIR_REG_1_SaveConfig
  24              		.code	16
  25              		.thumb_func
  26              		.type	DIR_REG_1_SaveConfig, %function
  27              	DIR_REG_1_SaveConfig:
  28              	.LFB0:
  29              		.file 1 ".\\Generated_Source\\PSoC4\\DIR_REG_1_PM.c"
   1:.\Generated_Source\PSoC4/DIR_REG_1_PM.c **** /*******************************************************************************
   2:.\Generated_Source\PSoC4/DIR_REG_1_PM.c **** * File Name: DIR_REG_1_PM.c
   3:.\Generated_Source\PSoC4/DIR_REG_1_PM.c **** * Version 1.80
   4:.\Generated_Source\PSoC4/DIR_REG_1_PM.c **** *
   5:.\Generated_Source\PSoC4/DIR_REG_1_PM.c **** * Description:
   6:.\Generated_Source\PSoC4/DIR_REG_1_PM.c **** *  This file contains the setup, control, and status commands to support 
   7:.\Generated_Source\PSoC4/DIR_REG_1_PM.c **** *  the component operation in the low power mode. 
   8:.\Generated_Source\PSoC4/DIR_REG_1_PM.c **** *
   9:.\Generated_Source\PSoC4/DIR_REG_1_PM.c **** * Note:
  10:.\Generated_Source\PSoC4/DIR_REG_1_PM.c **** *
  11:.\Generated_Source\PSoC4/DIR_REG_1_PM.c **** ********************************************************************************
  12:.\Generated_Source\PSoC4/DIR_REG_1_PM.c **** * Copyright 2015, Cypress Semiconductor Corporation.  All rights reserved.
  13:.\Generated_Source\PSoC4/DIR_REG_1_PM.c **** * You may use this file only in accordance with the license, terms, conditions, 
  14:.\Generated_Source\PSoC4/DIR_REG_1_PM.c **** * disclaimers, and limitations in the end user license agreement accompanying 
  15:.\Generated_Source\PSoC4/DIR_REG_1_PM.c **** * the software package with which this file was provided.
  16:.\Generated_Source\PSoC4/DIR_REG_1_PM.c **** *******************************************************************************/
  17:.\Generated_Source\PSoC4/DIR_REG_1_PM.c **** 
  18:.\Generated_Source\PSoC4/DIR_REG_1_PM.c **** #include "DIR_REG_1.h"
  19:.\Generated_Source\PSoC4/DIR_REG_1_PM.c **** 
  20:.\Generated_Source\PSoC4/DIR_REG_1_PM.c **** /* Check for removal by optimization */
  21:.\Generated_Source\PSoC4/DIR_REG_1_PM.c **** #if !defined(DIR_REG_1_Sync_ctrl_reg__REMOVED)
  22:.\Generated_Source\PSoC4/DIR_REG_1_PM.c **** 
  23:.\Generated_Source\PSoC4/DIR_REG_1_PM.c **** static DIR_REG_1_BACKUP_STRUCT  DIR_REG_1_backup = {0u};
  24:.\Generated_Source\PSoC4/DIR_REG_1_PM.c **** 
  25:.\Generated_Source\PSoC4/DIR_REG_1_PM.c ****     
  26:.\Generated_Source\PSoC4/DIR_REG_1_PM.c **** /*******************************************************************************
  27:.\Generated_Source\PSoC4/DIR_REG_1_PM.c **** * Function Name: DIR_REG_1_SaveConfig
  28:.\Generated_Source\PSoC4/DIR_REG_1_PM.c **** ********************************************************************************
ARM GAS  C:\Users\TECHCO~1\AppData\Local\Temp\ccKF7qbd.s 			page 2


  29:.\Generated_Source\PSoC4/DIR_REG_1_PM.c **** *
  30:.\Generated_Source\PSoC4/DIR_REG_1_PM.c **** * Summary:
  31:.\Generated_Source\PSoC4/DIR_REG_1_PM.c **** *  Saves the control register value.
  32:.\Generated_Source\PSoC4/DIR_REG_1_PM.c **** *
  33:.\Generated_Source\PSoC4/DIR_REG_1_PM.c **** * Parameters:
  34:.\Generated_Source\PSoC4/DIR_REG_1_PM.c **** *  None
  35:.\Generated_Source\PSoC4/DIR_REG_1_PM.c **** *
  36:.\Generated_Source\PSoC4/DIR_REG_1_PM.c **** * Return:
  37:.\Generated_Source\PSoC4/DIR_REG_1_PM.c **** *  None
  38:.\Generated_Source\PSoC4/DIR_REG_1_PM.c **** *
  39:.\Generated_Source\PSoC4/DIR_REG_1_PM.c **** *******************************************************************************/
  40:.\Generated_Source\PSoC4/DIR_REG_1_PM.c **** void DIR_REG_1_SaveConfig(void) 
  41:.\Generated_Source\PSoC4/DIR_REG_1_PM.c **** {
  30              		.loc 1 41 0
  31              		.cfi_startproc
  32 0000 80B5     		push	{r7, lr}
  33              		.cfi_def_cfa_offset 8
  34              		.cfi_offset 7, -8
  35              		.cfi_offset 14, -4
  36 0002 00AF     		add	r7, sp, #0
  37              		.cfi_def_cfa_register 7
  42:.\Generated_Source\PSoC4/DIR_REG_1_PM.c ****     DIR_REG_1_backup.controlState = DIR_REG_1_Control;
  38              		.loc 1 42 0
  39 0004 034B     		ldr	r3, .L2
  40 0006 1B78     		ldrb	r3, [r3]
  41 0008 DAB2     		uxtb	r2, r3
  42 000a 034B     		ldr	r3, .L2+4
  43 000c 1A70     		strb	r2, [r3]
  43:.\Generated_Source\PSoC4/DIR_REG_1_PM.c **** }
  44              		.loc 1 43 0
  45 000e BD46     		mov	sp, r7
  46              		@ sp needed
  47 0010 80BD     		pop	{r7, pc}
  48              	.L3:
  49 0012 C046     		.align	2
  50              	.L2:
  51 0014 70000F40 		.word	1074724976
  52 0018 00000000 		.word	DIR_REG_1_backup
  53              		.cfi_endproc
  54              	.LFE0:
  55              		.size	DIR_REG_1_SaveConfig, .-DIR_REG_1_SaveConfig
  56              		.section	.text.DIR_REG_1_RestoreConfig,"ax",%progbits
  57              		.align	2
  58              		.global	DIR_REG_1_RestoreConfig
  59              		.code	16
  60              		.thumb_func
  61              		.type	DIR_REG_1_RestoreConfig, %function
  62              	DIR_REG_1_RestoreConfig:
  63              	.LFB1:
  44:.\Generated_Source\PSoC4/DIR_REG_1_PM.c **** 
  45:.\Generated_Source\PSoC4/DIR_REG_1_PM.c **** 
  46:.\Generated_Source\PSoC4/DIR_REG_1_PM.c **** /*******************************************************************************
  47:.\Generated_Source\PSoC4/DIR_REG_1_PM.c **** * Function Name: DIR_REG_1_RestoreConfig
  48:.\Generated_Source\PSoC4/DIR_REG_1_PM.c **** ********************************************************************************
  49:.\Generated_Source\PSoC4/DIR_REG_1_PM.c **** *
  50:.\Generated_Source\PSoC4/DIR_REG_1_PM.c **** * Summary:
  51:.\Generated_Source\PSoC4/DIR_REG_1_PM.c **** *  Restores the control register value.
ARM GAS  C:\Users\TECHCO~1\AppData\Local\Temp\ccKF7qbd.s 			page 3


  52:.\Generated_Source\PSoC4/DIR_REG_1_PM.c **** *
  53:.\Generated_Source\PSoC4/DIR_REG_1_PM.c **** * Parameters:
  54:.\Generated_Source\PSoC4/DIR_REG_1_PM.c **** *  None
  55:.\Generated_Source\PSoC4/DIR_REG_1_PM.c **** *
  56:.\Generated_Source\PSoC4/DIR_REG_1_PM.c **** * Return:
  57:.\Generated_Source\PSoC4/DIR_REG_1_PM.c **** *  None
  58:.\Generated_Source\PSoC4/DIR_REG_1_PM.c **** *
  59:.\Generated_Source\PSoC4/DIR_REG_1_PM.c **** *
  60:.\Generated_Source\PSoC4/DIR_REG_1_PM.c **** *******************************************************************************/
  61:.\Generated_Source\PSoC4/DIR_REG_1_PM.c **** void DIR_REG_1_RestoreConfig(void) 
  62:.\Generated_Source\PSoC4/DIR_REG_1_PM.c **** {
  64              		.loc 1 62 0
  65              		.cfi_startproc
  66 0000 80B5     		push	{r7, lr}
  67              		.cfi_def_cfa_offset 8
  68              		.cfi_offset 7, -8
  69              		.cfi_offset 14, -4
  70 0002 00AF     		add	r7, sp, #0
  71              		.cfi_def_cfa_register 7
  63:.\Generated_Source\PSoC4/DIR_REG_1_PM.c ****      DIR_REG_1_Control = DIR_REG_1_backup.controlState;
  72              		.loc 1 63 0
  73 0004 024A     		ldr	r2, .L5
  74 0006 034B     		ldr	r3, .L5+4
  75 0008 1B78     		ldrb	r3, [r3]
  76 000a 1370     		strb	r3, [r2]
  64:.\Generated_Source\PSoC4/DIR_REG_1_PM.c **** }
  77              		.loc 1 64 0
  78 000c BD46     		mov	sp, r7
  79              		@ sp needed
  80 000e 80BD     		pop	{r7, pc}
  81              	.L6:
  82              		.align	2
  83              	.L5:
  84 0010 70000F40 		.word	1074724976
  85 0014 00000000 		.word	DIR_REG_1_backup
  86              		.cfi_endproc
  87              	.LFE1:
  88              		.size	DIR_REG_1_RestoreConfig, .-DIR_REG_1_RestoreConfig
  89              		.section	.text.DIR_REG_1_Sleep,"ax",%progbits
  90              		.align	2
  91              		.global	DIR_REG_1_Sleep
  92              		.code	16
  93              		.thumb_func
  94              		.type	DIR_REG_1_Sleep, %function
  95              	DIR_REG_1_Sleep:
  96              	.LFB2:
  65:.\Generated_Source\PSoC4/DIR_REG_1_PM.c **** 
  66:.\Generated_Source\PSoC4/DIR_REG_1_PM.c **** 
  67:.\Generated_Source\PSoC4/DIR_REG_1_PM.c **** /*******************************************************************************
  68:.\Generated_Source\PSoC4/DIR_REG_1_PM.c **** * Function Name: DIR_REG_1_Sleep
  69:.\Generated_Source\PSoC4/DIR_REG_1_PM.c **** ********************************************************************************
  70:.\Generated_Source\PSoC4/DIR_REG_1_PM.c **** *
  71:.\Generated_Source\PSoC4/DIR_REG_1_PM.c **** * Summary:
  72:.\Generated_Source\PSoC4/DIR_REG_1_PM.c **** *  Prepares the component for entering the low power mode.
  73:.\Generated_Source\PSoC4/DIR_REG_1_PM.c **** *
  74:.\Generated_Source\PSoC4/DIR_REG_1_PM.c **** * Parameters:
  75:.\Generated_Source\PSoC4/DIR_REG_1_PM.c **** *  None
ARM GAS  C:\Users\TECHCO~1\AppData\Local\Temp\ccKF7qbd.s 			page 4


  76:.\Generated_Source\PSoC4/DIR_REG_1_PM.c **** *
  77:.\Generated_Source\PSoC4/DIR_REG_1_PM.c **** * Return:
  78:.\Generated_Source\PSoC4/DIR_REG_1_PM.c **** *  None
  79:.\Generated_Source\PSoC4/DIR_REG_1_PM.c **** *
  80:.\Generated_Source\PSoC4/DIR_REG_1_PM.c **** *******************************************************************************/
  81:.\Generated_Source\PSoC4/DIR_REG_1_PM.c **** void DIR_REG_1_Sleep(void) 
  82:.\Generated_Source\PSoC4/DIR_REG_1_PM.c **** {
  97              		.loc 1 82 0
  98              		.cfi_startproc
  99 0000 80B5     		push	{r7, lr}
 100              		.cfi_def_cfa_offset 8
 101              		.cfi_offset 7, -8
 102              		.cfi_offset 14, -4
 103 0002 00AF     		add	r7, sp, #0
 104              		.cfi_def_cfa_register 7
  83:.\Generated_Source\PSoC4/DIR_REG_1_PM.c ****     DIR_REG_1_SaveConfig();
 105              		.loc 1 83 0
 106 0004 FFF7FEFF 		bl	DIR_REG_1_SaveConfig
  84:.\Generated_Source\PSoC4/DIR_REG_1_PM.c **** }
 107              		.loc 1 84 0
 108 0008 BD46     		mov	sp, r7
 109              		@ sp needed
 110 000a 80BD     		pop	{r7, pc}
 111              		.cfi_endproc
 112              	.LFE2:
 113              		.size	DIR_REG_1_Sleep, .-DIR_REG_1_Sleep
 114              		.section	.text.DIR_REG_1_Wakeup,"ax",%progbits
 115              		.align	2
 116              		.global	DIR_REG_1_Wakeup
 117              		.code	16
 118              		.thumb_func
 119              		.type	DIR_REG_1_Wakeup, %function
 120              	DIR_REG_1_Wakeup:
 121              	.LFB3:
  85:.\Generated_Source\PSoC4/DIR_REG_1_PM.c **** 
  86:.\Generated_Source\PSoC4/DIR_REG_1_PM.c **** 
  87:.\Generated_Source\PSoC4/DIR_REG_1_PM.c **** /*******************************************************************************
  88:.\Generated_Source\PSoC4/DIR_REG_1_PM.c **** * Function Name: DIR_REG_1_Wakeup
  89:.\Generated_Source\PSoC4/DIR_REG_1_PM.c **** ********************************************************************************
  90:.\Generated_Source\PSoC4/DIR_REG_1_PM.c **** *
  91:.\Generated_Source\PSoC4/DIR_REG_1_PM.c **** * Summary:
  92:.\Generated_Source\PSoC4/DIR_REG_1_PM.c **** *  Restores the component after waking up from the low power mode.
  93:.\Generated_Source\PSoC4/DIR_REG_1_PM.c **** *
  94:.\Generated_Source\PSoC4/DIR_REG_1_PM.c **** * Parameters:
  95:.\Generated_Source\PSoC4/DIR_REG_1_PM.c **** *  None
  96:.\Generated_Source\PSoC4/DIR_REG_1_PM.c **** *
  97:.\Generated_Source\PSoC4/DIR_REG_1_PM.c **** * Return:
  98:.\Generated_Source\PSoC4/DIR_REG_1_PM.c **** *  None
  99:.\Generated_Source\PSoC4/DIR_REG_1_PM.c **** *
 100:.\Generated_Source\PSoC4/DIR_REG_1_PM.c **** *******************************************************************************/
 101:.\Generated_Source\PSoC4/DIR_REG_1_PM.c **** void DIR_REG_1_Wakeup(void)  
 102:.\Generated_Source\PSoC4/DIR_REG_1_PM.c **** {
 122              		.loc 1 102 0
 123              		.cfi_startproc
 124 0000 80B5     		push	{r7, lr}
 125              		.cfi_def_cfa_offset 8
 126              		.cfi_offset 7, -8
ARM GAS  C:\Users\TECHCO~1\AppData\Local\Temp\ccKF7qbd.s 			page 5


 127              		.cfi_offset 14, -4
 128 0002 00AF     		add	r7, sp, #0
 129              		.cfi_def_cfa_register 7
 103:.\Generated_Source\PSoC4/DIR_REG_1_PM.c ****     DIR_REG_1_RestoreConfig();
 130              		.loc 1 103 0
 131 0004 FFF7FEFF 		bl	DIR_REG_1_RestoreConfig
 104:.\Generated_Source\PSoC4/DIR_REG_1_PM.c **** }
 132              		.loc 1 104 0
 133 0008 BD46     		mov	sp, r7
 134              		@ sp needed
 135 000a 80BD     		pop	{r7, pc}
 136              		.cfi_endproc
 137              	.LFE3:
 138              		.size	DIR_REG_1_Wakeup, .-DIR_REG_1_Wakeup
 139              		.text
 140              	.Letext0:
 141              		.file 2 ".\\Generated_Source\\PSoC4\\cytypes.h"
 142              		.file 3 ".\\Generated_Source\\PSoC4\\DIR_REG_1.h"