ARM GAS  C:\Users\TECHCO~1\AppData\Local\Temp\ccWhHjjd.s 			page 1


   1              		.cpu cortex-m0
   2              		.fpu softvfp
   3              		.eabi_attribute 20, 1
   4              		.eabi_attribute 21, 1
   5              		.eabi_attribute 23, 3
   6              		.eabi_attribute 24, 1
   7              		.eabi_attribute 25, 1
   8              		.eabi_attribute 26, 1
   9              		.eabi_attribute 30, 6
  10              		.eabi_attribute 34, 0
  11              		.eabi_attribute 18, 4
  12              		.code	16
  13              		.file	"inputScan.c"
  14              		.text
  15              	.Ltext0:
  16              		.cfi_sections	.debug_frame
  17              		.comm	dirReg,1,1
  18              		.comm	dirReg1,1,1
  19              		.section	.text.inputScan,"ax",%progbits
  20              		.align	2
  21              		.global	inputScan
  22              		.code	16
  23              		.thumb_func
  24              		.type	inputScan, %function
  25              	inputScan:
  26              	.LFB0:
  27              		.file 1 ".\\inputScan.c"
   1:.\inputScan.c **** /* ========================================
   2:.\inputScan.c ****  *
   3:.\inputScan.c ****  * Copyright YOUR COMPANY, THE YEAR
   4:.\inputScan.c ****  * All Rights Reserved
   5:.\inputScan.c ****  * UNPUBLISHED, LICENSED SOFTWARE.
   6:.\inputScan.c ****  *
   7:.\inputScan.c ****  * CONFIDENTIAL AND PROPRIETARY INFORMATION
   8:.\inputScan.c ****  * WHICH IS THE PROPERTY OF your company.
   9:.\inputScan.c ****  *
  10:.\inputScan.c ****  * ========================================
  11:.\inputScan.c **** */
  12:.\inputScan.c **** 
  13:.\inputScan.c **** #include <inputScan.h>
  14:.\inputScan.c **** 
  15:.\inputScan.c **** void inputScan(uint8 motor) {
  28              		.loc 1 15 0
  29              		.cfi_startproc
  30 0000 80B5     		push	{r7, lr}
  31              		.cfi_def_cfa_offset 8
  32              		.cfi_offset 7, -8
  33              		.cfi_offset 14, -4
  34 0002 82B0     		sub	sp, sp, #8
  35              		.cfi_def_cfa_offset 16
  36 0004 00AF     		add	r7, sp, #0
  37              		.cfi_def_cfa_register 7
  38 0006 021C     		mov	r2, r0
  39 0008 FB1D     		add	r3, r7, #7
  40 000a 1A70     		strb	r2, [r3]
  16:.\inputScan.c ****     
  17:.\inputScan.c ****     if(motor == 1) {
ARM GAS  C:\Users\TECHCO~1\AppData\Local\Temp\ccWhHjjd.s 			page 2


  41              		.loc 1 17 0
  42 000c FB1D     		add	r3, r7, #7
  43 000e 1B78     		ldrb	r3, [r3]
  44 0010 012B     		cmp	r3, #1
  45 0012 27D1     		bne	.L2
  18:.\inputScan.c ****         // Motor 1
  19:.\inputScan.c ****         if (STEP_INPUT_SOURCE_Read() == 0){
  46              		.loc 1 19 0
  47 0014 FFF7FEFF 		bl	STEP_INPUT_SOURCE_Read
  48 0018 031E     		sub	r3, r0, #0
  49 001a 0AD1     		bne	.L3
  20:.\inputScan.c ****             previousStepPulse  = stepPulse;
  50              		.loc 1 20 0
  51 001c 264B     		ldr	r3, .L11
  52 001e 1A78     		ldrb	r2, [r3]
  53 0020 264B     		ldr	r3, .L11+4
  54 0022 1A70     		strb	r2, [r3]
  21:.\inputScan.c ****             stepPulse = STEP_INPUT_Read(); // rising edge, reserved for potential glith
  55              		.loc 1 21 0
  56 0024 FFF7FEFF 		bl	STEP_INPUT_Read
  57 0028 031C     		mov	r3, r0
  58 002a 1A1C     		mov	r2, r3
  59 002c 224B     		ldr	r3, .L11
  60 002e 1A70     		strb	r2, [r3]
  61 0030 09E0     		b	.L4
  62              	.L3:
  22:.\inputScan.c ****         }
  23:.\inputScan.c ****         else{
  24:.\inputScan.c ****             previousStepPulse = stepPulse;
  63              		.loc 1 24 0
  64 0032 214B     		ldr	r3, .L11
  65 0034 1A78     		ldrb	r2, [r3]
  66 0036 214B     		ldr	r3, .L11+4
  67 0038 1A70     		strb	r2, [r3]
  25:.\inputScan.c ****             stepPulse = INTERNAL_STEP_OUT_Read();
  68              		.loc 1 25 0
  69 003a FFF7FEFF 		bl	INTERNAL_STEP_OUT_Read
  70 003e 031C     		mov	r3, r0
  71 0040 1A1C     		mov	r2, r3
  72 0042 1D4B     		ldr	r3, .L11
  73 0044 1A70     		strb	r2, [r3]
  74              	.L4:
  26:.\inputScan.c ****         }
  27:.\inputScan.c ****         if (DIR_INPUT_SOURCE_Read()== 0){
  75              		.loc 1 27 0
  76 0046 FFF7FEFF 		bl	DIR_INPUT_SOURCE_Read
  77 004a 031E     		sub	r3, r0, #0
  78 004c 06D1     		bne	.L5
  28:.\inputScan.c ****             dirReg = DIR_INPUT_Read();
  79              		.loc 1 28 0
  80 004e FFF7FEFF 		bl	DIR_INPUT_Read
  81 0052 031C     		mov	r3, r0
  82 0054 1A1C     		mov	r2, r3
  83 0056 1A4B     		ldr	r3, .L11+8
  84 0058 1A70     		strb	r2, [r3]
  85 005a 2AE0     		b	.L1
  86              	.L5:
ARM GAS  C:\Users\TECHCO~1\AppData\Local\Temp\ccWhHjjd.s 			page 3


  29:.\inputScan.c ****             
  30:.\inputScan.c ****         }
  31:.\inputScan.c ****         else{
  32:.\inputScan.c ****             dirReg = 0;
  87              		.loc 1 32 0
  88 005c 184B     		ldr	r3, .L11+8
  89 005e 0022     		mov	r2, #0
  90 0060 1A70     		strb	r2, [r3]
  91 0062 26E0     		b	.L1
  92              	.L2:
  33:.\inputScan.c ****         }
  34:.\inputScan.c ****     } // Motor 1
  35:.\inputScan.c ****     else {
  36:.\inputScan.c ****         // Motor 2
  37:.\inputScan.c ****         if (STEP_INPUT_SOURCE_1_Read() == 0){
  93              		.loc 1 37 0
  94 0064 FFF7FEFF 		bl	STEP_INPUT_SOURCE_1_Read
  95 0068 031E     		sub	r3, r0, #0
  96 006a 0AD1     		bne	.L8
  38:.\inputScan.c ****             previousStepPulse1 = stepPulse1;
  97              		.loc 1 38 0
  98 006c 154B     		ldr	r3, .L11+12
  99 006e 1A78     		ldrb	r2, [r3]
 100 0070 154B     		ldr	r3, .L11+16
 101 0072 1A70     		strb	r2, [r3]
  39:.\inputScan.c ****             stepPulse1 = STEP_INPUT_1_Read(); // rising edge, reserved for potential glith
 102              		.loc 1 39 0
 103 0074 FFF7FEFF 		bl	STEP_INPUT_1_Read
 104 0078 031C     		mov	r3, r0
 105 007a 1A1C     		mov	r2, r3
 106 007c 114B     		ldr	r3, .L11+12
 107 007e 1A70     		strb	r2, [r3]
 108 0080 09E0     		b	.L9
 109              	.L8:
  40:.\inputScan.c ****         }
  41:.\inputScan.c ****         else{
  42:.\inputScan.c ****             previousStepPulse1 = stepPulse1;
 110              		.loc 1 42 0
 111 0082 104B     		ldr	r3, .L11+12
 112 0084 1A78     		ldrb	r2, [r3]
 113 0086 104B     		ldr	r3, .L11+16
 114 0088 1A70     		strb	r2, [r3]
  43:.\inputScan.c ****             stepPulse1 = INTERNAL_STEP_OUT_1_Read();
 115              		.loc 1 43 0
 116 008a FFF7FEFF 		bl	INTERNAL_STEP_OUT_1_Read
 117 008e 031C     		mov	r3, r0
 118 0090 1A1C     		mov	r2, r3
 119 0092 0C4B     		ldr	r3, .L11+12
 120 0094 1A70     		strb	r2, [r3]
 121              	.L9:
  44:.\inputScan.c ****         }
  45:.\inputScan.c ****         if (DIR_INPUT_SOURCE_1_Read()== 0){
 122              		.loc 1 45 0
 123 0096 FFF7FEFF 		bl	DIR_INPUT_SOURCE_1_Read
 124 009a 031E     		sub	r3, r0, #0
 125 009c 06D1     		bne	.L10
  46:.\inputScan.c ****             dirReg1 = DIR_INPUT_1_Read();
ARM GAS  C:\Users\TECHCO~1\AppData\Local\Temp\ccWhHjjd.s 			page 4


 126              		.loc 1 46 0
 127 009e FFF7FEFF 		bl	DIR_INPUT_1_Read
 128 00a2 031C     		mov	r3, r0
 129 00a4 1A1C     		mov	r2, r3
 130 00a6 094B     		ldr	r3, .L11+20
 131 00a8 1A70     		strb	r2, [r3]
 132 00aa 02E0     		b	.L1
 133              	.L10:
  47:.\inputScan.c ****             
  48:.\inputScan.c ****         }
  49:.\inputScan.c ****         else{
  50:.\inputScan.c ****             dirReg1 = 0;
 134              		.loc 1 50 0
 135 00ac 074B     		ldr	r3, .L11+20
 136 00ae 0022     		mov	r2, #0
 137 00b0 1A70     		strb	r2, [r3]
 138              	.L1:
  51:.\inputScan.c ****         }
  52:.\inputScan.c ****     }
  53:.\inputScan.c **** }...
 139              		.loc 1 53 0
 140 00b2 BD46     		mov	sp, r7
 141 00b4 02B0     		add	sp, sp, #8
 142              		@ sp needed
 143 00b6 80BD     		pop	{r7, pc}
 144              	.L12:
 145              		.align	2
 146              	.L11:
 147 00b8 00000000 		.word	stepPulse
 148 00bc 00000000 		.word	previousStepPulse
 149 00c0 00000000 		.word	dirReg
 150 00c4 00000000 		.word	stepPulse1
 151 00c8 00000000 		.word	previousStepPulse1
 152 00cc 00000000 		.word	dirReg1
 153              		.cfi_endproc
 154              	.LFE0:
 155              		.size	inputScan, .-inputScan
 156              		.text
 157              	.Letext0:
 158              		.file 2 "./inputScan.h"
 159              		.file 3 "Generated_Source\\PSoC4/cytypes.h"