ARM GAS  C:\Users\TECHCO~1\AppData\Local\Temp\ccmZhRrf.s 			page 1


   1              		.cpu cortex-m0
   2              		.fpu softvfp
   3              		.eabi_attribute 20, 1
   4              		.eabi_attribute 21, 1
   5              		.eabi_attribute 23, 3
   6              		.eabi_attribute 24, 1
   7              		.eabi_attribute 25, 1
   8              		.eabi_attribute 26, 1
   9              		.eabi_attribute 30, 6
  10              		.eabi_attribute 34, 0
  11              		.eabi_attribute 18, 4
  12              		.code	16
  13              		.file	"INTERNAL_STEP_1_PM.c"
  14              		.text
  15              	.Ltext0:
  16              		.cfi_sections	.debug_frame
  17              		.bss
  18              		.align	2
  19              	INTERNAL_STEP_1_backup:
  20 0000 00000000 		.space	8
  20      00000000 
  21              		.section	.text.INTERNAL_STEP_1_SaveConfig,"ax",%progbits
  22              		.align	2
  23              		.global	INTERNAL_STEP_1_SaveConfig
  24              		.code	16
  25              		.thumb_func
  26              		.type	INTERNAL_STEP_1_SaveConfig, %function
  27              	INTERNAL_STEP_1_SaveConfig:
  28              	.LFB0:
  29              		.file 1 ".\\Generated_Source\\PSoC4\\INTERNAL_STEP_1_PM.c"
   1:.\Generated_Source\PSoC4/INTERNAL_STEP_1_PM.c **** /*******************************************************************************
   2:.\Generated_Source\PSoC4/INTERNAL_STEP_1_PM.c **** * File Name: INTERNAL_STEP_1_PM.c
   3:.\Generated_Source\PSoC4/INTERNAL_STEP_1_PM.c **** * Version 3.30
   4:.\Generated_Source\PSoC4/INTERNAL_STEP_1_PM.c **** *
   5:.\Generated_Source\PSoC4/INTERNAL_STEP_1_PM.c **** * Description:
   6:.\Generated_Source\PSoC4/INTERNAL_STEP_1_PM.c **** *  This file provides the power management source code to API for the
   7:.\Generated_Source\PSoC4/INTERNAL_STEP_1_PM.c **** *  PWM.
   8:.\Generated_Source\PSoC4/INTERNAL_STEP_1_PM.c **** *
   9:.\Generated_Source\PSoC4/INTERNAL_STEP_1_PM.c **** * Note:
  10:.\Generated_Source\PSoC4/INTERNAL_STEP_1_PM.c **** *
  11:.\Generated_Source\PSoC4/INTERNAL_STEP_1_PM.c **** ********************************************************************************
  12:.\Generated_Source\PSoC4/INTERNAL_STEP_1_PM.c **** * Copyright 2008-2014, Cypress Semiconductor Corporation.  All rights reserved.
  13:.\Generated_Source\PSoC4/INTERNAL_STEP_1_PM.c **** * You may use this file only in accordance with the license, terms, conditions,
  14:.\Generated_Source\PSoC4/INTERNAL_STEP_1_PM.c **** * disclaimers, and limitations in the end user license agreement accompanying
  15:.\Generated_Source\PSoC4/INTERNAL_STEP_1_PM.c **** * the software package with which this file was provided.
  16:.\Generated_Source\PSoC4/INTERNAL_STEP_1_PM.c **** *******************************************************************************/
  17:.\Generated_Source\PSoC4/INTERNAL_STEP_1_PM.c **** 
  18:.\Generated_Source\PSoC4/INTERNAL_STEP_1_PM.c **** #include "INTERNAL_STEP_1.h"
  19:.\Generated_Source\PSoC4/INTERNAL_STEP_1_PM.c **** 
  20:.\Generated_Source\PSoC4/INTERNAL_STEP_1_PM.c **** static INTERNAL_STEP_1_backupStruct INTERNAL_STEP_1_backup;
  21:.\Generated_Source\PSoC4/INTERNAL_STEP_1_PM.c **** 
  22:.\Generated_Source\PSoC4/INTERNAL_STEP_1_PM.c **** 
  23:.\Generated_Source\PSoC4/INTERNAL_STEP_1_PM.c **** /*******************************************************************************
  24:.\Generated_Source\PSoC4/INTERNAL_STEP_1_PM.c **** * Function Name: INTERNAL_STEP_1_SaveConfig
  25:.\Generated_Source\PSoC4/INTERNAL_STEP_1_PM.c **** ********************************************************************************
  26:.\Generated_Source\PSoC4/INTERNAL_STEP_1_PM.c **** *
  27:.\Generated_Source\PSoC4/INTERNAL_STEP_1_PM.c **** * Summary:
ARM GAS  C:\Users\TECHCO~1\AppData\Local\Temp\ccmZhRrf.s 			page 2


  28:.\Generated_Source\PSoC4/INTERNAL_STEP_1_PM.c **** *  Saves the current user configuration of the component.
  29:.\Generated_Source\PSoC4/INTERNAL_STEP_1_PM.c **** *
  30:.\Generated_Source\PSoC4/INTERNAL_STEP_1_PM.c **** * Parameters:
  31:.\Generated_Source\PSoC4/INTERNAL_STEP_1_PM.c **** *  None
  32:.\Generated_Source\PSoC4/INTERNAL_STEP_1_PM.c **** *
  33:.\Generated_Source\PSoC4/INTERNAL_STEP_1_PM.c **** * Return:
  34:.\Generated_Source\PSoC4/INTERNAL_STEP_1_PM.c **** *  None
  35:.\Generated_Source\PSoC4/INTERNAL_STEP_1_PM.c **** *
  36:.\Generated_Source\PSoC4/INTERNAL_STEP_1_PM.c **** * Global variables:
  37:.\Generated_Source\PSoC4/INTERNAL_STEP_1_PM.c **** *  INTERNAL_STEP_1_backup:  Variables of this global structure are modified to
  38:.\Generated_Source\PSoC4/INTERNAL_STEP_1_PM.c **** *  store the values of non retention configuration registers when Sleep() API is
  39:.\Generated_Source\PSoC4/INTERNAL_STEP_1_PM.c **** *  called.
  40:.\Generated_Source\PSoC4/INTERNAL_STEP_1_PM.c **** *
  41:.\Generated_Source\PSoC4/INTERNAL_STEP_1_PM.c **** *******************************************************************************/
  42:.\Generated_Source\PSoC4/INTERNAL_STEP_1_PM.c **** void INTERNAL_STEP_1_SaveConfig(void) 
  43:.\Generated_Source\PSoC4/INTERNAL_STEP_1_PM.c **** {
  30              		.loc 1 43 0
  31              		.cfi_startproc
  32 0000 80B5     		push	{r7, lr}
  33              		.cfi_def_cfa_offset 8
  34              		.cfi_offset 7, -8
  35              		.cfi_offset 14, -4
  36 0002 00AF     		add	r7, sp, #0
  37              		.cfi_def_cfa_register 7
  44:.\Generated_Source\PSoC4/INTERNAL_STEP_1_PM.c **** 
  45:.\Generated_Source\PSoC4/INTERNAL_STEP_1_PM.c ****     #if(!INTERNAL_STEP_1_UsingFixedFunction)
  46:.\Generated_Source\PSoC4/INTERNAL_STEP_1_PM.c ****         #if(!INTERNAL_STEP_1_PWMModeIsCenterAligned)
  47:.\Generated_Source\PSoC4/INTERNAL_STEP_1_PM.c ****             INTERNAL_STEP_1_backup.PWMPeriod = INTERNAL_STEP_1_ReadPeriod();
  38              		.loc 1 47 0
  39 0004 FFF7FEFF 		bl	INTERNAL_STEP_1_ReadPeriod
  40 0008 031C     		mov	r3, r0
  41 000a 1A1C     		mov	r2, r3
  42 000c 074B     		ldr	r3, .L2
  43 000e 9A80     		strh	r2, [r3, #4]
  48:.\Generated_Source\PSoC4/INTERNAL_STEP_1_PM.c ****         #endif /* (!INTERNAL_STEP_1_PWMModeIsCenterAligned) */
  49:.\Generated_Source\PSoC4/INTERNAL_STEP_1_PM.c ****         INTERNAL_STEP_1_backup.PWMUdb = INTERNAL_STEP_1_ReadCounter();
  44              		.loc 1 49 0
  45 0010 FFF7FEFF 		bl	INTERNAL_STEP_1_ReadCounter
  46 0014 031C     		mov	r3, r0
  47 0016 1A1C     		mov	r2, r3
  48 0018 044B     		ldr	r3, .L2
  49 001a 5A80     		strh	r2, [r3, #2]
  50:.\Generated_Source\PSoC4/INTERNAL_STEP_1_PM.c ****         #if (INTERNAL_STEP_1_UseStatus)
  51:.\Generated_Source\PSoC4/INTERNAL_STEP_1_PM.c ****             INTERNAL_STEP_1_backup.InterruptMaskValue = INTERNAL_STEP_1_STATUS_MASK;
  52:.\Generated_Source\PSoC4/INTERNAL_STEP_1_PM.c ****         #endif /* (INTERNAL_STEP_1_UseStatus) */
  53:.\Generated_Source\PSoC4/INTERNAL_STEP_1_PM.c **** 
  54:.\Generated_Source\PSoC4/INTERNAL_STEP_1_PM.c ****         #if(INTERNAL_STEP_1_DeadBandMode == INTERNAL_STEP_1__B_PWM__DBM_256_CLOCKS || \
  55:.\Generated_Source\PSoC4/INTERNAL_STEP_1_PM.c ****             INTERNAL_STEP_1_DeadBandMode == INTERNAL_STEP_1__B_PWM__DBM_2_4_CLOCKS)
  56:.\Generated_Source\PSoC4/INTERNAL_STEP_1_PM.c ****             INTERNAL_STEP_1_backup.PWMdeadBandValue = INTERNAL_STEP_1_ReadDeadTime();
  57:.\Generated_Source\PSoC4/INTERNAL_STEP_1_PM.c ****         #endif /*  deadband count is either 2-4 clocks or 256 clocks */
  58:.\Generated_Source\PSoC4/INTERNAL_STEP_1_PM.c **** 
  59:.\Generated_Source\PSoC4/INTERNAL_STEP_1_PM.c ****         #if(INTERNAL_STEP_1_KillModeMinTime)
  60:.\Generated_Source\PSoC4/INTERNAL_STEP_1_PM.c ****              INTERNAL_STEP_1_backup.PWMKillCounterPeriod = INTERNAL_STEP_1_ReadKillTime();
  61:.\Generated_Source\PSoC4/INTERNAL_STEP_1_PM.c ****         #endif /* (INTERNAL_STEP_1_KillModeMinTime) */
  62:.\Generated_Source\PSoC4/INTERNAL_STEP_1_PM.c **** 
  63:.\Generated_Source\PSoC4/INTERNAL_STEP_1_PM.c ****         #if(INTERNAL_STEP_1_UseControl)
  64:.\Generated_Source\PSoC4/INTERNAL_STEP_1_PM.c ****             INTERNAL_STEP_1_backup.PWMControlRegister = INTERNAL_STEP_1_ReadControlRegister();
ARM GAS  C:\Users\TECHCO~1\AppData\Local\Temp\ccmZhRrf.s 			page 3


  50              		.loc 1 64 0
  51 001c FFF7FEFF 		bl	INTERNAL_STEP_1_ReadControlRegister
  52 0020 031C     		mov	r3, r0
  53 0022 1A1C     		mov	r2, r3
  54 0024 014B     		ldr	r3, .L2
  55 0026 9A71     		strb	r2, [r3, #6]
  65:.\Generated_Source\PSoC4/INTERNAL_STEP_1_PM.c ****         #endif /* (INTERNAL_STEP_1_UseControl) */
  66:.\Generated_Source\PSoC4/INTERNAL_STEP_1_PM.c ****     #endif  /* (!INTERNAL_STEP_1_UsingFixedFunction) */
  67:.\Generated_Source\PSoC4/INTERNAL_STEP_1_PM.c **** }
  56              		.loc 1 67 0
  57 0028 BD46     		mov	sp, r7
  58              		@ sp needed
  59 002a 80BD     		pop	{r7, pc}
  60              	.L3:
  61              		.align	2
  62              	.L2:
  63 002c 00000000 		.word	INTERNAL_STEP_1_backup
  64              		.cfi_endproc
  65              	.LFE0:
  66              		.size	INTERNAL_STEP_1_SaveConfig, .-INTERNAL_STEP_1_SaveConfig
  67              		.section	.text.INTERNAL_STEP_1_RestoreConfig,"ax",%progbits
  68              		.align	2
  69              		.global	INTERNAL_STEP_1_RestoreConfig
  70              		.code	16
  71              		.thumb_func
  72              		.type	INTERNAL_STEP_1_RestoreConfig, %function
  73              	INTERNAL_STEP_1_RestoreConfig:
  74              	.LFB1:
  68:.\Generated_Source\PSoC4/INTERNAL_STEP_1_PM.c **** 
  69:.\Generated_Source\PSoC4/INTERNAL_STEP_1_PM.c **** 
  70:.\Generated_Source\PSoC4/INTERNAL_STEP_1_PM.c **** /*******************************************************************************
  71:.\Generated_Source\PSoC4/INTERNAL_STEP_1_PM.c **** * Function Name: INTERNAL_STEP_1_RestoreConfig
  72:.\Generated_Source\PSoC4/INTERNAL_STEP_1_PM.c **** ********************************************************************************
  73:.\Generated_Source\PSoC4/INTERNAL_STEP_1_PM.c **** *
  74:.\Generated_Source\PSoC4/INTERNAL_STEP_1_PM.c **** * Summary:
  75:.\Generated_Source\PSoC4/INTERNAL_STEP_1_PM.c **** *  Restores the current user configuration of the component.
  76:.\Generated_Source\PSoC4/INTERNAL_STEP_1_PM.c **** *
  77:.\Generated_Source\PSoC4/INTERNAL_STEP_1_PM.c **** * Parameters:
  78:.\Generated_Source\PSoC4/INTERNAL_STEP_1_PM.c **** *  None
  79:.\Generated_Source\PSoC4/INTERNAL_STEP_1_PM.c **** *
  80:.\Generated_Source\PSoC4/INTERNAL_STEP_1_PM.c **** * Return:
  81:.\Generated_Source\PSoC4/INTERNAL_STEP_1_PM.c **** *  None
  82:.\Generated_Source\PSoC4/INTERNAL_STEP_1_PM.c **** *
  83:.\Generated_Source\PSoC4/INTERNAL_STEP_1_PM.c **** * Global variables:
  84:.\Generated_Source\PSoC4/INTERNAL_STEP_1_PM.c **** *  INTERNAL_STEP_1_backup:  Variables of this global structure are used to
  85:.\Generated_Source\PSoC4/INTERNAL_STEP_1_PM.c **** *  restore the values of non retention registers on wakeup from sleep mode.
  86:.\Generated_Source\PSoC4/INTERNAL_STEP_1_PM.c **** *
  87:.\Generated_Source\PSoC4/INTERNAL_STEP_1_PM.c **** *******************************************************************************/
  88:.\Generated_Source\PSoC4/INTERNAL_STEP_1_PM.c **** void INTERNAL_STEP_1_RestoreConfig(void) 
  89:.\Generated_Source\PSoC4/INTERNAL_STEP_1_PM.c **** {
  75              		.loc 1 89 0
  76              		.cfi_startproc
  77 0000 80B5     		push	{r7, lr}
  78              		.cfi_def_cfa_offset 8
  79              		.cfi_offset 7, -8
  80              		.cfi_offset 14, -4
  81 0002 00AF     		add	r7, sp, #0
ARM GAS  C:\Users\TECHCO~1\AppData\Local\Temp\ccmZhRrf.s 			page 4


  82              		.cfi_def_cfa_register 7
  90:.\Generated_Source\PSoC4/INTERNAL_STEP_1_PM.c ****         #if(!INTERNAL_STEP_1_UsingFixedFunction)
  91:.\Generated_Source\PSoC4/INTERNAL_STEP_1_PM.c ****             #if(!INTERNAL_STEP_1_PWMModeIsCenterAligned)
  92:.\Generated_Source\PSoC4/INTERNAL_STEP_1_PM.c ****                 INTERNAL_STEP_1_WritePeriod(INTERNAL_STEP_1_backup.PWMPeriod);
  83              		.loc 1 92 0
  84 0004 084B     		ldr	r3, .L5
  85 0006 9B88     		ldrh	r3, [r3, #4]
  86 0008 181C     		mov	r0, r3
  87 000a FFF7FEFF 		bl	INTERNAL_STEP_1_WritePeriod
  93:.\Generated_Source\PSoC4/INTERNAL_STEP_1_PM.c ****             #endif /* (!INTERNAL_STEP_1_PWMModeIsCenterAligned) */
  94:.\Generated_Source\PSoC4/INTERNAL_STEP_1_PM.c **** 
  95:.\Generated_Source\PSoC4/INTERNAL_STEP_1_PM.c ****             INTERNAL_STEP_1_WriteCounter(INTERNAL_STEP_1_backup.PWMUdb);
  88              		.loc 1 95 0
  89 000e 064B     		ldr	r3, .L5
  90 0010 5B88     		ldrh	r3, [r3, #2]
  91 0012 181C     		mov	r0, r3
  92 0014 FFF7FEFF 		bl	INTERNAL_STEP_1_WriteCounter
  96:.\Generated_Source\PSoC4/INTERNAL_STEP_1_PM.c **** 
  97:.\Generated_Source\PSoC4/INTERNAL_STEP_1_PM.c ****             #if (INTERNAL_STEP_1_UseStatus)
  98:.\Generated_Source\PSoC4/INTERNAL_STEP_1_PM.c ****                 INTERNAL_STEP_1_STATUS_MASK = INTERNAL_STEP_1_backup.InterruptMaskValue;
  99:.\Generated_Source\PSoC4/INTERNAL_STEP_1_PM.c ****             #endif /* (INTERNAL_STEP_1_UseStatus) */
 100:.\Generated_Source\PSoC4/INTERNAL_STEP_1_PM.c **** 
 101:.\Generated_Source\PSoC4/INTERNAL_STEP_1_PM.c ****             #if(INTERNAL_STEP_1_DeadBandMode == INTERNAL_STEP_1__B_PWM__DBM_256_CLOCKS || \
 102:.\Generated_Source\PSoC4/INTERNAL_STEP_1_PM.c ****                 INTERNAL_STEP_1_DeadBandMode == INTERNAL_STEP_1__B_PWM__DBM_2_4_CLOCKS)
 103:.\Generated_Source\PSoC4/INTERNAL_STEP_1_PM.c ****                 INTERNAL_STEP_1_WriteDeadTime(INTERNAL_STEP_1_backup.PWMdeadBandValue);
 104:.\Generated_Source\PSoC4/INTERNAL_STEP_1_PM.c ****             #endif /* deadband count is either 2-4 clocks or 256 clocks */
 105:.\Generated_Source\PSoC4/INTERNAL_STEP_1_PM.c **** 
 106:.\Generated_Source\PSoC4/INTERNAL_STEP_1_PM.c ****             #if(INTERNAL_STEP_1_KillModeMinTime)
 107:.\Generated_Source\PSoC4/INTERNAL_STEP_1_PM.c ****                 INTERNAL_STEP_1_WriteKillTime(INTERNAL_STEP_1_backup.PWMKillCounterPeriod);
 108:.\Generated_Source\PSoC4/INTERNAL_STEP_1_PM.c ****             #endif /* (INTERNAL_STEP_1_KillModeMinTime) */
 109:.\Generated_Source\PSoC4/INTERNAL_STEP_1_PM.c **** 
 110:.\Generated_Source\PSoC4/INTERNAL_STEP_1_PM.c ****             #if(INTERNAL_STEP_1_UseControl)
 111:.\Generated_Source\PSoC4/INTERNAL_STEP_1_PM.c ****                 INTERNAL_STEP_1_WriteControlRegister(INTERNAL_STEP_1_backup.PWMControlRegister);
  93              		.loc 1 111 0
  94 0018 034B     		ldr	r3, .L5
  95 001a 9B79     		ldrb	r3, [r3, #6]
  96 001c 181C     		mov	r0, r3
  97 001e FFF7FEFF 		bl	INTERNAL_STEP_1_WriteControlRegister
 112:.\Generated_Source\PSoC4/INTERNAL_STEP_1_PM.c ****             #endif /* (INTERNAL_STEP_1_UseControl) */
 113:.\Generated_Source\PSoC4/INTERNAL_STEP_1_PM.c ****         #endif  /* (!INTERNAL_STEP_1_UsingFixedFunction) */
 114:.\Generated_Source\PSoC4/INTERNAL_STEP_1_PM.c ****     }
  98              		.loc 1 114 0
  99 0022 BD46     		mov	sp, r7
 100              		@ sp needed
 101 0024 80BD     		pop	{r7, pc}
 102              	.L6:
 103 0026 C046     		.align	2
 104              	.L5:
 105 0028 00000000 		.word	INTERNAL_STEP_1_backup
 106              		.cfi_endproc
 107              	.LFE1:
 108              		.size	INTERNAL_STEP_1_RestoreConfig, .-INTERNAL_STEP_1_RestoreConfig
 109              		.section	.text.INTERNAL_STEP_1_Sleep,"ax",%progbits
 110              		.align	2
 111              		.global	INTERNAL_STEP_1_Sleep
 112              		.code	16
 113              		.thumb_func
ARM GAS  C:\Users\TECHCO~1\AppData\Local\Temp\ccmZhRrf.s 			page 5


 114              		.type	INTERNAL_STEP_1_Sleep, %function
 115              	INTERNAL_STEP_1_Sleep:
 116              	.LFB2:
 115:.\Generated_Source\PSoC4/INTERNAL_STEP_1_PM.c **** 
 116:.\Generated_Source\PSoC4/INTERNAL_STEP_1_PM.c **** 
 117:.\Generated_Source\PSoC4/INTERNAL_STEP_1_PM.c **** /*******************************************************************************
 118:.\Generated_Source\PSoC4/INTERNAL_STEP_1_PM.c **** * Function Name: INTERNAL_STEP_1_Sleep
 119:.\Generated_Source\PSoC4/INTERNAL_STEP_1_PM.c **** ********************************************************************************
 120:.\Generated_Source\PSoC4/INTERNAL_STEP_1_PM.c **** *
 121:.\Generated_Source\PSoC4/INTERNAL_STEP_1_PM.c **** * Summary:
 122:.\Generated_Source\PSoC4/INTERNAL_STEP_1_PM.c **** *  Disables block's operation and saves the user configuration. Should be called
 123:.\Generated_Source\PSoC4/INTERNAL_STEP_1_PM.c **** *  just prior to entering sleep.
 124:.\Generated_Source\PSoC4/INTERNAL_STEP_1_PM.c **** *
 125:.\Generated_Source\PSoC4/INTERNAL_STEP_1_PM.c **** * Parameters:
 126:.\Generated_Source\PSoC4/INTERNAL_STEP_1_PM.c **** *  None
 127:.\Generated_Source\PSoC4/INTERNAL_STEP_1_PM.c **** *
 128:.\Generated_Source\PSoC4/INTERNAL_STEP_1_PM.c **** * Return:
 129:.\Generated_Source\PSoC4/INTERNAL_STEP_1_PM.c **** *  None
 130:.\Generated_Source\PSoC4/INTERNAL_STEP_1_PM.c **** *
 131:.\Generated_Source\PSoC4/INTERNAL_STEP_1_PM.c **** * Global variables:
 132:.\Generated_Source\PSoC4/INTERNAL_STEP_1_PM.c **** *  INTERNAL_STEP_1_backup.PWMEnableState:  Is modified depending on the enable
 133:.\Generated_Source\PSoC4/INTERNAL_STEP_1_PM.c **** *  state of the block before entering sleep mode.
 134:.\Generated_Source\PSoC4/INTERNAL_STEP_1_PM.c **** *
 135:.\Generated_Source\PSoC4/INTERNAL_STEP_1_PM.c **** *******************************************************************************/
 136:.\Generated_Source\PSoC4/INTERNAL_STEP_1_PM.c **** void INTERNAL_STEP_1_Sleep(void) 
 137:.\Generated_Source\PSoC4/INTERNAL_STEP_1_PM.c **** {
 117              		.loc 1 137 0
 118              		.cfi_startproc
 119 0000 80B5     		push	{r7, lr}
 120              		.cfi_def_cfa_offset 8
 121              		.cfi_offset 7, -8
 122              		.cfi_offset 14, -4
 123 0002 00AF     		add	r7, sp, #0
 124              		.cfi_def_cfa_register 7
 138:.\Generated_Source\PSoC4/INTERNAL_STEP_1_PM.c ****     #if(INTERNAL_STEP_1_UseControl)
 139:.\Generated_Source\PSoC4/INTERNAL_STEP_1_PM.c ****         if(INTERNAL_STEP_1_CTRL_ENABLE == (INTERNAL_STEP_1_CONTROL & INTERNAL_STEP_1_CTRL_ENABLE))
 125              		.loc 1 139 0
 126 0004 094B     		ldr	r3, .L10
 127 0006 1B78     		ldrb	r3, [r3]
 128 0008 DBB2     		uxtb	r3, r3
 129 000a DBB2     		uxtb	r3, r3
 130 000c 5BB2     		sxtb	r3, r3
 131 000e 002B     		cmp	r3, #0
 132 0010 03DA     		bge	.L8
 140:.\Generated_Source\PSoC4/INTERNAL_STEP_1_PM.c ****         {
 141:.\Generated_Source\PSoC4/INTERNAL_STEP_1_PM.c ****             /*Component is enabled */
 142:.\Generated_Source\PSoC4/INTERNAL_STEP_1_PM.c ****             INTERNAL_STEP_1_backup.PWMEnableState = 1u;
 133              		.loc 1 142 0
 134 0012 074B     		ldr	r3, .L10+4
 135 0014 0122     		mov	r2, #1
 136 0016 1A70     		strb	r2, [r3]
 137 0018 02E0     		b	.L9
 138              	.L8:
 143:.\Generated_Source\PSoC4/INTERNAL_STEP_1_PM.c ****         }
 144:.\Generated_Source\PSoC4/INTERNAL_STEP_1_PM.c ****         else
 145:.\Generated_Source\PSoC4/INTERNAL_STEP_1_PM.c ****         {
 146:.\Generated_Source\PSoC4/INTERNAL_STEP_1_PM.c ****             /* Component is disabled */
ARM GAS  C:\Users\TECHCO~1\AppData\Local\Temp\ccmZhRrf.s 			page 6


 147:.\Generated_Source\PSoC4/INTERNAL_STEP_1_PM.c ****             INTERNAL_STEP_1_backup.PWMEnableState = 0u;
 139              		.loc 1 147 0
 140 001a 054B     		ldr	r3, .L10+4
 141 001c 0022     		mov	r2, #0
 142 001e 1A70     		strb	r2, [r3]
 143              	.L9:
 148:.\Generated_Source\PSoC4/INTERNAL_STEP_1_PM.c ****         }
 149:.\Generated_Source\PSoC4/INTERNAL_STEP_1_PM.c ****     #endif /* (INTERNAL_STEP_1_UseControl) */
 150:.\Generated_Source\PSoC4/INTERNAL_STEP_1_PM.c **** 
 151:.\Generated_Source\PSoC4/INTERNAL_STEP_1_PM.c ****     /* Stop component */
 152:.\Generated_Source\PSoC4/INTERNAL_STEP_1_PM.c ****     INTERNAL_STEP_1_Stop();
 144              		.loc 1 152 0
 145 0020 FFF7FEFF 		bl	INTERNAL_STEP_1_Stop
 153:.\Generated_Source\PSoC4/INTERNAL_STEP_1_PM.c **** 
 154:.\Generated_Source\PSoC4/INTERNAL_STEP_1_PM.c ****     /* Save registers configuration */
 155:.\Generated_Source\PSoC4/INTERNAL_STEP_1_PM.c ****     INTERNAL_STEP_1_SaveConfig();
 146              		.loc 1 155 0
 147 0024 FFF7FEFF 		bl	INTERNAL_STEP_1_SaveConfig
 156:.\Generated_Source\PSoC4/INTERNAL_STEP_1_PM.c **** }
 148              		.loc 1 156 0
 149 0028 BD46     		mov	sp, r7
 150              		@ sp needed
 151 002a 80BD     		pop	{r7, pc}
 152              	.L11:
 153              		.align	2
 154              	.L10:
 155 002c 71000F40 		.word	1074724977
 156 0030 00000000 		.word	INTERNAL_STEP_1_backup
 157              		.cfi_endproc
 158              	.LFE2:
 159              		.size	INTERNAL_STEP_1_Sleep, .-INTERNAL_STEP_1_Sleep
 160              		.section	.text.INTERNAL_STEP_1_Wakeup,"ax",%progbits
 161              		.align	2
 162              		.global	INTERNAL_STEP_1_Wakeup
 163              		.code	16
 164              		.thumb_func
 165              		.type	INTERNAL_STEP_1_Wakeup, %function
 166              	INTERNAL_STEP_1_Wakeup:
 167              	.LFB3:
 157:.\Generated_Source\PSoC4/INTERNAL_STEP_1_PM.c **** 
 158:.\Generated_Source\PSoC4/INTERNAL_STEP_1_PM.c **** 
 159:.\Generated_Source\PSoC4/INTERNAL_STEP_1_PM.c **** /*******************************************************************************
 160:.\Generated_Source\PSoC4/INTERNAL_STEP_1_PM.c **** * Function Name: INTERNAL_STEP_1_Wakeup
 161:.\Generated_Source\PSoC4/INTERNAL_STEP_1_PM.c **** ********************************************************************************
 162:.\Generated_Source\PSoC4/INTERNAL_STEP_1_PM.c **** *
 163:.\Generated_Source\PSoC4/INTERNAL_STEP_1_PM.c **** * Summary:
 164:.\Generated_Source\PSoC4/INTERNAL_STEP_1_PM.c **** *  Restores and enables the user configuration. Should be called just after
 165:.\Generated_Source\PSoC4/INTERNAL_STEP_1_PM.c **** *  awaking from sleep.
 166:.\Generated_Source\PSoC4/INTERNAL_STEP_1_PM.c **** *
 167:.\Generated_Source\PSoC4/INTERNAL_STEP_1_PM.c **** * Parameters:
 168:.\Generated_Source\PSoC4/INTERNAL_STEP_1_PM.c **** *  None
 169:.\Generated_Source\PSoC4/INTERNAL_STEP_1_PM.c **** *
 170:.\Generated_Source\PSoC4/INTERNAL_STEP_1_PM.c **** * Return:
 171:.\Generated_Source\PSoC4/INTERNAL_STEP_1_PM.c **** *  None
 172:.\Generated_Source\PSoC4/INTERNAL_STEP_1_PM.c **** *
 173:.\Generated_Source\PSoC4/INTERNAL_STEP_1_PM.c **** * Global variables:
 174:.\Generated_Source\PSoC4/INTERNAL_STEP_1_PM.c **** *  INTERNAL_STEP_1_backup.pwmEnable:  Is used to restore the enable state of
ARM GAS  C:\Users\TECHCO~1\AppData\Local\Temp\ccmZhRrf.s 			page 7


 175:.\Generated_Source\PSoC4/INTERNAL_STEP_1_PM.c **** *  block on wakeup from sleep mode.
 176:.\Generated_Source\PSoC4/INTERNAL_STEP_1_PM.c **** *
 177:.\Generated_Source\PSoC4/INTERNAL_STEP_1_PM.c **** *******************************************************************************/
 178:.\Generated_Source\PSoC4/INTERNAL_STEP_1_PM.c **** void INTERNAL_STEP_1_Wakeup(void) 
 179:.\Generated_Source\PSoC4/INTERNAL_STEP_1_PM.c **** {
 168              		.loc 1 179 0
 169              		.cfi_startproc
 170 0000 80B5     		push	{r7, lr}
 171              		.cfi_def_cfa_offset 8
 172              		.cfi_offset 7, -8
 173              		.cfi_offset 14, -4
 174 0002 00AF     		add	r7, sp, #0
 175              		.cfi_def_cfa_register 7
 180:.\Generated_Source\PSoC4/INTERNAL_STEP_1_PM.c ****      /* Restore registers values */
 181:.\Generated_Source\PSoC4/INTERNAL_STEP_1_PM.c ****     INTERNAL_STEP_1_RestoreConfig();
 176              		.loc 1 181 0
 177 0004 FFF7FEFF 		bl	INTERNAL_STEP_1_RestoreConfig
 182:.\Generated_Source\PSoC4/INTERNAL_STEP_1_PM.c **** 
 183:.\Generated_Source\PSoC4/INTERNAL_STEP_1_PM.c ****     if(INTERNAL_STEP_1_backup.PWMEnableState != 0u)
 178              		.loc 1 183 0
 179 0008 034B     		ldr	r3, .L14
 180 000a 1B78     		ldrb	r3, [r3]
 181 000c 002B     		cmp	r3, #0
 182 000e 01D0     		beq	.L12
 184:.\Generated_Source\PSoC4/INTERNAL_STEP_1_PM.c ****     {
 185:.\Generated_Source\PSoC4/INTERNAL_STEP_1_PM.c ****         /* Enable component's operation */
 186:.\Generated_Source\PSoC4/INTERNAL_STEP_1_PM.c ****         INTERNAL_STEP_1_Enable();
 183              		.loc 1 186 0
 184 0010 FFF7FEFF 		bl	INTERNAL_STEP_1_Enable
 185              	.L12:
 187:.\Generated_Source\PSoC4/INTERNAL_STEP_1_PM.c ****     } /* Do nothing if component's block was disabled before */
 188:.\Generated_Source\PSoC4/INTERNAL_STEP_1_PM.c **** 
 189:.\Generated_Source\PSoC4/INTERNAL_STEP_1_PM.c **** }
 186              		.loc 1 189 0
 187 0014 BD46     		mov	sp, r7
 188              		@ sp needed
 189 0016 80BD     		pop	{r7, pc}
 190              	.L15:
 191              		.align	2
 192              	.L14:
 193 0018 00000000 		.word	INTERNAL_STEP_1_backup
 194              		.cfi_endproc
 195              	.LFE3:
 196              		.size	INTERNAL_STEP_1_Wakeup, .-INTERNAL_STEP_1_Wakeup
 197              		.text
 198              	.Letext0:
 199              		.file 2 ".\\Generated_Source\\PSoC4\\cytypes.h"
 200              		.file 3 ".\\Generated_Source\\PSoC4\\INTERNAL_STEP_1.h"