ARM GAS  C:\Users\TECHCO~1\AppData\Local\Temp\ccDEXhQe.s 			page 1


   1              		.cpu cortex-m0
   2              		.fpu softvfp
   3              		.eabi_attribute 20, 1
   4              		.eabi_attribute 21, 1
   5              		.eabi_attribute 23, 3
   6              		.eabi_attribute 24, 1
   7              		.eabi_attribute 25, 1
   8              		.eabi_attribute 26, 1
   9              		.eabi_attribute 30, 6
  10              		.eabi_attribute 34, 0
  11              		.eabi_attribute 18, 4
  12              		.code	16
  13              		.file	"INTERNAL_STEP_1.c"
  14              		.text
  15              	.Ltext0:
  16              		.cfi_sections	.debug_frame
  17              		.global	INTERNAL_STEP_1_initVar
  18              		.bss
  19              		.type	INTERNAL_STEP_1_initVar, %object
  20              		.size	INTERNAL_STEP_1_initVar, 1
  21              	INTERNAL_STEP_1_initVar:
  22 0000 00       		.space	1
  23              		.section	.text.INTERNAL_STEP_1_Start,"ax",%progbits
  24              		.align	2
  25              		.global	INTERNAL_STEP_1_Start
  26              		.code	16
  27              		.thumb_func
  28              		.type	INTERNAL_STEP_1_Start, %function
  29              	INTERNAL_STEP_1_Start:
  30              	.LFB0:
  31              		.file 1 ".\\Generated_Source\\PSoC4\\INTERNAL_STEP_1.c"
   1:.\Generated_Source\PSoC4/INTERNAL_STEP_1.c **** /*******************************************************************************
   2:.\Generated_Source\PSoC4/INTERNAL_STEP_1.c **** * File Name: INTERNAL_STEP_1.c
   3:.\Generated_Source\PSoC4/INTERNAL_STEP_1.c **** * Version 3.30
   4:.\Generated_Source\PSoC4/INTERNAL_STEP_1.c **** *
   5:.\Generated_Source\PSoC4/INTERNAL_STEP_1.c **** * Description:
   6:.\Generated_Source\PSoC4/INTERNAL_STEP_1.c **** *  The PWM User Module consist of an 8 or 16-bit counter with two 8 or 16-bit
   7:.\Generated_Source\PSoC4/INTERNAL_STEP_1.c **** *  comparitors. Each instance of this user module is capable of generating
   8:.\Generated_Source\PSoC4/INTERNAL_STEP_1.c **** *  two PWM outputs with the same period. The pulse width is selectable between
   9:.\Generated_Source\PSoC4/INTERNAL_STEP_1.c **** *  1 and 255/65535. The period is selectable between 2 and 255/65536 clocks.
  10:.\Generated_Source\PSoC4/INTERNAL_STEP_1.c **** *  The compare value output may be configured to be active when the present
  11:.\Generated_Source\PSoC4/INTERNAL_STEP_1.c **** *  counter is less than or less than/equal to the compare value.
  12:.\Generated_Source\PSoC4/INTERNAL_STEP_1.c **** *  A terminal count output is also provided. It generates a pulse one clock
  13:.\Generated_Source\PSoC4/INTERNAL_STEP_1.c **** *  width wide when the counter is equal to zero.
  14:.\Generated_Source\PSoC4/INTERNAL_STEP_1.c **** *
  15:.\Generated_Source\PSoC4/INTERNAL_STEP_1.c **** * Note:
  16:.\Generated_Source\PSoC4/INTERNAL_STEP_1.c **** *
  17:.\Generated_Source\PSoC4/INTERNAL_STEP_1.c **** *******************************************************************************
  18:.\Generated_Source\PSoC4/INTERNAL_STEP_1.c **** * Copyright 2008-2014, Cypress Semiconductor Corporation.  All rights reserved.
  19:.\Generated_Source\PSoC4/INTERNAL_STEP_1.c **** * You may use this file only in accordance with the license, terms, conditions,
  20:.\Generated_Source\PSoC4/INTERNAL_STEP_1.c **** * disclaimers, and limitations in the end user license agreement accompanying
  21:.\Generated_Source\PSoC4/INTERNAL_STEP_1.c **** * the software package with which this file was provided.
  22:.\Generated_Source\PSoC4/INTERNAL_STEP_1.c **** ********************************************************************************/
  23:.\Generated_Source\PSoC4/INTERNAL_STEP_1.c **** 
  24:.\Generated_Source\PSoC4/INTERNAL_STEP_1.c **** #include "INTERNAL_STEP_1.h"
  25:.\Generated_Source\PSoC4/INTERNAL_STEP_1.c **** 
  26:.\Generated_Source\PSoC4/INTERNAL_STEP_1.c **** /* Error message for removed <resource> through optimization */
ARM GAS  C:\Users\TECHCO~1\AppData\Local\Temp\ccDEXhQe.s 			page 2


  27:.\Generated_Source\PSoC4/INTERNAL_STEP_1.c **** #ifdef INTERNAL_STEP_1_PWMUDB_genblk1_ctrlreg__REMOVED
  28:.\Generated_Source\PSoC4/INTERNAL_STEP_1.c ****     #error PWM_v3_30 detected with a constant 0 for the enable or \
  29:.\Generated_Source\PSoC4/INTERNAL_STEP_1.c ****          constant 1 for reset. This will prevent the component from operating.
  30:.\Generated_Source\PSoC4/INTERNAL_STEP_1.c **** #endif /* INTERNAL_STEP_1_PWMUDB_genblk1_ctrlreg__REMOVED */
  31:.\Generated_Source\PSoC4/INTERNAL_STEP_1.c **** 
  32:.\Generated_Source\PSoC4/INTERNAL_STEP_1.c **** uint8 INTERNAL_STEP_1_initVar = 0u;
  33:.\Generated_Source\PSoC4/INTERNAL_STEP_1.c **** 
  34:.\Generated_Source\PSoC4/INTERNAL_STEP_1.c **** 
  35:.\Generated_Source\PSoC4/INTERNAL_STEP_1.c **** /*******************************************************************************
  36:.\Generated_Source\PSoC4/INTERNAL_STEP_1.c **** * Function Name: INTERNAL_STEP_1_Start
  37:.\Generated_Source\PSoC4/INTERNAL_STEP_1.c **** ********************************************************************************
  38:.\Generated_Source\PSoC4/INTERNAL_STEP_1.c **** *
  39:.\Generated_Source\PSoC4/INTERNAL_STEP_1.c **** * Summary:
  40:.\Generated_Source\PSoC4/INTERNAL_STEP_1.c **** *  The start function initializes the pwm with the default values, the
  41:.\Generated_Source\PSoC4/INTERNAL_STEP_1.c **** *  enables the counter to begin counting.  It does not enable interrupts,
  42:.\Generated_Source\PSoC4/INTERNAL_STEP_1.c **** *  the EnableInt command should be called if interrupt generation is required.
  43:.\Generated_Source\PSoC4/INTERNAL_STEP_1.c **** *
  44:.\Generated_Source\PSoC4/INTERNAL_STEP_1.c **** * Parameters:
  45:.\Generated_Source\PSoC4/INTERNAL_STEP_1.c **** *  None
  46:.\Generated_Source\PSoC4/INTERNAL_STEP_1.c **** *
  47:.\Generated_Source\PSoC4/INTERNAL_STEP_1.c **** * Return:
  48:.\Generated_Source\PSoC4/INTERNAL_STEP_1.c **** *  None
  49:.\Generated_Source\PSoC4/INTERNAL_STEP_1.c **** *
  50:.\Generated_Source\PSoC4/INTERNAL_STEP_1.c **** * Global variables:
  51:.\Generated_Source\PSoC4/INTERNAL_STEP_1.c **** *  INTERNAL_STEP_1_initVar: Is modified when this function is called for the
  52:.\Generated_Source\PSoC4/INTERNAL_STEP_1.c **** *   first time. Is used to ensure that initialization happens only once.
  53:.\Generated_Source\PSoC4/INTERNAL_STEP_1.c **** *
  54:.\Generated_Source\PSoC4/INTERNAL_STEP_1.c **** *******************************************************************************/
  55:.\Generated_Source\PSoC4/INTERNAL_STEP_1.c **** void INTERNAL_STEP_1_Start(void) 
  56:.\Generated_Source\PSoC4/INTERNAL_STEP_1.c **** {
  32              		.loc 1 56 0
  33              		.cfi_startproc
  34 0000 80B5     		push	{r7, lr}
  35              		.cfi_def_cfa_offset 8
  36              		.cfi_offset 7, -8
  37              		.cfi_offset 14, -4
  38 0002 00AF     		add	r7, sp, #0
  39              		.cfi_def_cfa_register 7
  57:.\Generated_Source\PSoC4/INTERNAL_STEP_1.c ****     /* If not Initialized then initialize all required hardware and software */
  58:.\Generated_Source\PSoC4/INTERNAL_STEP_1.c ****     if(INTERNAL_STEP_1_initVar == 0u)
  40              		.loc 1 58 0
  41 0004 064B     		ldr	r3, .L3
  42 0006 1B78     		ldrb	r3, [r3]
  43 0008 002B     		cmp	r3, #0
  44 000a 04D1     		bne	.L2
  59:.\Generated_Source\PSoC4/INTERNAL_STEP_1.c ****     {
  60:.\Generated_Source\PSoC4/INTERNAL_STEP_1.c ****         INTERNAL_STEP_1_Init();
  45              		.loc 1 60 0
  46 000c FFF7FEFF 		bl	INTERNAL_STEP_1_Init
  61:.\Generated_Source\PSoC4/INTERNAL_STEP_1.c ****         INTERNAL_STEP_1_initVar = 1u;
  47              		.loc 1 61 0
  48 0010 034B     		ldr	r3, .L3
  49 0012 0122     		mov	r2, #1
  50 0014 1A70     		strb	r2, [r3]
  51              	.L2:
  62:.\Generated_Source\PSoC4/INTERNAL_STEP_1.c ****     }
  63:.\Generated_Source\PSoC4/INTERNAL_STEP_1.c ****     INTERNAL_STEP_1_Enable();
ARM GAS  C:\Users\TECHCO~1\AppData\Local\Temp\ccDEXhQe.s 			page 3


  52              		.loc 1 63 0
  53 0016 FFF7FEFF 		bl	INTERNAL_STEP_1_Enable
  64:.\Generated_Source\PSoC4/INTERNAL_STEP_1.c **** 
  65:.\Generated_Source\PSoC4/INTERNAL_STEP_1.c **** }
  54              		.loc 1 65 0
  55 001a BD46     		mov	sp, r7
  56              		@ sp needed
  57 001c 80BD     		pop	{r7, pc}
  58              	.L4:
  59 001e C046     		.align	2
  60              	.L3:
  61 0020 00000000 		.word	INTERNAL_STEP_1_initVar
  62              		.cfi_endproc
  63              	.LFE0:
  64              		.size	INTERNAL_STEP_1_Start, .-INTERNAL_STEP_1_Start
  65              		.section	.text.INTERNAL_STEP_1_Init,"ax",%progbits
  66              		.align	2
  67              		.global	INTERNAL_STEP_1_Init
  68              		.code	16
  69              		.thumb_func
  70              		.type	INTERNAL_STEP_1_Init, %function
  71              	INTERNAL_STEP_1_Init:
  72              	.LFB1:
  66:.\Generated_Source\PSoC4/INTERNAL_STEP_1.c **** 
  67:.\Generated_Source\PSoC4/INTERNAL_STEP_1.c **** 
  68:.\Generated_Source\PSoC4/INTERNAL_STEP_1.c **** /*******************************************************************************
  69:.\Generated_Source\PSoC4/INTERNAL_STEP_1.c **** * Function Name: INTERNAL_STEP_1_Init
  70:.\Generated_Source\PSoC4/INTERNAL_STEP_1.c **** ********************************************************************************
  71:.\Generated_Source\PSoC4/INTERNAL_STEP_1.c **** *
  72:.\Generated_Source\PSoC4/INTERNAL_STEP_1.c **** * Summary:
  73:.\Generated_Source\PSoC4/INTERNAL_STEP_1.c **** *  Initialize component's parameters to the parameters set by user in the
  74:.\Generated_Source\PSoC4/INTERNAL_STEP_1.c **** *  customizer of the component placed onto schematic. Usually called in
  75:.\Generated_Source\PSoC4/INTERNAL_STEP_1.c **** *  INTERNAL_STEP_1_Start().
  76:.\Generated_Source\PSoC4/INTERNAL_STEP_1.c **** *
  77:.\Generated_Source\PSoC4/INTERNAL_STEP_1.c **** * Parameters:
  78:.\Generated_Source\PSoC4/INTERNAL_STEP_1.c **** *  None
  79:.\Generated_Source\PSoC4/INTERNAL_STEP_1.c **** *
  80:.\Generated_Source\PSoC4/INTERNAL_STEP_1.c **** * Return:
  81:.\Generated_Source\PSoC4/INTERNAL_STEP_1.c **** *  None
  82:.\Generated_Source\PSoC4/INTERNAL_STEP_1.c **** *
  83:.\Generated_Source\PSoC4/INTERNAL_STEP_1.c **** *******************************************************************************/
  84:.\Generated_Source\PSoC4/INTERNAL_STEP_1.c **** void INTERNAL_STEP_1_Init(void) 
  85:.\Generated_Source\PSoC4/INTERNAL_STEP_1.c **** {
  73              		.loc 1 85 0
  74              		.cfi_startproc
  75 0000 80B5     		push	{r7, lr}
  76              		.cfi_def_cfa_offset 8
  77              		.cfi_offset 7, -8
  78              		.cfi_offset 14, -4
  79 0002 82B0     		sub	sp, sp, #8
  80              		.cfi_def_cfa_offset 16
  81 0004 00AF     		add	r7, sp, #0
  82              		.cfi_def_cfa_register 7
  86:.\Generated_Source\PSoC4/INTERNAL_STEP_1.c ****     #if (INTERNAL_STEP_1_UsingFixedFunction || INTERNAL_STEP_1_UseControl)
  87:.\Generated_Source\PSoC4/INTERNAL_STEP_1.c ****         uint8 ctrl;
  88:.\Generated_Source\PSoC4/INTERNAL_STEP_1.c ****     #endif /* (INTERNAL_STEP_1_UsingFixedFunction || INTERNAL_STEP_1_UseControl) */
  89:.\Generated_Source\PSoC4/INTERNAL_STEP_1.c **** 
ARM GAS  C:\Users\TECHCO~1\AppData\Local\Temp\ccDEXhQe.s 			page 4


  90:.\Generated_Source\PSoC4/INTERNAL_STEP_1.c ****     #if(!INTERNAL_STEP_1_UsingFixedFunction)
  91:.\Generated_Source\PSoC4/INTERNAL_STEP_1.c ****         #if(INTERNAL_STEP_1_UseStatus)
  92:.\Generated_Source\PSoC4/INTERNAL_STEP_1.c ****             /* Interrupt State Backup for Critical Region*/
  93:.\Generated_Source\PSoC4/INTERNAL_STEP_1.c ****             uint8 INTERNAL_STEP_1_interruptState;
  94:.\Generated_Source\PSoC4/INTERNAL_STEP_1.c ****         #endif /* (INTERNAL_STEP_1_UseStatus) */
  95:.\Generated_Source\PSoC4/INTERNAL_STEP_1.c ****     #endif /* (!INTERNAL_STEP_1_UsingFixedFunction) */
  96:.\Generated_Source\PSoC4/INTERNAL_STEP_1.c **** 
  97:.\Generated_Source\PSoC4/INTERNAL_STEP_1.c ****     #if (INTERNAL_STEP_1_UsingFixedFunction)
  98:.\Generated_Source\PSoC4/INTERNAL_STEP_1.c ****         /* You are allowed to write the compare value (FF only) */
  99:.\Generated_Source\PSoC4/INTERNAL_STEP_1.c ****         INTERNAL_STEP_1_CONTROL |= INTERNAL_STEP_1_CFG0_MODE;
 100:.\Generated_Source\PSoC4/INTERNAL_STEP_1.c ****         #if (INTERNAL_STEP_1_DeadBand2_4)
 101:.\Generated_Source\PSoC4/INTERNAL_STEP_1.c ****             INTERNAL_STEP_1_CONTROL |= INTERNAL_STEP_1_CFG0_DB;
 102:.\Generated_Source\PSoC4/INTERNAL_STEP_1.c ****         #endif /* (INTERNAL_STEP_1_DeadBand2_4) */
 103:.\Generated_Source\PSoC4/INTERNAL_STEP_1.c **** 
 104:.\Generated_Source\PSoC4/INTERNAL_STEP_1.c ****         ctrl = INTERNAL_STEP_1_CONTROL3 & ((uint8 )(~INTERNAL_STEP_1_CTRL_CMPMODE1_MASK));
 105:.\Generated_Source\PSoC4/INTERNAL_STEP_1.c ****         INTERNAL_STEP_1_CONTROL3 = ctrl | INTERNAL_STEP_1_DEFAULT_COMPARE1_MODE;
 106:.\Generated_Source\PSoC4/INTERNAL_STEP_1.c **** 
 107:.\Generated_Source\PSoC4/INTERNAL_STEP_1.c ****          /* Clear and Set SYNCTC and SYNCCMP bits of RT1 register */
 108:.\Generated_Source\PSoC4/INTERNAL_STEP_1.c ****         INTERNAL_STEP_1_RT1 &= ((uint8)(~INTERNAL_STEP_1_RT1_MASK));
 109:.\Generated_Source\PSoC4/INTERNAL_STEP_1.c ****         INTERNAL_STEP_1_RT1 |= INTERNAL_STEP_1_SYNC;
 110:.\Generated_Source\PSoC4/INTERNAL_STEP_1.c **** 
 111:.\Generated_Source\PSoC4/INTERNAL_STEP_1.c ****         /*Enable DSI Sync all all inputs of the PWM*/
 112:.\Generated_Source\PSoC4/INTERNAL_STEP_1.c ****         INTERNAL_STEP_1_RT1 &= ((uint8)(~INTERNAL_STEP_1_SYNCDSI_MASK));
 113:.\Generated_Source\PSoC4/INTERNAL_STEP_1.c ****         INTERNAL_STEP_1_RT1 |= INTERNAL_STEP_1_SYNCDSI_EN;
 114:.\Generated_Source\PSoC4/INTERNAL_STEP_1.c **** 
 115:.\Generated_Source\PSoC4/INTERNAL_STEP_1.c ****     #elif (INTERNAL_STEP_1_UseControl)
 116:.\Generated_Source\PSoC4/INTERNAL_STEP_1.c ****         /* Set the default compare mode defined in the parameter */
 117:.\Generated_Source\PSoC4/INTERNAL_STEP_1.c ****         ctrl = INTERNAL_STEP_1_CONTROL & ((uint8)(~INTERNAL_STEP_1_CTRL_CMPMODE2_MASK)) &
  83              		.loc 1 117 0
  84 0006 184B     		ldr	r3, .L6
  85 0008 1B78     		ldrb	r3, [r3]
  86 000a DAB2     		uxtb	r2, r3
  87 000c FB1D     		add	r3, r7, #7
  88 000e 3F21     		mov	r1, #63
  89 0010 8A43     		bic	r2, r1
  90 0012 1A70     		strb	r2, [r3]
 118:.\Generated_Source\PSoC4/INTERNAL_STEP_1.c ****                 ((uint8)(~INTERNAL_STEP_1_CTRL_CMPMODE1_MASK));
 119:.\Generated_Source\PSoC4/INTERNAL_STEP_1.c ****         INTERNAL_STEP_1_CONTROL = ctrl | INTERNAL_STEP_1_DEFAULT_COMPARE2_MODE |
  91              		.loc 1 119 0
  92 0014 144A     		ldr	r2, .L6
  93 0016 FB1D     		add	r3, r7, #7
  94 0018 1B78     		ldrb	r3, [r3]
  95 001a 0921     		mov	r1, #9
  96 001c 0B43     		orr	r3, r1
  97 001e DBB2     		uxtb	r3, r3
  98 0020 1370     		strb	r3, [r2]
 120:.\Generated_Source\PSoC4/INTERNAL_STEP_1.c ****                                    INTERNAL_STEP_1_DEFAULT_COMPARE1_MODE;
 121:.\Generated_Source\PSoC4/INTERNAL_STEP_1.c ****     #endif /* (INTERNAL_STEP_1_UsingFixedFunction) */
 122:.\Generated_Source\PSoC4/INTERNAL_STEP_1.c **** 
 123:.\Generated_Source\PSoC4/INTERNAL_STEP_1.c ****     #if (!INTERNAL_STEP_1_UsingFixedFunction)
 124:.\Generated_Source\PSoC4/INTERNAL_STEP_1.c ****         #if (INTERNAL_STEP_1_Resolution == 8)
 125:.\Generated_Source\PSoC4/INTERNAL_STEP_1.c ****             /* Set FIFO 0 to 1 byte register for period*/
 126:.\Generated_Source\PSoC4/INTERNAL_STEP_1.c ****             INTERNAL_STEP_1_AUX_CONTROLDP0 |= (INTERNAL_STEP_1_AUX_CTRL_FIFO0_CLR);
 127:.\Generated_Source\PSoC4/INTERNAL_STEP_1.c ****         #else /* (INTERNAL_STEP_1_Resolution == 16)*/
 128:.\Generated_Source\PSoC4/INTERNAL_STEP_1.c ****             /* Set FIFO 0 to 1 byte register for period */
 129:.\Generated_Source\PSoC4/INTERNAL_STEP_1.c ****             INTERNAL_STEP_1_AUX_CONTROLDP0 |= (INTERNAL_STEP_1_AUX_CTRL_FIFO0_CLR);
  99              		.loc 1 129 0
ARM GAS  C:\Users\TECHCO~1\AppData\Local\Temp\ccDEXhQe.s 			page 5


 100 0022 124A     		ldr	r2, .L6+4
 101 0024 114B     		ldr	r3, .L6+4
 102 0026 1B78     		ldrb	r3, [r3]
 103 0028 DBB2     		uxtb	r3, r3
 104 002a 0121     		mov	r1, #1
 105 002c 0B43     		orr	r3, r1
 106 002e DBB2     		uxtb	r3, r3
 107 0030 1370     		strb	r3, [r2]
 130:.\Generated_Source\PSoC4/INTERNAL_STEP_1.c ****             INTERNAL_STEP_1_AUX_CONTROLDP1 |= (INTERNAL_STEP_1_AUX_CTRL_FIFO0_CLR);
 108              		.loc 1 130 0
 109 0032 0F4A     		ldr	r2, .L6+8
 110 0034 0E4B     		ldr	r3, .L6+8
 111 0036 1B78     		ldrb	r3, [r3]
 112 0038 DBB2     		uxtb	r3, r3
 113 003a 0121     		mov	r1, #1
 114 003c 0B43     		orr	r3, r1
 115 003e DBB2     		uxtb	r3, r3
 116 0040 1370     		strb	r3, [r2]
 131:.\Generated_Source\PSoC4/INTERNAL_STEP_1.c ****         #endif /* (INTERNAL_STEP_1_Resolution == 8) */
 132:.\Generated_Source\PSoC4/INTERNAL_STEP_1.c **** 
 133:.\Generated_Source\PSoC4/INTERNAL_STEP_1.c ****         INTERNAL_STEP_1_WriteCounter(INTERNAL_STEP_1_INIT_PERIOD_VALUE);
 117              		.loc 1 133 0
 118 0042 FA23     		mov	r3, #250
 119 0044 5B01     		lsl	r3, r3, #5
 120 0046 181C     		mov	r0, r3
 121 0048 FFF7FEFF 		bl	INTERNAL_STEP_1_WriteCounter
 134:.\Generated_Source\PSoC4/INTERNAL_STEP_1.c ****     #endif /* (!INTERNAL_STEP_1_UsingFixedFunction) */
 135:.\Generated_Source\PSoC4/INTERNAL_STEP_1.c **** 
 136:.\Generated_Source\PSoC4/INTERNAL_STEP_1.c ****     INTERNAL_STEP_1_WritePeriod(INTERNAL_STEP_1_INIT_PERIOD_VALUE);
 122              		.loc 1 136 0
 123 004c FA23     		mov	r3, #250
 124 004e 5B01     		lsl	r3, r3, #5
 125 0050 181C     		mov	r0, r3
 126 0052 FFF7FEFF 		bl	INTERNAL_STEP_1_WritePeriod
 137:.\Generated_Source\PSoC4/INTERNAL_STEP_1.c **** 
 138:.\Generated_Source\PSoC4/INTERNAL_STEP_1.c ****         #if (INTERNAL_STEP_1_UseOneCompareMode)
 139:.\Generated_Source\PSoC4/INTERNAL_STEP_1.c ****             INTERNAL_STEP_1_WriteCompare(INTERNAL_STEP_1_INIT_COMPARE_VALUE1);
 127              		.loc 1 139 0
 128 0056 FA23     		mov	r3, #250
 129 0058 1B01     		lsl	r3, r3, #4
 130 005a 181C     		mov	r0, r3
 131 005c FFF7FEFF 		bl	INTERNAL_STEP_1_WriteCompare
 140:.\Generated_Source\PSoC4/INTERNAL_STEP_1.c ****         #else
 141:.\Generated_Source\PSoC4/INTERNAL_STEP_1.c ****             INTERNAL_STEP_1_WriteCompare1(INTERNAL_STEP_1_INIT_COMPARE_VALUE1);
 142:.\Generated_Source\PSoC4/INTERNAL_STEP_1.c ****             INTERNAL_STEP_1_WriteCompare2(INTERNAL_STEP_1_INIT_COMPARE_VALUE2);
 143:.\Generated_Source\PSoC4/INTERNAL_STEP_1.c ****         #endif /* (INTERNAL_STEP_1_UseOneCompareMode) */
 144:.\Generated_Source\PSoC4/INTERNAL_STEP_1.c **** 
 145:.\Generated_Source\PSoC4/INTERNAL_STEP_1.c ****         #if (INTERNAL_STEP_1_KillModeMinTime)
 146:.\Generated_Source\PSoC4/INTERNAL_STEP_1.c ****             INTERNAL_STEP_1_WriteKillTime(INTERNAL_STEP_1_MinimumKillTime);
 147:.\Generated_Source\PSoC4/INTERNAL_STEP_1.c ****         #endif /* (INTERNAL_STEP_1_KillModeMinTime) */
 148:.\Generated_Source\PSoC4/INTERNAL_STEP_1.c **** 
 149:.\Generated_Source\PSoC4/INTERNAL_STEP_1.c ****         #if (INTERNAL_STEP_1_DeadBandUsed)
 150:.\Generated_Source\PSoC4/INTERNAL_STEP_1.c ****             INTERNAL_STEP_1_WriteDeadTime(INTERNAL_STEP_1_INIT_DEAD_TIME);
 151:.\Generated_Source\PSoC4/INTERNAL_STEP_1.c ****         #endif /* (INTERNAL_STEP_1_DeadBandUsed) */
 152:.\Generated_Source\PSoC4/INTERNAL_STEP_1.c **** 
 153:.\Generated_Source\PSoC4/INTERNAL_STEP_1.c ****     #if (INTERNAL_STEP_1_UseStatus || INTERNAL_STEP_1_UsingFixedFunction)
 154:.\Generated_Source\PSoC4/INTERNAL_STEP_1.c ****         INTERNAL_STEP_1_SetInterruptMode(INTERNAL_STEP_1_INIT_INTERRUPTS_MODE);
ARM GAS  C:\Users\TECHCO~1\AppData\Local\Temp\ccDEXhQe.s 			page 6


 155:.\Generated_Source\PSoC4/INTERNAL_STEP_1.c ****     #endif /* (INTERNAL_STEP_1_UseStatus || INTERNAL_STEP_1_UsingFixedFunction) */
 156:.\Generated_Source\PSoC4/INTERNAL_STEP_1.c **** 
 157:.\Generated_Source\PSoC4/INTERNAL_STEP_1.c ****     #if (INTERNAL_STEP_1_UsingFixedFunction)
 158:.\Generated_Source\PSoC4/INTERNAL_STEP_1.c ****         /* Globally Enable the Fixed Function Block chosen */
 159:.\Generated_Source\PSoC4/INTERNAL_STEP_1.c ****         INTERNAL_STEP_1_GLOBAL_ENABLE |= INTERNAL_STEP_1_BLOCK_EN_MASK;
 160:.\Generated_Source\PSoC4/INTERNAL_STEP_1.c ****         /* Set the Interrupt source to come from the status register */
 161:.\Generated_Source\PSoC4/INTERNAL_STEP_1.c ****         INTERNAL_STEP_1_CONTROL2 |= INTERNAL_STEP_1_CTRL2_IRQ_SEL;
 162:.\Generated_Source\PSoC4/INTERNAL_STEP_1.c ****     #else
 163:.\Generated_Source\PSoC4/INTERNAL_STEP_1.c ****         #if(INTERNAL_STEP_1_UseStatus)
 164:.\Generated_Source\PSoC4/INTERNAL_STEP_1.c **** 
 165:.\Generated_Source\PSoC4/INTERNAL_STEP_1.c ****             /* CyEnterCriticalRegion and CyExitCriticalRegion are used to mark following region cri
 166:.\Generated_Source\PSoC4/INTERNAL_STEP_1.c ****             /* Enter Critical Region*/
 167:.\Generated_Source\PSoC4/INTERNAL_STEP_1.c ****             INTERNAL_STEP_1_interruptState = CyEnterCriticalSection();
 168:.\Generated_Source\PSoC4/INTERNAL_STEP_1.c ****             /* Use the interrupt output of the status register for IRQ output */
 169:.\Generated_Source\PSoC4/INTERNAL_STEP_1.c ****             INTERNAL_STEP_1_STATUS_AUX_CTRL |= INTERNAL_STEP_1_STATUS_ACTL_INT_EN_MASK;
 170:.\Generated_Source\PSoC4/INTERNAL_STEP_1.c **** 
 171:.\Generated_Source\PSoC4/INTERNAL_STEP_1.c ****              /* Exit Critical Region*/
 172:.\Generated_Source\PSoC4/INTERNAL_STEP_1.c ****             CyExitCriticalSection(INTERNAL_STEP_1_interruptState);
 173:.\Generated_Source\PSoC4/INTERNAL_STEP_1.c **** 
 174:.\Generated_Source\PSoC4/INTERNAL_STEP_1.c ****             /* Clear the FIFO to enable the INTERNAL_STEP_1_STATUS_FIFOFULL
 175:.\Generated_Source\PSoC4/INTERNAL_STEP_1.c ****                    bit to be set on FIFO full. */
 176:.\Generated_Source\PSoC4/INTERNAL_STEP_1.c ****             INTERNAL_STEP_1_ClearFIFO();
 177:.\Generated_Source\PSoC4/INTERNAL_STEP_1.c ****         #endif /* (INTERNAL_STEP_1_UseStatus) */
 178:.\Generated_Source\PSoC4/INTERNAL_STEP_1.c ****     #endif /* (INTERNAL_STEP_1_UsingFixedFunction) */
 179:.\Generated_Source\PSoC4/INTERNAL_STEP_1.c **** }
 132              		.loc 1 179 0
 133 0060 BD46     		mov	sp, r7
 134 0062 02B0     		add	sp, sp, #8
 135              		@ sp needed
 136 0064 80BD     		pop	{r7, pc}
 137              	.L7:
 138 0066 C046     		.align	2
 139              	.L6:
 140 0068 71000F40 		.word	1074724977
 141 006c 90000F40 		.word	1074725008
 142 0070 91000F40 		.word	1074725009
 143              		.cfi_endproc
 144              	.LFE1:
 145              		.size	INTERNAL_STEP_1_Init, .-INTERNAL_STEP_1_Init
 146              		.section	.text.INTERNAL_STEP_1_Enable,"ax",%progbits
 147              		.align	2
 148              		.global	INTERNAL_STEP_1_Enable
 149              		.code	16
 150              		.thumb_func
 151              		.type	INTERNAL_STEP_1_Enable, %function
 152              	INTERNAL_STEP_1_Enable:
 153              	.LFB2:
 180:.\Generated_Source\PSoC4/INTERNAL_STEP_1.c **** 
 181:.\Generated_Source\PSoC4/INTERNAL_STEP_1.c **** 
 182:.\Generated_Source\PSoC4/INTERNAL_STEP_1.c **** /*******************************************************************************
 183:.\Generated_Source\PSoC4/INTERNAL_STEP_1.c **** * Function Name: INTERNAL_STEP_1_Enable
 184:.\Generated_Source\PSoC4/INTERNAL_STEP_1.c **** ********************************************************************************
 185:.\Generated_Source\PSoC4/INTERNAL_STEP_1.c **** *
 186:.\Generated_Source\PSoC4/INTERNAL_STEP_1.c **** * Summary:
 187:.\Generated_Source\PSoC4/INTERNAL_STEP_1.c **** *  Enables the PWM block operation
 188:.\Generated_Source\PSoC4/INTERNAL_STEP_1.c **** *
 189:.\Generated_Source\PSoC4/INTERNAL_STEP_1.c **** * Parameters:
ARM GAS  C:\Users\TECHCO~1\AppData\Local\Temp\ccDEXhQe.s 			page 7


 190:.\Generated_Source\PSoC4/INTERNAL_STEP_1.c **** *  None
 191:.\Generated_Source\PSoC4/INTERNAL_STEP_1.c **** *
 192:.\Generated_Source\PSoC4/INTERNAL_STEP_1.c **** * Return:
 193:.\Generated_Source\PSoC4/INTERNAL_STEP_1.c **** *  None
 194:.\Generated_Source\PSoC4/INTERNAL_STEP_1.c **** *
 195:.\Generated_Source\PSoC4/INTERNAL_STEP_1.c **** * Side Effects:
 196:.\Generated_Source\PSoC4/INTERNAL_STEP_1.c **** *  This works only if software enable mode is chosen
 197:.\Generated_Source\PSoC4/INTERNAL_STEP_1.c **** *
 198:.\Generated_Source\PSoC4/INTERNAL_STEP_1.c **** *******************************************************************************/
 199:.\Generated_Source\PSoC4/INTERNAL_STEP_1.c **** void INTERNAL_STEP_1_Enable(void) 
 200:.\Generated_Source\PSoC4/INTERNAL_STEP_1.c **** {
 154              		.loc 1 200 0
 155              		.cfi_startproc
 156 0000 80B5     		push	{r7, lr}
 157              		.cfi_def_cfa_offset 8
 158              		.cfi_offset 7, -8
 159              		.cfi_offset 14, -4
 160 0002 00AF     		add	r7, sp, #0
 161              		.cfi_def_cfa_register 7
 201:.\Generated_Source\PSoC4/INTERNAL_STEP_1.c ****     /* Globally Enable the Fixed Function Block chosen */
 202:.\Generated_Source\PSoC4/INTERNAL_STEP_1.c ****     #if (INTERNAL_STEP_1_UsingFixedFunction)
 203:.\Generated_Source\PSoC4/INTERNAL_STEP_1.c ****         INTERNAL_STEP_1_GLOBAL_ENABLE |= INTERNAL_STEP_1_BLOCK_EN_MASK;
 204:.\Generated_Source\PSoC4/INTERNAL_STEP_1.c ****         INTERNAL_STEP_1_GLOBAL_STBY_ENABLE |= INTERNAL_STEP_1_BLOCK_STBY_EN_MASK;
 205:.\Generated_Source\PSoC4/INTERNAL_STEP_1.c ****     #endif /* (INTERNAL_STEP_1_UsingFixedFunction) */
 206:.\Generated_Source\PSoC4/INTERNAL_STEP_1.c **** 
 207:.\Generated_Source\PSoC4/INTERNAL_STEP_1.c ****     /* Enable the PWM from the control register  */
 208:.\Generated_Source\PSoC4/INTERNAL_STEP_1.c ****     #if (INTERNAL_STEP_1_UseControl || INTERNAL_STEP_1_UsingFixedFunction)
 209:.\Generated_Source\PSoC4/INTERNAL_STEP_1.c ****         INTERNAL_STEP_1_CONTROL |= INTERNAL_STEP_1_CTRL_ENABLE;
 162              		.loc 1 209 0
 163 0004 0549     		ldr	r1, .L9
 164 0006 054B     		ldr	r3, .L9
 165 0008 1B78     		ldrb	r3, [r3]
 166 000a DBB2     		uxtb	r3, r3
 167 000c 8022     		mov	r2, #128
 168 000e 5242     		neg	r2, r2
 169 0010 1343     		orr	r3, r2
 170 0012 DBB2     		uxtb	r3, r3
 171 0014 0B70     		strb	r3, [r1]
 210:.\Generated_Source\PSoC4/INTERNAL_STEP_1.c ****     #endif /* (INTERNAL_STEP_1_UseControl || INTERNAL_STEP_1_UsingFixedFunction) */
 211:.\Generated_Source\PSoC4/INTERNAL_STEP_1.c **** }
 172              		.loc 1 211 0
 173 0016 BD46     		mov	sp, r7
 174              		@ sp needed
 175 0018 80BD     		pop	{r7, pc}
 176              	.L10:
 177 001a C046     		.align	2
 178              	.L9:
 179 001c 71000F40 		.word	1074724977
 180              		.cfi_endproc
 181              	.LFE2:
 182              		.size	INTERNAL_STEP_1_Enable, .-INTERNAL_STEP_1_Enable
 183              		.section	.text.INTERNAL_STEP_1_Stop,"ax",%progbits
 184              		.align	2
 185              		.global	INTERNAL_STEP_1_Stop
 186              		.code	16
 187              		.thumb_func
 188              		.type	INTERNAL_STEP_1_Stop, %function
ARM GAS  C:\Users\TECHCO~1\AppData\Local\Temp\ccDEXhQe.s 			page 8


 189              	INTERNAL_STEP_1_Stop:
 190              	.LFB3:
 212:.\Generated_Source\PSoC4/INTERNAL_STEP_1.c **** 
 213:.\Generated_Source\PSoC4/INTERNAL_STEP_1.c **** 
 214:.\Generated_Source\PSoC4/INTERNAL_STEP_1.c **** /*******************************************************************************
 215:.\Generated_Source\PSoC4/INTERNAL_STEP_1.c **** * Function Name: INTERNAL_STEP_1_Stop
 216:.\Generated_Source\PSoC4/INTERNAL_STEP_1.c **** ********************************************************************************
 217:.\Generated_Source\PSoC4/INTERNAL_STEP_1.c **** *
 218:.\Generated_Source\PSoC4/INTERNAL_STEP_1.c **** * Summary:
 219:.\Generated_Source\PSoC4/INTERNAL_STEP_1.c **** *  The stop function halts the PWM, but does not change any modes or disable
 220:.\Generated_Source\PSoC4/INTERNAL_STEP_1.c **** *  interrupts.
 221:.\Generated_Source\PSoC4/INTERNAL_STEP_1.c **** *
 222:.\Generated_Source\PSoC4/INTERNAL_STEP_1.c **** * Parameters:
 223:.\Generated_Source\PSoC4/INTERNAL_STEP_1.c **** *  None
 224:.\Generated_Source\PSoC4/INTERNAL_STEP_1.c **** *
 225:.\Generated_Source\PSoC4/INTERNAL_STEP_1.c **** * Return:
 226:.\Generated_Source\PSoC4/INTERNAL_STEP_1.c **** *  None
 227:.\Generated_Source\PSoC4/INTERNAL_STEP_1.c **** *
 228:.\Generated_Source\PSoC4/INTERNAL_STEP_1.c **** * Side Effects:
 229:.\Generated_Source\PSoC4/INTERNAL_STEP_1.c **** *  If the Enable mode is set to Hardware only then this function
 230:.\Generated_Source\PSoC4/INTERNAL_STEP_1.c **** *  has no effect on the operation of the PWM
 231:.\Generated_Source\PSoC4/INTERNAL_STEP_1.c **** *
 232:.\Generated_Source\PSoC4/INTERNAL_STEP_1.c **** *******************************************************************************/
 233:.\Generated_Source\PSoC4/INTERNAL_STEP_1.c **** void INTERNAL_STEP_1_Stop(void) 
 234:.\Generated_Source\PSoC4/INTERNAL_STEP_1.c **** {
 191              		.loc 1 234 0
 192              		.cfi_startproc
 193 0000 80B5     		push	{r7, lr}
 194              		.cfi_def_cfa_offset 8
 195              		.cfi_offset 7, -8
 196              		.cfi_offset 14, -4
 197 0002 00AF     		add	r7, sp, #0
 198              		.cfi_def_cfa_register 7
 235:.\Generated_Source\PSoC4/INTERNAL_STEP_1.c ****     #if (INTERNAL_STEP_1_UseControl || INTERNAL_STEP_1_UsingFixedFunction)
 236:.\Generated_Source\PSoC4/INTERNAL_STEP_1.c ****         INTERNAL_STEP_1_CONTROL &= ((uint8)(~INTERNAL_STEP_1_CTRL_ENABLE));
 199              		.loc 1 236 0
 200 0004 044A     		ldr	r2, .L12
 201 0006 044B     		ldr	r3, .L12
 202 0008 1B78     		ldrb	r3, [r3]
 203 000a DBB2     		uxtb	r3, r3
 204 000c 7F21     		mov	r1, #127
 205 000e 0B40     		and	r3, r1
 206 0010 DBB2     		uxtb	r3, r3
 207 0012 1370     		strb	r3, [r2]
 237:.\Generated_Source\PSoC4/INTERNAL_STEP_1.c ****     #endif /* (INTERNAL_STEP_1_UseControl || INTERNAL_STEP_1_UsingFixedFunction) */
 238:.\Generated_Source\PSoC4/INTERNAL_STEP_1.c **** 
 239:.\Generated_Source\PSoC4/INTERNAL_STEP_1.c ****     /* Globally disable the Fixed Function Block chosen */
 240:.\Generated_Source\PSoC4/INTERNAL_STEP_1.c ****     #if (INTERNAL_STEP_1_UsingFixedFunction)
 241:.\Generated_Source\PSoC4/INTERNAL_STEP_1.c ****         INTERNAL_STEP_1_GLOBAL_ENABLE &= ((uint8)(~INTERNAL_STEP_1_BLOCK_EN_MASK));
 242:.\Generated_Source\PSoC4/INTERNAL_STEP_1.c ****         INTERNAL_STEP_1_GLOBAL_STBY_ENABLE &= ((uint8)(~INTERNAL_STEP_1_BLOCK_STBY_EN_MASK));
 243:.\Generated_Source\PSoC4/INTERNAL_STEP_1.c ****     #endif /* (INTERNAL_STEP_1_UsingFixedFunction) */
 244:.\Generated_Source\PSoC4/INTERNAL_STEP_1.c **** }
 208              		.loc 1 244 0
 209 0014 BD46     		mov	sp, r7
 210              		@ sp needed
 211 0016 80BD     		pop	{r7, pc}
 212              	.L13:
ARM GAS  C:\Users\TECHCO~1\AppData\Local\Temp\ccDEXhQe.s 			page 9


 213              		.align	2
 214              	.L12:
 215 0018 71000F40 		.word	1074724977
 216              		.cfi_endproc
 217              	.LFE3:
 218              		.size	INTERNAL_STEP_1_Stop, .-INTERNAL_STEP_1_Stop
 219              		.section	.text.INTERNAL_STEP_1_WriteCounter,"ax",%progbits
 220              		.align	2
 221              		.global	INTERNAL_STEP_1_WriteCounter
 222              		.code	16
 223              		.thumb_func
 224              		.type	INTERNAL_STEP_1_WriteCounter, %function
 225              	INTERNAL_STEP_1_WriteCounter:
 226              	.LFB4:
 245:.\Generated_Source\PSoC4/INTERNAL_STEP_1.c **** 
 246:.\Generated_Source\PSoC4/INTERNAL_STEP_1.c **** #if (INTERNAL_STEP_1_UseOneCompareMode)
 247:.\Generated_Source\PSoC4/INTERNAL_STEP_1.c ****     #if (INTERNAL_STEP_1_CompareMode1SW)
 248:.\Generated_Source\PSoC4/INTERNAL_STEP_1.c **** 
 249:.\Generated_Source\PSoC4/INTERNAL_STEP_1.c **** 
 250:.\Generated_Source\PSoC4/INTERNAL_STEP_1.c ****         /*******************************************************************************
 251:.\Generated_Source\PSoC4/INTERNAL_STEP_1.c ****         * Function Name: INTERNAL_STEP_1_SetCompareMode
 252:.\Generated_Source\PSoC4/INTERNAL_STEP_1.c ****         ********************************************************************************
 253:.\Generated_Source\PSoC4/INTERNAL_STEP_1.c ****         *
 254:.\Generated_Source\PSoC4/INTERNAL_STEP_1.c ****         * Summary:
 255:.\Generated_Source\PSoC4/INTERNAL_STEP_1.c ****         *  This function writes the Compare Mode for the pwm output when in Dither mode,
 256:.\Generated_Source\PSoC4/INTERNAL_STEP_1.c ****         *  Center Align Mode or One Output Mode.
 257:.\Generated_Source\PSoC4/INTERNAL_STEP_1.c ****         *
 258:.\Generated_Source\PSoC4/INTERNAL_STEP_1.c ****         * Parameters:
 259:.\Generated_Source\PSoC4/INTERNAL_STEP_1.c ****         *  comparemode:  The new compare mode for the PWM output. Use the compare types
 260:.\Generated_Source\PSoC4/INTERNAL_STEP_1.c ****         *                defined in the H file as input arguments.
 261:.\Generated_Source\PSoC4/INTERNAL_STEP_1.c ****         *
 262:.\Generated_Source\PSoC4/INTERNAL_STEP_1.c ****         * Return:
 263:.\Generated_Source\PSoC4/INTERNAL_STEP_1.c ****         *  None
 264:.\Generated_Source\PSoC4/INTERNAL_STEP_1.c ****         *
 265:.\Generated_Source\PSoC4/INTERNAL_STEP_1.c ****         *******************************************************************************/
 266:.\Generated_Source\PSoC4/INTERNAL_STEP_1.c ****         void INTERNAL_STEP_1_SetCompareMode(uint8 comparemode) 
 267:.\Generated_Source\PSoC4/INTERNAL_STEP_1.c ****         {
 268:.\Generated_Source\PSoC4/INTERNAL_STEP_1.c ****             #if(INTERNAL_STEP_1_UsingFixedFunction)
 269:.\Generated_Source\PSoC4/INTERNAL_STEP_1.c **** 
 270:.\Generated_Source\PSoC4/INTERNAL_STEP_1.c ****                 #if(0 != INTERNAL_STEP_1_CTRL_CMPMODE1_SHIFT)
 271:.\Generated_Source\PSoC4/INTERNAL_STEP_1.c ****                     uint8 comparemodemasked = ((uint8)((uint8)comparemode << INTERNAL_STEP_1_CTRL_C
 272:.\Generated_Source\PSoC4/INTERNAL_STEP_1.c ****                 #else
 273:.\Generated_Source\PSoC4/INTERNAL_STEP_1.c ****                     uint8 comparemodemasked = comparemode;
 274:.\Generated_Source\PSoC4/INTERNAL_STEP_1.c ****                 #endif /* (0 != INTERNAL_STEP_1_CTRL_CMPMODE1_SHIFT) */
 275:.\Generated_Source\PSoC4/INTERNAL_STEP_1.c **** 
 276:.\Generated_Source\PSoC4/INTERNAL_STEP_1.c ****                 INTERNAL_STEP_1_CONTROL3 &= ((uint8)(~INTERNAL_STEP_1_CTRL_CMPMODE1_MASK)); /*Clear
 277:.\Generated_Source\PSoC4/INTERNAL_STEP_1.c ****                 INTERNAL_STEP_1_CONTROL3 |= comparemodemasked;
 278:.\Generated_Source\PSoC4/INTERNAL_STEP_1.c **** 
 279:.\Generated_Source\PSoC4/INTERNAL_STEP_1.c ****             #elif (INTERNAL_STEP_1_UseControl)
 280:.\Generated_Source\PSoC4/INTERNAL_STEP_1.c **** 
 281:.\Generated_Source\PSoC4/INTERNAL_STEP_1.c ****                 #if(0 != INTERNAL_STEP_1_CTRL_CMPMODE1_SHIFT)
 282:.\Generated_Source\PSoC4/INTERNAL_STEP_1.c ****                     uint8 comparemode1masked = ((uint8)((uint8)comparemode << INTERNAL_STEP_1_CTRL_
 283:.\Generated_Source\PSoC4/INTERNAL_STEP_1.c ****                                                 INTERNAL_STEP_1_CTRL_CMPMODE1_MASK;
 284:.\Generated_Source\PSoC4/INTERNAL_STEP_1.c ****                 #else
 285:.\Generated_Source\PSoC4/INTERNAL_STEP_1.c ****                     uint8 comparemode1masked = comparemode & INTERNAL_STEP_1_CTRL_CMPMODE1_MASK;
 286:.\Generated_Source\PSoC4/INTERNAL_STEP_1.c ****                 #endif /* (0 != INTERNAL_STEP_1_CTRL_CMPMODE1_SHIFT) */
 287:.\Generated_Source\PSoC4/INTERNAL_STEP_1.c **** 
ARM GAS  C:\Users\TECHCO~1\AppData\Local\Temp\ccDEXhQe.s 			page 10


 288:.\Generated_Source\PSoC4/INTERNAL_STEP_1.c ****                 #if(0 != INTERNAL_STEP_1_CTRL_CMPMODE2_SHIFT)
 289:.\Generated_Source\PSoC4/INTERNAL_STEP_1.c ****                     uint8 comparemode2masked = ((uint8)((uint8)comparemode << INTERNAL_STEP_1_CTRL_
 290:.\Generated_Source\PSoC4/INTERNAL_STEP_1.c ****                                                INTERNAL_STEP_1_CTRL_CMPMODE2_MASK;
 291:.\Generated_Source\PSoC4/INTERNAL_STEP_1.c ****                 #else
 292:.\Generated_Source\PSoC4/INTERNAL_STEP_1.c ****                     uint8 comparemode2masked = comparemode & INTERNAL_STEP_1_CTRL_CMPMODE2_MASK;
 293:.\Generated_Source\PSoC4/INTERNAL_STEP_1.c ****                 #endif /* (0 != INTERNAL_STEP_1_CTRL_CMPMODE2_SHIFT) */
 294:.\Generated_Source\PSoC4/INTERNAL_STEP_1.c **** 
 295:.\Generated_Source\PSoC4/INTERNAL_STEP_1.c ****                 /*Clear existing mode */
 296:.\Generated_Source\PSoC4/INTERNAL_STEP_1.c ****                 INTERNAL_STEP_1_CONTROL &= ((uint8)(~(INTERNAL_STEP_1_CTRL_CMPMODE1_MASK |
 297:.\Generated_Source\PSoC4/INTERNAL_STEP_1.c ****                                             INTERNAL_STEP_1_CTRL_CMPMODE2_MASK)));
 298:.\Generated_Source\PSoC4/INTERNAL_STEP_1.c ****                 INTERNAL_STEP_1_CONTROL |= (comparemode1masked | comparemode2masked);
 299:.\Generated_Source\PSoC4/INTERNAL_STEP_1.c **** 
 300:.\Generated_Source\PSoC4/INTERNAL_STEP_1.c ****             #else
 301:.\Generated_Source\PSoC4/INTERNAL_STEP_1.c ****                 uint8 temp = comparemode;
 302:.\Generated_Source\PSoC4/INTERNAL_STEP_1.c ****             #endif /* (INTERNAL_STEP_1_UsingFixedFunction) */
 303:.\Generated_Source\PSoC4/INTERNAL_STEP_1.c ****         }
 304:.\Generated_Source\PSoC4/INTERNAL_STEP_1.c ****     #endif /* INTERNAL_STEP_1_CompareMode1SW */
 305:.\Generated_Source\PSoC4/INTERNAL_STEP_1.c **** 
 306:.\Generated_Source\PSoC4/INTERNAL_STEP_1.c **** #else /* UseOneCompareMode */
 307:.\Generated_Source\PSoC4/INTERNAL_STEP_1.c **** 
 308:.\Generated_Source\PSoC4/INTERNAL_STEP_1.c ****     #if (INTERNAL_STEP_1_CompareMode1SW)
 309:.\Generated_Source\PSoC4/INTERNAL_STEP_1.c **** 
 310:.\Generated_Source\PSoC4/INTERNAL_STEP_1.c **** 
 311:.\Generated_Source\PSoC4/INTERNAL_STEP_1.c ****         /*******************************************************************************
 312:.\Generated_Source\PSoC4/INTERNAL_STEP_1.c ****         * Function Name: INTERNAL_STEP_1_SetCompareMode1
 313:.\Generated_Source\PSoC4/INTERNAL_STEP_1.c ****         ********************************************************************************
 314:.\Generated_Source\PSoC4/INTERNAL_STEP_1.c ****         *
 315:.\Generated_Source\PSoC4/INTERNAL_STEP_1.c ****         * Summary:
 316:.\Generated_Source\PSoC4/INTERNAL_STEP_1.c ****         *  This function writes the Compare Mode for the pwm or pwm1 output
 317:.\Generated_Source\PSoC4/INTERNAL_STEP_1.c ****         *
 318:.\Generated_Source\PSoC4/INTERNAL_STEP_1.c ****         * Parameters:
 319:.\Generated_Source\PSoC4/INTERNAL_STEP_1.c ****         *  comparemode:  The new compare mode for the PWM output. Use the compare types
 320:.\Generated_Source\PSoC4/INTERNAL_STEP_1.c ****         *                defined in the H file as input arguments.
 321:.\Generated_Source\PSoC4/INTERNAL_STEP_1.c ****         *
 322:.\Generated_Source\PSoC4/INTERNAL_STEP_1.c ****         * Return:
 323:.\Generated_Source\PSoC4/INTERNAL_STEP_1.c ****         *  None
 324:.\Generated_Source\PSoC4/INTERNAL_STEP_1.c ****         *
 325:.\Generated_Source\PSoC4/INTERNAL_STEP_1.c ****         *******************************************************************************/
 326:.\Generated_Source\PSoC4/INTERNAL_STEP_1.c ****         void INTERNAL_STEP_1_SetCompareMode1(uint8 comparemode) 
 327:.\Generated_Source\PSoC4/INTERNAL_STEP_1.c ****         {
 328:.\Generated_Source\PSoC4/INTERNAL_STEP_1.c ****             #if(0 != INTERNAL_STEP_1_CTRL_CMPMODE1_SHIFT)
 329:.\Generated_Source\PSoC4/INTERNAL_STEP_1.c ****                 uint8 comparemodemasked = ((uint8)((uint8)comparemode << INTERNAL_STEP_1_CTRL_CMPMO
 330:.\Generated_Source\PSoC4/INTERNAL_STEP_1.c ****                                            INTERNAL_STEP_1_CTRL_CMPMODE1_MASK;
 331:.\Generated_Source\PSoC4/INTERNAL_STEP_1.c ****             #else
 332:.\Generated_Source\PSoC4/INTERNAL_STEP_1.c ****                 uint8 comparemodemasked = comparemode & INTERNAL_STEP_1_CTRL_CMPMODE1_MASK;
 333:.\Generated_Source\PSoC4/INTERNAL_STEP_1.c ****             #endif /* (0 != INTERNAL_STEP_1_CTRL_CMPMODE1_SHIFT) */
 334:.\Generated_Source\PSoC4/INTERNAL_STEP_1.c **** 
 335:.\Generated_Source\PSoC4/INTERNAL_STEP_1.c ****             #if (INTERNAL_STEP_1_UseControl)
 336:.\Generated_Source\PSoC4/INTERNAL_STEP_1.c ****                 INTERNAL_STEP_1_CONTROL &= ((uint8)(~INTERNAL_STEP_1_CTRL_CMPMODE1_MASK)); /*Clear 
 337:.\Generated_Source\PSoC4/INTERNAL_STEP_1.c ****                 INTERNAL_STEP_1_CONTROL |= comparemodemasked;
 338:.\Generated_Source\PSoC4/INTERNAL_STEP_1.c ****             #endif /* (INTERNAL_STEP_1_UseControl) */
 339:.\Generated_Source\PSoC4/INTERNAL_STEP_1.c ****         }
 340:.\Generated_Source\PSoC4/INTERNAL_STEP_1.c ****     #endif /* INTERNAL_STEP_1_CompareMode1SW */
 341:.\Generated_Source\PSoC4/INTERNAL_STEP_1.c **** 
 342:.\Generated_Source\PSoC4/INTERNAL_STEP_1.c **** #if (INTERNAL_STEP_1_CompareMode2SW)
 343:.\Generated_Source\PSoC4/INTERNAL_STEP_1.c **** 
 344:.\Generated_Source\PSoC4/INTERNAL_STEP_1.c **** 
ARM GAS  C:\Users\TECHCO~1\AppData\Local\Temp\ccDEXhQe.s 			page 11


 345:.\Generated_Source\PSoC4/INTERNAL_STEP_1.c ****     /*******************************************************************************
 346:.\Generated_Source\PSoC4/INTERNAL_STEP_1.c ****     * Function Name: INTERNAL_STEP_1_SetCompareMode2
 347:.\Generated_Source\PSoC4/INTERNAL_STEP_1.c ****     ********************************************************************************
 348:.\Generated_Source\PSoC4/INTERNAL_STEP_1.c ****     *
 349:.\Generated_Source\PSoC4/INTERNAL_STEP_1.c ****     * Summary:
 350:.\Generated_Source\PSoC4/INTERNAL_STEP_1.c ****     *  This function writes the Compare Mode for the pwm or pwm2 output
 351:.\Generated_Source\PSoC4/INTERNAL_STEP_1.c ****     *
 352:.\Generated_Source\PSoC4/INTERNAL_STEP_1.c ****     * Parameters:
 353:.\Generated_Source\PSoC4/INTERNAL_STEP_1.c ****     *  comparemode:  The new compare mode for the PWM output. Use the compare types
 354:.\Generated_Source\PSoC4/INTERNAL_STEP_1.c ****     *                defined in the H file as input arguments.
 355:.\Generated_Source\PSoC4/INTERNAL_STEP_1.c ****     *
 356:.\Generated_Source\PSoC4/INTERNAL_STEP_1.c ****     * Return:
 357:.\Generated_Source\PSoC4/INTERNAL_STEP_1.c ****     *  None
 358:.\Generated_Source\PSoC4/INTERNAL_STEP_1.c ****     *
 359:.\Generated_Source\PSoC4/INTERNAL_STEP_1.c ****     *******************************************************************************/
 360:.\Generated_Source\PSoC4/INTERNAL_STEP_1.c ****     void INTERNAL_STEP_1_SetCompareMode2(uint8 comparemode) 
 361:.\Generated_Source\PSoC4/INTERNAL_STEP_1.c ****     {
 362:.\Generated_Source\PSoC4/INTERNAL_STEP_1.c **** 
 363:.\Generated_Source\PSoC4/INTERNAL_STEP_1.c ****         #if(0 != INTERNAL_STEP_1_CTRL_CMPMODE2_SHIFT)
 364:.\Generated_Source\PSoC4/INTERNAL_STEP_1.c ****             uint8 comparemodemasked = ((uint8)((uint8)comparemode << INTERNAL_STEP_1_CTRL_CMPMODE2_
 365:.\Generated_Source\PSoC4/INTERNAL_STEP_1.c ****                                                  INTERNAL_STEP_1_CTRL_CMPMODE2_MASK;
 366:.\Generated_Source\PSoC4/INTERNAL_STEP_1.c ****         #else
 367:.\Generated_Source\PSoC4/INTERNAL_STEP_1.c ****             uint8 comparemodemasked = comparemode & INTERNAL_STEP_1_CTRL_CMPMODE2_MASK;
 368:.\Generated_Source\PSoC4/INTERNAL_STEP_1.c ****         #endif /* (0 != INTERNAL_STEP_1_CTRL_CMPMODE2_SHIFT) */
 369:.\Generated_Source\PSoC4/INTERNAL_STEP_1.c **** 
 370:.\Generated_Source\PSoC4/INTERNAL_STEP_1.c ****         #if (INTERNAL_STEP_1_UseControl)
 371:.\Generated_Source\PSoC4/INTERNAL_STEP_1.c ****             INTERNAL_STEP_1_CONTROL &= ((uint8)(~INTERNAL_STEP_1_CTRL_CMPMODE2_MASK)); /*Clear exis
 372:.\Generated_Source\PSoC4/INTERNAL_STEP_1.c ****             INTERNAL_STEP_1_CONTROL |= comparemodemasked;
 373:.\Generated_Source\PSoC4/INTERNAL_STEP_1.c ****         #endif /* (INTERNAL_STEP_1_UseControl) */
 374:.\Generated_Source\PSoC4/INTERNAL_STEP_1.c ****     }
 375:.\Generated_Source\PSoC4/INTERNAL_STEP_1.c ****     #endif /*INTERNAL_STEP_1_CompareMode2SW */
 376:.\Generated_Source\PSoC4/INTERNAL_STEP_1.c **** 
 377:.\Generated_Source\PSoC4/INTERNAL_STEP_1.c **** #endif /* UseOneCompareMode */
 378:.\Generated_Source\PSoC4/INTERNAL_STEP_1.c **** 
 379:.\Generated_Source\PSoC4/INTERNAL_STEP_1.c **** 
 380:.\Generated_Source\PSoC4/INTERNAL_STEP_1.c **** #if (!INTERNAL_STEP_1_UsingFixedFunction)
 381:.\Generated_Source\PSoC4/INTERNAL_STEP_1.c **** 
 382:.\Generated_Source\PSoC4/INTERNAL_STEP_1.c **** 
 383:.\Generated_Source\PSoC4/INTERNAL_STEP_1.c ****     /*******************************************************************************
 384:.\Generated_Source\PSoC4/INTERNAL_STEP_1.c ****     * Function Name: INTERNAL_STEP_1_WriteCounter
 385:.\Generated_Source\PSoC4/INTERNAL_STEP_1.c ****     ********************************************************************************
 386:.\Generated_Source\PSoC4/INTERNAL_STEP_1.c ****     *
 387:.\Generated_Source\PSoC4/INTERNAL_STEP_1.c ****     * Summary:
 388:.\Generated_Source\PSoC4/INTERNAL_STEP_1.c ****     *  Writes a new counter value directly to the counter register. This will be
 389:.\Generated_Source\PSoC4/INTERNAL_STEP_1.c ****     *  implemented for that currently running period and only that period. This API
 390:.\Generated_Source\PSoC4/INTERNAL_STEP_1.c ****     *  is valid only for UDB implementation and not available for fixed function
 391:.\Generated_Source\PSoC4/INTERNAL_STEP_1.c ****     *  PWM implementation.
 392:.\Generated_Source\PSoC4/INTERNAL_STEP_1.c ****     *
 393:.\Generated_Source\PSoC4/INTERNAL_STEP_1.c ****     * Parameters:
 394:.\Generated_Source\PSoC4/INTERNAL_STEP_1.c ****     *  counter:  The period new period counter value.
 395:.\Generated_Source\PSoC4/INTERNAL_STEP_1.c ****     *
 396:.\Generated_Source\PSoC4/INTERNAL_STEP_1.c ****     * Return:
 397:.\Generated_Source\PSoC4/INTERNAL_STEP_1.c ****     *  None
 398:.\Generated_Source\PSoC4/INTERNAL_STEP_1.c ****     *
 399:.\Generated_Source\PSoC4/INTERNAL_STEP_1.c ****     * Side Effects:
 400:.\Generated_Source\PSoC4/INTERNAL_STEP_1.c ****     *  The PWM Period will be reloaded when a counter value will be a zero
 401:.\Generated_Source\PSoC4/INTERNAL_STEP_1.c ****     *
ARM GAS  C:\Users\TECHCO~1\AppData\Local\Temp\ccDEXhQe.s 			page 12


 402:.\Generated_Source\PSoC4/INTERNAL_STEP_1.c ****     *******************************************************************************/
 403:.\Generated_Source\PSoC4/INTERNAL_STEP_1.c ****     void INTERNAL_STEP_1_WriteCounter(uint16 counter) \
 404:.\Generated_Source\PSoC4/INTERNAL_STEP_1.c ****                                        
 405:.\Generated_Source\PSoC4/INTERNAL_STEP_1.c ****     {
 227              		.loc 1 405 0
 228              		.cfi_startproc
 229 0000 80B5     		push	{r7, lr}
 230              		.cfi_def_cfa_offset 8
 231              		.cfi_offset 7, -8
 232              		.cfi_offset 14, -4
 233 0002 82B0     		sub	sp, sp, #8
 234              		.cfi_def_cfa_offset 16
 235 0004 00AF     		add	r7, sp, #0
 236              		.cfi_def_cfa_register 7
 237 0006 021C     		mov	r2, r0
 238 0008 BB1D     		add	r3, r7, #6
 239 000a 1A80     		strh	r2, [r3]
 406:.\Generated_Source\PSoC4/INTERNAL_STEP_1.c ****         CY_SET_REG16(INTERNAL_STEP_1_COUNTER_LSB_PTR, counter);
 240              		.loc 1 406 0
 241 000c 034A     		ldr	r2, .L15
 242 000e BB1D     		add	r3, r7, #6
 243 0010 1B88     		ldrh	r3, [r3]
 244 0012 1380     		strh	r3, [r2]
 407:.\Generated_Source\PSoC4/INTERNAL_STEP_1.c ****     }
 245              		.loc 1 407 0
 246 0014 BD46     		mov	sp, r7
 247 0016 02B0     		add	sp, sp, #8
 248              		@ sp needed
 249 0018 80BD     		pop	{r7, pc}
 250              	.L16:
 251 001a C046     		.align	2
 252              	.L15:
 253 001c 00100F40 		.word	1074728960
 254              		.cfi_endproc
 255              	.LFE4:
 256              		.size	INTERNAL_STEP_1_WriteCounter, .-INTERNAL_STEP_1_WriteCounter
 257              		.section	.text.INTERNAL_STEP_1_ReadCounter,"ax",%progbits
 258              		.align	2
 259              		.global	INTERNAL_STEP_1_ReadCounter
 260              		.code	16
 261              		.thumb_func
 262              		.type	INTERNAL_STEP_1_ReadCounter, %function
 263              	INTERNAL_STEP_1_ReadCounter:
 264              	.LFB5:
 408:.\Generated_Source\PSoC4/INTERNAL_STEP_1.c **** 
 409:.\Generated_Source\PSoC4/INTERNAL_STEP_1.c **** 
 410:.\Generated_Source\PSoC4/INTERNAL_STEP_1.c ****     /*******************************************************************************
 411:.\Generated_Source\PSoC4/INTERNAL_STEP_1.c ****     * Function Name: INTERNAL_STEP_1_ReadCounter
 412:.\Generated_Source\PSoC4/INTERNAL_STEP_1.c ****     ********************************************************************************
 413:.\Generated_Source\PSoC4/INTERNAL_STEP_1.c ****     *
 414:.\Generated_Source\PSoC4/INTERNAL_STEP_1.c ****     * Summary:
 415:.\Generated_Source\PSoC4/INTERNAL_STEP_1.c ****     *  This function returns the current value of the counter.  It doesn't matter
 416:.\Generated_Source\PSoC4/INTERNAL_STEP_1.c ****     *  if the counter is enabled or running.
 417:.\Generated_Source\PSoC4/INTERNAL_STEP_1.c ****     *
 418:.\Generated_Source\PSoC4/INTERNAL_STEP_1.c ****     * Parameters:
 419:.\Generated_Source\PSoC4/INTERNAL_STEP_1.c ****     *  None
 420:.\Generated_Source\PSoC4/INTERNAL_STEP_1.c ****     *
ARM GAS  C:\Users\TECHCO~1\AppData\Local\Temp\ccDEXhQe.s 			page 13


 421:.\Generated_Source\PSoC4/INTERNAL_STEP_1.c ****     * Return:
 422:.\Generated_Source\PSoC4/INTERNAL_STEP_1.c ****     *  The current value of the counter.
 423:.\Generated_Source\PSoC4/INTERNAL_STEP_1.c ****     *
 424:.\Generated_Source\PSoC4/INTERNAL_STEP_1.c ****     *******************************************************************************/
 425:.\Generated_Source\PSoC4/INTERNAL_STEP_1.c ****     uint16 INTERNAL_STEP_1_ReadCounter(void) 
 426:.\Generated_Source\PSoC4/INTERNAL_STEP_1.c ****     {
 265              		.loc 1 426 0
 266              		.cfi_startproc
 267 0000 80B5     		push	{r7, lr}
 268              		.cfi_def_cfa_offset 8
 269              		.cfi_offset 7, -8
 270              		.cfi_offset 14, -4
 271 0002 00AF     		add	r7, sp, #0
 272              		.cfi_def_cfa_register 7
 427:.\Generated_Source\PSoC4/INTERNAL_STEP_1.c ****         /* Force capture by reading Accumulator */
 428:.\Generated_Source\PSoC4/INTERNAL_STEP_1.c ****         /* Must first do a software capture to be able to read the counter */
 429:.\Generated_Source\PSoC4/INTERNAL_STEP_1.c ****         /* It is up to the user code to make sure there isn't already captured data in the FIFO */
 430:.\Generated_Source\PSoC4/INTERNAL_STEP_1.c ****           (void)CY_GET_REG8(INTERNAL_STEP_1_COUNTERCAP_LSB_PTR_8BIT);
 273              		.loc 1 430 0
 274 0004 034B     		ldr	r3, .L19
 275 0006 1B78     		ldrb	r3, [r3]
 431:.\Generated_Source\PSoC4/INTERNAL_STEP_1.c **** 
 432:.\Generated_Source\PSoC4/INTERNAL_STEP_1.c ****         /* Read the data from the FIFO */
 433:.\Generated_Source\PSoC4/INTERNAL_STEP_1.c ****         return (CY_GET_REG16(INTERNAL_STEP_1_CAPTURE_LSB_PTR));
 276              		.loc 1 433 0
 277 0008 034B     		ldr	r3, .L19+4
 278 000a 1B88     		ldrh	r3, [r3]
 279 000c 9BB2     		uxth	r3, r3
 434:.\Generated_Source\PSoC4/INTERNAL_STEP_1.c ****     }
 280              		.loc 1 434 0
 281 000e 181C     		mov	r0, r3
 282 0010 BD46     		mov	sp, r7
 283              		@ sp needed
 284 0012 80BD     		pop	{r7, pc}
 285              	.L20:
 286              		.align	2
 287              	.L19:
 288 0014 10000F40 		.word	1074724880
 289 0018 A0100F40 		.word	1074729120
 290              		.cfi_endproc
 291              	.LFE5:
 292              		.size	INTERNAL_STEP_1_ReadCounter, .-INTERNAL_STEP_1_ReadCounter
 293              		.section	.text.INTERNAL_STEP_1_WritePeriod,"ax",%progbits
 294              		.align	2
 295              		.global	INTERNAL_STEP_1_WritePeriod
 296              		.code	16
 297              		.thumb_func
 298              		.type	INTERNAL_STEP_1_WritePeriod, %function
 299              	INTERNAL_STEP_1_WritePeriod:
 300              	.LFB6:
 435:.\Generated_Source\PSoC4/INTERNAL_STEP_1.c **** 
 436:.\Generated_Source\PSoC4/INTERNAL_STEP_1.c ****     #if (INTERNAL_STEP_1_UseStatus)
 437:.\Generated_Source\PSoC4/INTERNAL_STEP_1.c **** 
 438:.\Generated_Source\PSoC4/INTERNAL_STEP_1.c **** 
 439:.\Generated_Source\PSoC4/INTERNAL_STEP_1.c ****         /*******************************************************************************
 440:.\Generated_Source\PSoC4/INTERNAL_STEP_1.c ****         * Function Name: INTERNAL_STEP_1_ClearFIFO
 441:.\Generated_Source\PSoC4/INTERNAL_STEP_1.c ****         ********************************************************************************
ARM GAS  C:\Users\TECHCO~1\AppData\Local\Temp\ccDEXhQe.s 			page 14


 442:.\Generated_Source\PSoC4/INTERNAL_STEP_1.c ****         *
 443:.\Generated_Source\PSoC4/INTERNAL_STEP_1.c ****         * Summary:
 444:.\Generated_Source\PSoC4/INTERNAL_STEP_1.c ****         *  This function clears all capture data from the capture FIFO
 445:.\Generated_Source\PSoC4/INTERNAL_STEP_1.c ****         *
 446:.\Generated_Source\PSoC4/INTERNAL_STEP_1.c ****         * Parameters:
 447:.\Generated_Source\PSoC4/INTERNAL_STEP_1.c ****         *  None
 448:.\Generated_Source\PSoC4/INTERNAL_STEP_1.c ****         *
 449:.\Generated_Source\PSoC4/INTERNAL_STEP_1.c ****         * Return:
 450:.\Generated_Source\PSoC4/INTERNAL_STEP_1.c ****         *  None
 451:.\Generated_Source\PSoC4/INTERNAL_STEP_1.c ****         *
 452:.\Generated_Source\PSoC4/INTERNAL_STEP_1.c ****         *******************************************************************************/
 453:.\Generated_Source\PSoC4/INTERNAL_STEP_1.c ****         void INTERNAL_STEP_1_ClearFIFO(void) 
 454:.\Generated_Source\PSoC4/INTERNAL_STEP_1.c ****         {
 455:.\Generated_Source\PSoC4/INTERNAL_STEP_1.c ****             while(0u != (INTERNAL_STEP_1_ReadStatusRegister() & INTERNAL_STEP_1_STATUS_FIFONEMPTY))
 456:.\Generated_Source\PSoC4/INTERNAL_STEP_1.c ****             {
 457:.\Generated_Source\PSoC4/INTERNAL_STEP_1.c ****                 (void)INTERNAL_STEP_1_ReadCapture();
 458:.\Generated_Source\PSoC4/INTERNAL_STEP_1.c ****             }
 459:.\Generated_Source\PSoC4/INTERNAL_STEP_1.c ****         }
 460:.\Generated_Source\PSoC4/INTERNAL_STEP_1.c **** 
 461:.\Generated_Source\PSoC4/INTERNAL_STEP_1.c ****     #endif /* INTERNAL_STEP_1_UseStatus */
 462:.\Generated_Source\PSoC4/INTERNAL_STEP_1.c **** 
 463:.\Generated_Source\PSoC4/INTERNAL_STEP_1.c **** #endif /* !INTERNAL_STEP_1_UsingFixedFunction */
 464:.\Generated_Source\PSoC4/INTERNAL_STEP_1.c **** 
 465:.\Generated_Source\PSoC4/INTERNAL_STEP_1.c **** 
 466:.\Generated_Source\PSoC4/INTERNAL_STEP_1.c **** /*******************************************************************************
 467:.\Generated_Source\PSoC4/INTERNAL_STEP_1.c **** * Function Name: INTERNAL_STEP_1_WritePeriod
 468:.\Generated_Source\PSoC4/INTERNAL_STEP_1.c **** ********************************************************************************
 469:.\Generated_Source\PSoC4/INTERNAL_STEP_1.c **** *
 470:.\Generated_Source\PSoC4/INTERNAL_STEP_1.c **** * Summary:
 471:.\Generated_Source\PSoC4/INTERNAL_STEP_1.c **** *  This function is used to change the period of the counter.  The new period
 472:.\Generated_Source\PSoC4/INTERNAL_STEP_1.c **** *  will be loaded the next time terminal count is detected.
 473:.\Generated_Source\PSoC4/INTERNAL_STEP_1.c **** *
 474:.\Generated_Source\PSoC4/INTERNAL_STEP_1.c **** * Parameters:
 475:.\Generated_Source\PSoC4/INTERNAL_STEP_1.c **** *  period:  Period value. May be between 1 and (2^Resolution)-1.  A value of 0
 476:.\Generated_Source\PSoC4/INTERNAL_STEP_1.c **** *           will result in the counter remaining at zero.
 477:.\Generated_Source\PSoC4/INTERNAL_STEP_1.c **** *
 478:.\Generated_Source\PSoC4/INTERNAL_STEP_1.c **** * Return:
 479:.\Generated_Source\PSoC4/INTERNAL_STEP_1.c **** *  None
 480:.\Generated_Source\PSoC4/INTERNAL_STEP_1.c **** *
 481:.\Generated_Source\PSoC4/INTERNAL_STEP_1.c **** *******************************************************************************/
 482:.\Generated_Source\PSoC4/INTERNAL_STEP_1.c **** void INTERNAL_STEP_1_WritePeriod(uint16 period) 
 483:.\Generated_Source\PSoC4/INTERNAL_STEP_1.c **** {
 301              		.loc 1 483 0
 302              		.cfi_startproc
 303 0000 80B5     		push	{r7, lr}
 304              		.cfi_def_cfa_offset 8
 305              		.cfi_offset 7, -8
 306              		.cfi_offset 14, -4
 307 0002 82B0     		sub	sp, sp, #8
 308              		.cfi_def_cfa_offset 16
 309 0004 00AF     		add	r7, sp, #0
 310              		.cfi_def_cfa_register 7
 311 0006 021C     		mov	r2, r0
 312 0008 BB1D     		add	r3, r7, #6
 313 000a 1A80     		strh	r2, [r3]
 484:.\Generated_Source\PSoC4/INTERNAL_STEP_1.c ****     #if(INTERNAL_STEP_1_UsingFixedFunction)
 485:.\Generated_Source\PSoC4/INTERNAL_STEP_1.c ****         CY_SET_REG16(INTERNAL_STEP_1_PERIOD_LSB_PTR, (uint16)period);
ARM GAS  C:\Users\TECHCO~1\AppData\Local\Temp\ccDEXhQe.s 			page 15


 486:.\Generated_Source\PSoC4/INTERNAL_STEP_1.c ****     #else
 487:.\Generated_Source\PSoC4/INTERNAL_STEP_1.c ****         CY_SET_REG16(INTERNAL_STEP_1_PERIOD_LSB_PTR, period);
 314              		.loc 1 487 0
 315 000c 034A     		ldr	r2, .L22
 316 000e BB1D     		add	r3, r7, #6
 317 0010 1B88     		ldrh	r3, [r3]
 318 0012 1380     		strh	r3, [r2]
 488:.\Generated_Source\PSoC4/INTERNAL_STEP_1.c ****     #endif /* (INTERNAL_STEP_1_UsingFixedFunction) */
 489:.\Generated_Source\PSoC4/INTERNAL_STEP_1.c **** }
 319              		.loc 1 489 0
 320 0014 BD46     		mov	sp, r7
 321 0016 02B0     		add	sp, sp, #8
 322              		@ sp needed
 323 0018 80BD     		pop	{r7, pc}
 324              	.L23:
 325 001a C046     		.align	2
 326              	.L22:
 327 001c 80100F40 		.word	1074729088
 328              		.cfi_endproc
 329              	.LFE6:
 330              		.size	INTERNAL_STEP_1_WritePeriod, .-INTERNAL_STEP_1_WritePeriod
 331              		.section	.text.INTERNAL_STEP_1_WriteCompare,"ax",%progbits
 332              		.align	2
 333              		.global	INTERNAL_STEP_1_WriteCompare
 334              		.code	16
 335              		.thumb_func
 336              		.type	INTERNAL_STEP_1_WriteCompare, %function
 337              	INTERNAL_STEP_1_WriteCompare:
 338              	.LFB7:
 490:.\Generated_Source\PSoC4/INTERNAL_STEP_1.c **** 
 491:.\Generated_Source\PSoC4/INTERNAL_STEP_1.c **** #if (INTERNAL_STEP_1_UseOneCompareMode)
 492:.\Generated_Source\PSoC4/INTERNAL_STEP_1.c **** 
 493:.\Generated_Source\PSoC4/INTERNAL_STEP_1.c **** 
 494:.\Generated_Source\PSoC4/INTERNAL_STEP_1.c ****     /*******************************************************************************
 495:.\Generated_Source\PSoC4/INTERNAL_STEP_1.c ****     * Function Name: INTERNAL_STEP_1_WriteCompare
 496:.\Generated_Source\PSoC4/INTERNAL_STEP_1.c ****     ********************************************************************************
 497:.\Generated_Source\PSoC4/INTERNAL_STEP_1.c ****     *
 498:.\Generated_Source\PSoC4/INTERNAL_STEP_1.c ****     * Summary:
 499:.\Generated_Source\PSoC4/INTERNAL_STEP_1.c ****     *  This funtion is used to change the compare1 value when the PWM is in Dither
 500:.\Generated_Source\PSoC4/INTERNAL_STEP_1.c ****     *  mode. The compare output will reflect the new value on the next UDB clock.
 501:.\Generated_Source\PSoC4/INTERNAL_STEP_1.c ****     *  The compare output will be driven high when the present counter value is
 502:.\Generated_Source\PSoC4/INTERNAL_STEP_1.c ****     *  compared to the compare value based on the compare mode defined in
 503:.\Generated_Source\PSoC4/INTERNAL_STEP_1.c ****     *  Dither Mode.
 504:.\Generated_Source\PSoC4/INTERNAL_STEP_1.c ****     *
 505:.\Generated_Source\PSoC4/INTERNAL_STEP_1.c ****     * Parameters:
 506:.\Generated_Source\PSoC4/INTERNAL_STEP_1.c ****     *  compare:  New compare value.
 507:.\Generated_Source\PSoC4/INTERNAL_STEP_1.c ****     *
 508:.\Generated_Source\PSoC4/INTERNAL_STEP_1.c ****     * Return:
 509:.\Generated_Source\PSoC4/INTERNAL_STEP_1.c ****     *  None
 510:.\Generated_Source\PSoC4/INTERNAL_STEP_1.c ****     *
 511:.\Generated_Source\PSoC4/INTERNAL_STEP_1.c ****     * Side Effects:
 512:.\Generated_Source\PSoC4/INTERNAL_STEP_1.c ****     *  This function is only available if the PWM mode parameter is set to
 513:.\Generated_Source\PSoC4/INTERNAL_STEP_1.c ****     *  Dither Mode, Center Aligned Mode or One Output Mode
 514:.\Generated_Source\PSoC4/INTERNAL_STEP_1.c ****     *
 515:.\Generated_Source\PSoC4/INTERNAL_STEP_1.c ****     *******************************************************************************/
 516:.\Generated_Source\PSoC4/INTERNAL_STEP_1.c ****     void INTERNAL_STEP_1_WriteCompare(uint16 compare) \
 517:.\Generated_Source\PSoC4/INTERNAL_STEP_1.c ****                                        
ARM GAS  C:\Users\TECHCO~1\AppData\Local\Temp\ccDEXhQe.s 			page 16


 518:.\Generated_Source\PSoC4/INTERNAL_STEP_1.c ****     {
 339              		.loc 1 518 0
 340              		.cfi_startproc
 341 0000 80B5     		push	{r7, lr}
 342              		.cfi_def_cfa_offset 8
 343              		.cfi_offset 7, -8
 344              		.cfi_offset 14, -4
 345 0002 82B0     		sub	sp, sp, #8
 346              		.cfi_def_cfa_offset 16
 347 0004 00AF     		add	r7, sp, #0
 348              		.cfi_def_cfa_register 7
 349 0006 021C     		mov	r2, r0
 350 0008 BB1D     		add	r3, r7, #6
 351 000a 1A80     		strh	r2, [r3]
 519:.\Generated_Source\PSoC4/INTERNAL_STEP_1.c ****         #if(INTERNAL_STEP_1_UsingFixedFunction)
 520:.\Generated_Source\PSoC4/INTERNAL_STEP_1.c ****             CY_SET_REG16(INTERNAL_STEP_1_COMPARE1_LSB_PTR, (uint16)compare);
 521:.\Generated_Source\PSoC4/INTERNAL_STEP_1.c ****         #else
 522:.\Generated_Source\PSoC4/INTERNAL_STEP_1.c ****             CY_SET_REG16(INTERNAL_STEP_1_COMPARE1_LSB_PTR, compare);
 352              		.loc 1 522 0
 353 000c 034A     		ldr	r2, .L25
 354 000e BB1D     		add	r3, r7, #6
 355 0010 1B88     		ldrh	r3, [r3]
 356 0012 1380     		strh	r3, [r2]
 523:.\Generated_Source\PSoC4/INTERNAL_STEP_1.c ****         #endif /* (INTERNAL_STEP_1_UsingFixedFunction) */
 524:.\Generated_Source\PSoC4/INTERNAL_STEP_1.c **** 
 525:.\Generated_Source\PSoC4/INTERNAL_STEP_1.c ****         #if (INTERNAL_STEP_1_PWMMode == INTERNAL_STEP_1__B_PWM__DITHER)
 526:.\Generated_Source\PSoC4/INTERNAL_STEP_1.c ****             #if(INTERNAL_STEP_1_UsingFixedFunction)
 527:.\Generated_Source\PSoC4/INTERNAL_STEP_1.c ****                 CY_SET_REG16(INTERNAL_STEP_1_COMPARE2_LSB_PTR, (uint16)(compare + 1u));
 528:.\Generated_Source\PSoC4/INTERNAL_STEP_1.c ****             #else
 529:.\Generated_Source\PSoC4/INTERNAL_STEP_1.c ****                 CY_SET_REG16(INTERNAL_STEP_1_COMPARE2_LSB_PTR, (compare + 1u));
 530:.\Generated_Source\PSoC4/INTERNAL_STEP_1.c ****             #endif /* (INTERNAL_STEP_1_UsingFixedFunction) */
 531:.\Generated_Source\PSoC4/INTERNAL_STEP_1.c ****         #endif /* (INTERNAL_STEP_1_PWMMode == INTERNAL_STEP_1__B_PWM__DITHER) */
 532:.\Generated_Source\PSoC4/INTERNAL_STEP_1.c ****     }
 357              		.loc 1 532 0
 358 0014 BD46     		mov	sp, r7
 359 0016 02B0     		add	sp, sp, #8
 360              		@ sp needed
 361 0018 80BD     		pop	{r7, pc}
 362              	.L26:
 363 001a C046     		.align	2
 364              	.L25:
 365 001c 40100F40 		.word	1074729024
 366              		.cfi_endproc
 367              	.LFE7:
 368              		.size	INTERNAL_STEP_1_WriteCompare, .-INTERNAL_STEP_1_WriteCompare
 369              		.section	.text.INTERNAL_STEP_1_ReadControlRegister,"ax",%progbits
 370              		.align	2
 371              		.global	INTERNAL_STEP_1_ReadControlRegister
 372              		.code	16
 373              		.thumb_func
 374              		.type	INTERNAL_STEP_1_ReadControlRegister, %function
 375              	INTERNAL_STEP_1_ReadControlRegister:
 376              	.LFB8:
 533:.\Generated_Source\PSoC4/INTERNAL_STEP_1.c **** 
 534:.\Generated_Source\PSoC4/INTERNAL_STEP_1.c **** 
 535:.\Generated_Source\PSoC4/INTERNAL_STEP_1.c **** #else
 536:.\Generated_Source\PSoC4/INTERNAL_STEP_1.c **** 
ARM GAS  C:\Users\TECHCO~1\AppData\Local\Temp\ccDEXhQe.s 			page 17


 537:.\Generated_Source\PSoC4/INTERNAL_STEP_1.c **** 
 538:.\Generated_Source\PSoC4/INTERNAL_STEP_1.c ****     /*******************************************************************************
 539:.\Generated_Source\PSoC4/INTERNAL_STEP_1.c ****     * Function Name: INTERNAL_STEP_1_WriteCompare1
 540:.\Generated_Source\PSoC4/INTERNAL_STEP_1.c ****     ********************************************************************************
 541:.\Generated_Source\PSoC4/INTERNAL_STEP_1.c ****     *
 542:.\Generated_Source\PSoC4/INTERNAL_STEP_1.c ****     * Summary:
 543:.\Generated_Source\PSoC4/INTERNAL_STEP_1.c ****     *  This funtion is used to change the compare1 value.  The compare output will
 544:.\Generated_Source\PSoC4/INTERNAL_STEP_1.c ****     *  reflect the new value on the next UDB clock.  The compare output will be
 545:.\Generated_Source\PSoC4/INTERNAL_STEP_1.c ****     *  driven high when the present counter value is less than or less than or
 546:.\Generated_Source\PSoC4/INTERNAL_STEP_1.c ****     *  equal to the compare register, depending on the mode.
 547:.\Generated_Source\PSoC4/INTERNAL_STEP_1.c ****     *
 548:.\Generated_Source\PSoC4/INTERNAL_STEP_1.c ****     * Parameters:
 549:.\Generated_Source\PSoC4/INTERNAL_STEP_1.c ****     *  compare:  New compare value.
 550:.\Generated_Source\PSoC4/INTERNAL_STEP_1.c ****     *
 551:.\Generated_Source\PSoC4/INTERNAL_STEP_1.c ****     * Return:
 552:.\Generated_Source\PSoC4/INTERNAL_STEP_1.c ****     *  None
 553:.\Generated_Source\PSoC4/INTERNAL_STEP_1.c ****     *
 554:.\Generated_Source\PSoC4/INTERNAL_STEP_1.c ****     *******************************************************************************/
 555:.\Generated_Source\PSoC4/INTERNAL_STEP_1.c ****     void INTERNAL_STEP_1_WriteCompare1(uint16 compare) \
 556:.\Generated_Source\PSoC4/INTERNAL_STEP_1.c ****                                         
 557:.\Generated_Source\PSoC4/INTERNAL_STEP_1.c ****     {
 558:.\Generated_Source\PSoC4/INTERNAL_STEP_1.c ****         #if(INTERNAL_STEP_1_UsingFixedFunction)
 559:.\Generated_Source\PSoC4/INTERNAL_STEP_1.c ****             CY_SET_REG16(INTERNAL_STEP_1_COMPARE1_LSB_PTR, (uint16)compare);
 560:.\Generated_Source\PSoC4/INTERNAL_STEP_1.c ****         #else
 561:.\Generated_Source\PSoC4/INTERNAL_STEP_1.c ****             CY_SET_REG16(INTERNAL_STEP_1_COMPARE1_LSB_PTR, compare);
 562:.\Generated_Source\PSoC4/INTERNAL_STEP_1.c ****         #endif /* (INTERNAL_STEP_1_UsingFixedFunction) */
 563:.\Generated_Source\PSoC4/INTERNAL_STEP_1.c ****     }
 564:.\Generated_Source\PSoC4/INTERNAL_STEP_1.c **** 
 565:.\Generated_Source\PSoC4/INTERNAL_STEP_1.c **** 
 566:.\Generated_Source\PSoC4/INTERNAL_STEP_1.c ****     /*******************************************************************************
 567:.\Generated_Source\PSoC4/INTERNAL_STEP_1.c ****     * Function Name: INTERNAL_STEP_1_WriteCompare2
 568:.\Generated_Source\PSoC4/INTERNAL_STEP_1.c ****     ********************************************************************************
 569:.\Generated_Source\PSoC4/INTERNAL_STEP_1.c ****     *
 570:.\Generated_Source\PSoC4/INTERNAL_STEP_1.c ****     * Summary:
 571:.\Generated_Source\PSoC4/INTERNAL_STEP_1.c ****     *  This funtion is used to change the compare value, for compare1 output.
 572:.\Generated_Source\PSoC4/INTERNAL_STEP_1.c ****     *  The compare output will reflect the new value on the next UDB clock.
 573:.\Generated_Source\PSoC4/INTERNAL_STEP_1.c ****     *  The compare output will be driven high when the present counter value is
 574:.\Generated_Source\PSoC4/INTERNAL_STEP_1.c ****     *  less than or less than or equal to the compare register, depending on the
 575:.\Generated_Source\PSoC4/INTERNAL_STEP_1.c ****     *  mode.
 576:.\Generated_Source\PSoC4/INTERNAL_STEP_1.c ****     *
 577:.\Generated_Source\PSoC4/INTERNAL_STEP_1.c ****     * Parameters:
 578:.\Generated_Source\PSoC4/INTERNAL_STEP_1.c ****     *  compare:  New compare value.
 579:.\Generated_Source\PSoC4/INTERNAL_STEP_1.c ****     *
 580:.\Generated_Source\PSoC4/INTERNAL_STEP_1.c ****     * Return:
 581:.\Generated_Source\PSoC4/INTERNAL_STEP_1.c ****     *  None
 582:.\Generated_Source\PSoC4/INTERNAL_STEP_1.c ****     *
 583:.\Generated_Source\PSoC4/INTERNAL_STEP_1.c ****     *******************************************************************************/
 584:.\Generated_Source\PSoC4/INTERNAL_STEP_1.c ****     void INTERNAL_STEP_1_WriteCompare2(uint16 compare) \
 585:.\Generated_Source\PSoC4/INTERNAL_STEP_1.c ****                                         
 586:.\Generated_Source\PSoC4/INTERNAL_STEP_1.c ****     {
 587:.\Generated_Source\PSoC4/INTERNAL_STEP_1.c ****         #if(INTERNAL_STEP_1_UsingFixedFunction)
 588:.\Generated_Source\PSoC4/INTERNAL_STEP_1.c ****             CY_SET_REG16(INTERNAL_STEP_1_COMPARE2_LSB_PTR, compare);
 589:.\Generated_Source\PSoC4/INTERNAL_STEP_1.c ****         #else
 590:.\Generated_Source\PSoC4/INTERNAL_STEP_1.c ****             CY_SET_REG16(INTERNAL_STEP_1_COMPARE2_LSB_PTR, compare);
 591:.\Generated_Source\PSoC4/INTERNAL_STEP_1.c ****         #endif /* (INTERNAL_STEP_1_UsingFixedFunction) */
 592:.\Generated_Source\PSoC4/INTERNAL_STEP_1.c ****     }
 593:.\Generated_Source\PSoC4/INTERNAL_STEP_1.c **** #endif /* UseOneCompareMode */
ARM GAS  C:\Users\TECHCO~1\AppData\Local\Temp\ccDEXhQe.s 			page 18


 594:.\Generated_Source\PSoC4/INTERNAL_STEP_1.c **** 
 595:.\Generated_Source\PSoC4/INTERNAL_STEP_1.c **** #if (INTERNAL_STEP_1_DeadBandUsed)
 596:.\Generated_Source\PSoC4/INTERNAL_STEP_1.c **** 
 597:.\Generated_Source\PSoC4/INTERNAL_STEP_1.c **** 
 598:.\Generated_Source\PSoC4/INTERNAL_STEP_1.c ****     /*******************************************************************************
 599:.\Generated_Source\PSoC4/INTERNAL_STEP_1.c ****     * Function Name: INTERNAL_STEP_1_WriteDeadTime
 600:.\Generated_Source\PSoC4/INTERNAL_STEP_1.c ****     ********************************************************************************
 601:.\Generated_Source\PSoC4/INTERNAL_STEP_1.c ****     *
 602:.\Generated_Source\PSoC4/INTERNAL_STEP_1.c ****     * Summary:
 603:.\Generated_Source\PSoC4/INTERNAL_STEP_1.c ****     *  This function writes the dead-band counts to the corresponding register
 604:.\Generated_Source\PSoC4/INTERNAL_STEP_1.c ****     *
 605:.\Generated_Source\PSoC4/INTERNAL_STEP_1.c ****     * Parameters:
 606:.\Generated_Source\PSoC4/INTERNAL_STEP_1.c ****     *  deadtime:  Number of counts for dead time
 607:.\Generated_Source\PSoC4/INTERNAL_STEP_1.c ****     *
 608:.\Generated_Source\PSoC4/INTERNAL_STEP_1.c ****     * Return:
 609:.\Generated_Source\PSoC4/INTERNAL_STEP_1.c ****     *  None
 610:.\Generated_Source\PSoC4/INTERNAL_STEP_1.c ****     *
 611:.\Generated_Source\PSoC4/INTERNAL_STEP_1.c ****     *******************************************************************************/
 612:.\Generated_Source\PSoC4/INTERNAL_STEP_1.c ****     void INTERNAL_STEP_1_WriteDeadTime(uint8 deadtime) 
 613:.\Generated_Source\PSoC4/INTERNAL_STEP_1.c ****     {
 614:.\Generated_Source\PSoC4/INTERNAL_STEP_1.c ****         /* If using the Dead Band 1-255 mode then just write the register */
 615:.\Generated_Source\PSoC4/INTERNAL_STEP_1.c ****         #if(!INTERNAL_STEP_1_DeadBand2_4)
 616:.\Generated_Source\PSoC4/INTERNAL_STEP_1.c ****             CY_SET_REG8(INTERNAL_STEP_1_DEADBAND_COUNT_PTR, deadtime);
 617:.\Generated_Source\PSoC4/INTERNAL_STEP_1.c ****         #else
 618:.\Generated_Source\PSoC4/INTERNAL_STEP_1.c ****             /* Otherwise the data has to be masked and offset */
 619:.\Generated_Source\PSoC4/INTERNAL_STEP_1.c ****             /* Clear existing data */
 620:.\Generated_Source\PSoC4/INTERNAL_STEP_1.c ****             INTERNAL_STEP_1_DEADBAND_COUNT &= ((uint8)(~INTERNAL_STEP_1_DEADBAND_COUNT_MASK));
 621:.\Generated_Source\PSoC4/INTERNAL_STEP_1.c **** 
 622:.\Generated_Source\PSoC4/INTERNAL_STEP_1.c ****             /* Set new dead time */
 623:.\Generated_Source\PSoC4/INTERNAL_STEP_1.c ****             #if(INTERNAL_STEP_1_DEADBAND_COUNT_SHIFT)
 624:.\Generated_Source\PSoC4/INTERNAL_STEP_1.c ****                 INTERNAL_STEP_1_DEADBAND_COUNT |= ((uint8)((uint8)deadtime << INTERNAL_STEP_1_DEADB
 625:.\Generated_Source\PSoC4/INTERNAL_STEP_1.c ****                                                     INTERNAL_STEP_1_DEADBAND_COUNT_MASK;
 626:.\Generated_Source\PSoC4/INTERNAL_STEP_1.c ****             #else
 627:.\Generated_Source\PSoC4/INTERNAL_STEP_1.c ****                 INTERNAL_STEP_1_DEADBAND_COUNT |= deadtime & INTERNAL_STEP_1_DEADBAND_COUNT_MASK;
 628:.\Generated_Source\PSoC4/INTERNAL_STEP_1.c ****             #endif /* (INTERNAL_STEP_1_DEADBAND_COUNT_SHIFT) */
 629:.\Generated_Source\PSoC4/INTERNAL_STEP_1.c **** 
 630:.\Generated_Source\PSoC4/INTERNAL_STEP_1.c ****         #endif /* (!INTERNAL_STEP_1_DeadBand2_4) */
 631:.\Generated_Source\PSoC4/INTERNAL_STEP_1.c ****     }
 632:.\Generated_Source\PSoC4/INTERNAL_STEP_1.c **** 
 633:.\Generated_Source\PSoC4/INTERNAL_STEP_1.c **** 
 634:.\Generated_Source\PSoC4/INTERNAL_STEP_1.c ****     /*******************************************************************************
 635:.\Generated_Source\PSoC4/INTERNAL_STEP_1.c ****     * Function Name: INTERNAL_STEP_1_ReadDeadTime
 636:.\Generated_Source\PSoC4/INTERNAL_STEP_1.c ****     ********************************************************************************
 637:.\Generated_Source\PSoC4/INTERNAL_STEP_1.c ****     *
 638:.\Generated_Source\PSoC4/INTERNAL_STEP_1.c ****     * Summary:
 639:.\Generated_Source\PSoC4/INTERNAL_STEP_1.c ****     *  This function reads the dead-band counts from the corresponding register
 640:.\Generated_Source\PSoC4/INTERNAL_STEP_1.c ****     *
 641:.\Generated_Source\PSoC4/INTERNAL_STEP_1.c ****     * Parameters:
 642:.\Generated_Source\PSoC4/INTERNAL_STEP_1.c ****     *  None
 643:.\Generated_Source\PSoC4/INTERNAL_STEP_1.c ****     *
 644:.\Generated_Source\PSoC4/INTERNAL_STEP_1.c ****     * Return:
 645:.\Generated_Source\PSoC4/INTERNAL_STEP_1.c ****     *  Dead Band Counts
 646:.\Generated_Source\PSoC4/INTERNAL_STEP_1.c ****     *
 647:.\Generated_Source\PSoC4/INTERNAL_STEP_1.c ****     *******************************************************************************/
 648:.\Generated_Source\PSoC4/INTERNAL_STEP_1.c ****     uint8 INTERNAL_STEP_1_ReadDeadTime(void) 
 649:.\Generated_Source\PSoC4/INTERNAL_STEP_1.c ****     {
 650:.\Generated_Source\PSoC4/INTERNAL_STEP_1.c ****         /* If using the Dead Band 1-255 mode then just read the register */
ARM GAS  C:\Users\TECHCO~1\AppData\Local\Temp\ccDEXhQe.s 			page 19


 651:.\Generated_Source\PSoC4/INTERNAL_STEP_1.c ****         #if(!INTERNAL_STEP_1_DeadBand2_4)
 652:.\Generated_Source\PSoC4/INTERNAL_STEP_1.c ****             return (CY_GET_REG8(INTERNAL_STEP_1_DEADBAND_COUNT_PTR));
 653:.\Generated_Source\PSoC4/INTERNAL_STEP_1.c ****         #else
 654:.\Generated_Source\PSoC4/INTERNAL_STEP_1.c **** 
 655:.\Generated_Source\PSoC4/INTERNAL_STEP_1.c ****             /* Otherwise the data has to be masked and offset */
 656:.\Generated_Source\PSoC4/INTERNAL_STEP_1.c ****             #if(INTERNAL_STEP_1_DEADBAND_COUNT_SHIFT)
 657:.\Generated_Source\PSoC4/INTERNAL_STEP_1.c ****                 return ((uint8)(((uint8)(INTERNAL_STEP_1_DEADBAND_COUNT & INTERNAL_STEP_1_DEADBAND_
 658:.\Generated_Source\PSoC4/INTERNAL_STEP_1.c ****                                                                            INTERNAL_STEP_1_DEADBAND
 659:.\Generated_Source\PSoC4/INTERNAL_STEP_1.c ****             #else
 660:.\Generated_Source\PSoC4/INTERNAL_STEP_1.c ****                 return (INTERNAL_STEP_1_DEADBAND_COUNT & INTERNAL_STEP_1_DEADBAND_COUNT_MASK);
 661:.\Generated_Source\PSoC4/INTERNAL_STEP_1.c ****             #endif /* (INTERNAL_STEP_1_DEADBAND_COUNT_SHIFT) */
 662:.\Generated_Source\PSoC4/INTERNAL_STEP_1.c ****         #endif /* (!INTERNAL_STEP_1_DeadBand2_4) */
 663:.\Generated_Source\PSoC4/INTERNAL_STEP_1.c ****     }
 664:.\Generated_Source\PSoC4/INTERNAL_STEP_1.c **** #endif /* DeadBandUsed */
 665:.\Generated_Source\PSoC4/INTERNAL_STEP_1.c **** 
 666:.\Generated_Source\PSoC4/INTERNAL_STEP_1.c **** #if (INTERNAL_STEP_1_UseStatus || INTERNAL_STEP_1_UsingFixedFunction)
 667:.\Generated_Source\PSoC4/INTERNAL_STEP_1.c **** 
 668:.\Generated_Source\PSoC4/INTERNAL_STEP_1.c **** 
 669:.\Generated_Source\PSoC4/INTERNAL_STEP_1.c ****     /*******************************************************************************
 670:.\Generated_Source\PSoC4/INTERNAL_STEP_1.c ****     * Function Name: INTERNAL_STEP_1_SetInterruptMode
 671:.\Generated_Source\PSoC4/INTERNAL_STEP_1.c ****     ********************************************************************************
 672:.\Generated_Source\PSoC4/INTERNAL_STEP_1.c ****     *
 673:.\Generated_Source\PSoC4/INTERNAL_STEP_1.c ****     * Summary:
 674:.\Generated_Source\PSoC4/INTERNAL_STEP_1.c ****     *  This function configures the interrupts mask control of theinterrupt
 675:.\Generated_Source\PSoC4/INTERNAL_STEP_1.c ****     *  source status register.
 676:.\Generated_Source\PSoC4/INTERNAL_STEP_1.c ****     *
 677:.\Generated_Source\PSoC4/INTERNAL_STEP_1.c ****     * Parameters:
 678:.\Generated_Source\PSoC4/INTERNAL_STEP_1.c ****     *  uint8 interruptMode: Bit field containing the interrupt sources enabled
 679:.\Generated_Source\PSoC4/INTERNAL_STEP_1.c ****     *
 680:.\Generated_Source\PSoC4/INTERNAL_STEP_1.c ****     * Return:
 681:.\Generated_Source\PSoC4/INTERNAL_STEP_1.c ****     *  None
 682:.\Generated_Source\PSoC4/INTERNAL_STEP_1.c ****     *
 683:.\Generated_Source\PSoC4/INTERNAL_STEP_1.c ****     *******************************************************************************/
 684:.\Generated_Source\PSoC4/INTERNAL_STEP_1.c ****     void INTERNAL_STEP_1_SetInterruptMode(uint8 interruptMode) 
 685:.\Generated_Source\PSoC4/INTERNAL_STEP_1.c ****     {
 686:.\Generated_Source\PSoC4/INTERNAL_STEP_1.c ****         CY_SET_REG8(INTERNAL_STEP_1_STATUS_MASK_PTR, interruptMode);
 687:.\Generated_Source\PSoC4/INTERNAL_STEP_1.c ****     }
 688:.\Generated_Source\PSoC4/INTERNAL_STEP_1.c **** 
 689:.\Generated_Source\PSoC4/INTERNAL_STEP_1.c **** 
 690:.\Generated_Source\PSoC4/INTERNAL_STEP_1.c ****     /*******************************************************************************
 691:.\Generated_Source\PSoC4/INTERNAL_STEP_1.c ****     * Function Name: INTERNAL_STEP_1_ReadStatusRegister
 692:.\Generated_Source\PSoC4/INTERNAL_STEP_1.c ****     ********************************************************************************
 693:.\Generated_Source\PSoC4/INTERNAL_STEP_1.c ****     *
 694:.\Generated_Source\PSoC4/INTERNAL_STEP_1.c ****     * Summary:
 695:.\Generated_Source\PSoC4/INTERNAL_STEP_1.c ****     *  This function returns the current state of the status register.
 696:.\Generated_Source\PSoC4/INTERNAL_STEP_1.c ****     *
 697:.\Generated_Source\PSoC4/INTERNAL_STEP_1.c ****     * Parameters:
 698:.\Generated_Source\PSoC4/INTERNAL_STEP_1.c ****     *  None
 699:.\Generated_Source\PSoC4/INTERNAL_STEP_1.c ****     *
 700:.\Generated_Source\PSoC4/INTERNAL_STEP_1.c ****     * Return:
 701:.\Generated_Source\PSoC4/INTERNAL_STEP_1.c ****     *  uint8 : Current status register value. The status register bits are:
 702:.\Generated_Source\PSoC4/INTERNAL_STEP_1.c ****     *  [7:6] : Unused(0)
 703:.\Generated_Source\PSoC4/INTERNAL_STEP_1.c ****     *  [5]   : Kill event output
 704:.\Generated_Source\PSoC4/INTERNAL_STEP_1.c ****     *  [4]   : FIFO not empty
 705:.\Generated_Source\PSoC4/INTERNAL_STEP_1.c ****     *  [3]   : FIFO full
 706:.\Generated_Source\PSoC4/INTERNAL_STEP_1.c ****     *  [2]   : Terminal count
 707:.\Generated_Source\PSoC4/INTERNAL_STEP_1.c ****     *  [1]   : Compare output 2
ARM GAS  C:\Users\TECHCO~1\AppData\Local\Temp\ccDEXhQe.s 			page 20


 708:.\Generated_Source\PSoC4/INTERNAL_STEP_1.c ****     *  [0]   : Compare output 1
 709:.\Generated_Source\PSoC4/INTERNAL_STEP_1.c ****     *
 710:.\Generated_Source\PSoC4/INTERNAL_STEP_1.c ****     *******************************************************************************/
 711:.\Generated_Source\PSoC4/INTERNAL_STEP_1.c ****     uint8 INTERNAL_STEP_1_ReadStatusRegister(void) 
 712:.\Generated_Source\PSoC4/INTERNAL_STEP_1.c ****     {
 713:.\Generated_Source\PSoC4/INTERNAL_STEP_1.c ****         return (CY_GET_REG8(INTERNAL_STEP_1_STATUS_PTR));
 714:.\Generated_Source\PSoC4/INTERNAL_STEP_1.c ****     }
 715:.\Generated_Source\PSoC4/INTERNAL_STEP_1.c **** 
 716:.\Generated_Source\PSoC4/INTERNAL_STEP_1.c **** #endif /* (INTERNAL_STEP_1_UseStatus || INTERNAL_STEP_1_UsingFixedFunction) */
 717:.\Generated_Source\PSoC4/INTERNAL_STEP_1.c **** 
 718:.\Generated_Source\PSoC4/INTERNAL_STEP_1.c **** 
 719:.\Generated_Source\PSoC4/INTERNAL_STEP_1.c **** #if (INTERNAL_STEP_1_UseControl)
 720:.\Generated_Source\PSoC4/INTERNAL_STEP_1.c **** 
 721:.\Generated_Source\PSoC4/INTERNAL_STEP_1.c **** 
 722:.\Generated_Source\PSoC4/INTERNAL_STEP_1.c ****     /*******************************************************************************
 723:.\Generated_Source\PSoC4/INTERNAL_STEP_1.c ****     * Function Name: INTERNAL_STEP_1_ReadControlRegister
 724:.\Generated_Source\PSoC4/INTERNAL_STEP_1.c ****     ********************************************************************************
 725:.\Generated_Source\PSoC4/INTERNAL_STEP_1.c ****     *
 726:.\Generated_Source\PSoC4/INTERNAL_STEP_1.c ****     * Summary:
 727:.\Generated_Source\PSoC4/INTERNAL_STEP_1.c ****     *  Returns the current state of the control register. This API is available
 728:.\Generated_Source\PSoC4/INTERNAL_STEP_1.c ****     *  only if the control register is not removed.
 729:.\Generated_Source\PSoC4/INTERNAL_STEP_1.c ****     *
 730:.\Generated_Source\PSoC4/INTERNAL_STEP_1.c ****     * Parameters:
 731:.\Generated_Source\PSoC4/INTERNAL_STEP_1.c ****     *  None
 732:.\Generated_Source\PSoC4/INTERNAL_STEP_1.c ****     *
 733:.\Generated_Source\PSoC4/INTERNAL_STEP_1.c ****     * Return:
 734:.\Generated_Source\PSoC4/INTERNAL_STEP_1.c ****     *  uint8 : Current control register value
 735:.\Generated_Source\PSoC4/INTERNAL_STEP_1.c ****     *
 736:.\Generated_Source\PSoC4/INTERNAL_STEP_1.c ****     *******************************************************************************/
 737:.\Generated_Source\PSoC4/INTERNAL_STEP_1.c ****     uint8 INTERNAL_STEP_1_ReadControlRegister(void) 
 738:.\Generated_Source\PSoC4/INTERNAL_STEP_1.c ****     {
 377              		.loc 1 738 0
 378              		.cfi_startproc
 379 0000 80B5     		push	{r7, lr}
 380              		.cfi_def_cfa_offset 8
 381              		.cfi_offset 7, -8
 382              		.cfi_offset 14, -4
 383 0002 82B0     		sub	sp, sp, #8
 384              		.cfi_def_cfa_offset 16
 385 0004 00AF     		add	r7, sp, #0
 386              		.cfi_def_cfa_register 7
 739:.\Generated_Source\PSoC4/INTERNAL_STEP_1.c ****         uint8 result;
 740:.\Generated_Source\PSoC4/INTERNAL_STEP_1.c **** 
 741:.\Generated_Source\PSoC4/INTERNAL_STEP_1.c ****         result = CY_GET_REG8(INTERNAL_STEP_1_CONTROL_PTR);
 387              		.loc 1 741 0
 388 0006 054A     		ldr	r2, .L29
 389 0008 FB1D     		add	r3, r7, #7
 390 000a 1278     		ldrb	r2, [r2]
 391 000c 1A70     		strb	r2, [r3]
 742:.\Generated_Source\PSoC4/INTERNAL_STEP_1.c ****         return (result);
 392              		.loc 1 742 0
 393 000e FB1D     		add	r3, r7, #7
 394 0010 1B78     		ldrb	r3, [r3]
 743:.\Generated_Source\PSoC4/INTERNAL_STEP_1.c ****     }
 395              		.loc 1 743 0
 396 0012 181C     		mov	r0, r3
 397 0014 BD46     		mov	sp, r7
ARM GAS  C:\Users\TECHCO~1\AppData\Local\Temp\ccDEXhQe.s 			page 21


 398 0016 02B0     		add	sp, sp, #8
 399              		@ sp needed
 400 0018 80BD     		pop	{r7, pc}
 401              	.L30:
 402 001a C046     		.align	2
 403              	.L29:
 404 001c 71000F40 		.word	1074724977
 405              		.cfi_endproc
 406              	.LFE8:
 407              		.size	INTERNAL_STEP_1_ReadControlRegister, .-INTERNAL_STEP_1_ReadControlRegister
 408              		.section	.text.INTERNAL_STEP_1_WriteControlRegister,"ax",%progbits
 409              		.align	2
 410              		.global	INTERNAL_STEP_1_WriteControlRegister
 411              		.code	16
 412              		.thumb_func
 413              		.type	INTERNAL_STEP_1_WriteControlRegister, %function
 414              	INTERNAL_STEP_1_WriteControlRegister:
 415              	.LFB9:
 744:.\Generated_Source\PSoC4/INTERNAL_STEP_1.c **** 
 745:.\Generated_Source\PSoC4/INTERNAL_STEP_1.c **** 
 746:.\Generated_Source\PSoC4/INTERNAL_STEP_1.c ****     /*******************************************************************************
 747:.\Generated_Source\PSoC4/INTERNAL_STEP_1.c ****     * Function Name: INTERNAL_STEP_1_WriteControlRegister
 748:.\Generated_Source\PSoC4/INTERNAL_STEP_1.c ****     ********************************************************************************
 749:.\Generated_Source\PSoC4/INTERNAL_STEP_1.c ****     *
 750:.\Generated_Source\PSoC4/INTERNAL_STEP_1.c ****     * Summary:
 751:.\Generated_Source\PSoC4/INTERNAL_STEP_1.c ****     *  Sets the bit field of the control register. This API is available only if
 752:.\Generated_Source\PSoC4/INTERNAL_STEP_1.c ****     *  the control register is not removed.
 753:.\Generated_Source\PSoC4/INTERNAL_STEP_1.c ****     *
 754:.\Generated_Source\PSoC4/INTERNAL_STEP_1.c ****     * Parameters:
 755:.\Generated_Source\PSoC4/INTERNAL_STEP_1.c ****     *  uint8 control: Control register bit field, The status register bits are:
 756:.\Generated_Source\PSoC4/INTERNAL_STEP_1.c ****     *  [7]   : PWM Enable
 757:.\Generated_Source\PSoC4/INTERNAL_STEP_1.c ****     *  [6]   : Reset
 758:.\Generated_Source\PSoC4/INTERNAL_STEP_1.c ****     *  [5:3] : Compare Mode2
 759:.\Generated_Source\PSoC4/INTERNAL_STEP_1.c ****     *  [2:0] : Compare Mode2
 760:.\Generated_Source\PSoC4/INTERNAL_STEP_1.c ****     *
 761:.\Generated_Source\PSoC4/INTERNAL_STEP_1.c ****     * Return:
 762:.\Generated_Source\PSoC4/INTERNAL_STEP_1.c ****     *  None
 763:.\Generated_Source\PSoC4/INTERNAL_STEP_1.c ****     *
 764:.\Generated_Source\PSoC4/INTERNAL_STEP_1.c ****     *******************************************************************************/
 765:.\Generated_Source\PSoC4/INTERNAL_STEP_1.c ****     void INTERNAL_STEP_1_WriteControlRegister(uint8 control) 
 766:.\Generated_Source\PSoC4/INTERNAL_STEP_1.c ****     {
 416              		.loc 1 766 0
 417              		.cfi_startproc
 418 0000 80B5     		push	{r7, lr}
 419              		.cfi_def_cfa_offset 8
 420              		.cfi_offset 7, -8
 421              		.cfi_offset 14, -4
 422 0002 82B0     		sub	sp, sp, #8
 423              		.cfi_def_cfa_offset 16
 424 0004 00AF     		add	r7, sp, #0
 425              		.cfi_def_cfa_register 7
 426 0006 021C     		mov	r2, r0
 427 0008 FB1D     		add	r3, r7, #7
 428 000a 1A70     		strb	r2, [r3]
 767:.\Generated_Source\PSoC4/INTERNAL_STEP_1.c ****         CY_SET_REG8(INTERNAL_STEP_1_CONTROL_PTR, control);
 429              		.loc 1 767 0
 430 000c 034A     		ldr	r2, .L32
ARM GAS  C:\Users\TECHCO~1\AppData\Local\Temp\ccDEXhQe.s 			page 22


 431 000e FB1D     		add	r3, r7, #7
 432 0010 1B78     		ldrb	r3, [r3]
 433 0012 1370     		strb	r3, [r2]
 768:.\Generated_Source\PSoC4/INTERNAL_STEP_1.c ****     }
 434              		.loc 1 768 0
 435 0014 BD46     		mov	sp, r7
 436 0016 02B0     		add	sp, sp, #8
 437              		@ sp needed
 438 0018 80BD     		pop	{r7, pc}
 439              	.L33:
 440 001a C046     		.align	2
 441              	.L32:
 442 001c 71000F40 		.word	1074724977
 443              		.cfi_endproc
 444              	.LFE9:
 445              		.size	INTERNAL_STEP_1_WriteControlRegister, .-INTERNAL_STEP_1_WriteControlRegister
 446              		.section	.text.INTERNAL_STEP_1_ReadCapture,"ax",%progbits
 447              		.align	2
 448              		.global	INTERNAL_STEP_1_ReadCapture
 449              		.code	16
 450              		.thumb_func
 451              		.type	INTERNAL_STEP_1_ReadCapture, %function
 452              	INTERNAL_STEP_1_ReadCapture:
 453              	.LFB10:
 769:.\Generated_Source\PSoC4/INTERNAL_STEP_1.c **** 
 770:.\Generated_Source\PSoC4/INTERNAL_STEP_1.c **** #endif /* (INTERNAL_STEP_1_UseControl) */
 771:.\Generated_Source\PSoC4/INTERNAL_STEP_1.c **** 
 772:.\Generated_Source\PSoC4/INTERNAL_STEP_1.c **** 
 773:.\Generated_Source\PSoC4/INTERNAL_STEP_1.c **** #if (!INTERNAL_STEP_1_UsingFixedFunction)
 774:.\Generated_Source\PSoC4/INTERNAL_STEP_1.c **** 
 775:.\Generated_Source\PSoC4/INTERNAL_STEP_1.c **** 
 776:.\Generated_Source\PSoC4/INTERNAL_STEP_1.c ****     /*******************************************************************************
 777:.\Generated_Source\PSoC4/INTERNAL_STEP_1.c ****     * Function Name: INTERNAL_STEP_1_ReadCapture
 778:.\Generated_Source\PSoC4/INTERNAL_STEP_1.c ****     ********************************************************************************
 779:.\Generated_Source\PSoC4/INTERNAL_STEP_1.c ****     *
 780:.\Generated_Source\PSoC4/INTERNAL_STEP_1.c ****     * Summary:
 781:.\Generated_Source\PSoC4/INTERNAL_STEP_1.c ****     *  Reads the capture value from the capture FIFO.
 782:.\Generated_Source\PSoC4/INTERNAL_STEP_1.c ****     *
 783:.\Generated_Source\PSoC4/INTERNAL_STEP_1.c ****     * Parameters:
 784:.\Generated_Source\PSoC4/INTERNAL_STEP_1.c ****     *  None
 785:.\Generated_Source\PSoC4/INTERNAL_STEP_1.c ****     *
 786:.\Generated_Source\PSoC4/INTERNAL_STEP_1.c ****     * Return:
 787:.\Generated_Source\PSoC4/INTERNAL_STEP_1.c ****     *  uint8/uint16: The current capture value
 788:.\Generated_Source\PSoC4/INTERNAL_STEP_1.c ****     *
 789:.\Generated_Source\PSoC4/INTERNAL_STEP_1.c ****     *******************************************************************************/
 790:.\Generated_Source\PSoC4/INTERNAL_STEP_1.c ****     uint16 INTERNAL_STEP_1_ReadCapture(void) 
 791:.\Generated_Source\PSoC4/INTERNAL_STEP_1.c ****     {
 454              		.loc 1 791 0
 455              		.cfi_startproc
 456 0000 80B5     		push	{r7, lr}
 457              		.cfi_def_cfa_offset 8
 458              		.cfi_offset 7, -8
 459              		.cfi_offset 14, -4
 460 0002 00AF     		add	r7, sp, #0
 461              		.cfi_def_cfa_register 7
 792:.\Generated_Source\PSoC4/INTERNAL_STEP_1.c ****         return (CY_GET_REG16(INTERNAL_STEP_1_CAPTURE_LSB_PTR));
 462              		.loc 1 792 0
ARM GAS  C:\Users\TECHCO~1\AppData\Local\Temp\ccDEXhQe.s 			page 23


 463 0004 024B     		ldr	r3, .L36
 464 0006 1B88     		ldrh	r3, [r3]
 465 0008 9BB2     		uxth	r3, r3
 793:.\Generated_Source\PSoC4/INTERNAL_STEP_1.c ****     }
 466              		.loc 1 793 0
 467 000a 181C     		mov	r0, r3
 468 000c BD46     		mov	sp, r7
 469              		@ sp needed
 470 000e 80BD     		pop	{r7, pc}
 471              	.L37:
 472              		.align	2
 473              	.L36:
 474 0010 A0100F40 		.word	1074729120
 475              		.cfi_endproc
 476              	.LFE10:
 477              		.size	INTERNAL_STEP_1_ReadCapture, .-INTERNAL_STEP_1_ReadCapture
 478              		.section	.text.INTERNAL_STEP_1_ReadCompare,"ax",%progbits
 479              		.align	2
 480              		.global	INTERNAL_STEP_1_ReadCompare
 481              		.code	16
 482              		.thumb_func
 483              		.type	INTERNAL_STEP_1_ReadCompare, %function
 484              	INTERNAL_STEP_1_ReadCompare:
 485              	.LFB11:
 794:.\Generated_Source\PSoC4/INTERNAL_STEP_1.c **** 
 795:.\Generated_Source\PSoC4/INTERNAL_STEP_1.c **** #endif /* (!INTERNAL_STEP_1_UsingFixedFunction) */
 796:.\Generated_Source\PSoC4/INTERNAL_STEP_1.c **** 
 797:.\Generated_Source\PSoC4/INTERNAL_STEP_1.c **** 
 798:.\Generated_Source\PSoC4/INTERNAL_STEP_1.c **** #if (INTERNAL_STEP_1_UseOneCompareMode)
 799:.\Generated_Source\PSoC4/INTERNAL_STEP_1.c **** 
 800:.\Generated_Source\PSoC4/INTERNAL_STEP_1.c **** 
 801:.\Generated_Source\PSoC4/INTERNAL_STEP_1.c ****     /*******************************************************************************
 802:.\Generated_Source\PSoC4/INTERNAL_STEP_1.c ****     * Function Name: INTERNAL_STEP_1_ReadCompare
 803:.\Generated_Source\PSoC4/INTERNAL_STEP_1.c ****     ********************************************************************************
 804:.\Generated_Source\PSoC4/INTERNAL_STEP_1.c ****     *
 805:.\Generated_Source\PSoC4/INTERNAL_STEP_1.c ****     * Summary:
 806:.\Generated_Source\PSoC4/INTERNAL_STEP_1.c ****     *  Reads the compare value for the compare output when the PWM Mode parameter is
 807:.\Generated_Source\PSoC4/INTERNAL_STEP_1.c ****     *  set to Dither mode, Center Aligned mode, or One Output mode.
 808:.\Generated_Source\PSoC4/INTERNAL_STEP_1.c ****     *
 809:.\Generated_Source\PSoC4/INTERNAL_STEP_1.c ****     * Parameters:
 810:.\Generated_Source\PSoC4/INTERNAL_STEP_1.c ****     *  None
 811:.\Generated_Source\PSoC4/INTERNAL_STEP_1.c ****     *
 812:.\Generated_Source\PSoC4/INTERNAL_STEP_1.c ****     * Return:
 813:.\Generated_Source\PSoC4/INTERNAL_STEP_1.c ****     *  uint8/uint16: Current compare value
 814:.\Generated_Source\PSoC4/INTERNAL_STEP_1.c ****     *
 815:.\Generated_Source\PSoC4/INTERNAL_STEP_1.c ****     *******************************************************************************/
 816:.\Generated_Source\PSoC4/INTERNAL_STEP_1.c ****     uint16 INTERNAL_STEP_1_ReadCompare(void) 
 817:.\Generated_Source\PSoC4/INTERNAL_STEP_1.c ****     {
 486              		.loc 1 817 0
 487              		.cfi_startproc
 488 0000 80B5     		push	{r7, lr}
 489              		.cfi_def_cfa_offset 8
 490              		.cfi_offset 7, -8
 491              		.cfi_offset 14, -4
 492 0002 00AF     		add	r7, sp, #0
 493              		.cfi_def_cfa_register 7
 818:.\Generated_Source\PSoC4/INTERNAL_STEP_1.c ****         #if(INTERNAL_STEP_1_UsingFixedFunction)
ARM GAS  C:\Users\TECHCO~1\AppData\Local\Temp\ccDEXhQe.s 			page 24


 819:.\Generated_Source\PSoC4/INTERNAL_STEP_1.c ****             return ((uint16)CY_GET_REG16(INTERNAL_STEP_1_COMPARE1_LSB_PTR));
 820:.\Generated_Source\PSoC4/INTERNAL_STEP_1.c ****         #else
 821:.\Generated_Source\PSoC4/INTERNAL_STEP_1.c ****             return (CY_GET_REG16(INTERNAL_STEP_1_COMPARE1_LSB_PTR));
 494              		.loc 1 821 0
 495 0004 024B     		ldr	r3, .L40
 496 0006 1B88     		ldrh	r3, [r3]
 497 0008 9BB2     		uxth	r3, r3
 822:.\Generated_Source\PSoC4/INTERNAL_STEP_1.c ****         #endif /* (INTERNAL_STEP_1_UsingFixedFunction) */
 823:.\Generated_Source\PSoC4/INTERNAL_STEP_1.c ****     }
 498              		.loc 1 823 0
 499 000a 181C     		mov	r0, r3
 500 000c BD46     		mov	sp, r7
 501              		@ sp needed
 502 000e 80BD     		pop	{r7, pc}
 503              	.L41:
 504              		.align	2
 505              	.L40:
 506 0010 40100F40 		.word	1074729024
 507              		.cfi_endproc
 508              	.LFE11:
 509              		.size	INTERNAL_STEP_1_ReadCompare, .-INTERNAL_STEP_1_ReadCompare
 510              		.section	.text.INTERNAL_STEP_1_ReadPeriod,"ax",%progbits
 511              		.align	2
 512              		.global	INTERNAL_STEP_1_ReadPeriod
 513              		.code	16
 514              		.thumb_func
 515              		.type	INTERNAL_STEP_1_ReadPeriod, %function
 516              	INTERNAL_STEP_1_ReadPeriod:
 517              	.LFB12:
 824:.\Generated_Source\PSoC4/INTERNAL_STEP_1.c **** 
 825:.\Generated_Source\PSoC4/INTERNAL_STEP_1.c **** #else
 826:.\Generated_Source\PSoC4/INTERNAL_STEP_1.c **** 
 827:.\Generated_Source\PSoC4/INTERNAL_STEP_1.c **** 
 828:.\Generated_Source\PSoC4/INTERNAL_STEP_1.c ****     /*******************************************************************************
 829:.\Generated_Source\PSoC4/INTERNAL_STEP_1.c ****     * Function Name: INTERNAL_STEP_1_ReadCompare1
 830:.\Generated_Source\PSoC4/INTERNAL_STEP_1.c ****     ********************************************************************************
 831:.\Generated_Source\PSoC4/INTERNAL_STEP_1.c ****     *
 832:.\Generated_Source\PSoC4/INTERNAL_STEP_1.c ****     * Summary:
 833:.\Generated_Source\PSoC4/INTERNAL_STEP_1.c ****     *  Reads the compare value for the compare1 output.
 834:.\Generated_Source\PSoC4/INTERNAL_STEP_1.c ****     *
 835:.\Generated_Source\PSoC4/INTERNAL_STEP_1.c ****     * Parameters:
 836:.\Generated_Source\PSoC4/INTERNAL_STEP_1.c ****     *  None
 837:.\Generated_Source\PSoC4/INTERNAL_STEP_1.c ****     *
 838:.\Generated_Source\PSoC4/INTERNAL_STEP_1.c ****     * Return:
 839:.\Generated_Source\PSoC4/INTERNAL_STEP_1.c ****     *  uint8/uint16: Current compare value.
 840:.\Generated_Source\PSoC4/INTERNAL_STEP_1.c ****     *
 841:.\Generated_Source\PSoC4/INTERNAL_STEP_1.c ****     *******************************************************************************/
 842:.\Generated_Source\PSoC4/INTERNAL_STEP_1.c ****     uint16 INTERNAL_STEP_1_ReadCompare1(void) 
 843:.\Generated_Source\PSoC4/INTERNAL_STEP_1.c ****     {
 844:.\Generated_Source\PSoC4/INTERNAL_STEP_1.c ****         return (CY_GET_REG16(INTERNAL_STEP_1_COMPARE1_LSB_PTR));
 845:.\Generated_Source\PSoC4/INTERNAL_STEP_1.c ****     }
 846:.\Generated_Source\PSoC4/INTERNAL_STEP_1.c **** 
 847:.\Generated_Source\PSoC4/INTERNAL_STEP_1.c **** 
 848:.\Generated_Source\PSoC4/INTERNAL_STEP_1.c ****     /*******************************************************************************
 849:.\Generated_Source\PSoC4/INTERNAL_STEP_1.c ****     * Function Name: INTERNAL_STEP_1_ReadCompare2
 850:.\Generated_Source\PSoC4/INTERNAL_STEP_1.c ****     ********************************************************************************
 851:.\Generated_Source\PSoC4/INTERNAL_STEP_1.c ****     *
ARM GAS  C:\Users\TECHCO~1\AppData\Local\Temp\ccDEXhQe.s 			page 25


 852:.\Generated_Source\PSoC4/INTERNAL_STEP_1.c ****     * Summary:
 853:.\Generated_Source\PSoC4/INTERNAL_STEP_1.c ****     *  Reads the compare value for the compare2 output.
 854:.\Generated_Source\PSoC4/INTERNAL_STEP_1.c ****     *
 855:.\Generated_Source\PSoC4/INTERNAL_STEP_1.c ****     * Parameters:
 856:.\Generated_Source\PSoC4/INTERNAL_STEP_1.c ****     *  None
 857:.\Generated_Source\PSoC4/INTERNAL_STEP_1.c ****     *
 858:.\Generated_Source\PSoC4/INTERNAL_STEP_1.c ****     * Return:
 859:.\Generated_Source\PSoC4/INTERNAL_STEP_1.c ****     *  uint8/uint16: Current compare value.
 860:.\Generated_Source\PSoC4/INTERNAL_STEP_1.c ****     *
 861:.\Generated_Source\PSoC4/INTERNAL_STEP_1.c ****     *******************************************************************************/
 862:.\Generated_Source\PSoC4/INTERNAL_STEP_1.c ****     uint16 INTERNAL_STEP_1_ReadCompare2(void) 
 863:.\Generated_Source\PSoC4/INTERNAL_STEP_1.c ****     {
 864:.\Generated_Source\PSoC4/INTERNAL_STEP_1.c ****         return (CY_GET_REG16(INTERNAL_STEP_1_COMPARE2_LSB_PTR));
 865:.\Generated_Source\PSoC4/INTERNAL_STEP_1.c ****     }
 866:.\Generated_Source\PSoC4/INTERNAL_STEP_1.c **** 
 867:.\Generated_Source\PSoC4/INTERNAL_STEP_1.c **** #endif /* (INTERNAL_STEP_1_UseOneCompareMode) */
 868:.\Generated_Source\PSoC4/INTERNAL_STEP_1.c **** 
 869:.\Generated_Source\PSoC4/INTERNAL_STEP_1.c **** 
 870:.\Generated_Source\PSoC4/INTERNAL_STEP_1.c **** /*******************************************************************************
 871:.\Generated_Source\PSoC4/INTERNAL_STEP_1.c **** * Function Name: INTERNAL_STEP_1_ReadPeriod
 872:.\Generated_Source\PSoC4/INTERNAL_STEP_1.c **** ********************************************************************************
 873:.\Generated_Source\PSoC4/INTERNAL_STEP_1.c **** *
 874:.\Generated_Source\PSoC4/INTERNAL_STEP_1.c **** * Summary:
 875:.\Generated_Source\PSoC4/INTERNAL_STEP_1.c **** *  Reads the period value used by the PWM hardware.
 876:.\Generated_Source\PSoC4/INTERNAL_STEP_1.c **** *
 877:.\Generated_Source\PSoC4/INTERNAL_STEP_1.c **** * Parameters:
 878:.\Generated_Source\PSoC4/INTERNAL_STEP_1.c **** *  None
 879:.\Generated_Source\PSoC4/INTERNAL_STEP_1.c **** *
 880:.\Generated_Source\PSoC4/INTERNAL_STEP_1.c **** * Return:
 881:.\Generated_Source\PSoC4/INTERNAL_STEP_1.c **** *  uint8/16: Period value
 882:.\Generated_Source\PSoC4/INTERNAL_STEP_1.c **** *
 883:.\Generated_Source\PSoC4/INTERNAL_STEP_1.c **** *******************************************************************************/
 884:.\Generated_Source\PSoC4/INTERNAL_STEP_1.c **** uint16 INTERNAL_STEP_1_ReadPeriod(void) 
 885:.\Generated_Source\PSoC4/INTERNAL_STEP_1.c **** {
 518              		.loc 1 885 0
 519              		.cfi_startproc
 520 0000 80B5     		push	{r7, lr}
 521              		.cfi_def_cfa_offset 8
 522              		.cfi_offset 7, -8
 523              		.cfi_offset 14, -4
 524 0002 00AF     		add	r7, sp, #0
 525              		.cfi_def_cfa_register 7
 886:.\Generated_Source\PSoC4/INTERNAL_STEP_1.c ****     #if(INTERNAL_STEP_1_UsingFixedFunction)
 887:.\Generated_Source\PSoC4/INTERNAL_STEP_1.c ****         return ((uint16)CY_GET_REG16(INTERNAL_STEP_1_PERIOD_LSB_PTR));
 888:.\Generated_Source\PSoC4/INTERNAL_STEP_1.c ****     #else
 889:.\Generated_Source\PSoC4/INTERNAL_STEP_1.c ****         return (CY_GET_REG16(INTERNAL_STEP_1_PERIOD_LSB_PTR));
 526              		.loc 1 889 0
 527 0004 024B     		ldr	r3, .L44
 528 0006 1B88     		ldrh	r3, [r3]
 529 0008 9BB2     		uxth	r3, r3
 890:.\Generated_Source\PSoC4/INTERNAL_STEP_1.c ****     #endif /* (INTERNAL_STEP_1_UsingFixedFunction) */
 891:.\Generated_Source\PSoC4/INTERNAL_STEP_1.c **** }
 530              		.loc 1 891 0
 531 000a 181C     		mov	r0, r3
 532 000c BD46     		mov	sp, r7
 533              		@ sp needed
 534 000e 80BD     		pop	{r7, pc}
ARM GAS  C:\Users\TECHCO~1\AppData\Local\Temp\ccDEXhQe.s 			page 26


 535              	.L45:
 536              		.align	2
 537              	.L44:
 538 0010 80100F40 		.word	1074729088
 539              		.cfi_endproc
 540              	.LFE12:
 541              		.size	INTERNAL_STEP_1_ReadPeriod, .-INTERNAL_STEP_1_ReadPeriod
 542              		.text
 543              	.Letext0:
 544              		.file 2 ".\\Generated_Source\\PSoC4\\cytypes.h"