ARM GAS  C:\Users\TECHCO~1\AppData\Local\Temp\ccBlrRwT.s 			page 1


   1              		.cpu cortex-m0
   2              		.fpu softvfp
   3              		.eabi_attribute 20, 1
   4              		.eabi_attribute 21, 1
   5              		.eabi_attribute 23, 3
   6              		.eabi_attribute 24, 1
   7              		.eabi_attribute 25, 1
   8              		.eabi_attribute 26, 1
   9              		.eabi_attribute 30, 6
  10              		.eabi_attribute 34, 0
  11              		.eabi_attribute 18, 4
  12              		.code	16
  13              		.file	"main.c"
  14              		.text
  15              	.Ltext0:
  16              		.cfi_sections	.debug_frame
  17              		.comm	currentStepA,1,1
  18              		.comm	currentStepB,1,1
  19              		.comm	currentStepA1,1,1
  20              		.comm	currentStepB1,1,1
  21              		.comm	divider,1,1
  22              		.comm	divider1,1,1
  23              		.comm	step,1,1
  24              		.comm	step1,1,1
  25              		.comm	previousDivider,1,1
  26              		.comm	previousDivider1,1,1
  27              		.comm	FullScale,1,1
  28              		.comm	FullScale1,1,1
  29              		.comm	phase,1,1
  30              		.comm	phase1,1,1
  31              		.comm	stepPulse,1,1
  32              		.comm	stepPulse1,1,1
  33              		.comm	previousStepPulse,1,1
  34              		.comm	previousStepPulse1,1,1
  35              		.comm	dirReg,1,1
  36              		.comm	dirReg1,1,1
  37              		.comm	pwmA,1,1
  38              		.comm	pwmB,1,1
  39              		.comm	pwmA1,1,1
  40              		.comm	pwmB1,1,1
  41              		.global	sineTable
  42              		.section	.rodata
  43              		.align	2
  44              		.type	sineTable, %object
  45              		.size	sineTable, 17
  46              	sineTable:
  47 0000 64       		.byte	100
  48 0001 73       		.byte	115
  49 0002 82       		.byte	-126
  50 0003 91       		.byte	-111
  51 0004 9F       		.byte	-97
  52 0005 AD       		.byte	-83
  53 0006 BA       		.byte	-70
  54 0007 C6       		.byte	-58
  55 0008 D2       		.byte	-46
  56 0009 DC       		.byte	-36
  57 000a E5       		.byte	-27
ARM GAS  C:\Users\TECHCO~1\AppData\Local\Temp\ccBlrRwT.s 			page 2


  58 000b ED       		.byte	-19
  59 000c F3       		.byte	-13
  60 000d F8       		.byte	-8
  61 000e FC       		.byte	-4
  62 000f FE       		.byte	-2
  63 0010 FF       		.byte	-1
  64 0011 000000   		.section	.text.main,"ax",%progbits
  65              		.align	2
  66              		.global	main
  67              		.code	16
  68              		.thumb_func
  69              		.type	main, %function
  70              	main:
  71              	.LFB34:
  72              		.file 1 ".\\main.c"
   1:.\main.c      **** /* ========================================
   2:.\main.c      ****  *
   3:.\main.c      ****  * The following firmware was developed by Cypress Semiconductor
   4:.\main.c      ****  * This work is licensed under a Creative Commons Attribution 3.0 Unported License.
   5:.\main.c      ****  * 
   6:.\main.c      ****  * http://creativecommons.org/licenses/by/3.0/deed.en_US
   7:.\main.c      ****  * 
   8:.\main.c      ****  * You are free to:
   9:.\main.c      ****  * -To Share — to copy, distribute and transmit the work 
  10:.\main.c      ****  * -To Remix — to adapt the work 
  11:.\main.c      ****  * -To make commercial use of the work
  12:.\main.c      ****  *
  13:.\main.c      **** */
  14:.\main.c      **** #include <device.h>
  15:.\main.c      **** #include <global.h>
  16:.\main.c      **** #include <systemInit.h>
  17:.\main.c      **** #include <inputScan.h>
  18:.\main.c      **** #include <Move.h>
  19:.\main.c      **** #include <INTERNAL_STEP.h>
  20:.\main.c      **** #include <INTERNAL_STEP_1.h>
  21:.\main.c      **** #define PH1 3204 //run
  22:.\main.c      **** #define PH2 4800 //p
  23:.\main.c      **** #define PH3 8000 //run
  24:.\main.c      **** #define PH4 9600 //p
  25:.\main.c      **** #define PH5 16000 //run
  26:.\main.c      **** #define PH6 17600 //p
  27:.\main.c      **** #define PH7 24000 //run
  28:.\main.c      **** #define PH8 27200 //p
  29:.\main.c      **** #define PH9 28800 //run
  30:.\main.c      **** #define PH10 32000 //p
  31:.\main.c      **** #define PH11 33600 //run
  32:.\main.c      **** #define PH12 36800 //p
  33:.\main.c      **** 
  34:.\main.c      **** void main() {
  73              		.loc 1 34 0
  74              		.cfi_startproc
  75 0000 80B5     		push	{r7, lr}
  76              		.cfi_def_cfa_offset 8
  77              		.cfi_offset 7, -8
  78              		.cfi_offset 14, -4
  79 0002 82B0     		sub	sp, sp, #8
  80              		.cfi_def_cfa_offset 16
ARM GAS  C:\Users\TECHCO~1\AppData\Local\Temp\ccBlrRwT.s 			page 3


  81 0004 00AF     		add	r7, sp, #0
  82              		.cfi_def_cfa_register 7
  35:.\main.c      ****     uint16 i[2];
  36:.\main.c      **** 
  37:.\main.c      ****     uint8 l_previousStepPulse;
  38:.\main.c      ****     uint8 l_stepPulse;
  39:.\main.c      ****     uint8 jm;
  40:.\main.c      ****     
  41:.\main.c      ****     i[0] = 0;
  83              		.loc 1 41 0
  84 0006 3B1C     		mov	r3, r7
  85 0008 0022     		mov	r2, #0
  86 000a 1A80     		strh	r2, [r3]
  42:.\main.c      ****     i[1] = 0;
  87              		.loc 1 42 0
  88 000c 3B1C     		mov	r3, r7
  89 000e 0022     		mov	r2, #0
  90 0010 5A80     		strh	r2, [r3, #2]
  43:.\main.c      ****     
  44:.\main.c      ****     systemInit();
  91              		.loc 1 44 0
  92 0012 FFF7FEFF 		bl	systemInit
  93              	.L38:
  45:.\main.c      **** 
  46:.\main.c      ****     while(1) {
  47:.\main.c      ****         // Loop on two motors
  48:.\main.c      ****         for(jm = 1; jm <= 2; jm++) {
  94              		.loc 1 48 0
  95 0016 7B1D     		add	r3, r7, #5
  96 0018 0122     		mov	r2, #1
  97 001a 1A70     		strb	r2, [r3]
  98 001c 5EE2     		b	.L2
  99              	.L37:
  49:.\main.c      ****             // Assign local variables to for the current motor
  50:.\main.c      ****             if(jm == 1) {
 100              		.loc 1 50 0
 101 001e 7B1D     		add	r3, r7, #5
 102 0020 1B78     		ldrb	r3, [r3]
 103 0022 012B     		cmp	r3, #1
 104 0024 08D1     		bne	.L3
  51:.\main.c      ****                 l_previousStepPulse = previousStepPulse;
 105              		.loc 1 51 0
 106 0026 FB1D     		add	r3, r7, #7
 107 0028 C94A     		ldr	r2, .L39
 108 002a 1278     		ldrb	r2, [r2]
 109 002c 1A70     		strb	r2, [r3]
  52:.\main.c      ****                 l_stepPulse = stepPulse;
 110              		.loc 1 52 0
 111 002e BB1D     		add	r3, r7, #6
 112 0030 C84A     		ldr	r2, .L39+4
 113 0032 1278     		ldrb	r2, [r2]
 114 0034 1A70     		strb	r2, [r3]
 115 0036 07E0     		b	.L4
 116              	.L3:
  53:.\main.c      ****             }
  54:.\main.c      ****             else {
  55:.\main.c      ****                 l_previousStepPulse = previousStepPulse1;
ARM GAS  C:\Users\TECHCO~1\AppData\Local\Temp\ccBlrRwT.s 			page 4


 117              		.loc 1 55 0
 118 0038 FB1D     		add	r3, r7, #7
 119 003a C74A     		ldr	r2, .L39+8
 120 003c 1278     		ldrb	r2, [r2]
 121 003e 1A70     		strb	r2, [r3]
  56:.\main.c      ****                 l_stepPulse = stepPulse1;
 122              		.loc 1 56 0
 123 0040 BB1D     		add	r3, r7, #6
 124 0042 C64A     		ldr	r2, .L39+12
 125 0044 1278     		ldrb	r2, [r2]
 126 0046 1A70     		strb	r2, [r3]
 127              	.L4:
  57:.\main.c      ****             }
  58:.\main.c      **** 
  59:.\main.c      ****             // Process stepping
  60:.\main.c      ****             inputScan(jm);
 128              		.loc 1 60 0
 129 0048 7B1D     		add	r3, r7, #5
 130 004a 1B78     		ldrb	r3, [r3]
 131 004c 181C     		mov	r0, r3
 132 004e FFF7FEFF 		bl	inputScan
  61:.\main.c      ****             
  62:.\main.c      ****             if (l_previousStepPulse == 0 && l_stepPulse == 1){
 133              		.loc 1 62 0
 134 0052 FB1D     		add	r3, r7, #7
 135 0054 1B78     		ldrb	r3, [r3]
 136 0056 002B     		cmp	r3, #0
 137 0058 00D0     		beq	.LCB61
 138 005a 3AE2     		b	.L5	@long jump
 139              	.LCB61:
 140              		.loc 1 62 0 is_stmt 0 discriminator 1
 141 005c BB1D     		add	r3, r7, #6
 142 005e 1B78     		ldrb	r3, [r3]
 143 0060 012B     		cmp	r3, #1
 144 0062 00D0     		beq	.LCB65
 145 0064 35E2     		b	.L5	@long jump
 146              	.LCB65:
  63:.\main.c      ****       			if (i[jm - 1] < PH1){
 147              		.loc 1 63 0 is_stmt 1
 148 0066 7B1D     		add	r3, r7, #5
 149 0068 1B78     		ldrb	r3, [r3]
 150 006a 5A1E     		sub	r2, r3, #1
 151 006c 3B1C     		mov	r3, r7
 152 006e 5200     		lsl	r2, r2, #1
 153 0070 D35A     		ldrh	r3, [r2, r3]
 154 0072 BB4A     		ldr	r2, .L39+16
 155 0074 9342     		cmp	r3, r2
 156 0076 1BD8     		bhi	.L6
  64:.\main.c      ****                     if(jm == 1) dirReg = 0; else dirReg1 = 0;
 157              		.loc 1 64 0
 158 0078 7B1D     		add	r3, r7, #5
 159 007a 1B78     		ldrb	r3, [r3]
 160 007c 012B     		cmp	r3, #1
 161 007e 03D1     		bne	.L7
 162              		.loc 1 64 0 is_stmt 0 discriminator 1
 163 0080 B84B     		ldr	r3, .L39+20
 164 0082 0022     		mov	r2, #0
ARM GAS  C:\Users\TECHCO~1\AppData\Local\Temp\ccBlrRwT.s 			page 5


 165 0084 1A70     		strb	r2, [r3]
 166 0086 02E0     		b	.L8
 167              	.L7:
 168              		.loc 1 64 0 discriminator 2
 169 0088 B74B     		ldr	r3, .L39+24
 170 008a 0022     		mov	r2, #0
 171 008c 1A70     		strb	r2, [r3]
 172              	.L8:
  65:.\main.c      ****               		Move(jm);
 173              		.loc 1 65 0 is_stmt 1
 174 008e 7B1D     		add	r3, r7, #5
 175 0090 1B78     		ldrb	r3, [r3]
 176 0092 181C     		mov	r0, r3
 177 0094 FFF7FEFF 		bl	Move
  66:.\main.c      ****               		i[jm - 1]++;
 178              		.loc 1 66 0
 179 0098 7B1D     		add	r3, r7, #5
 180 009a 1B78     		ldrb	r3, [r3]
 181 009c 013B     		sub	r3, r3, #1
 182 009e 3A1C     		mov	r2, r7
 183 00a0 5900     		lsl	r1, r3, #1
 184 00a2 8A5A     		ldrh	r2, [r1, r2]
 185 00a4 0132     		add	r2, r2, #1
 186 00a6 91B2     		uxth	r1, r2
 187 00a8 3A1C     		mov	r2, r7
 188 00aa 5B00     		lsl	r3, r3, #1
 189 00ac 9952     		strh	r1, [r3, r2]
 190 00ae 10E2     		b	.L5
 191              	.L6:
  67:.\main.c      ****       			} // i < PH1
  68:.\main.c      ****       			else if (PH1 <= i[jm - 1] && i[jm - 1] < PH2){
 192              		.loc 1 68 0
 193 00b0 7B1D     		add	r3, r7, #5
 194 00b2 1B78     		ldrb	r3, [r3]
 195 00b4 5A1E     		sub	r2, r3, #1
 196 00b6 3B1C     		mov	r3, r7
 197 00b8 5200     		lsl	r2, r2, #1
 198 00ba D35A     		ldrh	r3, [r2, r3]
 199 00bc A84A     		ldr	r2, .L39+16
 200 00be 9342     		cmp	r3, r2
 201 00c0 14D9     		bls	.L10
 202              		.loc 1 68 0 is_stmt 0 discriminator 1
 203 00c2 7B1D     		add	r3, r7, #5
 204 00c4 1B78     		ldrb	r3, [r3]
 205 00c6 5A1E     		sub	r2, r3, #1
 206 00c8 3B1C     		mov	r3, r7
 207 00ca 5200     		lsl	r2, r2, #1
 208 00cc D35A     		ldrh	r3, [r2, r3]
 209 00ce A74A     		ldr	r2, .L39+28
 210 00d0 9342     		cmp	r3, r2
 211 00d2 0BD8     		bhi	.L10
  69:.\main.c      ****        				i[jm - 1]++;
 212              		.loc 1 69 0 is_stmt 1
 213 00d4 7B1D     		add	r3, r7, #5
 214 00d6 1B78     		ldrb	r3, [r3]
 215 00d8 013B     		sub	r3, r3, #1
 216 00da 3A1C     		mov	r2, r7
ARM GAS  C:\Users\TECHCO~1\AppData\Local\Temp\ccBlrRwT.s 			page 6


 217 00dc 5900     		lsl	r1, r3, #1
 218 00de 8A5A     		ldrh	r2, [r1, r2]
 219 00e0 0132     		add	r2, r2, #1
 220 00e2 91B2     		uxth	r1, r2
 221 00e4 3A1C     		mov	r2, r7
 222 00e6 5B00     		lsl	r3, r3, #1
 223 00e8 9952     		strh	r1, [r3, r2]
 224 00ea F2E1     		b	.L9
 225              	.L10:
  70:.\main.c      ****       			} // PH1 <= i < PH2
  71:.\main.c      ****       			else if (PH2 <= i[jm - 1] && i[jm - 1] < PH3){
 226              		.loc 1 71 0
 227 00ec 7B1D     		add	r3, r7, #5
 228 00ee 1B78     		ldrb	r3, [r3]
 229 00f0 5A1E     		sub	r2, r3, #1
 230 00f2 3B1C     		mov	r3, r7
 231 00f4 5200     		lsl	r2, r2, #1
 232 00f6 D35A     		ldrh	r3, [r2, r3]
 233 00f8 9C4A     		ldr	r2, .L39+28
 234 00fa 9342     		cmp	r3, r2
 235 00fc 24D9     		bls	.L11
 236              		.loc 1 71 0 is_stmt 0 discriminator 1
 237 00fe 7B1D     		add	r3, r7, #5
 238 0100 1B78     		ldrb	r3, [r3]
 239 0102 5A1E     		sub	r2, r3, #1
 240 0104 3B1C     		mov	r3, r7
 241 0106 5200     		lsl	r2, r2, #1
 242 0108 D35A     		ldrh	r3, [r2, r3]
 243 010a 994A     		ldr	r2, .L39+32
 244 010c 9342     		cmp	r3, r2
 245 010e 1BD8     		bhi	.L11
  72:.\main.c      ****                     if(jm == 1) dirReg = 1; else dirReg1 = 1;
 246              		.loc 1 72 0 is_stmt 1
 247 0110 7B1D     		add	r3, r7, #5
 248 0112 1B78     		ldrb	r3, [r3]
 249 0114 012B     		cmp	r3, #1
 250 0116 03D1     		bne	.L12
 251              		.loc 1 72 0 is_stmt 0 discriminator 1
 252 0118 924B     		ldr	r3, .L39+20
 253 011a 0122     		mov	r2, #1
 254 011c 1A70     		strb	r2, [r3]
 255 011e 02E0     		b	.L13
 256              	.L12:
 257              		.loc 1 72 0 discriminator 2
 258 0120 914B     		ldr	r3, .L39+24
 259 0122 0122     		mov	r2, #1
 260 0124 1A70     		strb	r2, [r3]
 261              	.L13:
  73:.\main.c      ****        				Move(jm);
 262              		.loc 1 73 0 is_stmt 1
 263 0126 7B1D     		add	r3, r7, #5
 264 0128 1B78     		ldrb	r3, [r3]
 265 012a 181C     		mov	r0, r3
 266 012c FFF7FEFF 		bl	Move
  74:.\main.c      ****        				i[jm - 1]++;
 267              		.loc 1 74 0
 268 0130 7B1D     		add	r3, r7, #5
ARM GAS  C:\Users\TECHCO~1\AppData\Local\Temp\ccBlrRwT.s 			page 7


 269 0132 1B78     		ldrb	r3, [r3]
 270 0134 013B     		sub	r3, r3, #1
 271 0136 3A1C     		mov	r2, r7
 272 0138 5900     		lsl	r1, r3, #1
 273 013a 8A5A     		ldrh	r2, [r1, r2]
 274 013c 0132     		add	r2, r2, #1
 275 013e 91B2     		uxth	r1, r2
 276 0140 3A1C     		mov	r2, r7
 277 0142 5B00     		lsl	r3, r3, #1
 278 0144 9952     		strh	r1, [r3, r2]
 279 0146 C4E1     		b	.L9
 280              	.L11:
  75:.\main.c      ****       			} // PH2 <= i < PH3
  76:.\main.c      ****     			else if (PH3 <= i[jm - 1] && i[jm - 1]< PH4){
 281              		.loc 1 76 0
 282 0148 7B1D     		add	r3, r7, #5
 283 014a 1B78     		ldrb	r3, [r3]
 284 014c 5A1E     		sub	r2, r3, #1
 285 014e 3B1C     		mov	r3, r7
 286 0150 5200     		lsl	r2, r2, #1
 287 0152 D35A     		ldrh	r3, [r2, r3]
 288 0154 864A     		ldr	r2, .L39+32
 289 0156 9342     		cmp	r3, r2
 290 0158 14D9     		bls	.L14
 291              		.loc 1 76 0 is_stmt 0 discriminator 1
 292 015a 7B1D     		add	r3, r7, #5
 293 015c 1B78     		ldrb	r3, [r3]
 294 015e 5A1E     		sub	r2, r3, #1
 295 0160 3B1C     		mov	r3, r7
 296 0162 5200     		lsl	r2, r2, #1
 297 0164 D35A     		ldrh	r3, [r2, r3]
 298 0166 834A     		ldr	r2, .L39+36
 299 0168 9342     		cmp	r3, r2
 300 016a 0BD8     		bhi	.L14
  77:.\main.c      ****     				i[jm - 1]++;
 301              		.loc 1 77 0 is_stmt 1
 302 016c 7B1D     		add	r3, r7, #5
 303 016e 1B78     		ldrb	r3, [r3]
 304 0170 013B     		sub	r3, r3, #1
 305 0172 3A1C     		mov	r2, r7
 306 0174 5900     		lsl	r1, r3, #1
 307 0176 8A5A     		ldrh	r2, [r1, r2]
 308 0178 0132     		add	r2, r2, #1
 309 017a 91B2     		uxth	r1, r2
 310 017c 3A1C     		mov	r2, r7
 311 017e 5B00     		lsl	r3, r3, #1
 312 0180 9952     		strh	r1, [r3, r2]
 313 0182 A6E1     		b	.L9
 314              	.L14:
  78:.\main.c      ****     			} // PH3 <= i < PH4
  79:.\main.c      ****       			else if (PH4 <= i[jm - 1] && i[jm - 1] < PH5){
 315              		.loc 1 79 0
 316 0184 7B1D     		add	r3, r7, #5
 317 0186 1B78     		ldrb	r3, [r3]
 318 0188 5A1E     		sub	r2, r3, #1
 319 018a 3B1C     		mov	r3, r7
 320 018c 5200     		lsl	r2, r2, #1
ARM GAS  C:\Users\TECHCO~1\AppData\Local\Temp\ccBlrRwT.s 			page 8


 321 018e D35A     		ldrh	r3, [r2, r3]
 322 0190 784A     		ldr	r2, .L39+36
 323 0192 9342     		cmp	r3, r2
 324 0194 47D9     		bls	.L15
 325              		.loc 1 79 0 is_stmt 0 discriminator 1
 326 0196 7B1D     		add	r3, r7, #5
 327 0198 1B78     		ldrb	r3, [r3]
 328 019a 5A1E     		sub	r2, r3, #1
 329 019c 3B1C     		mov	r3, r7
 330 019e 5200     		lsl	r2, r2, #1
 331 01a0 D35A     		ldrh	r3, [r2, r3]
 332 01a2 754A     		ldr	r2, .L39+40
 333 01a4 9342     		cmp	r3, r2
 334 01a6 3ED8     		bhi	.L15
  80:.\main.c      ****     				if (i[jm - 1] == PH4){
 335              		.loc 1 80 0 is_stmt 1
 336 01a8 7B1D     		add	r3, r7, #5
 337 01aa 1B78     		ldrb	r3, [r3]
 338 01ac 5A1E     		sub	r2, r3, #1
 339 01ae 3B1C     		mov	r3, r7
 340 01b0 5200     		lsl	r2, r2, #1
 341 01b2 D25A     		ldrh	r2, [r2, r3]
 342 01b4 9623     		mov	r3, #150
 343 01b6 9B01     		lsl	r3, r3, #6
 344 01b8 9A42     		cmp	r2, r3
 345 01ba 18D1     		bne	.L16
  81:.\main.c      ****                         if(jm == 1) {                        
 346              		.loc 1 81 0
 347 01bc 7B1D     		add	r3, r7, #5
 348 01be 1B78     		ldrb	r3, [r3]
 349 01c0 012B     		cmp	r3, #1
 350 01c2 0AD1     		bne	.L17
  82:.\main.c      ****             				INTERNAL_STEP_WritePeriod(2000);
 351              		.loc 1 82 0
 352 01c4 FA23     		mov	r3, #250
 353 01c6 DB00     		lsl	r3, r3, #3
 354 01c8 181C     		mov	r0, r3
 355 01ca FFF7FEFF 		bl	INTERNAL_STEP_WritePeriod
  83:.\main.c      ****             				INTERNAL_STEP_WriteCompare(1000);
 356              		.loc 1 83 0
 357 01ce FA23     		mov	r3, #250
 358 01d0 9B00     		lsl	r3, r3, #2
 359 01d2 181C     		mov	r0, r3
 360 01d4 FFF7FEFF 		bl	INTERNAL_STEP_WriteCompare
 361 01d8 09E0     		b	.L16
 362              	.L17:
  84:.\main.c      ****                         } // motor 1
  85:.\main.c      ****                         else {
  86:.\main.c      ****             				INTERNAL_STEP_1_WritePeriod(2000);
 363              		.loc 1 86 0
 364 01da FA23     		mov	r3, #250
 365 01dc DB00     		lsl	r3, r3, #3
 366 01de 181C     		mov	r0, r3
 367 01e0 FFF7FEFF 		bl	INTERNAL_STEP_1_WritePeriod
  87:.\main.c      ****             				INTERNAL_STEP_1_WriteCompare(1000);
 368              		.loc 1 87 0
 369 01e4 FA23     		mov	r3, #250
ARM GAS  C:\Users\TECHCO~1\AppData\Local\Temp\ccBlrRwT.s 			page 9


 370 01e6 9B00     		lsl	r3, r3, #2
 371 01e8 181C     		mov	r0, r3
 372 01ea FFF7FEFF 		bl	INTERNAL_STEP_1_WriteCompare
 373              	.L16:
  88:.\main.c      ****                         } // motor 2
  89:.\main.c      ****                     } // PH4
  90:.\main.c      ****                     if(jm == 1) dirReg = 0; else dirReg1 = 0;
 374              		.loc 1 90 0
 375 01ee 7B1D     		add	r3, r7, #5
 376 01f0 1B78     		ldrb	r3, [r3]
 377 01f2 012B     		cmp	r3, #1
 378 01f4 03D1     		bne	.L18
 379              		.loc 1 90 0 is_stmt 0 discriminator 1
 380 01f6 5B4B     		ldr	r3, .L39+20
 381 01f8 0022     		mov	r2, #0
 382 01fa 1A70     		strb	r2, [r3]
 383 01fc 02E0     		b	.L19
 384              	.L18:
 385              		.loc 1 90 0 discriminator 2
 386 01fe 5A4B     		ldr	r3, .L39+24
 387 0200 0022     		mov	r2, #0
 388 0202 1A70     		strb	r2, [r3]
 389              	.L19:
  91:.\main.c      ****        				Move(jm);
 390              		.loc 1 91 0 is_stmt 1
 391 0204 7B1D     		add	r3, r7, #5
 392 0206 1B78     		ldrb	r3, [r3]
 393 0208 181C     		mov	r0, r3
 394 020a FFF7FEFF 		bl	Move
  92:.\main.c      ****        				i[jm - 1]++;
 395              		.loc 1 92 0
 396 020e 7B1D     		add	r3, r7, #5
 397 0210 1B78     		ldrb	r3, [r3]
 398 0212 013B     		sub	r3, r3, #1
 399 0214 3A1C     		mov	r2, r7
 400 0216 5900     		lsl	r1, r3, #1
 401 0218 8A5A     		ldrh	r2, [r1, r2]
 402 021a 0132     		add	r2, r2, #1
 403 021c 91B2     		uxth	r1, r2
 404 021e 3A1C     		mov	r2, r7
 405 0220 5B00     		lsl	r3, r3, #1
 406 0222 9952     		strh	r1, [r3, r2]
 407 0224 55E1     		b	.L9
 408              	.L15:
  93:.\main.c      ****       			} // PH4 <= i < PH5
  94:.\main.c      ****       			else if (PH5 <= i[jm - 1] && i[jm - 1] < PH6){
 409              		.loc 1 94 0
 410 0226 7B1D     		add	r3, r7, #5
 411 0228 1B78     		ldrb	r3, [r3]
 412 022a 5A1E     		sub	r2, r3, #1
 413 022c 3B1C     		mov	r3, r7
 414 022e 5200     		lsl	r2, r2, #1
 415 0230 D35A     		ldrh	r3, [r2, r3]
 416 0232 514A     		ldr	r2, .L39+40
 417 0234 9342     		cmp	r3, r2
 418 0236 14D9     		bls	.L20
 419              		.loc 1 94 0 is_stmt 0 discriminator 1
ARM GAS  C:\Users\TECHCO~1\AppData\Local\Temp\ccBlrRwT.s 			page 10


 420 0238 7B1D     		add	r3, r7, #5
 421 023a 1B78     		ldrb	r3, [r3]
 422 023c 5A1E     		sub	r2, r3, #1
 423 023e 3B1C     		mov	r3, r7
 424 0240 5200     		lsl	r2, r2, #1
 425 0242 D35A     		ldrh	r3, [r2, r3]
 426 0244 4D4A     		ldr	r2, .L39+44
 427 0246 9342     		cmp	r3, r2
 428 0248 0BD8     		bhi	.L20
  95:.\main.c      ****        				i[jm - 1]++;
 429              		.loc 1 95 0 is_stmt 1
 430 024a 7B1D     		add	r3, r7, #5
 431 024c 1B78     		ldrb	r3, [r3]
 432 024e 013B     		sub	r3, r3, #1
 433 0250 3A1C     		mov	r2, r7
 434 0252 5900     		lsl	r1, r3, #1
 435 0254 8A5A     		ldrh	r2, [r1, r2]
 436 0256 0132     		add	r2, r2, #1
 437 0258 91B2     		uxth	r1, r2
 438 025a 3A1C     		mov	r2, r7
 439 025c 5B00     		lsl	r3, r3, #1
 440 025e 9952     		strh	r1, [r3, r2]
 441 0260 37E1     		b	.L9
 442              	.L20:
  96:.\main.c      ****       			} // PH5 <= i < PH6
  97:.\main.c      ****       			else if (PH6 <= i[jm - 1] && i[jm - 1] < PH7){
 443              		.loc 1 97 0
 444 0262 7B1D     		add	r3, r7, #5
 445 0264 1B78     		ldrb	r3, [r3]
 446 0266 5A1E     		sub	r2, r3, #1
 447 0268 3B1C     		mov	r3, r7
 448 026a 5200     		lsl	r2, r2, #1
 449 026c D35A     		ldrh	r3, [r2, r3]
 450 026e 434A     		ldr	r2, .L39+44
 451 0270 9342     		cmp	r3, r2
 452 0272 24D9     		bls	.L21
 453              		.loc 1 97 0 is_stmt 0 discriminator 1
 454 0274 7B1D     		add	r3, r7, #5
 455 0276 1B78     		ldrb	r3, [r3]
 456 0278 5A1E     		sub	r2, r3, #1
 457 027a 3B1C     		mov	r3, r7
 458 027c 5200     		lsl	r2, r2, #1
 459 027e D35A     		ldrh	r3, [r2, r3]
 460 0280 3F4A     		ldr	r2, .L39+48
 461 0282 9342     		cmp	r3, r2
 462 0284 1BD8     		bhi	.L21
  98:.\main.c      ****                     if(jm == 1) dirReg = 1; else dirReg1 = 1;
 463              		.loc 1 98 0 is_stmt 1
 464 0286 7B1D     		add	r3, r7, #5
 465 0288 1B78     		ldrb	r3, [r3]
 466 028a 012B     		cmp	r3, #1
 467 028c 03D1     		bne	.L22
 468              		.loc 1 98 0 is_stmt 0 discriminator 1
 469 028e 354B     		ldr	r3, .L39+20
 470 0290 0122     		mov	r2, #1
 471 0292 1A70     		strb	r2, [r3]
 472 0294 02E0     		b	.L23
ARM GAS  C:\Users\TECHCO~1\AppData\Local\Temp\ccBlrRwT.s 			page 11


 473              	.L22:
 474              		.loc 1 98 0 discriminator 2
 475 0296 344B     		ldr	r3, .L39+24
 476 0298 0122     		mov	r2, #1
 477 029a 1A70     		strb	r2, [r3]
 478              	.L23:
  99:.\main.c      ****        				Move(jm);		
 479              		.loc 1 99 0 is_stmt 1
 480 029c 7B1D     		add	r3, r7, #5
 481 029e 1B78     		ldrb	r3, [r3]
 482 02a0 181C     		mov	r0, r3
 483 02a2 FFF7FEFF 		bl	Move
 100:.\main.c      ****        				i[jm - 1]++;
 484              		.loc 1 100 0
 485 02a6 7B1D     		add	r3, r7, #5
 486 02a8 1B78     		ldrb	r3, [r3]
 487 02aa 013B     		sub	r3, r3, #1
 488 02ac 3A1C     		mov	r2, r7
 489 02ae 5900     		lsl	r1, r3, #1
 490 02b0 8A5A     		ldrh	r2, [r1, r2]
 491 02b2 0132     		add	r2, r2, #1
 492 02b4 91B2     		uxth	r1, r2
 493 02b6 3A1C     		mov	r2, r7
 494 02b8 5B00     		lsl	r3, r3, #1
 495 02ba 9952     		strh	r1, [r3, r2]
 496 02bc 09E1     		b	.L9
 497              	.L21:
 101:.\main.c      ****       			} // PH6 <= i < PH7
 102:.\main.c      ****       			else if (PH7 <= i[jm - 1] && i[jm - 1] < PH8){
 498              		.loc 1 102 0
 499 02be 7B1D     		add	r3, r7, #5
 500 02c0 1B78     		ldrb	r3, [r3]
 501 02c2 5A1E     		sub	r2, r3, #1
 502 02c4 3B1C     		mov	r3, r7
 503 02c6 5200     		lsl	r2, r2, #1
 504 02c8 D35A     		ldrh	r3, [r2, r3]
 505 02ca 2D4A     		ldr	r2, .L39+48
 506 02cc 9342     		cmp	r3, r2
 507 02ce 14D9     		bls	.L24
 508              		.loc 1 102 0 is_stmt 0 discriminator 1
 509 02d0 7B1D     		add	r3, r7, #5
 510 02d2 1B78     		ldrb	r3, [r3]
 511 02d4 5A1E     		sub	r2, r3, #1
 512 02d6 3B1C     		mov	r3, r7
 513 02d8 5200     		lsl	r2, r2, #1
 514 02da D35A     		ldrh	r3, [r2, r3]
 515 02dc 294A     		ldr	r2, .L39+52
 516 02de 9342     		cmp	r3, r2
 517 02e0 0BD8     		bhi	.L24
 103:.\main.c      ****        				i[jm - 1]++;
 518              		.loc 1 103 0 is_stmt 1
 519 02e2 7B1D     		add	r3, r7, #5
 520 02e4 1B78     		ldrb	r3, [r3]
 521 02e6 013B     		sub	r3, r3, #1
 522 02e8 3A1C     		mov	r2, r7
 523 02ea 5900     		lsl	r1, r3, #1
 524 02ec 8A5A     		ldrh	r2, [r1, r2]
ARM GAS  C:\Users\TECHCO~1\AppData\Local\Temp\ccBlrRwT.s 			page 12


 525 02ee 0132     		add	r2, r2, #1
 526 02f0 91B2     		uxth	r1, r2
 527 02f2 3A1C     		mov	r2, r7
 528 02f4 5B00     		lsl	r3, r3, #1
 529 02f6 9952     		strh	r1, [r3, r2]
 530 02f8 EBE0     		b	.L9
 531              	.L24:
 104:.\main.c      ****       			} // PH7 <= i < PH8
 105:.\main.c      ****       			else if (PH8 <= i[jm - 1] && i[jm - 1] < PH9){
 532              		.loc 1 105 0
 533 02fa 7B1D     		add	r3, r7, #5
 534 02fc 1B78     		ldrb	r3, [r3]
 535 02fe 5A1E     		sub	r2, r3, #1
 536 0300 3B1C     		mov	r3, r7
 537 0302 5200     		lsl	r2, r2, #1
 538 0304 D35A     		ldrh	r3, [r2, r3]
 539 0306 1F4A     		ldr	r2, .L39+52
 540 0308 9342     		cmp	r3, r2
 541 030a 67D9     		bls	.L25
 542              		.loc 1 105 0 is_stmt 0 discriminator 1
 543 030c 7B1D     		add	r3, r7, #5
 544 030e 1B78     		ldrb	r3, [r3]
 545 0310 5A1E     		sub	r2, r3, #1
 546 0312 3B1C     		mov	r3, r7
 547 0314 5200     		lsl	r2, r2, #1
 548 0316 D35A     		ldrh	r3, [r2, r3]
 549 0318 1B4A     		ldr	r2, .L39+56
 550 031a 9342     		cmp	r3, r2
 551 031c 5ED8     		bhi	.L25
 106:.\main.c      ****     				if (i[jm - 1] == PH8){
 552              		.loc 1 106 0 is_stmt 1
 553 031e 7B1D     		add	r3, r7, #5
 554 0320 1B78     		ldrb	r3, [r3]
 555 0322 5A1E     		sub	r2, r3, #1
 556 0324 3B1C     		mov	r3, r7
 557 0326 5200     		lsl	r2, r2, #1
 558 0328 D35A     		ldrh	r3, [r2, r3]
 559 032a 184A     		ldr	r2, .L39+60
 560 032c 9342     		cmp	r3, r2
 561 032e 39D1     		bne	.L26
 107:.\main.c      ****                         if(jm == 1) {                        
 562              		.loc 1 107 0
 563 0330 7B1D     		add	r3, r7, #5
 564 0332 1B78     		ldrb	r3, [r3]
 565 0334 012B     		cmp	r3, #1
 566 0336 2BD1     		bne	.L27
 108:.\main.c      ****             				INTERNAL_STEP_WritePeriod(4000);
 567              		.loc 1 108 0
 568 0338 FA23     		mov	r3, #250
 569 033a 1B01     		lsl	r3, r3, #4
 570 033c 181C     		mov	r0, r3
 571 033e FFF7FEFF 		bl	INTERNAL_STEP_WritePeriod
 109:.\main.c      ****             				INTERNAL_STEP_WriteCompare(2000);
 572              		.loc 1 109 0
 573 0342 FA23     		mov	r3, #250
 574 0344 DB00     		lsl	r3, r3, #3
 575 0346 181C     		mov	r0, r3
ARM GAS  C:\Users\TECHCO~1\AppData\Local\Temp\ccBlrRwT.s 			page 13


 576 0348 FFF7FEFF 		bl	INTERNAL_STEP_WriteCompare
 577 034c 2AE0     		b	.L26
 578              	.L40:
 579 034e C046     		.align	2
 580              	.L39:
 581 0350 00000000 		.word	previousStepPulse
 582 0354 00000000 		.word	stepPulse
 583 0358 00000000 		.word	previousStepPulse1
 584 035c 00000000 		.word	stepPulse1
 585 0360 830C0000 		.word	3203
 586 0364 00000000 		.word	dirReg
 587 0368 00000000 		.word	dirReg1
 588 036c BF120000 		.word	4799
 589 0370 3F1F0000 		.word	7999
 590 0374 7F250000 		.word	9599
 591 0378 7F3E0000 		.word	15999
 592 037c BF440000 		.word	17599
 593 0380 BF5D0000 		.word	23999
 594 0384 3F6A0000 		.word	27199
 595 0388 7F700000 		.word	28799
 596 038c 406A0000 		.word	27200
 597              	.L27:
 110:.\main.c      ****                         } // motor 1
 111:.\main.c      ****                         else {
 112:.\main.c      ****             				INTERNAL_STEP_1_WritePeriod(4000);
 598              		.loc 1 112 0
 599 0390 FA23     		mov	r3, #250
 600 0392 1B01     		lsl	r3, r3, #4
 601 0394 181C     		mov	r0, r3
 602 0396 FFF7FEFF 		bl	INTERNAL_STEP_1_WritePeriod
 113:.\main.c      ****             				INTERNAL_STEP_1_WriteCompare(2000);
 603              		.loc 1 113 0
 604 039a FA23     		mov	r3, #250
 605 039c DB00     		lsl	r3, r3, #3
 606 039e 181C     		mov	r0, r3
 607 03a0 FFF7FEFF 		bl	INTERNAL_STEP_1_WriteCompare
 608              	.L26:
 114:.\main.c      ****                         } // motor 2 
 115:.\main.c      ****                     } // PH8
 116:.\main.c      ****                     if(jm == 1) dirReg = 0; else dirReg1 = 0;
 609              		.loc 1 116 0
 610 03a4 7B1D     		add	r3, r7, #5
 611 03a6 1B78     		ldrb	r3, [r3]
 612 03a8 012B     		cmp	r3, #1
 613 03aa 03D1     		bne	.L28
 614              		.loc 1 116 0 is_stmt 0 discriminator 1
 615 03ac 4E4B     		ldr	r3, .L41
 616 03ae 0022     		mov	r2, #0
 617 03b0 1A70     		strb	r2, [r3]
 618 03b2 02E0     		b	.L29
 619              	.L28:
 620              		.loc 1 116 0 discriminator 2
 621 03b4 4D4B     		ldr	r3, .L41+4
 622 03b6 0022     		mov	r2, #0
 623 03b8 1A70     		strb	r2, [r3]
 624              	.L29:
 117:.\main.c      ****        				Move(jm);
ARM GAS  C:\Users\TECHCO~1\AppData\Local\Temp\ccBlrRwT.s 			page 14


 625              		.loc 1 117 0 is_stmt 1
 626 03ba 7B1D     		add	r3, r7, #5
 627 03bc 1B78     		ldrb	r3, [r3]
 628 03be 181C     		mov	r0, r3
 629 03c0 FFF7FEFF 		bl	Move
 118:.\main.c      ****        				i[jm - 1]++;
 630              		.loc 1 118 0
 631 03c4 7B1D     		add	r3, r7, #5
 632 03c6 1B78     		ldrb	r3, [r3]
 633 03c8 013B     		sub	r3, r3, #1
 634 03ca 3A1C     		mov	r2, r7
 635 03cc 5900     		lsl	r1, r3, #1
 636 03ce 8A5A     		ldrh	r2, [r1, r2]
 637 03d0 0132     		add	r2, r2, #1
 638 03d2 91B2     		uxth	r1, r2
 639 03d4 3A1C     		mov	r2, r7
 640 03d6 5B00     		lsl	r3, r3, #1
 641 03d8 9952     		strh	r1, [r3, r2]
 642 03da 7AE0     		b	.L9
 643              	.L25:
 119:.\main.c      ****       			} // PH8 <= i < PH9
 120:.\main.c      ****       			else if (PH9 <= i[jm - 1] && i[jm - 1] < PH10){
 644              		.loc 1 120 0
 645 03dc 7B1D     		add	r3, r7, #5
 646 03de 1B78     		ldrb	r3, [r3]
 647 03e0 5A1E     		sub	r2, r3, #1
 648 03e2 3B1C     		mov	r3, r7
 649 03e4 5200     		lsl	r2, r2, #1
 650 03e6 D35A     		ldrh	r3, [r2, r3]
 651 03e8 414A     		ldr	r2, .L41+8
 652 03ea 9342     		cmp	r3, r2
 653 03ec 14D9     		bls	.L30
 654              		.loc 1 120 0 is_stmt 0 discriminator 1
 655 03ee 7B1D     		add	r3, r7, #5
 656 03f0 1B78     		ldrb	r3, [r3]
 657 03f2 5A1E     		sub	r2, r3, #1
 658 03f4 3B1C     		mov	r3, r7
 659 03f6 5200     		lsl	r2, r2, #1
 660 03f8 D35A     		ldrh	r3, [r2, r3]
 661 03fa 3E4A     		ldr	r2, .L41+12
 662 03fc 9342     		cmp	r3, r2
 663 03fe 0BD8     		bhi	.L30
 121:.\main.c      ****        				i[jm - 1]++;
 664              		.loc 1 121 0 is_stmt 1
 665 0400 7B1D     		add	r3, r7, #5
 666 0402 1B78     		ldrb	r3, [r3]
 667 0404 013B     		sub	r3, r3, #1
 668 0406 3A1C     		mov	r2, r7
 669 0408 5900     		lsl	r1, r3, #1
 670 040a 8A5A     		ldrh	r2, [r1, r2]
 671 040c 0132     		add	r2, r2, #1
 672 040e 91B2     		uxth	r1, r2
 673 0410 3A1C     		mov	r2, r7
 674 0412 5B00     		lsl	r3, r3, #1
 675 0414 9952     		strh	r1, [r3, r2]
 676 0416 5CE0     		b	.L9
 677              	.L30:
ARM GAS  C:\Users\TECHCO~1\AppData\Local\Temp\ccBlrRwT.s 			page 15


 122:.\main.c      ****       			} // PH9 <= i < PH10
 123:.\main.c      ****       			else if (PH10 <= i[jm - 1] && i[jm - 1] < PH11){
 678              		.loc 1 123 0
 679 0418 7B1D     		add	r3, r7, #5
 680 041a 1B78     		ldrb	r3, [r3]
 681 041c 5A1E     		sub	r2, r3, #1
 682 041e 3B1C     		mov	r3, r7
 683 0420 5200     		lsl	r2, r2, #1
 684 0422 D35A     		ldrh	r3, [r2, r3]
 685 0424 334A     		ldr	r2, .L41+12
 686 0426 9342     		cmp	r3, r2
 687 0428 24D9     		bls	.L31
 688              		.loc 1 123 0 is_stmt 0 discriminator 1
 689 042a 7B1D     		add	r3, r7, #5
 690 042c 1B78     		ldrb	r3, [r3]
 691 042e 5A1E     		sub	r2, r3, #1
 692 0430 3B1C     		mov	r3, r7
 693 0432 5200     		lsl	r2, r2, #1
 694 0434 D35A     		ldrh	r3, [r2, r3]
 695 0436 304A     		ldr	r2, .L41+16
 696 0438 9342     		cmp	r3, r2
 697 043a 1BD8     		bhi	.L31
 124:.\main.c      ****                     if(jm == 1) dirReg = 1; else dirReg1 = 1;
 698              		.loc 1 124 0 is_stmt 1
 699 043c 7B1D     		add	r3, r7, #5
 700 043e 1B78     		ldrb	r3, [r3]
 701 0440 012B     		cmp	r3, #1
 702 0442 03D1     		bne	.L32
 703              		.loc 1 124 0 is_stmt 0 discriminator 1
 704 0444 284B     		ldr	r3, .L41
 705 0446 0122     		mov	r2, #1
 706 0448 1A70     		strb	r2, [r3]
 707 044a 02E0     		b	.L33
 708              	.L32:
 709              		.loc 1 124 0 discriminator 2
 710 044c 274B     		ldr	r3, .L41+4
 711 044e 0122     		mov	r2, #1
 712 0450 1A70     		strb	r2, [r3]
 713              	.L33:
 125:.\main.c      ****     				Move(jm);
 714              		.loc 1 125 0 is_stmt 1
 715 0452 7B1D     		add	r3, r7, #5
 716 0454 1B78     		ldrb	r3, [r3]
 717 0456 181C     		mov	r0, r3
 718 0458 FFF7FEFF 		bl	Move
 126:.\main.c      ****     				i[jm - 1]++;
 719              		.loc 1 126 0
 720 045c 7B1D     		add	r3, r7, #5
 721 045e 1B78     		ldrb	r3, [r3]
 722 0460 013B     		sub	r3, r3, #1
 723 0462 3A1C     		mov	r2, r7
 724 0464 5900     		lsl	r1, r3, #1
 725 0466 8A5A     		ldrh	r2, [r1, r2]
 726 0468 0132     		add	r2, r2, #1
 727 046a 91B2     		uxth	r1, r2
 728 046c 3A1C     		mov	r2, r7
 729 046e 5B00     		lsl	r3, r3, #1
ARM GAS  C:\Users\TECHCO~1\AppData\Local\Temp\ccBlrRwT.s 			page 16


 730 0470 9952     		strh	r1, [r3, r2]
 731 0472 2EE0     		b	.L9
 732              	.L31:
 127:.\main.c      ****       			} // PH10 <= i < PH11
 128:.\main.c      ****       			else if (PH11 <= i[jm - 1] && i[jm - 1] < PH12){
 733              		.loc 1 128 0
 734 0474 7B1D     		add	r3, r7, #5
 735 0476 1B78     		ldrb	r3, [r3]
 736 0478 5A1E     		sub	r2, r3, #1
 737 047a 3B1C     		mov	r3, r7
 738 047c 5200     		lsl	r2, r2, #1
 739 047e D35A     		ldrh	r3, [r2, r3]
 740 0480 1D4A     		ldr	r2, .L41+16
 741 0482 9342     		cmp	r3, r2
 742 0484 14D9     		bls	.L34
 743              		.loc 1 128 0 is_stmt 0 discriminator 1
 744 0486 7B1D     		add	r3, r7, #5
 745 0488 1B78     		ldrb	r3, [r3]
 746 048a 5A1E     		sub	r2, r3, #1
 747 048c 3B1C     		mov	r3, r7
 748 048e 5200     		lsl	r2, r2, #1
 749 0490 D35A     		ldrh	r3, [r2, r3]
 750 0492 1A4A     		ldr	r2, .L41+20
 751 0494 9342     		cmp	r3, r2
 752 0496 0BD8     		bhi	.L34
 129:.\main.c      ****        				i[jm - 1]++;
 753              		.loc 1 129 0 is_stmt 1
 754 0498 7B1D     		add	r3, r7, #5
 755 049a 1B78     		ldrb	r3, [r3]
 756 049c 013B     		sub	r3, r3, #1
 757 049e 3A1C     		mov	r2, r7
 758 04a0 5900     		lsl	r1, r3, #1
 759 04a2 8A5A     		ldrh	r2, [r1, r2]
 760 04a4 0132     		add	r2, r2, #1
 761 04a6 91B2     		uxth	r1, r2
 762 04a8 3A1C     		mov	r2, r7
 763 04aa 5B00     		lsl	r3, r3, #1
 764 04ac 9952     		strh	r1, [r3, r2]
 765 04ae 10E0     		b	.L9
 766              	.L34:
 130:.\main.c      ****       			} // PH11 <= i < PH12
 131:.\main.c      ****       			else {
 132:.\main.c      ****                     if(jm == 1) dirReg = 1; else dirReg1 = 1;
 767              		.loc 1 132 0
 768 04b0 7B1D     		add	r3, r7, #5
 769 04b2 1B78     		ldrb	r3, [r3]
 770 04b4 012B     		cmp	r3, #1
 771 04b6 03D1     		bne	.L35
 772              		.loc 1 132 0 is_stmt 0 discriminator 1
 773 04b8 0B4B     		ldr	r3, .L41
 774 04ba 0122     		mov	r2, #1
 775 04bc 1A70     		strb	r2, [r3]
 776 04be 02E0     		b	.L36
 777              	.L35:
 778              		.loc 1 132 0 discriminator 2
 779 04c0 0A4B     		ldr	r3, .L41+4
 780 04c2 0122     		mov	r2, #1
ARM GAS  C:\Users\TECHCO~1\AppData\Local\Temp\ccBlrRwT.s 			page 17


 781 04c4 1A70     		strb	r2, [r3]
 782              	.L36:
 133:.\main.c      ****        				Move(jm);
 783              		.loc 1 133 0 is_stmt 1
 784 04c6 7B1D     		add	r3, r7, #5
 785 04c8 1B78     		ldrb	r3, [r3]
 786 04ca 181C     		mov	r0, r3
 787 04cc FFF7FEFF 		bl	Move
 788 04d0 FFE7     		b	.L5
 789              	.L9:
 790              	.L5:
  48:.\main.c      ****             // Assign local variables to for the current motor
 791              		.loc 1 48 0 discriminator 2
 792 04d2 7B1D     		add	r3, r7, #5
 793 04d4 1A78     		ldrb	r2, [r3]
 794 04d6 7B1D     		add	r3, r7, #5
 795 04d8 0132     		add	r2, r2, #1
 796 04da 1A70     		strb	r2, [r3]
 797              	.L2:
  48:.\main.c      ****             // Assign local variables to for the current motor
 798              		.loc 1 48 0 is_stmt 0 discriminator 1
 799 04dc 7B1D     		add	r3, r7, #5
 800 04de 1B78     		ldrb	r3, [r3]
 801 04e0 022B     		cmp	r3, #2
 802 04e2 00D8     		bhi	.LCB701
 803 04e4 9BE5     		b	.L37	@long jump
 804              	.LCB701:
 134:.\main.c      **** //                    i[jm - 1] = 0;
 135:.\main.c      ****       			} // None of the previous cases
 136:.\main.c      ****     		} // l_previousStepPulse == 0 && l_stepPulse == 1
 137:.\main.c      ****     		else{
 138:.\main.c      ****     		}
 139:.\main.c      ****     	} // Loop on two motors
 140:.\main.c      ****     } // Forever loop
 805              		.loc 1 140 0 is_stmt 1
 806 04e6 96E5     		b	.L38
 807              	.L42:
 808              		.align	2
 809              	.L41:
 810 04e8 00000000 		.word	dirReg
 811 04ec 00000000 		.word	dirReg1
 812 04f0 7F700000 		.word	28799
 813 04f4 FF7C0000 		.word	31999
 814 04f8 3F830000 		.word	33599
 815 04fc BF8F0000 		.word	36799
 816              		.cfi_endproc
 817              	.LFE34:
 818              		.size	main, .-main
 819              		.text
 820              	.Letext0:
 821              		.file 2 "Generated_Source\\PSoC4/cytypes.h"
 822              		.file 3 "./Move.h"
 823              		.file 4 "./inputScan.h"
 824              		.file 5 "./systemInit.h"
 825              		.file 6 "./global.h"